; Listing generated by Microsoft (R) Optimizing Compiler Version 19.16.27026.1 

include listing.inc

INCLUDELIB OLDNAMES

PUBLIC	PMC_DivRem_X_X
PUBLIC	PMC_DivRem_X_UX
PUBLIC	PMC_DivRem_X_L
PUBLIC	PMC_DivRem_X_I
PUBLIC	PMC_DivRem_UX_X
PUBLIC	PMC_DivRem_L_X
PUBLIC	PMC_DivRem_I_X
;	COMDAT pdata
pdata	SEGMENT
$pdata$PMC_DivRem_X_X DD imagerel $LN47@PMC_DivRem
	DD	imagerel $LN47@PMC_DivRem+111
	DD	imagerel $unwind$PMC_DivRem_X_X
pdata	ENDS
;	COMDAT pdata
pdata	SEGMENT
$pdata$2$PMC_DivRem_X_X DD imagerel $LN47@PMC_DivRem+111
	DD	imagerel $LN47@PMC_DivRem+373
	DD	imagerel $chain$2$PMC_DivRem_X_X
pdata	ENDS
;	COMDAT pdata
pdata	SEGMENT
$pdata$4$PMC_DivRem_X_X DD imagerel $LN47@PMC_DivRem+373
	DD	imagerel $LN47@PMC_DivRem+485
	DD	imagerel $chain$4$PMC_DivRem_X_X
pdata	ENDS
;	COMDAT pdata
pdata	SEGMENT
$pdata$5$PMC_DivRem_X_X DD imagerel $LN47@PMC_DivRem+485
	DD	imagerel $LN47@PMC_DivRem+511
	DD	imagerel $chain$5$PMC_DivRem_X_X
pdata	ENDS
;	COMDAT pdata
pdata	SEGMENT
$pdata$PMC_DivRem_X_UX DD imagerel $LN39@PMC_DivRem
	DD	imagerel $LN39@PMC_DivRem+85
	DD	imagerel $unwind$PMC_DivRem_X_UX
pdata	ENDS
;	COMDAT pdata
pdata	SEGMENT
$pdata$2$PMC_DivRem_X_UX DD imagerel $LN39@PMC_DivRem+85
	DD	imagerel $LN39@PMC_DivRem+327
	DD	imagerel $chain$2$PMC_DivRem_X_UX
pdata	ENDS
;	COMDAT pdata
pdata	SEGMENT
$pdata$4$PMC_DivRem_X_UX DD imagerel $LN39@PMC_DivRem+327
	DD	imagerel $LN39@PMC_DivRem+432
	DD	imagerel $chain$4$PMC_DivRem_X_UX
pdata	ENDS
;	COMDAT pdata
pdata	SEGMENT
$pdata$5$PMC_DivRem_X_UX DD imagerel $LN39@PMC_DivRem+432
	DD	imagerel $LN39@PMC_DivRem+458
	DD	imagerel $chain$5$PMC_DivRem_X_UX
pdata	ENDS
;	COMDAT pdata
pdata	SEGMENT
$pdata$PMC_DivRem_X_L DD imagerel $LN44@PMC_DivRem
	DD	imagerel $LN44@PMC_DivRem+103
	DD	imagerel $unwind$PMC_DivRem_X_L
pdata	ENDS
;	COMDAT pdata
pdata	SEGMENT
$pdata$1$PMC_DivRem_X_L DD imagerel $LN44@PMC_DivRem+103
	DD	imagerel $LN44@PMC_DivRem+258
	DD	imagerel $chain$1$PMC_DivRem_X_L
pdata	ENDS
;	COMDAT pdata
pdata	SEGMENT
$pdata$3$PMC_DivRem_X_L DD imagerel $LN44@PMC_DivRem+258
	DD	imagerel $LN44@PMC_DivRem+326
	DD	imagerel $chain$3$PMC_DivRem_X_L
pdata	ENDS
;	COMDAT pdata
pdata	SEGMENT
$pdata$4$PMC_DivRem_X_L DD imagerel $LN44@PMC_DivRem+326
	DD	imagerel $LN44@PMC_DivRem+377
	DD	imagerel $chain$4$PMC_DivRem_X_L
pdata	ENDS
;	COMDAT pdata
pdata	SEGMENT
$pdata$PMC_DivRem_X_I DD imagerel $LN44@PMC_DivRem
	DD	imagerel $LN44@PMC_DivRem+91
	DD	imagerel $unwind$PMC_DivRem_X_I
pdata	ENDS
;	COMDAT pdata
pdata	SEGMENT
$pdata$1$PMC_DivRem_X_I DD imagerel $LN44@PMC_DivRem+91
	DD	imagerel $LN44@PMC_DivRem+246
	DD	imagerel $chain$1$PMC_DivRem_X_I
pdata	ENDS
;	COMDAT pdata
pdata	SEGMENT
$pdata$3$PMC_DivRem_X_I DD imagerel $LN44@PMC_DivRem+246
	DD	imagerel $LN44@PMC_DivRem+307
	DD	imagerel $chain$3$PMC_DivRem_X_I
pdata	ENDS
;	COMDAT pdata
pdata	SEGMENT
$pdata$4$PMC_DivRem_X_I DD imagerel $LN44@PMC_DivRem+307
	DD	imagerel $LN44@PMC_DivRem+358
	DD	imagerel $chain$4$PMC_DivRem_X_I
pdata	ENDS
;	COMDAT pdata
pdata	SEGMENT
$pdata$PMC_DivRem_UX_X DD imagerel $LN29@PMC_DivRem
	DD	imagerel $LN29@PMC_DivRem+69
	DD	imagerel $unwind$PMC_DivRem_UX_X
pdata	ENDS
;	COMDAT pdata
pdata	SEGMENT
$pdata$0$PMC_DivRem_UX_X DD imagerel $LN29@PMC_DivRem+69
	DD	imagerel $LN29@PMC_DivRem+104
	DD	imagerel $chain$0$PMC_DivRem_UX_X
pdata	ENDS
;	COMDAT pdata
pdata	SEGMENT
$pdata$2$PMC_DivRem_UX_X DD imagerel $LN29@PMC_DivRem+104
	DD	imagerel $LN29@PMC_DivRem+236
	DD	imagerel $chain$2$PMC_DivRem_UX_X
pdata	ENDS
;	COMDAT pdata
pdata	SEGMENT
$pdata$4$PMC_DivRem_UX_X DD imagerel $LN29@PMC_DivRem+236
	DD	imagerel $LN29@PMC_DivRem+267
	DD	imagerel $chain$4$PMC_DivRem_UX_X
pdata	ENDS
;	COMDAT pdata
pdata	SEGMENT
$pdata$6$PMC_DivRem_UX_X DD imagerel $LN29@PMC_DivRem+267
	DD	imagerel $LN29@PMC_DivRem+302
	DD	imagerel $chain$6$PMC_DivRem_UX_X
pdata	ENDS
;	COMDAT pdata
pdata	SEGMENT
$pdata$7$PMC_DivRem_UX_X DD imagerel $LN29@PMC_DivRem+302
	DD	imagerel $LN29@PMC_DivRem+334
	DD	imagerel $chain$7$PMC_DivRem_UX_X
pdata	ENDS
;	COMDAT pdata
pdata	SEGMENT
$pdata$PMC_DivRem_L_X DD imagerel $LN46@PMC_DivRem
	DD	imagerel $LN46@PMC_DivRem+58
	DD	imagerel $unwind$PMC_DivRem_L_X
pdata	ENDS
;	COMDAT pdata
pdata	SEGMENT
$pdata$2$PMC_DivRem_L_X DD imagerel $LN46@PMC_DivRem+58
	DD	imagerel $LN46@PMC_DivRem+158
	DD	imagerel $chain$2$PMC_DivRem_L_X
pdata	ENDS
;	COMDAT pdata
pdata	SEGMENT
$pdata$4$PMC_DivRem_L_X DD imagerel $LN46@PMC_DivRem+158
	DD	imagerel $LN46@PMC_DivRem+403
	DD	imagerel $chain$4$PMC_DivRem_L_X
pdata	ENDS
;	COMDAT pdata
pdata	SEGMENT
$pdata$5$PMC_DivRem_L_X DD imagerel $LN46@PMC_DivRem+403
	DD	imagerel $LN46@PMC_DivRem+429
	DD	imagerel $chain$5$PMC_DivRem_L_X
pdata	ENDS
;	COMDAT pdata
pdata	SEGMENT
$pdata$PMC_DivRem_I_X DD imagerel $LN46@PMC_DivRem
	DD	imagerel $LN46@PMC_DivRem+58
	DD	imagerel $unwind$PMC_DivRem_I_X
pdata	ENDS
;	COMDAT pdata
pdata	SEGMENT
$pdata$2$PMC_DivRem_I_X DD imagerel $LN46@PMC_DivRem+58
	DD	imagerel $LN46@PMC_DivRem+145
	DD	imagerel $chain$2$PMC_DivRem_I_X
pdata	ENDS
;	COMDAT pdata
pdata	SEGMENT
$pdata$4$PMC_DivRem_I_X DD imagerel $LN46@PMC_DivRem+145
	DD	imagerel $LN46@PMC_DivRem+389
	DD	imagerel $chain$4$PMC_DivRem_I_X
pdata	ENDS
;	COMDAT pdata
pdata	SEGMENT
$pdata$5$PMC_DivRem_I_X DD imagerel $LN46@PMC_DivRem+389
	DD	imagerel $LN46@PMC_DivRem+415
	DD	imagerel $chain$5$PMC_DivRem_I_X
;	COMDAT xdata
xdata	SEGMENT
$chain$5$PMC_DivRem_I_X DD 021H
	DD	imagerel $LN46@PMC_DivRem
	DD	imagerel $LN46@PMC_DivRem+58
	DD	imagerel $unwind$PMC_DivRem_I_X
xdata	ENDS
;	COMDAT xdata
xdata	SEGMENT
$chain$4$PMC_DivRem_I_X DD 060021H
	DD	087400H
	DD	0e5400H
	DD	0c3400H
	DD	imagerel $LN46@PMC_DivRem
	DD	imagerel $LN46@PMC_DivRem+58
	DD	imagerel $unwind$PMC_DivRem_I_X
xdata	ENDS
;	COMDAT xdata
xdata	SEGMENT
$chain$2$PMC_DivRem_I_X DD 061121H
	DD	087411H
	DD	0e540cH
	DD	0c3405H
	DD	imagerel $LN46@PMC_DivRem
	DD	imagerel $LN46@PMC_DivRem+58
	DD	imagerel $unwind$PMC_DivRem_I_X
xdata	ENDS
;	COMDAT xdata
xdata	SEGMENT
$unwind$PMC_DivRem_I_X DD 030801H
	DD	0e0048208H
	DD	06002H
xdata	ENDS
;	COMDAT xdata
xdata	SEGMENT
$chain$5$PMC_DivRem_L_X DD 021H
	DD	imagerel $LN46@PMC_DivRem
	DD	imagerel $LN46@PMC_DivRem+58
	DD	imagerel $unwind$PMC_DivRem_L_X
xdata	ENDS
;	COMDAT xdata
xdata	SEGMENT
$chain$4$PMC_DivRem_L_X DD 060021H
	DD	087400H
	DD	0e5400H
	DD	0c3400H
	DD	imagerel $LN46@PMC_DivRem
	DD	imagerel $LN46@PMC_DivRem+58
	DD	imagerel $unwind$PMC_DivRem_L_X
xdata	ENDS
;	COMDAT xdata
xdata	SEGMENT
$chain$2$PMC_DivRem_L_X DD 061121H
	DD	087411H
	DD	0e540cH
	DD	0c3405H
	DD	imagerel $LN46@PMC_DivRem
	DD	imagerel $LN46@PMC_DivRem+58
	DD	imagerel $unwind$PMC_DivRem_L_X
xdata	ENDS
;	COMDAT xdata
xdata	SEGMENT
$unwind$PMC_DivRem_L_X DD 030801H
	DD	0e0048208H
	DD	06002H
xdata	ENDS
;	COMDAT xdata
xdata	SEGMENT
$chain$7$PMC_DivRem_UX_X DD 021H
	DD	imagerel $LN29@PMC_DivRem
	DD	imagerel $LN29@PMC_DivRem+69
	DD	imagerel $unwind$PMC_DivRem_UX_X
xdata	ENDS
;	COMDAT xdata
xdata	SEGMENT
$chain$6$PMC_DivRem_UX_X DD 020021H
	DD	096400H
	DD	imagerel $LN29@PMC_DivRem
	DD	imagerel $LN29@PMC_DivRem+69
	DD	imagerel $unwind$PMC_DivRem_UX_X
xdata	ENDS
;	COMDAT xdata
xdata	SEGMENT
$chain$4$PMC_DivRem_UX_X DD 020021H
	DD	096400H
	DD	imagerel $LN29@PMC_DivRem
	DD	imagerel $LN29@PMC_DivRem+69
	DD	imagerel $unwind$PMC_DivRem_UX_X
xdata	ENDS
;	COMDAT xdata
xdata	SEGMENT
$chain$2$PMC_DivRem_UX_X DD 020021H
	DD	096400H
	DD	imagerel $LN29@PMC_DivRem
	DD	imagerel $LN29@PMC_DivRem+69
	DD	imagerel $unwind$PMC_DivRem_UX_X
xdata	ENDS
;	COMDAT xdata
xdata	SEGMENT
$chain$0$PMC_DivRem_UX_X DD 020521H
	DD	096405H
	DD	imagerel $LN29@PMC_DivRem
	DD	imagerel $LN29@PMC_DivRem+69
	DD	imagerel $unwind$PMC_DivRem_UX_X
xdata	ENDS
;	COMDAT xdata
xdata	SEGMENT
$unwind$PMC_DivRem_UX_X DD 040a01H
	DD	0a340aH
	DD	07006520aH
xdata	ENDS
;	COMDAT xdata
xdata	SEGMENT
$chain$4$PMC_DivRem_X_I DD 021H
	DD	imagerel $LN44@PMC_DivRem
	DD	imagerel $LN44@PMC_DivRem+91
	DD	imagerel $unwind$PMC_DivRem_X_I
xdata	ENDS
;	COMDAT xdata
xdata	SEGMENT
$chain$3$PMC_DivRem_X_I DD 040021H
	DD	0a6400H
	DD	093400H
	DD	imagerel $LN44@PMC_DivRem
	DD	imagerel $LN44@PMC_DivRem+91
	DD	imagerel $unwind$PMC_DivRem_X_I
xdata	ENDS
;	COMDAT xdata
xdata	SEGMENT
$chain$1$PMC_DivRem_X_I DD 040e21H
	DD	0a640eH
	DD	093405H
	DD	imagerel $LN44@PMC_DivRem
	DD	imagerel $LN44@PMC_DivRem+91
	DD	imagerel $unwind$PMC_DivRem_X_I
xdata	ENDS
;	COMDAT xdata
xdata	SEGMENT
$unwind$PMC_DivRem_X_I DD 040b01H
	DD	0b740bH
	DD	0e007520bH
xdata	ENDS
;	COMDAT xdata
xdata	SEGMENT
$chain$4$PMC_DivRem_X_L DD 021H
	DD	imagerel $LN44@PMC_DivRem
	DD	imagerel $LN44@PMC_DivRem+103
	DD	imagerel $unwind$PMC_DivRem_X_L
xdata	ENDS
;	COMDAT xdata
xdata	SEGMENT
$chain$3$PMC_DivRem_X_L DD 040021H
	DD	0a6400H
	DD	093400H
	DD	imagerel $LN44@PMC_DivRem
	DD	imagerel $LN44@PMC_DivRem+103
	DD	imagerel $unwind$PMC_DivRem_X_L
xdata	ENDS
;	COMDAT xdata
xdata	SEGMENT
$chain$1$PMC_DivRem_X_L DD 040e21H
	DD	0a640eH
	DD	093405H
	DD	imagerel $LN44@PMC_DivRem
	DD	imagerel $LN44@PMC_DivRem+103
	DD	imagerel $unwind$PMC_DivRem_X_L
xdata	ENDS
;	COMDAT xdata
xdata	SEGMENT
$unwind$PMC_DivRem_X_L DD 040b01H
	DD	0b740bH
	DD	0e007520bH
xdata	ENDS
;	COMDAT xdata
xdata	SEGMENT
$chain$5$PMC_DivRem_X_UX DD 021H
	DD	imagerel $LN39@PMC_DivRem
	DD	imagerel $LN39@PMC_DivRem+85
	DD	imagerel $unwind$PMC_DivRem_X_UX
xdata	ENDS
;	COMDAT xdata
xdata	SEGMENT
$chain$4$PMC_DivRem_X_UX DD 060021H
	DD	086400H
	DD	0e5400H
	DD	0d3400H
	DD	imagerel $LN39@PMC_DivRem
	DD	imagerel $LN39@PMC_DivRem+85
	DD	imagerel $unwind$PMC_DivRem_X_UX
xdata	ENDS
;	COMDAT xdata
xdata	SEGMENT
$chain$2$PMC_DivRem_X_UX DD 060f21H
	DD	08640fH
	DD	0e540aH
	DD	0d3405H
	DD	imagerel $LN39@PMC_DivRem
	DD	imagerel $LN39@PMC_DivRem+85
	DD	imagerel $unwind$PMC_DivRem_X_UX
xdata	ENDS
;	COMDAT xdata
xdata	SEGMENT
$unwind$PMC_DivRem_X_UX DD 030801H
	DD	0e0048208H
	DD	07002H
xdata	ENDS
;	COMDAT xdata
xdata	SEGMENT
$chain$5$PMC_DivRem_X_X DD 021H
	DD	imagerel $LN47@PMC_DivRem
	DD	imagerel $LN47@PMC_DivRem+111
	DD	imagerel $unwind$PMC_DivRem_X_X
xdata	ENDS
;	COMDAT xdata
xdata	SEGMENT
$chain$4$PMC_DivRem_X_X DD 060021H
	DD	086400H
	DD	0e5400H
	DD	0d3400H
	DD	imagerel $LN47@PMC_DivRem
	DD	imagerel $LN47@PMC_DivRem+111
	DD	imagerel $unwind$PMC_DivRem_X_X
xdata	ENDS
;	COMDAT xdata
xdata	SEGMENT
$chain$2$PMC_DivRem_X_X DD 060f21H
	DD	08640fH
	DD	0e540aH
	DD	0d3405H
	DD	imagerel $LN47@PMC_DivRem
	DD	imagerel $LN47@PMC_DivRem+111
	DD	imagerel $unwind$PMC_DivRem_X_X
xdata	ENDS
;	COMDAT xdata
xdata	SEGMENT
$unwind$PMC_DivRem_X_X DD 030801H
	DD	0e0048208H
	DD	07002H
END
