; Listing generated by Microsoft (R) Optimizing Compiler Version 19.16.27026.1 

include listing.inc

INCLUDELIB OLDNAMES

PUBLIC	PMC_Subtruct_X_X
PUBLIC	PMC_Subtruct_X_UX
PUBLIC	PMC_Subtruct_X_L
PUBLIC	PMC_Subtruct_X_I
PUBLIC	PMC_Subtruct_UX_X
PUBLIC	PMC_Subtruct_L_X
PUBLIC	PMC_Subtruct_I_X
PUBLIC	PMC_Add_X_X
PUBLIC	PMC_Add_X_UX
PUBLIC	PMC_Add_X_L
PUBLIC	PMC_Add_X_I
PUBLIC	PMC_Add_UX_X
PUBLIC	PMC_Add_L_X
PUBLIC	PMC_Add_I_X
;	COMDAT pdata
pdata	SEGMENT
$pdata$PMC_Subtruct_X_X DD imagerel $LN44@PMC_Subtru
	DD	imagerel $LN44@PMC_Subtru+297
	DD	imagerel $unwind$PMC_Subtruct_X_X
pdata	ENDS
;	COMDAT pdata
pdata	SEGMENT
$pdata$PMC_Subtruct_X_UX DD imagerel $LN42@PMC_Subtru
	DD	imagerel $LN42@PMC_Subtru+482
	DD	imagerel $unwind$PMC_Subtruct_X_UX
pdata	ENDS
;	COMDAT pdata
pdata	SEGMENT
$pdata$PMC_Subtruct_X_L DD imagerel $LN46@PMC_Subtru
	DD	imagerel $LN46@PMC_Subtru+298
	DD	imagerel $unwind$PMC_Subtruct_X_L
pdata	ENDS
;	COMDAT pdata
pdata	SEGMENT
$pdata$PMC_Subtruct_X_I DD imagerel $LN46@PMC_Subtru
	DD	imagerel $LN46@PMC_Subtru+286
	DD	imagerel $unwind$PMC_Subtruct_X_I
pdata	ENDS
;	COMDAT pdata
pdata	SEGMENT
$pdata$PMC_Subtruct_UX_X DD imagerel $LN37@PMC_Subtru
	DD	imagerel $LN37@PMC_Subtru+465
	DD	imagerel $unwind$PMC_Subtruct_UX_X
pdata	ENDS
;	COMDAT pdata
pdata	SEGMENT
$pdata$PMC_Subtruct_L_X DD imagerel $LN46@PMC_Subtru
	DD	imagerel $LN46@PMC_Subtru+328
	DD	imagerel $unwind$PMC_Subtruct_L_X
pdata	ENDS
;	COMDAT pdata
pdata	SEGMENT
$pdata$PMC_Subtruct_I_X DD imagerel $LN46@PMC_Subtru
	DD	imagerel $LN46@PMC_Subtru+315
	DD	imagerel $unwind$PMC_Subtruct_I_X
pdata	ENDS
;	COMDAT pdata
pdata	SEGMENT
$pdata$PMC_Add_X_X DD imagerel $LN44@PMC_Add_X_
	DD	imagerel $LN44@PMC_Add_X_+297
	DD	imagerel $unwind$PMC_Add_X_X
pdata	ENDS
;	COMDAT pdata
pdata	SEGMENT
$pdata$PMC_Add_X_UX DD imagerel $LN43@PMC_Add_X_
	DD	imagerel $LN43@PMC_Add_X_+506
	DD	imagerel $unwind$PMC_Add_X_UX
pdata	ENDS
;	COMDAT pdata
pdata	SEGMENT
$pdata$PMC_Add_X_L DD imagerel $LN46@PMC_Add_X_
	DD	imagerel $LN46@PMC_Add_X_+296
	DD	imagerel $unwind$PMC_Add_X_L
pdata	ENDS
;	COMDAT pdata
pdata	SEGMENT
$pdata$PMC_Add_X_I DD imagerel $LN46@PMC_Add_X_
	DD	imagerel $LN46@PMC_Add_X_+284
	DD	imagerel $unwind$PMC_Add_X_I
pdata	ENDS
;	COMDAT pdata
pdata	SEGMENT
$pdata$PMC_Add_UX_X DD imagerel $LN36@PMC_Add_UX
	DD	imagerel $LN36@PMC_Add_UX+456
	DD	imagerel $unwind$PMC_Add_UX_X
pdata	ENDS
;	COMDAT pdata
pdata	SEGMENT
$pdata$PMC_Add_L_X DD imagerel $LN46@PMC_Add_L_
	DD	imagerel $LN46@PMC_Add_L_+328
	DD	imagerel $unwind$PMC_Add_L_X
pdata	ENDS
;	COMDAT pdata
pdata	SEGMENT
$pdata$PMC_Add_I_X DD imagerel $LN46@PMC_Add_I_
	DD	imagerel $LN46@PMC_Add_I_+315
	DD	imagerel $unwind$PMC_Add_I_X
pdata	ENDS
;	COMDAT pdata
pdata	SEGMENT
$pdata$SubtructU_X_X_Imp DD imagerel SubtructU_X_X_Imp
	DD	imagerel SubtructU_X_X_Imp+277
	DD	imagerel $unwind$SubtructU_X_X_Imp
pdata	ENDS
;	COMDAT pdata
pdata	SEGMENT
$pdata$SubtructU_X_L_Imp DD imagerel SubtructU_X_L_Imp
	DD	imagerel SubtructU_X_L_Imp+303
	DD	imagerel $unwind$SubtructU_X_L_Imp
pdata	ENDS
;	COMDAT pdata
pdata	SEGMENT
$pdata$SubtructU_X_I_Imp DD imagerel SubtructU_X_I_Imp
	DD	imagerel SubtructU_X_I_Imp+299
	DD	imagerel $unwind$SubtructU_X_I_Imp
pdata	ENDS
;	COMDAT pdata
pdata	SEGMENT
$pdata$AddU_X_X_Imp DD imagerel AddU_X_X_Imp
	DD	imagerel AddU_X_X_Imp+53
	DD	imagerel $unwind$AddU_X_X_Imp
pdata	ENDS
;	COMDAT pdata
pdata	SEGMENT
$pdata$1$AddU_X_X_Imp DD imagerel AddU_X_X_Imp+53
	DD	imagerel AddU_X_X_Imp+159
	DD	imagerel $chain$1$AddU_X_X_Imp
pdata	ENDS
;	COMDAT pdata
pdata	SEGMENT
$pdata$2$AddU_X_X_Imp DD imagerel AddU_X_X_Imp+159
	DD	imagerel AddU_X_X_Imp+170
	DD	imagerel $chain$2$AddU_X_X_Imp
pdata	ENDS
;	COMDAT pdata
pdata	SEGMENT
$pdata$AddU_X_L_Imp DD imagerel AddU_X_L_Imp
	DD	imagerel AddU_X_L_Imp+53
	DD	imagerel $unwind$AddU_X_L_Imp
pdata	ENDS
;	COMDAT pdata
pdata	SEGMENT
$pdata$1$AddU_X_L_Imp DD imagerel AddU_X_L_Imp+53
	DD	imagerel AddU_X_L_Imp+159
	DD	imagerel $chain$1$AddU_X_L_Imp
pdata	ENDS
;	COMDAT pdata
pdata	SEGMENT
$pdata$2$AddU_X_L_Imp DD imagerel AddU_X_L_Imp+159
	DD	imagerel AddU_X_L_Imp+170
	DD	imagerel $chain$2$AddU_X_L_Imp
pdata	ENDS
;	COMDAT pdata
pdata	SEGMENT
$pdata$AddU_X_I_Imp DD imagerel AddU_X_I_Imp
	DD	imagerel AddU_X_I_Imp+52
	DD	imagerel $unwind$AddU_X_I_Imp
pdata	ENDS
;	COMDAT pdata
pdata	SEGMENT
$pdata$1$AddU_X_I_Imp DD imagerel AddU_X_I_Imp+52
	DD	imagerel AddU_X_I_Imp+158
	DD	imagerel $chain$1$AddU_X_I_Imp
pdata	ENDS
;	COMDAT pdata
pdata	SEGMENT
$pdata$2$AddU_X_I_Imp DD imagerel AddU_X_I_Imp+158
	DD	imagerel AddU_X_I_Imp+169
	DD	imagerel $chain$2$AddU_X_I_Imp
;	COMDAT xdata
xdata	SEGMENT
$chain$2$AddU_X_I_Imp DD 021H
	DD	imagerel AddU_X_I_Imp
	DD	imagerel AddU_X_I_Imp+52
	DD	imagerel $unwind$AddU_X_I_Imp
xdata	ENDS
;	COMDAT xdata
xdata	SEGMENT
$chain$1$AddU_X_I_Imp DD 040e21H
	DD	09740eH
	DD	083405H
	DD	imagerel AddU_X_I_Imp
	DD	imagerel AddU_X_I_Imp+52
	DD	imagerel $unwind$AddU_X_I_Imp
xdata	ENDS
;	COMDAT xdata
xdata	SEGMENT
$unwind$AddU_X_I_Imp DD 040a01H
	DD	0a540aH
	DD	06006520aH
xdata	ENDS
;	COMDAT xdata
xdata	SEGMENT
$chain$2$AddU_X_L_Imp DD 021H
	DD	imagerel AddU_X_L_Imp
	DD	imagerel AddU_X_L_Imp+53
	DD	imagerel $unwind$AddU_X_L_Imp
xdata	ENDS
;	COMDAT xdata
xdata	SEGMENT
$chain$1$AddU_X_L_Imp DD 040e21H
	DD	09740eH
	DD	083405H
	DD	imagerel AddU_X_L_Imp
	DD	imagerel AddU_X_L_Imp+53
	DD	imagerel $unwind$AddU_X_L_Imp
xdata	ENDS
;	COMDAT xdata
xdata	SEGMENT
$unwind$AddU_X_L_Imp DD 040a01H
	DD	0a540aH
	DD	06006520aH
xdata	ENDS
;	COMDAT xdata
xdata	SEGMENT
$chain$2$AddU_X_X_Imp DD 021H
	DD	imagerel AddU_X_X_Imp
	DD	imagerel AddU_X_X_Imp+53
	DD	imagerel $unwind$AddU_X_X_Imp
xdata	ENDS
;	COMDAT xdata
xdata	SEGMENT
$chain$1$AddU_X_X_Imp DD 040e21H
	DD	09740eH
	DD	083405H
	DD	imagerel AddU_X_X_Imp
	DD	imagerel AddU_X_X_Imp+53
	DD	imagerel $unwind$AddU_X_X_Imp
xdata	ENDS
;	COMDAT xdata
xdata	SEGMENT
$unwind$AddU_X_X_Imp DD 040a01H
	DD	0a540aH
	DD	06006520aH
xdata	ENDS
;	COMDAT xdata
xdata	SEGMENT
$unwind$SubtructU_X_I_Imp DD 081401H
	DD	0c6414H
	DD	0b5414H
	DD	0a3414H
	DD	070107214H
xdata	ENDS
;	COMDAT xdata
xdata	SEGMENT
$unwind$SubtructU_X_L_Imp DD 081401H
	DD	0c6414H
	DD	0b5414H
	DD	0a3414H
	DD	070107214H
xdata	ENDS
;	COMDAT xdata
xdata	SEGMENT
$unwind$SubtructU_X_X_Imp DD 081401H
	DD	0a6414H
	DD	095414H
	DD	083414H
	DD	070105214H
xdata	ENDS
;	COMDAT xdata
xdata	SEGMENT
$unwind$PMC_Add_I_X DD 020601H
	DD	030023206H
xdata	ENDS
;	COMDAT xdata
xdata	SEGMENT
$unwind$PMC_Add_L_X DD 020601H
	DD	030023206H
xdata	ENDS
;	COMDAT xdata
xdata	SEGMENT
$unwind$PMC_Add_UX_X DD 060f01H
	DD	08640fH
	DD	06340fH
	DD	0700b320fH
xdata	ENDS
;	COMDAT xdata
xdata	SEGMENT
$unwind$PMC_Add_X_I DD 020601H
	DD	030023206H
xdata	ENDS
;	COMDAT xdata
xdata	SEGMENT
$unwind$PMC_Add_X_L DD 020601H
	DD	030023206H
xdata	ENDS
;	COMDAT xdata
xdata	SEGMENT
$unwind$PMC_Add_X_UX DD 060f01H
	DD	08640fH
	DD	07340fH
	DD	0700b320fH
xdata	ENDS
;	COMDAT xdata
xdata	SEGMENT
$unwind$PMC_Add_X_X DD 020601H
	DD	030023206H
xdata	ENDS
;	COMDAT xdata
xdata	SEGMENT
$unwind$PMC_Subtruct_I_X DD 020601H
	DD	030023206H
xdata	ENDS
;	COMDAT xdata
xdata	SEGMENT
$unwind$PMC_Subtruct_L_X DD 020601H
	DD	030023206H
xdata	ENDS
;	COMDAT xdata
xdata	SEGMENT
$unwind$PMC_Subtruct_UX_X DD 060f01H
	DD	08640fH
	DD	07340fH
	DD	0700b320fH
xdata	ENDS
;	COMDAT xdata
xdata	SEGMENT
$unwind$PMC_Subtruct_X_I DD 020601H
	DD	030023206H
xdata	ENDS
;	COMDAT xdata
xdata	SEGMENT
$unwind$PMC_Subtruct_X_L DD 020601H
	DD	030023206H
xdata	ENDS
;	COMDAT xdata
xdata	SEGMENT
$unwind$PMC_Subtruct_X_UX DD 060f01H
	DD	08640fH
	DD	07340fH
	DD	0700b320fH
xdata	ENDS
;	COMDAT xdata
xdata	SEGMENT
$unwind$PMC_Subtruct_X_X DD 020601H
	DD	030023206H
END
