; Listing generated by Microsoft (R) Optimizing Compiler Version 19.16.27026.1 

include listing.inc

INCLUDELIB OLDNAMES

PUBLIC	PMC_Multiply_I_X
PUBLIC	PMC_Multiply_UX_X
PUBLIC	PMC_Multiply_L_X
PUBLIC	PMC_Multiply_X_UX
PUBLIC	PMC_Multiply_X_X
PUBLIC	PMC_Multiply_X_I
PUBLIC	PMC_Multiply_X_L
;	COMDAT pdata
pdata	SEGMENT
$pdata$MultiplyU_X_X_Imp DD imagerel MultiplyU_X_X_Imp
	DD	imagerel MultiplyU_X_X_Imp+57
	DD	imagerel $unwind$MultiplyU_X_X_Imp
pdata	ENDS
;	COMDAT pdata
pdata	SEGMENT
$pdata$0$MultiplyU_X_X_Imp DD imagerel MultiplyU_X_X_Imp+57
	DD	imagerel MultiplyU_X_X_Imp+117
	DD	imagerel $chain$0$MultiplyU_X_X_Imp
pdata	ENDS
;	COMDAT pdata
pdata	SEGMENT
$pdata$2$MultiplyU_X_X_Imp DD imagerel MultiplyU_X_X_Imp+117
	DD	imagerel MultiplyU_X_X_Imp+164
	DD	imagerel $chain$2$MultiplyU_X_X_Imp
pdata	ENDS
;	COMDAT pdata
pdata	SEGMENT
$pdata$4$MultiplyU_X_X_Imp DD imagerel MultiplyU_X_X_Imp+164
	DD	imagerel MultiplyU_X_X_Imp+178
	DD	imagerel $chain$4$MultiplyU_X_X_Imp
pdata	ENDS
;	COMDAT pdata
pdata	SEGMENT
$pdata$5$MultiplyU_X_X_Imp DD imagerel MultiplyU_X_X_Imp+178
	DD	imagerel MultiplyU_X_X_Imp+189
	DD	imagerel $chain$5$MultiplyU_X_X_Imp
pdata	ENDS
;	COMDAT pdata
pdata	SEGMENT
$pdata$MultiplyU_X_L_Imp DD imagerel MultiplyU_X_L_Imp
	DD	imagerel MultiplyU_X_L_Imp+57
	DD	imagerel $unwind$MultiplyU_X_L_Imp
pdata	ENDS
;	COMDAT pdata
pdata	SEGMENT
$pdata$0$MultiplyU_X_L_Imp DD imagerel MultiplyU_X_L_Imp+57
	DD	imagerel MultiplyU_X_L_Imp+117
	DD	imagerel $chain$0$MultiplyU_X_L_Imp
pdata	ENDS
;	COMDAT pdata
pdata	SEGMENT
$pdata$2$MultiplyU_X_L_Imp DD imagerel MultiplyU_X_L_Imp+117
	DD	imagerel MultiplyU_X_L_Imp+164
	DD	imagerel $chain$2$MultiplyU_X_L_Imp
pdata	ENDS
;	COMDAT pdata
pdata	SEGMENT
$pdata$4$MultiplyU_X_L_Imp DD imagerel MultiplyU_X_L_Imp+164
	DD	imagerel MultiplyU_X_L_Imp+178
	DD	imagerel $chain$4$MultiplyU_X_L_Imp
pdata	ENDS
;	COMDAT pdata
pdata	SEGMENT
$pdata$5$MultiplyU_X_L_Imp DD imagerel MultiplyU_X_L_Imp+178
	DD	imagerel MultiplyU_X_L_Imp+189
	DD	imagerel $chain$5$MultiplyU_X_L_Imp
pdata	ENDS
;	COMDAT pdata
pdata	SEGMENT
$pdata$MultiplyU_X_I_Imp DD imagerel MultiplyU_X_I_Imp
	DD	imagerel MultiplyU_X_I_Imp+56
	DD	imagerel $unwind$MultiplyU_X_I_Imp
pdata	ENDS
;	COMDAT pdata
pdata	SEGMENT
$pdata$0$MultiplyU_X_I_Imp DD imagerel MultiplyU_X_I_Imp+56
	DD	imagerel MultiplyU_X_I_Imp+116
	DD	imagerel $chain$0$MultiplyU_X_I_Imp
pdata	ENDS
;	COMDAT pdata
pdata	SEGMENT
$pdata$2$MultiplyU_X_I_Imp DD imagerel MultiplyU_X_I_Imp+116
	DD	imagerel MultiplyU_X_I_Imp+163
	DD	imagerel $chain$2$MultiplyU_X_I_Imp
pdata	ENDS
;	COMDAT pdata
pdata	SEGMENT
$pdata$4$MultiplyU_X_I_Imp DD imagerel MultiplyU_X_I_Imp+163
	DD	imagerel MultiplyU_X_I_Imp+177
	DD	imagerel $chain$4$MultiplyU_X_I_Imp
pdata	ENDS
;	COMDAT pdata
pdata	SEGMENT
$pdata$5$MultiplyU_X_I_Imp DD imagerel MultiplyU_X_I_Imp+177
	DD	imagerel MultiplyU_X_I_Imp+188
	DD	imagerel $chain$5$MultiplyU_X_I_Imp
pdata	ENDS
;	COMDAT pdata
pdata	SEGMENT
$pdata$PMC_Multiply_I_X DD imagerel $LN36@PMC_Multip
	DD	imagerel $LN36@PMC_Multip+194
	DD	imagerel $unwind$PMC_Multiply_I_X
pdata	ENDS
;	COMDAT pdata
pdata	SEGMENT
$pdata$PMC_Multiply_UX_X DD imagerel $LN21@PMC_Multip
	DD	imagerel $LN21@PMC_Multip+135
	DD	imagerel $unwind$PMC_Multiply_UX_X
pdata	ENDS
;	COMDAT pdata
pdata	SEGMENT
$pdata$PMC_Multiply_L_X DD imagerel $LN36@PMC_Multip
	DD	imagerel $LN36@PMC_Multip+203
	DD	imagerel $unwind$PMC_Multiply_L_X
pdata	ENDS
;	COMDAT pdata
pdata	SEGMENT
$pdata$PMC_Multiply_X_UX DD imagerel $LN21@PMC_Multip
	DD	imagerel $LN21@PMC_Multip+135
	DD	imagerel $unwind$PMC_Multiply_X_UX
pdata	ENDS
;	COMDAT pdata
pdata	SEGMENT
$pdata$PMC_Multiply_X_X DD imagerel $LN32@PMC_Multip
	DD	imagerel $LN32@PMC_Multip+218
	DD	imagerel $unwind$PMC_Multiply_X_X
pdata	ENDS
;	COMDAT pdata
pdata	SEGMENT
$pdata$PMC_Multiply_X_I DD imagerel $LN34@PMC_Multip
	DD	imagerel $LN34@PMC_Multip+212
	DD	imagerel $unwind$PMC_Multiply_X_I
pdata	ENDS
;	COMDAT pdata
pdata	SEGMENT
$pdata$PMC_Multiply_X_L DD imagerel $LN34@PMC_Multip
	DD	imagerel $LN34@PMC_Multip+224
	DD	imagerel $unwind$PMC_Multiply_X_L
;	COMDAT xdata
xdata	SEGMENT
$unwind$PMC_Multiply_X_L DD 020601H
	DD	030023206H
xdata	ENDS
;	COMDAT xdata
xdata	SEGMENT
$unwind$PMC_Multiply_X_I DD 020601H
	DD	030023206H
xdata	ENDS
;	COMDAT xdata
xdata	SEGMENT
$unwind$PMC_Multiply_X_X DD 020601H
	DD	030023206H
xdata	ENDS
;	COMDAT xdata
xdata	SEGMENT
$unwind$PMC_Multiply_X_UX DD 020601H
	DD	030023206H
xdata	ENDS
;	COMDAT xdata
xdata	SEGMENT
$unwind$PMC_Multiply_L_X DD 020601H
	DD	030023206H
xdata	ENDS
;	COMDAT xdata
xdata	SEGMENT
$unwind$PMC_Multiply_UX_X DD 020601H
	DD	030023206H
xdata	ENDS
;	COMDAT xdata
xdata	SEGMENT
$unwind$PMC_Multiply_I_X DD 020601H
	DD	030023206H
xdata	ENDS
;	COMDAT xdata
xdata	SEGMENT
$chain$5$MultiplyU_X_I_Imp DD 021H
	DD	imagerel MultiplyU_X_I_Imp
	DD	imagerel MultiplyU_X_I_Imp+56
	DD	imagerel $unwind$MultiplyU_X_I_Imp
xdata	ENDS
;	COMDAT xdata
xdata	SEGMENT
$chain$4$MultiplyU_X_I_Imp DD 020021H
	DD	083400H
	DD	imagerel MultiplyU_X_I_Imp
	DD	imagerel MultiplyU_X_I_Imp+56
	DD	imagerel $unwind$MultiplyU_X_I_Imp
xdata	ENDS
;	COMDAT xdata
xdata	SEGMENT
$chain$2$MultiplyU_X_I_Imp DD 020021H
	DD	083400H
	DD	imagerel MultiplyU_X_I_Imp
	DD	imagerel MultiplyU_X_I_Imp+56
	DD	imagerel $unwind$MultiplyU_X_I_Imp
xdata	ENDS
;	COMDAT xdata
xdata	SEGMENT
$chain$0$MultiplyU_X_I_Imp DD 020521H
	DD	083405H
	DD	imagerel MultiplyU_X_I_Imp
	DD	imagerel MultiplyU_X_I_Imp+56
	DD	imagerel $unwind$MultiplyU_X_I_Imp
xdata	ENDS
;	COMDAT xdata
xdata	SEGMENT
$unwind$MultiplyU_X_I_Imp DD 040a01H
	DD	09640aH
	DD	07006520aH
xdata	ENDS
;	COMDAT xdata
xdata	SEGMENT
$chain$5$MultiplyU_X_L_Imp DD 021H
	DD	imagerel MultiplyU_X_L_Imp
	DD	imagerel MultiplyU_X_L_Imp+57
	DD	imagerel $unwind$MultiplyU_X_L_Imp
xdata	ENDS
;	COMDAT xdata
xdata	SEGMENT
$chain$4$MultiplyU_X_L_Imp DD 020021H
	DD	083400H
	DD	imagerel MultiplyU_X_L_Imp
	DD	imagerel MultiplyU_X_L_Imp+57
	DD	imagerel $unwind$MultiplyU_X_L_Imp
xdata	ENDS
;	COMDAT xdata
xdata	SEGMENT
$chain$2$MultiplyU_X_L_Imp DD 020021H
	DD	083400H
	DD	imagerel MultiplyU_X_L_Imp
	DD	imagerel MultiplyU_X_L_Imp+57
	DD	imagerel $unwind$MultiplyU_X_L_Imp
xdata	ENDS
;	COMDAT xdata
xdata	SEGMENT
$chain$0$MultiplyU_X_L_Imp DD 020521H
	DD	083405H
	DD	imagerel MultiplyU_X_L_Imp
	DD	imagerel MultiplyU_X_L_Imp+57
	DD	imagerel $unwind$MultiplyU_X_L_Imp
xdata	ENDS
;	COMDAT xdata
xdata	SEGMENT
$unwind$MultiplyU_X_L_Imp DD 040a01H
	DD	09640aH
	DD	07006520aH
xdata	ENDS
;	COMDAT xdata
xdata	SEGMENT
$chain$5$MultiplyU_X_X_Imp DD 021H
	DD	imagerel MultiplyU_X_X_Imp
	DD	imagerel MultiplyU_X_X_Imp+57
	DD	imagerel $unwind$MultiplyU_X_X_Imp
xdata	ENDS
;	COMDAT xdata
xdata	SEGMENT
$chain$4$MultiplyU_X_X_Imp DD 020021H
	DD	083400H
	DD	imagerel MultiplyU_X_X_Imp
	DD	imagerel MultiplyU_X_X_Imp+57
	DD	imagerel $unwind$MultiplyU_X_X_Imp
xdata	ENDS
;	COMDAT xdata
xdata	SEGMENT
$chain$2$MultiplyU_X_X_Imp DD 020021H
	DD	083400H
	DD	imagerel MultiplyU_X_X_Imp
	DD	imagerel MultiplyU_X_X_Imp+57
	DD	imagerel $unwind$MultiplyU_X_X_Imp
xdata	ENDS
;	COMDAT xdata
xdata	SEGMENT
$chain$0$MultiplyU_X_X_Imp DD 020521H
	DD	083405H
	DD	imagerel MultiplyU_X_X_Imp
	DD	imagerel MultiplyU_X_X_Imp+57
	DD	imagerel $unwind$MultiplyU_X_X_Imp
xdata	ENDS
;	COMDAT xdata
xdata	SEGMENT
$unwind$MultiplyU_X_X_Imp DD 040a01H
	DD	09640aH
	DD	07006520aH
END
