 Palmtree.Math.Core.Sint

 Timestamp is 5c5eff7d (Sun Feb 10 01:27:41 2019)

 Preferred load address is 10000000

 Start         Length     Name                   Class
 0001:00000000 00003edeH .text$mn                CODE
 0002:00000000 00000020H .idata$5                DATA
 0002:00000020 00000010H .00cfg                  DATA
 0002:00000024 00000000H .gfids$y                DATA
 0002:00000030 00000150H .rdata                  DATA
 0002:00000180 00000074H .edata                  DATA
 0002:000001f4 000001a8H .rdata$zzzdbg           DATA
 0002:0000039c 00000014H .idata$2                DATA
 0002:000003b0 00000014H .idata$3                DATA
 0002:000003c4 00000020H .idata$4                DATA
 0002:000003e4 00000072H .idata$6                DATA
 0003:00000000 00000020H .data                   DATA
 0003:00000020 000006bcH .bss                    DATA
 0004:00000000 000000a0H .rsrc$01                DATA
 0004:000000a0 000004a0H .rsrc$02                DATA

  Address         Publics by Value              Rva+Base       Lib:Object

 0000:00000000       ___hybrid_code_map         00000000     <absolute>
 0000:00000000       ___guard_fids_count        00000000     <absolute>
 0000:00000000       ___guard_iat_count         00000000     <absolute>
 0000:00000000       ___dynamic_value_reloc_table 00000000     <absolute>
 0000:00000000       ___guard_iat_table         00000000     <absolute>
 0000:00000000       ___safe_se_handler_count   00000000     <absolute>
 0000:00000000       ___guard_longjmp_count     00000000     <absolute>
 0000:00000000       ___guard_longjmp_table     00000000     <absolute>
 0000:00000000       ___safe_se_handler_table   00000000     <absolute>
 0000:00000000       ___hybrid_auxiliary_iat    00000000     <absolute>
 0000:00000000       ___hybrid_code_map_count   00000000     <absolute>
 0000:00000000       ___guard_fids_table        00000000     <absolute>
 0000:00000000       ___volatile_metadata       00000000     <absolute>
 0000:00000000       ___enclave_config          00000000     <absolute>
 0000:00000100       ___guard_flags             00000100     <absolute>
 0001:00000000       _DoDebug@4                 10001000 f   debug.obj
 0001:00000010       _DllMain@12                10001010 f   dllmain.obj
 0001:00000570       _PMC_Add_I_X@12            10001570 f   pmc_add_sub.obj
 0001:00000670       _PMC_Add_L_X@16            10001670 f   pmc_add_sub.obj
 0001:000007b0       _PMC_Add_UX_X@12           100017b0 f   pmc_add_sub.obj
 0001:000008a0       _PMC_Add_X_I@12            100018a0 f   pmc_add_sub.obj
 0001:000009a0       _PMC_Add_X_L@16            100019a0 f   pmc_add_sub.obj
 0001:00000ae0       _PMC_Add_X_UX@12           10001ae0 f   pmc_add_sub.obj
 0001:00000bf0       _PMC_Add_X_X@12            10001bf0 f   pmc_add_sub.obj
 0001:00000d00       _PMC_Subtruct_I_X@12       10001d00 f   pmc_add_sub.obj
 0001:00000e00       _PMC_Subtruct_L_X@16       10001e00 f   pmc_add_sub.obj
 0001:00000f40       _PMC_Subtruct_UX_X@12      10001f40 f   pmc_add_sub.obj
 0001:00001030       _PMC_Subtruct_X_I@12       10002030 f   pmc_add_sub.obj
 0001:00001150       _PMC_Subtruct_X_L@16       10002150 f   pmc_add_sub.obj
 0001:00001290       _PMC_Subtruct_X_UX@12      10002290 f   pmc_add_sub.obj
 0001:000013a0       _PMC_Subtruct_X_X@12       100023a0 f   pmc_add_sub.obj
 0001:000014b0       _PMC_FromByteArray@12      100024b0 f   pmc_bytes.obj
 0001:00001520       _PMC_ToByteArray@16        10002520 f   pmc_bytes.obj
 0001:00001570       _PMC_Clone_X@8             10002570 f   pmc_clone.obj
 0001:000015e0       _PMC_Compare_I_X@12        100025e0 f   pmc_compare.obj
 0001:000016b0       _PMC_Compare_L_X@16        100026b0 f   pmc_compare.obj
 0001:000017b0       _PMC_Compare_UX_X@12       100027b0 f   pmc_compare.obj
 0001:00001830       _PMC_Compare_X_I@12        10002830 f   pmc_compare.obj
 0001:00001920       _PMC_Compare_X_L@16        10002920 f   pmc_compare.obj
 0001:00001a20       _PMC_Compare_X_UX@12       10002a20 f   pmc_compare.obj
 0001:00001ac0       _PMC_Compare_X_X@12        10002ac0 f   pmc_compare.obj
 0001:00001bb0       _PMC_DivRem_I_X@16         10002bb0 f   pmc_divrem.obj
 0001:00001d30       _PMC_DivRem_L_X@20         10002d30 f   pmc_divrem.obj
 0001:00001ed0       _PMC_DivRem_UX_X@16        10002ed0 f   pmc_divrem.obj
 0001:00001fd0       _PMC_DivRem_X_I@16         10002fd0 f   pmc_divrem.obj
 0001:00002100       _PMC_DivRem_X_L@20         10003100 f   pmc_divrem.obj
 0001:00002270       _PMC_DivRem_X_UX@16        10003270 f   pmc_divrem.obj
 0001:00002410       _PMC_DivRem_X_X@16         10003410 f   pmc_divrem.obj
 0001:00002600       _PMC_Equals_I_X@12         10003600 f   pmc_equals.obj
 0001:00002680       _PMC_Equals_L_X@16         10003680 f   pmc_equals.obj
 0001:00002710       _PMC_Equals_UX_X@12        10003710 f   pmc_equals.obj
 0001:00002790       _PMC_Equals_X_I@12         10003790 f   pmc_equals.obj
 0001:00002810       _PMC_Equals_X_L@16         10003810 f   pmc_equals.obj
 0001:000028a0       _PMC_Equals_X_UX@12        100038a0 f   pmc_equals.obj
 0001:00002920       _PMC_Equals_X_X@12         10003920 f   pmc_equals.obj
 0001:000029a0       _From_I_Imp                100039a0 f   pmc_from.obj
 0001:00002a20       _From_L_Imp                10003a20 f   pmc_from.obj
 0001:00002aa0       _PMC_From_I@8              10003aa0 f   pmc_from.obj
 0001:00002b60       _PMC_From_L@12             10003b60 f   pmc_from.obj
 0001:00002c50       _PMC_GreatestCommonDivisor_I_X@12 10003c50 f   pmc_greatestcommondivisor.obj
 0001:00002cd0       _PMC_GreatestCommonDivisor_L_X@16 10003cd0 f   pmc_greatestcommondivisor.obj
 0001:00002d40       _PMC_GreatestCommonDivisor_UX_X@12 10003d40 f   pmc_greatestcommondivisor.obj
 0001:00002d90       _PMC_GreatestCommonDivisor_X_I@12 10003d90 f   pmc_greatestcommondivisor.obj
 0001:00002e10       _PMC_GreatestCommonDivisor_X_L@16 10003e10 f   pmc_greatestcommondivisor.obj
 0001:00002e80       _PMC_GreatestCommonDivisor_X_UX@12 10003e80 f   pmc_greatestcommondivisor.obj
 0001:00002ed0       _PMC_GreatestCommonDivisor_X_X@12 10003ed0 f   pmc_greatestcommondivisor.obj
 0001:00002f50       _PMC_SINT_Initialize@4     10003f50 f   pmc_initialize.obj
 0001:00003410       _AllocateNumber            10004410 f   pmc_memory.obj
 0001:00003460       _DeallocateNumber          10004460 f   pmc_memory.obj
 0001:000034b0       _DuplicateNumber           100044b0 f   pmc_memory.obj
 0001:00003550       _Negate_Imp                10004550 f   pmc_memory.obj
 0001:000035e0       _PMC_GetConstantValue_I@8  100045e0 f   pmc_memory.obj
 0001:00003630       _PMC_Dispose@4             10004630 f   pmc_memory.obj
 0001:00003820       _PMC_Multiply_I_X@12       10004820 f   pmc_multiply.obj
 0001:000038d0       _PMC_Multiply_L_X@16       100048d0 f   pmc_multiply.obj
 0001:000039b0       _PMC_Multiply_UX_X@12      100049b0 f   pmc_multiply.obj
 0001:00003a30       _PMC_Multiply_X_I@12       10004a30 f   pmc_multiply.obj
 0001:00003b00       _PMC_Multiply_X_L@16       10004b00 f   pmc_multiply.obj
 0001:00003be0       _PMC_Multiply_X_UX@12      10004be0 f   pmc_multiply.obj
 0001:00003c60       _PMC_Multiply_X_X@12       10004c60 f   pmc_multiply.obj
 0001:00003d30       _PMC_Negate_X@8            10004d30 f   pmc_negate.obj
 0001:00003d80       _PMC_GetStatisticsInfo@4   10004d80 f   pmc_statistics.obj
 0001:00003d90       _PMC_To_X_I@8              10004d90 f   pmc_to.obj
 0001:00003e20       _PMC_To_X_L@8              10004e20 f   pmc_to.obj
 0001:00003edd       @_guard_check_icall_nop@4  10004edd f i MSVCRT:guard_support.obj
 0002:00000000       __imp__LoadLibraryA@4      10005000     kernel32:KERNEL32.dll
 0002:00000004       __imp__GetProcAddress@8    10005004     kernel32:KERNEL32.dll
 0002:00000008       __imp__FreeLibrary@4       10005008     kernel32:KERNEL32.dll
 0002:0000000c       __imp__HeapCreate@12       1000500c     kernel32:KERNEL32.dll
 0002:00000010       __imp__HeapFree@12         10005010     kernel32:KERNEL32.dll
 0002:00000014       __imp__HeapAlloc@12        10005014     kernel32:KERNEL32.dll
 0002:00000018       __imp__HeapDestroy@4       10005018     kernel32:KERNEL32.dll
 0002:0000001c       \177KERNEL32_NULL_THUNK_DATA 1000501c     kernel32:KERNEL32.dll
 0002:00000020       ___guard_check_icall_fptr  10005020     MSVCRT:guard_support.obj
 0002:00000038       ??_C@_0BM@ONKLCLPJ@Palmtree?4Math?4Core?4Uint?4dll@ 10005038     pmc_initialize.obj
 0002:00000054       ??_C@_0BE@LMKJAMNH@PMC_UINT_Initialize@ 10005054     pmc_initialize.obj
 0002:000000e0       __load_config_used         100050e0     MSVCRT:loadcfg.obj
 0002:0000039c       __IMPORT_DESCRIPTOR_KERNEL32 1000539c     kernel32:KERNEL32.dll
 0002:000003b0       __NULL_IMPORT_DESCRIPTOR   100053b0     kernel32:KERNEL32.dll
 0003:00000000       ___security_cookie_complement 10006000     MSVCRT:gs_cookie.obj
 0003:00000004       ___security_cookie         10006004     MSVCRT:gs_cookie.obj
 0003:00000550       _hLocalHeap                10006550     <common>
 0003:00000560       _number_one                10006560     <common>
 0003:00000580       _number_minus_one          10006580     <common>
 0003:000005a0       _number_zero               100065a0     <common>
 0003:000005c0       _ep_uint                   100065c0     <common>
 0003:000006d4       _uint_number_one           100066d4     <common>
 0003:000006d8       _uint_number_zero          100066d8     <common>

 entry point at        0001:00000010

 Static symbols

 0000:ffff7000       .debug$S                   10000000     kernel32:KERNEL32.dll
 0000:ffff7000       .debug$S                   10000000     kernel32:KERNEL32.dll
 0000:ffff7000       .debug$S                   10000000     kernel32:KERNEL32.dll
 0000:ffff7000       .debug$S                   10000000     kernel32:KERNEL32.dll
 0000:ffff7000       .debug$S                   10000000     kernel32:KERNEL32.dll
 0000:ffff7000       .debug$S                   10000000     kernel32:KERNEL32.dll
 0000:ffff7000       .debug$S                   10000000     kernel32:KERNEL32.dll
 0000:ffff7000       .debug$S                   10000000     kernel32:KERNEL32.dll
 0000:ffff7000       .debug$S                   10000000     kernel32:KERNEL32.dll
 0000:ffff7000       .debug$S                   10000000     kernel32:KERNEL32.dll
 0000:ffff7000       .debug$S                   10000000     kernel32:KERNEL32.dll
 0000:ffff7000       .debug$S                   10000000     Palmtree.Math.Core.Sint.exp
 0000:ffff7000       .debug$S                   10000000     kernel32:KERNEL32.dll
 0001:00000074       $LN18                      10001074     dllmain.obj
 0001:00000090       _GET_ABS_64                10001090 f   pmc_compare.obj
 0001:00000090       _GET_ABS_64                10001090 f   pmc_add_sub.obj
 0001:00000090       _GET_ABS_64                10001090 f   pmc_greatestcommondivisor.obj
 0001:00000090       _GET_ABS_64                10001090 f   pmc_multiply.obj
 0001:00000090       _GET_ABS_64                10001090 f   pmc_divrem.obj
 0001:00000090       _GET_ABS_64                10001090 f   pmc_equals.obj
 0001:000000e0       _AddU_X_I_Imp              100010e0 f   pmc_add_sub.obj
 0001:00000160       _AddU_X_L_Imp              10001160 f   pmc_add_sub.obj
 0001:000001f0       _AddU_X_X_Imp              100011f0 f   pmc_add_sub.obj
 0001:00000270       _SubtructU_X_I_Imp         10001270 f   pmc_add_sub.obj
 0001:00000370       _SubtructU_X_L_Imp         10001370 f   pmc_add_sub.obj
 0001:00000480       _SubtructU_X_X_Imp         10001480 f   pmc_add_sub.obj
 0001:00003370       _InitializeNumber          10004370 f   pmc_memory.obj
 0001:00003690       _MultiplyU_X_I_Imp         10004690 f   pmc_multiply.obj
 0001:00003710       _MultiplyU_X_L_Imp         10004710 f   pmc_multiply.obj
 0001:000037a0       _MultiplyU_X_X_Imp         100047a0 f   pmc_multiply.obj
 0002:00000030       _GS_ExceptionPointers      10005030     MSVCRT:gs_report.obj
 0002:00000180       .edata                     10005180     Palmtree.Math.Core.Sint.exp
 0002:000001a8       rgpv                       100051a8     Palmtree.Math.Core.Sint.exp
 0002:000001b0       rgszName                   100051b0     Palmtree.Math.Core.Sint.exp
 0002:000001b8       rgwOrd                     100051b8     Palmtree.Math.Core.Sint.exp
 0002:000001bc       szName                     100051bc     Palmtree.Math.Core.Sint.exp
 0002:000001d8       $N00001                    100051d8     Palmtree.Math.Core.Sint.exp
 0002:000001e0       $N00002                    100051e0     Palmtree.Math.Core.Sint.exp
 0002:00000448       .idata$6                   10005448     kernel32:KERNEL32.dll
 0003:00000020       _GS_ExceptionRecord        10006020     MSVCRT:gs_report.obj
 0003:00000070       _GS_ContextRecord          10006070     MSVCRT:gs_report.obj
 0003:00000340       _entry_points              10006340     pmc_initialize.obj
 0003:00000544       _initialized               10006544     pmc_initialize.obj
 0003:00000548       _hLib_UINT                 10006548     pmc_initialize.obj
 0003:0000054c       _fp_PMC_UINT_Initialize    1000654c     pmc_initialize.obj
 0004:000000a0       $R000000                   100070a0     Palmtree.Math.Core.Sint.res
 0004:000003c0       $R000320                   100073c0     Palmtree.Math.Core.Sint.res
