; Listing generated by Microsoft (R) Optimizing Compiler Version 19.16.27026.1 

include listing.inc

INCLUDELIB MSVCRTD
INCLUDELIB OLDNAMES

_DATA	SEGMENT
COMM	uint_number_zero:QWORD
COMM	uint_number_one:QWORD
_DATA	ENDS
msvcjmc	SEGMENT
__7B7A869E_ctype@h DB 01H
__457DD326_basetsd@h DB 01H
__4384A2D9_corecrt_memcpy_s@h DB 01H
__4E51A221_corecrt_wstring@h DB 01H
__2140C079_string@h DB 01H
__1887E595_winnt@h DB 01H
__9FC7C64B_processthreadsapi@h DB 01H
__FA470AEC_memoryapi@h DB 01H
__F37DAFF1_winerror@h DB 01H
__7A450CCC_winbase@h DB 01H
__B4B40122_winioctl@h DB 01H
__86261D59_stralign@h DB 01H
__8CA3E54E_pmc_inline_func@h DB 01H
__E9C852B3_pmc_divrem@c DB 01H
msvcjmc	ENDS
PUBLIC	PMC_DivRem_I_X
PUBLIC	PMC_DivRem_L_X
PUBLIC	PMC_DivRem_UX_X
PUBLIC	PMC_DivRem_X_I
PUBLIC	PMC_DivRem_X_L
PUBLIC	PMC_DivRem_X_UX
PUBLIC	PMC_DivRem_X_X
PUBLIC	__JustMyCode_Default
EXTRN	AllocateNumber:PROC
EXTRN	DeallocateNumber:PROC
EXTRN	CheckNumber:PROC
EXTRN	From_I_Imp:PROC
EXTRN	From_L_Imp:PROC
EXTRN	_RTC_CheckStackVars:PROC
EXTRN	_RTC_InitBase:PROC
EXTRN	_RTC_Shutdown:PROC
EXTRN	__CheckForDebuggerJustMyCode:PROC
EXTRN	__GSHandlerCheck:PROC
EXTRN	__security_check_cookie:PROC
EXTRN	ep_uint:BYTE
EXTRN	number_zero:BYTE
EXTRN	__security_cookie:QWORD
;	COMDAT pdata
pdata	SEGMENT
$pdata$PMC_DivRem_I_X DD imagerel $LN27
	DD	imagerel $LN27+798
	DD	imagerel $unwind$PMC_DivRem_I_X
pdata	ENDS
;	COMDAT pdata
pdata	SEGMENT
$pdata$PMC_DivRem_L_X DD imagerel $LN27
	DD	imagerel $LN27+810
	DD	imagerel $unwind$PMC_DivRem_L_X
pdata	ENDS
;	COMDAT pdata
pdata	SEGMENT
$pdata$PMC_DivRem_UX_X DD imagerel $LN20
	DD	imagerel $LN20+608
	DD	imagerel $unwind$PMC_DivRem_UX_X
pdata	ENDS
;	COMDAT pdata
pdata	SEGMENT
$pdata$PMC_DivRem_X_I DD imagerel $LN25
	DD	imagerel $LN25+758
	DD	imagerel $unwind$PMC_DivRem_X_I
pdata	ENDS
;	COMDAT pdata
pdata	SEGMENT
$pdata$PMC_DivRem_X_L DD imagerel $LN25
	DD	imagerel $LN25+781
	DD	imagerel $unwind$PMC_DivRem_X_L
pdata	ENDS
;	COMDAT pdata
pdata	SEGMENT
$pdata$PMC_DivRem_X_UX DD imagerel $LN26
	DD	imagerel $LN26+863
	DD	imagerel $unwind$PMC_DivRem_X_UX
pdata	ENDS
;	COMDAT pdata
pdata	SEGMENT
$pdata$PMC_DivRem_X_X DD imagerel $LN29
	DD	imagerel $LN29+954
	DD	imagerel $unwind$PMC_DivRem_X_X
pdata	ENDS
;	COMDAT pdata
pdata	SEGMENT
$pdata$GET_ABS_32 DD imagerel GET_ABS_32
	DD	imagerel GET_ABS_32+175
	DD	imagerel $unwind$GET_ABS_32
pdata	ENDS
;	COMDAT pdata
pdata	SEGMENT
$pdata$GET_ABS_64 DD imagerel GET_ABS_64
	DD	imagerel GET_ABS_64+198
	DD	imagerel $unwind$GET_ABS_64
pdata	ENDS
;	COMDAT rtc$TMZ
rtc$TMZ	SEGMENT
_RTC_Shutdown.rtc$TMZ DQ FLAT:_RTC_Shutdown
rtc$TMZ	ENDS
;	COMDAT rtc$IMZ
rtc$IMZ	SEGMENT
_RTC_InitBase.rtc$IMZ DQ FLAT:_RTC_InitBase
rtc$IMZ	ENDS
;	COMDAT xdata
xdata	SEGMENT
$unwind$GET_ABS_64 DD 025052f01H
	DD	01132318H
	DD	0700c001fH
	DD	0500bH
xdata	ENDS
;	COMDAT xdata
xdata	SEGMENT
$unwind$GET_ABS_32 DD 025052d01H
	DD	01122317H
	DD	0700b001fH
	DD	0500aH
xdata	ENDS
;	COMDAT xdata
xdata	SEGMENT
$unwind$PMC_DivRem_X_X DD 025054a19H
	DD	011d2322H
	DD	07016004bH
	DD	05015H
	DD	imagerel __GSHandlerCheck
	DD	0240H
xdata	ENDS
;	COMDAT CONST
CONST	SEGMENT
PMC_DivRem_X_X$rtcName$0 DB 06eH
	DB	071H
	DB	00H
	ORG $+1
PMC_DivRem_X_X$rtcName$1 DB 06eH
	DB	072H
	DB	00H
	ORG $+1
PMC_DivRem_X_X$rtcName$2 DB 071H
	DB	05fH
	DB	061H
	DB	062H
	DB	073H
	DB	00H
	ORG $+2
PMC_DivRem_X_X$rtcName$3 DB 072H
	DB	05fH
	DB	061H
	DB	062H
	DB	073H
	DB	00H
	ORG $+2
PMC_DivRem_X_X$rtcName$4 DB 072H
	DB	05fH
	DB	061H
	DB	062H
	DB	073H
	DB	00H
	ORG $+2
PMC_DivRem_X_X$rtcVarDesc DD 0168H
	DD	08H
	DQ	FLAT:PMC_DivRem_X_X$rtcName$4
	DD	0128H
	DD	08H
	DQ	FLAT:PMC_DivRem_X_X$rtcName$3
	DD	0108H
	DD	08H
	DQ	FLAT:PMC_DivRem_X_X$rtcName$2
	DD	0a8H
	DD	08H
	DQ	FLAT:PMC_DivRem_X_X$rtcName$1
	DD	088H
	DD	08H
	DQ	FLAT:PMC_DivRem_X_X$rtcName$0
	ORG $+240
PMC_DivRem_X_X$rtcFrameData DD 05H
	DD	00H
	DQ	FLAT:PMC_DivRem_X_X$rtcVarDesc
CONST	ENDS
;	COMDAT xdata
xdata	SEGMENT
$unwind$PMC_DivRem_X_UX DD 025054a19H
	DD	011d2322H
	DD	070160047H
	DD	05015H
	DD	imagerel __GSHandlerCheck
	DD	0220H
xdata	ENDS
;	COMDAT CONST
CONST	SEGMENT
PMC_DivRem_X_UX$rtcName$0 DB 06eH
	DB	071H
	DB	00H
	ORG $+1
PMC_DivRem_X_UX$rtcName$1 DB 06eH
	DB	072H
	DB	00H
	ORG $+1
PMC_DivRem_X_UX$rtcName$2 DB 071H
	DB	05fH
	DB	061H
	DB	062H
	DB	073H
	DB	00H
	ORG $+2
PMC_DivRem_X_UX$rtcName$3 DB 072H
	DB	05fH
	DB	061H
	DB	062H
	DB	073H
	DB	00H
	ORG $+2
PMC_DivRem_X_UX$rtcName$4 DB 072H
	DB	05fH
	DB	061H
	DB	062H
	DB	073H
	DB	00H
	ORG $+2
PMC_DivRem_X_UX$rtcVarDesc DD 0148H
	DD	08H
	DQ	FLAT:PMC_DivRem_X_UX$rtcName$4
	DD	0108H
	DD	08H
	DQ	FLAT:PMC_DivRem_X_UX$rtcName$3
	DD	0e8H
	DD	08H
	DQ	FLAT:PMC_DivRem_X_UX$rtcName$2
	DD	088H
	DD	08H
	DQ	FLAT:PMC_DivRem_X_UX$rtcName$1
	DD	068H
	DD	08H
	DQ	FLAT:PMC_DivRem_X_UX$rtcName$0
	ORG $+240
PMC_DivRem_X_UX$rtcFrameData DD 05H
	DD	00H
	DQ	FLAT:PMC_DivRem_X_UX$rtcVarDesc
CONST	ENDS
;	COMDAT xdata
xdata	SEGMENT
$unwind$PMC_DivRem_X_L DD 025054a19H
	DD	011d2322H
	DD	07016004bH
	DD	05015H
	DD	imagerel __GSHandlerCheck
	DD	0240H
xdata	ENDS
;	COMDAT CONST
CONST	SEGMENT
PMC_DivRem_X_L$rtcName$0 DB 06eH
	DB	071H
	DB	00H
	ORG $+1
PMC_DivRem_X_L$rtcName$1 DB 076H
	DB	05fH
	DB	073H
	DB	069H
	DB	067H
	DB	06eH
	DB	00H
	ORG $+1
PMC_DivRem_X_L$rtcName$2 DB 071H
	DB	05fH
	DB	061H
	DB	062H
	DB	073H
	DB	00H
	ORG $+2
PMC_DivRem_X_L$rtcName$3 DB 072H
	DB	05fH
	DB	061H
	DB	062H
	DB	073H
	DB	00H
	ORG $+2
PMC_DivRem_X_L$rtcName$4 DB 072H
	DB	05fH
	DB	061H
	DB	062H
	DB	073H
	DB	00H
	ORG $+6
PMC_DivRem_X_L$rtcFrameData DD 05H
	DD	00H
	DQ	FLAT:PMC_DivRem_X_L$rtcVarDesc
	ORG $+8
PMC_DivRem_X_L$rtcVarDesc DD 0168H
	DD	08H
	DQ	FLAT:PMC_DivRem_X_L$rtcName$4
	DD	0128H
	DD	08H
	DQ	FLAT:PMC_DivRem_X_L$rtcName$3
	DD	0108H
	DD	08H
	DQ	FLAT:PMC_DivRem_X_L$rtcName$2
	DD	084H
	DD	01H
	DQ	FLAT:PMC_DivRem_X_L$rtcName$1
	DD	068H
	DD	08H
	DQ	FLAT:PMC_DivRem_X_L$rtcName$0
CONST	ENDS
;	COMDAT xdata
xdata	SEGMENT
$unwind$PMC_DivRem_X_I DD 025054919H
	DD	011c2321H
	DD	07015004bH
	DD	05014H
	DD	imagerel __GSHandlerCheck
	DD	0240H
xdata	ENDS
;	COMDAT CONST
CONST	SEGMENT
PMC_DivRem_X_I$rtcName$0 DB 06eH
	DB	071H
	DB	00H
	ORG $+1
PMC_DivRem_X_I$rtcName$1 DB 076H
	DB	05fH
	DB	073H
	DB	069H
	DB	067H
	DB	06eH
	DB	00H
	ORG $+1
PMC_DivRem_X_I$rtcName$2 DB 071H
	DB	05fH
	DB	061H
	DB	062H
	DB	073H
	DB	00H
	ORG $+2
PMC_DivRem_X_I$rtcName$3 DB 072H
	DB	05fH
	DB	061H
	DB	062H
	DB	073H
	DB	00H
	ORG $+2
PMC_DivRem_X_I$rtcName$4 DB 072H
	DB	05fH
	DB	061H
	DB	062H
	DB	073H
	DB	00H
	ORG $+6
PMC_DivRem_X_I$rtcFrameData DD 05H
	DD	00H
	DQ	FLAT:PMC_DivRem_X_I$rtcVarDesc
	ORG $+8
PMC_DivRem_X_I$rtcVarDesc DD 0164H
	DD	04H
	DQ	FLAT:PMC_DivRem_X_I$rtcName$4
	DD	0124H
	DD	04H
	DQ	FLAT:PMC_DivRem_X_I$rtcName$3
	DD	0108H
	DD	08H
	DQ	FLAT:PMC_DivRem_X_I$rtcName$2
	DD	084H
	DD	01H
	DQ	FLAT:PMC_DivRem_X_I$rtcName$1
	DD	068H
	DD	08H
	DQ	FLAT:PMC_DivRem_X_I$rtcName$0
CONST	ENDS
;	COMDAT xdata
xdata	SEGMENT
$unwind$PMC_DivRem_UX_X DD 025054a19H
	DD	011d2322H
	DD	070160033H
	DD	05015H
	DD	imagerel __GSHandlerCheck
	DD	0180H
xdata	ENDS
;	COMDAT CONST
CONST	SEGMENT
PMC_DivRem_UX_X$rtcName$0 DB 06eH
	DB	071H
	DB	00H
	ORG $+1
PMC_DivRem_UX_X$rtcName$1 DB 071H
	DB	05fH
	DB	061H
	DB	062H
	DB	073H
	DB	00H
	ORG $+6
PMC_DivRem_UX_X$rtcVarDesc DD 0a8H
	DD	08H
	DQ	FLAT:PMC_DivRem_UX_X$rtcName$1
	DD	068H
	DD	08H
	DQ	FLAT:PMC_DivRem_UX_X$rtcName$0
	ORG $+96
PMC_DivRem_UX_X$rtcFrameData DD 02H
	DD	00H
	DQ	FLAT:PMC_DivRem_UX_X$rtcVarDesc
CONST	ENDS
;	COMDAT xdata
xdata	SEGMENT
$unwind$PMC_DivRem_L_X DD 025054a19H
	DD	011d2322H
	DD	07016004fH
	DD	05015H
	DD	imagerel __GSHandlerCheck
	DD	0260H
xdata	ENDS
;	COMDAT CONST
CONST	SEGMENT
PMC_DivRem_L_X$rtcName$0 DB 06eH
	DB	071H
	DB	00H
	ORG $+1
PMC_DivRem_L_X$rtcName$1 DB 06eH
	DB	072H
	DB	00H
	ORG $+1
PMC_DivRem_L_X$rtcName$2 DB 075H
	DB	05fH
	DB	073H
	DB	069H
	DB	067H
	DB	06eH
	DB	00H
	ORG $+1
PMC_DivRem_L_X$rtcName$3 DB 071H
	DB	05fH
	DB	061H
	DB	062H
	DB	073H
	DB	00H
	ORG $+2
PMC_DivRem_L_X$rtcName$4 DB 072H
	DB	05fH
	DB	061H
	DB	062H
	DB	073H
	DB	00H
	ORG $+2
PMC_DivRem_L_X$rtcName$5 DB 072H
	DB	05fH
	DB	061H
	DB	062H
	DB	073H
	DB	00H
	ORG $+2
PMC_DivRem_L_X$rtcFrameData DD 06H
	DD	00H
	DQ	FLAT:PMC_DivRem_L_X$rtcVarDesc
	ORG $+8
PMC_DivRem_L_X$rtcVarDesc DD 0188H
	DD	08H
	DQ	FLAT:PMC_DivRem_L_X$rtcName$5
	DD	0148H
	DD	08H
	DQ	FLAT:PMC_DivRem_L_X$rtcName$4
	DD	0128H
	DD	08H
	DQ	FLAT:PMC_DivRem_L_X$rtcName$3
	DD	0a4H
	DD	01H
	DQ	FLAT:PMC_DivRem_L_X$rtcName$2
	DD	088H
	DD	08H
	DQ	FLAT:PMC_DivRem_L_X$rtcName$1
	DD	068H
	DD	08H
	DQ	FLAT:PMC_DivRem_L_X$rtcName$0
CONST	ENDS
;	COMDAT xdata
xdata	SEGMENT
$unwind$PMC_DivRem_I_X DD 025054819H
	DD	011c2321H
	DD	07015004fH
	DD	05014H
	DD	imagerel __GSHandlerCheck
	DD	0260H
xdata	ENDS
;	COMDAT CONST
CONST	SEGMENT
PMC_DivRem_I_X$rtcName$0 DB 06eH
	DB	071H
	DB	00H
	ORG $+1
PMC_DivRem_I_X$rtcName$1 DB 06eH
	DB	072H
	DB	00H
	ORG $+1
PMC_DivRem_I_X$rtcName$2 DB 075H
	DB	05fH
	DB	073H
	DB	069H
	DB	067H
	DB	06eH
	DB	00H
	ORG $+1
PMC_DivRem_I_X$rtcName$3 DB 071H
	DB	05fH
	DB	061H
	DB	062H
	DB	073H
	DB	00H
	ORG $+2
PMC_DivRem_I_X$rtcName$4 DB 072H
	DB	05fH
	DB	061H
	DB	062H
	DB	073H
	DB	00H
	ORG $+2
PMC_DivRem_I_X$rtcName$5 DB 072H
	DB	05fH
	DB	061H
	DB	062H
	DB	073H
	DB	00H
	ORG $+2
PMC_DivRem_I_X$rtcFrameData DD 06H
	DD	00H
	DQ	FLAT:PMC_DivRem_I_X$rtcVarDesc
	ORG $+8
PMC_DivRem_I_X$rtcVarDesc DD 0184H
	DD	04H
	DQ	FLAT:PMC_DivRem_I_X$rtcName$5
	DD	0144H
	DD	04H
	DQ	FLAT:PMC_DivRem_I_X$rtcName$4
	DD	0124H
	DD	04H
	DQ	FLAT:PMC_DivRem_I_X$rtcName$3
	DD	0a4H
	DD	01H
	DQ	FLAT:PMC_DivRem_I_X$rtcName$2
	DD	088H
	DD	08H
	DQ	FLAT:PMC_DivRem_I_X$rtcName$1
	DD	068H
	DD	08H
	DQ	FLAT:PMC_DivRem_I_X$rtcName$0
CONST	ENDS
; Function compile flags: /Odt
;	COMDAT __JustMyCode_Default
_TEXT	SEGMENT
__JustMyCode_Default PROC				; COMDAT
	ret	0
__JustMyCode_Default ENDP
_TEXT	ENDS
; Function compile flags: /Odtp /RTCsu /ZI
; File z:\sources\lunor\repos\rougemeilland\palmtree.math.core.uint\palmtree.math.core.uint\pmc_inline_func.h
;	COMDAT GET_ABS_64
_TEXT	SEGMENT
tv68 = 192
u$ = 240
sign$ = 248
GET_ABS_64 PROC						; COMDAT

; 800  :     {

	mov	QWORD PTR [rsp+16], rdx
	mov	QWORD PTR [rsp+8], rcx
	push	rbp
	push	rdi
	sub	rsp, 248				; 000000f8H
	lea	rbp, QWORD PTR [rsp+32]
	mov	rdi, rsp
	mov	ecx, 62					; 0000003eH
	mov	eax, -858993460				; ccccccccH
	rep stosd
	mov	rcx, QWORD PTR [rsp+280]
	lea	rcx, OFFSET FLAT:__8CA3E54E_pmc_inline_func@h
	call	__CheckForDebuggerJustMyCode

; 801  :         if (u > 0)

	cmp	QWORD PTR u$[rbp], 0
	jle	SHORT $LN2@GET_ABS_64

; 802  :         {
; 803  :             *sign = 1;

	mov	rax, QWORD PTR sign$[rbp]
	mov	BYTE PTR [rax], 1

; 804  :             return ((_UINT64_T)u);

	mov	rax, QWORD PTR u$[rbp]
	jmp	SHORT $LN1@GET_ABS_64

; 805  :         }

	jmp	SHORT $LN3@GET_ABS_64
$LN2@GET_ABS_64:

; 806  :         else if (u == 0)

	cmp	QWORD PTR u$[rbp], 0
	jne	SHORT $LN4@GET_ABS_64

; 807  :         {
; 808  :             *sign = 0;

	mov	rax, QWORD PTR sign$[rbp]
	mov	BYTE PTR [rax], 0

; 809  :             return (0);

	xor	eax, eax
	jmp	SHORT $LN1@GET_ABS_64

; 810  :         }

	jmp	SHORT $LN5@GET_ABS_64
$LN4@GET_ABS_64:

; 811  :         else
; 812  :         {
; 813  :             *sign = -1;

	mov	rax, QWORD PTR sign$[rbp]
	mov	BYTE PTR [rax], -1

; 814  :             return ((_UINT64_T)u == 0x8000000000000000UL ? 0x8000000000000000UL : (_UINT64_T)-u);

	mov	rax, -9223372036854775808		; 8000000000000000H
	cmp	QWORD PTR u$[rbp], rax
	jne	SHORT $LN7@GET_ABS_64
	mov	rax, -9223372036854775808		; 8000000000000000H
	mov	QWORD PTR tv68[rbp], rax
	jmp	SHORT $LN8@GET_ABS_64
$LN7@GET_ABS_64:
	mov	rax, QWORD PTR u$[rbp]
	neg	rax
	mov	QWORD PTR tv68[rbp], rax
$LN8@GET_ABS_64:
	mov	rax, QWORD PTR tv68[rbp]
$LN5@GET_ABS_64:
$LN3@GET_ABS_64:
$LN1@GET_ABS_64:

; 815  :         }
; 816  :     }

	lea	rsp, QWORD PTR [rbp+216]
	pop	rdi
	pop	rbp
	ret	0
GET_ABS_64 ENDP
_TEXT	ENDS
; Function compile flags: /Odtp /RTCsu /ZI
; File z:\sources\lunor\repos\rougemeilland\palmtree.math.core.uint\palmtree.math.core.uint\pmc_inline_func.h
;	COMDAT GET_ABS_32
_TEXT	SEGMENT
tv68 = 192
u$ = 240
sign$ = 248
GET_ABS_32 PROC						; COMDAT

; 780  :     {

	mov	QWORD PTR [rsp+16], rdx
	mov	DWORD PTR [rsp+8], ecx
	push	rbp
	push	rdi
	sub	rsp, 248				; 000000f8H
	lea	rbp, QWORD PTR [rsp+32]
	mov	rdi, rsp
	mov	ecx, 62					; 0000003eH
	mov	eax, -858993460				; ccccccccH
	rep stosd
	mov	ecx, DWORD PTR [rsp+280]
	lea	rcx, OFFSET FLAT:__8CA3E54E_pmc_inline_func@h
	call	__CheckForDebuggerJustMyCode

; 781  :         if (u > 0)

	cmp	DWORD PTR u$[rbp], 0
	jle	SHORT $LN2@GET_ABS_32

; 782  :         {
; 783  :             *sign = 1;

	mov	rax, QWORD PTR sign$[rbp]
	mov	BYTE PTR [rax], 1

; 784  :             return ((_UINT32_T)u);

	mov	eax, DWORD PTR u$[rbp]
	jmp	SHORT $LN1@GET_ABS_32

; 785  :         }

	jmp	SHORT $LN3@GET_ABS_32
$LN2@GET_ABS_32:

; 786  :         else if (u == 0)

	cmp	DWORD PTR u$[rbp], 0
	jne	SHORT $LN4@GET_ABS_32

; 787  :         {
; 788  :             *sign = 0;

	mov	rax, QWORD PTR sign$[rbp]
	mov	BYTE PTR [rax], 0

; 789  :             return (0);

	xor	eax, eax
	jmp	SHORT $LN1@GET_ABS_32

; 790  :         }

	jmp	SHORT $LN5@GET_ABS_32
$LN4@GET_ABS_32:

; 791  :         else
; 792  :         {
; 793  :             *sign = -1;

	mov	rax, QWORD PTR sign$[rbp]
	mov	BYTE PTR [rax], -1

; 794  :             return ((_UINT32_T)u == 0x80000000U ? 0x80000000U : (_UINT32_T)-u);

	cmp	DWORD PTR u$[rbp], -2147483648		; 80000000H
	jne	SHORT $LN7@GET_ABS_32
	mov	DWORD PTR tv68[rbp], -2147483648	; 80000000H
	jmp	SHORT $LN8@GET_ABS_32
$LN7@GET_ABS_32:
	mov	eax, DWORD PTR u$[rbp]
	neg	eax
	mov	DWORD PTR tv68[rbp], eax
$LN8@GET_ABS_32:
	mov	eax, DWORD PTR tv68[rbp]
$LN5@GET_ABS_32:
$LN3@GET_ABS_32:
$LN1@GET_ABS_32:

; 795  :         }
; 796  : }

	lea	rsp, QWORD PTR [rbp+216]
	pop	rdi
	pop	rbp
	ret	0
GET_ABS_32 ENDP
_TEXT	ENDS
; Function compile flags: /Odtp /RTCsu /ZI
; File z:\sources\lunor\repos\rougemeilland\palmtree.math.core.sint\palmtree.math.core.sint\pmc_divrem.c
;	COMDAT PMC_DivRem_X_X
_TEXT	SEGMENT
result$ = 4
nu$ = 40
nv$ = 72
nq$ = 104
nr$ = 136
q_sign$8 = 164
r_sign$9 = 196
q_abs$10 = 232
r_abs$11 = 264
r_sign$12 = 292
r_abs$13 = 328
tv175 = 532
tv152 = 532
tv139 = 532
tv90 = 532
tv80 = 536
__$ArrayPad$ = 544
u$ = 592
v$ = 600
q$ = 608
r$ = 616
PMC_DivRem_X_X PROC					; COMDAT

; 418  : {

$LN29:
	mov	QWORD PTR [rsp+32], r9
	mov	QWORD PTR [rsp+24], r8
	mov	QWORD PTR [rsp+16], rdx
	mov	QWORD PTR [rsp+8], rcx
	push	rbp
	push	rdi
	sub	rsp, 600				; 00000258H
	lea	rbp, QWORD PTR [rsp+32]
	mov	rdi, rsp
	mov	ecx, 150				; 00000096H
	mov	eax, -858993460				; ccccccccH
	rep stosd
	mov	rcx, QWORD PTR [rsp+632]
	mov	rax, QWORD PTR __security_cookie
	xor	rax, rbp
	mov	QWORD PTR __$ArrayPad$[rbp], rax
	lea	rcx, OFFSET FLAT:__E9C852B3_pmc_divrem@c
	call	__CheckForDebuggerJustMyCode

; 419  :     if (u == NULL)

	cmp	QWORD PTR u$[rbp], 0
	jne	SHORT $LN2@PMC_DivRem

; 420  :         return (PMC_STATUS_ARGUMENT_ERROR);

	mov	eax, -1
	jmp	$LN1@PMC_DivRem
$LN2@PMC_DivRem:

; 421  :     if (v == NULL)

	cmp	QWORD PTR v$[rbp], 0
	jne	SHORT $LN3@PMC_DivRem

; 422  :         return (PMC_STATUS_ARGUMENT_ERROR);

	mov	eax, -1
	jmp	$LN1@PMC_DivRem
$LN3@PMC_DivRem:

; 423  :     if (r == NULL)

	cmp	QWORD PTR r$[rbp], 0
	jne	SHORT $LN4@PMC_DivRem

; 424  :         return (PMC_STATUS_ARGUMENT_ERROR);

	mov	eax, -1
	jmp	$LN1@PMC_DivRem
$LN4@PMC_DivRem:

; 425  :     PMC_STATUS_CODE result;
; 426  :     NUMBER_HEADER* nu = (NUMBER_HEADER*)u;

	mov	rax, QWORD PTR u$[rbp]
	mov	QWORD PTR nu$[rbp], rax

; 427  :     NUMBER_HEADER* nv = (NUMBER_HEADER*)v;

	mov	rax, QWORD PTR v$[rbp]
	mov	QWORD PTR nv$[rbp], rax

; 428  :     NUMBER_HEADER* nq;
; 429  :     NUMBER_HEADER* nr;
; 430  :     if ((result = CheckNumber(nu)) != PMC_STATUS_OK)

	mov	rcx, QWORD PTR nu$[rbp]
	call	CheckNumber
	mov	DWORD PTR result$[rbp], eax
	cmp	DWORD PTR result$[rbp], 0
	je	SHORT $LN5@PMC_DivRem

; 431  :         return (result);

	mov	eax, DWORD PTR result$[rbp]
	jmp	$LN1@PMC_DivRem
$LN5@PMC_DivRem:

; 432  :     if ((result = CheckNumber(nv)) != PMC_STATUS_OK)

	mov	rcx, QWORD PTR nv$[rbp]
	call	CheckNumber
	mov	DWORD PTR result$[rbp], eax
	cmp	DWORD PTR result$[rbp], 0
	je	SHORT $LN6@PMC_DivRem

; 433  :         return (result);

	mov	eax, DWORD PTR result$[rbp]
	jmp	$LN1@PMC_DivRem
$LN6@PMC_DivRem:

; 434  :     if (nv->IS_ZERO)

	mov	rax, QWORD PTR nv$[rbp]
	mov	eax, DWORD PTR [rax]
	and	eax, 1
	test	eax, eax
	je	SHORT $LN7@PMC_DivRem

; 435  :     {
; 436  :         // v == 0 の場合
; 437  : 
; 438  :         // エラーを返す
; 439  :         return (PMC_STATUS_DIVISION_BY_ZERO);

	mov	eax, -3
	jmp	$LN1@PMC_DivRem
$LN7@PMC_DivRem:

; 440  :     }
; 441  :     if (nu->SIGN == 0)

	mov	rax, QWORD PTR nu$[rbp]
	movsx	eax, BYTE PTR [rax+24]
	test	eax, eax
	jne	SHORT $LN8@PMC_DivRem

; 442  :     {
; 443  :         // u == 0 の場合
; 444  : 
; 445  :         nq = q != NULL ? nq = &number_zero : NULL;

	cmp	QWORD PTR q$[rbp], 0
	je	SHORT $LN19@PMC_DivRem
	lea	rax, OFFSET FLAT:number_zero
	mov	QWORD PTR nq$[rbp], rax
	mov	rax, QWORD PTR nq$[rbp]
	mov	QWORD PTR tv80[rbp], rax
	jmp	SHORT $LN20@PMC_DivRem
$LN19@PMC_DivRem:
	mov	QWORD PTR tv80[rbp], 0
$LN20@PMC_DivRem:
	mov	rax, QWORD PTR tv80[rbp]
	mov	QWORD PTR nq$[rbp], rax

; 446  :         nr = &number_zero;

	lea	rax, OFFSET FLAT:number_zero
	mov	QWORD PTR nr$[rbp], rax

; 447  :     }

	jmp	$LN9@PMC_DivRem
$LN8@PMC_DivRem:

; 448  :     else
; 449  :     {
; 450  :         // u != 0 の場合
; 451  : 
; 452  :         if (q != NULL)

	cmp	QWORD PTR q$[rbp], 0
	je	$LN10@PMC_DivRem

; 453  :         {
; 454  :             char q_sign = nu->SIGN > 0 ? nv->SIGN : -nv->SIGN;

	mov	rax, QWORD PTR nu$[rbp]
	movsx	eax, BYTE PTR [rax+24]
	test	eax, eax
	jle	SHORT $LN21@PMC_DivRem
	mov	rax, QWORD PTR nv$[rbp]
	movsx	eax, BYTE PTR [rax+24]
	mov	DWORD PTR tv90[rbp], eax
	jmp	SHORT $LN22@PMC_DivRem
$LN21@PMC_DivRem:
	mov	rax, QWORD PTR nv$[rbp]
	movsx	eax, BYTE PTR [rax+24]
	neg	eax
	mov	DWORD PTR tv90[rbp], eax
$LN22@PMC_DivRem:
	movzx	eax, BYTE PTR tv90[rbp]
	mov	BYTE PTR q_sign$8[rbp], al

; 455  :             char r_sign = nu->SIGN;

	mov	rax, QWORD PTR nu$[rbp]
	movzx	eax, BYTE PTR [rax+24]
	mov	BYTE PTR r_sign$9[rbp], al

; 456  :             PMC_HANDLE_UINT q_abs;
; 457  :             PMC_HANDLE_UINT r_abs;
; 458  :             if ((result = ep_uint.DivRem_X_X(nu->ABS, nv->ABS, &q_abs, &r_abs)) != PMC_STATUS_OK)

	lea	r9, QWORD PTR r_abs$11[rbp]
	lea	r8, QWORD PTR q_abs$10[rbp]
	mov	rax, QWORD PTR nv$[rbp]
	mov	rdx, QWORD PTR [rax+16]
	mov	rax, QWORD PTR nu$[rbp]
	mov	rcx, QWORD PTR [rax+16]
	call	QWORD PTR ep_uint+256
	mov	DWORD PTR result$[rbp], eax
	cmp	DWORD PTR result$[rbp], 0
	je	SHORT $LN12@PMC_DivRem

; 459  :                 return (result);

	mov	eax, DWORD PTR result$[rbp]
	jmp	$LN1@PMC_DivRem
$LN12@PMC_DivRem:

; 460  :             if ((result = AllocateNumber(&nq, q_abs->FLAGS.IS_ZERO ? 0 : q_sign, q_abs)) != PMC_STATUS_OK)

	mov	rax, QWORD PTR q_abs$10[rbp]
	mov	eax, DWORD PTR [rax]
	and	eax, 1
	test	eax, eax
	je	SHORT $LN23@PMC_DivRem
	mov	DWORD PTR tv139[rbp], 0
	jmp	SHORT $LN24@PMC_DivRem
$LN23@PMC_DivRem:
	movsx	eax, BYTE PTR q_sign$8[rbp]
	mov	DWORD PTR tv139[rbp], eax
$LN24@PMC_DivRem:
	mov	r8, QWORD PTR q_abs$10[rbp]
	movzx	edx, BYTE PTR tv139[rbp]
	lea	rcx, QWORD PTR nq$[rbp]
	call	AllocateNumber
	mov	DWORD PTR result$[rbp], eax
	cmp	DWORD PTR result$[rbp], 0
	je	SHORT $LN13@PMC_DivRem

; 461  :             {
; 462  :                 ep_uint.Dispose(q_abs);

	mov	rcx, QWORD PTR q_abs$10[rbp]
	call	QWORD PTR ep_uint+32

; 463  :                 ep_uint.Dispose(r_abs);

	mov	rcx, QWORD PTR r_abs$11[rbp]
	call	QWORD PTR ep_uint+32

; 464  :                 return (result);

	mov	eax, DWORD PTR result$[rbp]
	jmp	$LN1@PMC_DivRem
$LN13@PMC_DivRem:

; 465  :             }
; 466  :             if ((result = AllocateNumber(&nr, r_abs->FLAGS.IS_ZERO ? 0 : r_sign, r_abs)) != PMC_STATUS_OK)

	mov	rax, QWORD PTR r_abs$11[rbp]
	mov	eax, DWORD PTR [rax]
	and	eax, 1
	test	eax, eax
	je	SHORT $LN25@PMC_DivRem
	mov	DWORD PTR tv152[rbp], 0
	jmp	SHORT $LN26@PMC_DivRem
$LN25@PMC_DivRem:
	movsx	eax, BYTE PTR r_sign$9[rbp]
	mov	DWORD PTR tv152[rbp], eax
$LN26@PMC_DivRem:
	mov	r8, QWORD PTR r_abs$11[rbp]
	movzx	edx, BYTE PTR tv152[rbp]
	lea	rcx, QWORD PTR nr$[rbp]
	call	AllocateNumber
	mov	DWORD PTR result$[rbp], eax
	cmp	DWORD PTR result$[rbp], 0
	je	SHORT $LN14@PMC_DivRem

; 467  :             {
; 468  :                 ep_uint.Dispose(q_abs);

	mov	rcx, QWORD PTR q_abs$10[rbp]
	call	QWORD PTR ep_uint+32

; 469  :                 ep_uint.Dispose(r_abs);

	mov	rcx, QWORD PTR r_abs$11[rbp]
	call	QWORD PTR ep_uint+32

; 470  :                 DeallocateNumber(nq);

	mov	rcx, QWORD PTR nq$[rbp]
	call	DeallocateNumber

; 471  :                 return (result);

	mov	eax, DWORD PTR result$[rbp]
	jmp	$LN1@PMC_DivRem
$LN14@PMC_DivRem:

; 472  :             }
; 473  :         }

	jmp	$LN11@PMC_DivRem
$LN10@PMC_DivRem:

; 474  :         else
; 475  :         {
; 476  :             char r_sign = nu->SIGN;

	mov	rax, QWORD PTR nu$[rbp]
	movzx	eax, BYTE PTR [rax+24]
	mov	BYTE PTR r_sign$12[rbp], al

; 477  :             PMC_HANDLE_UINT r_abs;
; 478  :             if ((result = ep_uint.DivRem_X_X(nu->ABS, nv->ABS, NULL, &r_abs)) != PMC_STATUS_OK)

	lea	r9, QWORD PTR r_abs$13[rbp]
	xor	r8d, r8d
	mov	rax, QWORD PTR nv$[rbp]
	mov	rdx, QWORD PTR [rax+16]
	mov	rax, QWORD PTR nu$[rbp]
	mov	rcx, QWORD PTR [rax+16]
	call	QWORD PTR ep_uint+256
	mov	DWORD PTR result$[rbp], eax
	cmp	DWORD PTR result$[rbp], 0
	je	SHORT $LN15@PMC_DivRem

; 479  :                 return (result);

	mov	eax, DWORD PTR result$[rbp]
	jmp	$LN1@PMC_DivRem
$LN15@PMC_DivRem:

; 480  :             nq = NULL;

	mov	QWORD PTR nq$[rbp], 0

; 481  :             if ((result = AllocateNumber(&nr, r_abs->FLAGS.IS_ZERO ? 0 : r_sign, r_abs)) != PMC_STATUS_OK)

	mov	rax, QWORD PTR r_abs$13[rbp]
	mov	eax, DWORD PTR [rax]
	and	eax, 1
	test	eax, eax
	je	SHORT $LN27@PMC_DivRem
	mov	DWORD PTR tv175[rbp], 0
	jmp	SHORT $LN28@PMC_DivRem
$LN27@PMC_DivRem:
	movsx	eax, BYTE PTR r_sign$12[rbp]
	mov	DWORD PTR tv175[rbp], eax
$LN28@PMC_DivRem:
	mov	r8, QWORD PTR r_abs$13[rbp]
	movzx	edx, BYTE PTR tv175[rbp]
	lea	rcx, QWORD PTR nr$[rbp]
	call	AllocateNumber
	mov	DWORD PTR result$[rbp], eax
	cmp	DWORD PTR result$[rbp], 0
	je	SHORT $LN16@PMC_DivRem

; 482  :             {
; 483  :                 ep_uint.Dispose(r_abs);

	mov	rcx, QWORD PTR r_abs$13[rbp]
	call	QWORD PTR ep_uint+32

; 484  :                 return (result);

	mov	eax, DWORD PTR result$[rbp]
	jmp	SHORT $LN1@PMC_DivRem
$LN16@PMC_DivRem:
$LN11@PMC_DivRem:
$LN9@PMC_DivRem:

; 485  :             }
; 486  :         }
; 487  :     }
; 488  :     if (q != NULL)

	cmp	QWORD PTR q$[rbp], 0
	je	SHORT $LN17@PMC_DivRem

; 489  :         *q = (PMC_HANDLE_SINT)nq;

	mov	rax, QWORD PTR q$[rbp]
	mov	rcx, QWORD PTR nq$[rbp]
	mov	QWORD PTR [rax], rcx
$LN17@PMC_DivRem:

; 490  :     *r = (PMC_HANDLE_SINT)nr;

	mov	rax, QWORD PTR r$[rbp]
	mov	rcx, QWORD PTR nr$[rbp]
	mov	QWORD PTR [rax], rcx

; 491  :     return (PMC_STATUS_OK);

	xor	eax, eax
$LN1@PMC_DivRem:

; 492  : }

	mov	rdi, rax
	lea	rcx, QWORD PTR [rbp-32]
	lea	rdx, OFFSET FLAT:PMC_DivRem_X_X$rtcFrameData
	call	_RTC_CheckStackVars
	mov	rax, rdi
	mov	rcx, QWORD PTR __$ArrayPad$[rbp]
	xor	rcx, rbp
	call	__security_check_cookie
	lea	rsp, QWORD PTR [rbp+568]
	pop	rdi
	pop	rbp
	ret	0
PMC_DivRem_X_X ENDP
_TEXT	ENDS
; Function compile flags: /Odtp /RTCsu /ZI
; File z:\sources\lunor\repos\rougemeilland\palmtree.math.core.sint\palmtree.math.core.sint\pmc_divrem.c
;	COMDAT PMC_DivRem_X_UX
_TEXT	SEGMENT
result$ = 4
nu$ = 40
nq$ = 72
nr$ = 104
q_sign$8 = 132
r_sign$9 = 164
q_abs$10 = 200
r_abs$11 = 232
r_sign$12 = 260
r_abs$13 = 296
tv161 = 500
tv139 = 500
tv94 = 500
tv77 = 504
__$ArrayPad$ = 512
u$ = 560
v$ = 568
q$ = 576
r$ = 584
PMC_DivRem_X_UX PROC					; COMDAT

; 344  : {

$LN26:
	mov	QWORD PTR [rsp+32], r9
	mov	QWORD PTR [rsp+24], r8
	mov	QWORD PTR [rsp+16], rdx
	mov	QWORD PTR [rsp+8], rcx
	push	rbp
	push	rdi
	sub	rsp, 568				; 00000238H
	lea	rbp, QWORD PTR [rsp+32]
	mov	rdi, rsp
	mov	ecx, 142				; 0000008eH
	mov	eax, -858993460				; ccccccccH
	rep stosd
	mov	rcx, QWORD PTR [rsp+600]
	mov	rax, QWORD PTR __security_cookie
	xor	rax, rbp
	mov	QWORD PTR __$ArrayPad$[rbp], rax
	lea	rcx, OFFSET FLAT:__E9C852B3_pmc_divrem@c
	call	__CheckForDebuggerJustMyCode

; 345  :     if (u == NULL)

	cmp	QWORD PTR u$[rbp], 0
	jne	SHORT $LN2@PMC_DivRem

; 346  :         return (PMC_STATUS_ARGUMENT_ERROR);

	mov	eax, -1
	jmp	$LN1@PMC_DivRem
$LN2@PMC_DivRem:

; 347  :     if (v == NULL)

	cmp	QWORD PTR v$[rbp], 0
	jne	SHORT $LN3@PMC_DivRem

; 348  :         return (PMC_STATUS_ARGUMENT_ERROR);

	mov	eax, -1
	jmp	$LN1@PMC_DivRem
$LN3@PMC_DivRem:

; 349  :     if (r == NULL)

	cmp	QWORD PTR r$[rbp], 0
	jne	SHORT $LN4@PMC_DivRem

; 350  :         return (PMC_STATUS_ARGUMENT_ERROR);

	mov	eax, -1
	jmp	$LN1@PMC_DivRem
$LN4@PMC_DivRem:

; 351  :     PMC_STATUS_CODE result;
; 352  :     NUMBER_HEADER* nu = (NUMBER_HEADER*)u;

	mov	rax, QWORD PTR u$[rbp]
	mov	QWORD PTR nu$[rbp], rax

; 353  :     NUMBER_HEADER* nq;
; 354  :     NUMBER_HEADER* nr;
; 355  :     if ((result = CheckNumber(nu)) != PMC_STATUS_OK)

	mov	rcx, QWORD PTR nu$[rbp]
	call	CheckNumber
	mov	DWORD PTR result$[rbp], eax
	cmp	DWORD PTR result$[rbp], 0
	je	SHORT $LN5@PMC_DivRem

; 356  :         return (result);

	mov	eax, DWORD PTR result$[rbp]
	jmp	$LN1@PMC_DivRem
$LN5@PMC_DivRem:

; 357  :     if (v->FLAGS.IS_ZERO)

	mov	rax, QWORD PTR v$[rbp]
	mov	eax, DWORD PTR [rax]
	and	eax, 1
	test	eax, eax
	je	SHORT $LN6@PMC_DivRem

; 358  :     {
; 359  :         // v == 0 の場合
; 360  : 
; 361  :         // エラーを返す
; 362  :         return (PMC_STATUS_DIVISION_BY_ZERO);

	mov	eax, -3
	jmp	$LN1@PMC_DivRem
$LN6@PMC_DivRem:

; 363  :     }
; 364  :     if (nu->SIGN == 0)

	mov	rax, QWORD PTR nu$[rbp]
	movsx	eax, BYTE PTR [rax+24]
	test	eax, eax
	jne	SHORT $LN7@PMC_DivRem

; 365  :     {
; 366  :         // u == 0 の場合
; 367  : 
; 368  :         nq = q != NULL ? nq = &number_zero : NULL;

	cmp	QWORD PTR q$[rbp], 0
	je	SHORT $LN18@PMC_DivRem
	lea	rax, OFFSET FLAT:number_zero
	mov	QWORD PTR nq$[rbp], rax
	mov	rax, QWORD PTR nq$[rbp]
	mov	QWORD PTR tv77[rbp], rax
	jmp	SHORT $LN19@PMC_DivRem
$LN18@PMC_DivRem:
	mov	QWORD PTR tv77[rbp], 0
$LN19@PMC_DivRem:
	mov	rax, QWORD PTR tv77[rbp]
	mov	QWORD PTR nq$[rbp], rax

; 369  :         nr = &number_zero;

	lea	rax, OFFSET FLAT:number_zero
	mov	QWORD PTR nr$[rbp], rax

; 370  :     }

	jmp	$LN8@PMC_DivRem
$LN7@PMC_DivRem:

; 371  :     else
; 372  :     {
; 373  :         // u != 0 の場合
; 374  : 
; 375  :         if (q != NULL)

	cmp	QWORD PTR q$[rbp], 0
	je	$LN9@PMC_DivRem

; 376  :         {
; 377  :             char q_sign = nu->SIGN;

	mov	rax, QWORD PTR nu$[rbp]
	movzx	eax, BYTE PTR [rax+24]
	mov	BYTE PTR q_sign$8[rbp], al

; 378  :             char r_sign = nu->SIGN;

	mov	rax, QWORD PTR nu$[rbp]
	movzx	eax, BYTE PTR [rax+24]
	mov	BYTE PTR r_sign$9[rbp], al

; 379  :             PMC_HANDLE_UINT q_abs;
; 380  :             PMC_HANDLE_UINT r_abs;
; 381  :             if ((result = ep_uint.DivRem_X_X(nu->ABS, v, &q_abs, &r_abs)) != PMC_STATUS_OK)

	lea	r9, QWORD PTR r_abs$11[rbp]
	lea	r8, QWORD PTR q_abs$10[rbp]
	mov	rdx, QWORD PTR v$[rbp]
	mov	rax, QWORD PTR nu$[rbp]
	mov	rcx, QWORD PTR [rax+16]
	call	QWORD PTR ep_uint+256
	mov	DWORD PTR result$[rbp], eax
	cmp	DWORD PTR result$[rbp], 0
	je	SHORT $LN11@PMC_DivRem

; 382  :                 return (result);

	mov	eax, DWORD PTR result$[rbp]
	jmp	$LN1@PMC_DivRem
$LN11@PMC_DivRem:

; 383  :             if ((result = AllocateNumber(&nq, q_abs->FLAGS.IS_ZERO ? 0 : q_sign, q_abs)) != PMC_STATUS_OK)

	mov	rax, QWORD PTR q_abs$10[rbp]
	mov	eax, DWORD PTR [rax]
	and	eax, 1
	test	eax, eax
	je	SHORT $LN20@PMC_DivRem
	mov	DWORD PTR tv94[rbp], 0
	jmp	SHORT $LN21@PMC_DivRem
$LN20@PMC_DivRem:
	movsx	eax, BYTE PTR q_sign$8[rbp]
	mov	DWORD PTR tv94[rbp], eax
$LN21@PMC_DivRem:
	mov	r8, QWORD PTR q_abs$10[rbp]
	movzx	edx, BYTE PTR tv94[rbp]
	lea	rcx, QWORD PTR nq$[rbp]
	call	AllocateNumber
	mov	DWORD PTR result$[rbp], eax
	cmp	DWORD PTR result$[rbp], 0
	je	SHORT $LN12@PMC_DivRem

; 384  :             {
; 385  :                 ep_uint.Dispose(q_abs);

	mov	rcx, QWORD PTR q_abs$10[rbp]
	call	QWORD PTR ep_uint+32

; 386  :                 ep_uint.Dispose(r_abs);

	mov	rcx, QWORD PTR r_abs$11[rbp]
	call	QWORD PTR ep_uint+32

; 387  :                 return (result);

	mov	eax, DWORD PTR result$[rbp]
	jmp	$LN1@PMC_DivRem
$LN12@PMC_DivRem:

; 388  :             }
; 389  :             if ((result = AllocateNumber(&nr, r_abs->FLAGS.IS_ZERO ? 0 : r_sign, r_abs)) != PMC_STATUS_OK)

	mov	rax, QWORD PTR r_abs$11[rbp]
	mov	eax, DWORD PTR [rax]
	and	eax, 1
	test	eax, eax
	je	SHORT $LN22@PMC_DivRem
	mov	DWORD PTR tv139[rbp], 0
	jmp	SHORT $LN23@PMC_DivRem
$LN22@PMC_DivRem:
	movsx	eax, BYTE PTR r_sign$9[rbp]
	mov	DWORD PTR tv139[rbp], eax
$LN23@PMC_DivRem:
	mov	r8, QWORD PTR r_abs$11[rbp]
	movzx	edx, BYTE PTR tv139[rbp]
	lea	rcx, QWORD PTR nr$[rbp]
	call	AllocateNumber
	mov	DWORD PTR result$[rbp], eax
	cmp	DWORD PTR result$[rbp], 0
	je	SHORT $LN13@PMC_DivRem

; 390  :             {
; 391  :                 ep_uint.Dispose(q_abs);

	mov	rcx, QWORD PTR q_abs$10[rbp]
	call	QWORD PTR ep_uint+32

; 392  :                 ep_uint.Dispose(r_abs);

	mov	rcx, QWORD PTR r_abs$11[rbp]
	call	QWORD PTR ep_uint+32

; 393  :                 DeallocateNumber(nq);

	mov	rcx, QWORD PTR nq$[rbp]
	call	DeallocateNumber

; 394  :                 return (result);

	mov	eax, DWORD PTR result$[rbp]
	jmp	$LN1@PMC_DivRem
$LN13@PMC_DivRem:

; 395  :             }
; 396  :         }

	jmp	$LN10@PMC_DivRem
$LN9@PMC_DivRem:

; 397  :         else
; 398  :         {
; 399  :             char r_sign = nu->SIGN;

	mov	rax, QWORD PTR nu$[rbp]
	movzx	eax, BYTE PTR [rax+24]
	mov	BYTE PTR r_sign$12[rbp], al

; 400  :             PMC_HANDLE_UINT r_abs;
; 401  :             if ((result = ep_uint.DivRem_X_X(nu->ABS, v, NULL, &r_abs)) != PMC_STATUS_OK)

	lea	r9, QWORD PTR r_abs$13[rbp]
	xor	r8d, r8d
	mov	rdx, QWORD PTR v$[rbp]
	mov	rax, QWORD PTR nu$[rbp]
	mov	rcx, QWORD PTR [rax+16]
	call	QWORD PTR ep_uint+256
	mov	DWORD PTR result$[rbp], eax
	cmp	DWORD PTR result$[rbp], 0
	je	SHORT $LN14@PMC_DivRem

; 402  :                 return (result);

	mov	eax, DWORD PTR result$[rbp]
	jmp	$LN1@PMC_DivRem
$LN14@PMC_DivRem:

; 403  :             nq = NULL;

	mov	QWORD PTR nq$[rbp], 0

; 404  :             if ((result = AllocateNumber(&nr, r_abs->FLAGS.IS_ZERO ? 0 : r_sign, r_abs)) != PMC_STATUS_OK)

	mov	rax, QWORD PTR r_abs$13[rbp]
	mov	eax, DWORD PTR [rax]
	and	eax, 1
	test	eax, eax
	je	SHORT $LN24@PMC_DivRem
	mov	DWORD PTR tv161[rbp], 0
	jmp	SHORT $LN25@PMC_DivRem
$LN24@PMC_DivRem:
	movsx	eax, BYTE PTR r_sign$12[rbp]
	mov	DWORD PTR tv161[rbp], eax
$LN25@PMC_DivRem:
	mov	r8, QWORD PTR r_abs$13[rbp]
	movzx	edx, BYTE PTR tv161[rbp]
	lea	rcx, QWORD PTR nr$[rbp]
	call	AllocateNumber
	mov	DWORD PTR result$[rbp], eax
	cmp	DWORD PTR result$[rbp], 0
	je	SHORT $LN15@PMC_DivRem

; 405  :             {
; 406  :                 ep_uint.Dispose(r_abs);

	mov	rcx, QWORD PTR r_abs$13[rbp]
	call	QWORD PTR ep_uint+32

; 407  :                 return (result);

	mov	eax, DWORD PTR result$[rbp]
	jmp	SHORT $LN1@PMC_DivRem
$LN15@PMC_DivRem:
$LN10@PMC_DivRem:
$LN8@PMC_DivRem:

; 408  :             }
; 409  :         }
; 410  :     }
; 411  :     if (q != NULL)

	cmp	QWORD PTR q$[rbp], 0
	je	SHORT $LN16@PMC_DivRem

; 412  :         *q = (PMC_HANDLE_SINT)nq;

	mov	rax, QWORD PTR q$[rbp]
	mov	rcx, QWORD PTR nq$[rbp]
	mov	QWORD PTR [rax], rcx
$LN16@PMC_DivRem:

; 413  :     *r = (PMC_HANDLE_SINT)nr;

	mov	rax, QWORD PTR r$[rbp]
	mov	rcx, QWORD PTR nr$[rbp]
	mov	QWORD PTR [rax], rcx

; 414  :     return (PMC_STATUS_OK);

	xor	eax, eax
$LN1@PMC_DivRem:

; 415  : }

	mov	rdi, rax
	lea	rcx, QWORD PTR [rbp-32]
	lea	rdx, OFFSET FLAT:PMC_DivRem_X_UX$rtcFrameData
	call	_RTC_CheckStackVars
	mov	rax, rdi
	mov	rcx, QWORD PTR __$ArrayPad$[rbp]
	xor	rcx, rbp
	call	__security_check_cookie
	lea	rsp, QWORD PTR [rbp+536]
	pop	rdi
	pop	rbp
	ret	0
PMC_DivRem_X_UX ENDP
_TEXT	ENDS
; Function compile flags: /Odtp /RTCsu /ZI
; File z:\sources\lunor\repos\rougemeilland\palmtree.math.core.sint\palmtree.math.core.sint\pmc_divrem.c
;	COMDAT PMC_DivRem_X_L
_TEXT	SEGMENT
result$ = 4
nu$ = 40
nq$ = 72
v_sign$ = 100
v_abs$ = 136
q_sign$8 = 164
r_sign$9 = 196
q_abs$10 = 232
r_abs$11 = 264
r_sign$12 = 292
r_abs$13 = 328
tv134 = 532
tv86 = 532
tv155 = 536
tv143 = 536
tv78 = 536
__$ArrayPad$ = 544
u$ = 592
v$ = 600
q$ = 608
r$ = 616
PMC_DivRem_X_L PROC					; COMDAT

; 283  : {

$LN25:
	mov	QWORD PTR [rsp+32], r9
	mov	QWORD PTR [rsp+24], r8
	mov	QWORD PTR [rsp+16], rdx
	mov	QWORD PTR [rsp+8], rcx
	push	rbp
	push	rdi
	sub	rsp, 600				; 00000258H
	lea	rbp, QWORD PTR [rsp+32]
	mov	rdi, rsp
	mov	ecx, 150				; 00000096H
	mov	eax, -858993460				; ccccccccH
	rep stosd
	mov	rcx, QWORD PTR [rsp+632]
	mov	rax, QWORD PTR __security_cookie
	xor	rax, rbp
	mov	QWORD PTR __$ArrayPad$[rbp], rax
	lea	rcx, OFFSET FLAT:__E9C852B3_pmc_divrem@c
	call	__CheckForDebuggerJustMyCode

; 284  :     if (u == NULL)

	cmp	QWORD PTR u$[rbp], 0
	jne	SHORT $LN2@PMC_DivRem

; 285  :         return (PMC_STATUS_ARGUMENT_ERROR);

	mov	eax, -1
	jmp	$LN1@PMC_DivRem
$LN2@PMC_DivRem:

; 286  :     if (r == NULL)

	cmp	QWORD PTR r$[rbp], 0
	jne	SHORT $LN3@PMC_DivRem

; 287  :         return (PMC_STATUS_ARGUMENT_ERROR);

	mov	eax, -1
	jmp	$LN1@PMC_DivRem
$LN3@PMC_DivRem:

; 288  :     PMC_STATUS_CODE result;
; 289  :     NUMBER_HEADER* nu = (NUMBER_HEADER*)u;

	mov	rax, QWORD PTR u$[rbp]
	mov	QWORD PTR nu$[rbp], rax

; 290  :     NUMBER_HEADER* nq;
; 291  :     if ((result = CheckNumber(nu)) != PMC_STATUS_OK)

	mov	rcx, QWORD PTR nu$[rbp]
	call	CheckNumber
	mov	DWORD PTR result$[rbp], eax
	cmp	DWORD PTR result$[rbp], 0
	je	SHORT $LN4@PMC_DivRem

; 292  :         return (result);

	mov	eax, DWORD PTR result$[rbp]
	jmp	$LN1@PMC_DivRem
$LN4@PMC_DivRem:

; 293  :     char v_sign;
; 294  :     _UINT64_T v_abs = GET_ABS_64(v, &v_sign);

	lea	rdx, QWORD PTR v_sign$[rbp]
	mov	rcx, QWORD PTR v$[rbp]
	call	GET_ABS_64
	mov	QWORD PTR v_abs$[rbp], rax

; 295  :     if (v_sign == 0)

	movsx	eax, BYTE PTR v_sign$[rbp]
	test	eax, eax
	jne	SHORT $LN5@PMC_DivRem

; 296  :     {
; 297  :         // v == 0 の場合
; 298  : 
; 299  :         // エラーを返す
; 300  :         return (PMC_STATUS_DIVISION_BY_ZERO);

	mov	eax, -3
	jmp	$LN1@PMC_DivRem
$LN5@PMC_DivRem:

; 301  :     }
; 302  :     if (nu->SIGN == 0)

	mov	rax, QWORD PTR nu$[rbp]
	movsx	eax, BYTE PTR [rax+24]
	test	eax, eax
	jne	SHORT $LN6@PMC_DivRem

; 303  :     {
; 304  :         // u == 0 の場合
; 305  : 
; 306  :         nq = q != NULL ? nq = &number_zero : NULL;

	cmp	QWORD PTR q$[rbp], 0
	je	SHORT $LN15@PMC_DivRem
	lea	rax, OFFSET FLAT:number_zero
	mov	QWORD PTR nq$[rbp], rax
	mov	rax, QWORD PTR nq$[rbp]
	mov	QWORD PTR tv78[rbp], rax
	jmp	SHORT $LN16@PMC_DivRem
$LN15@PMC_DivRem:
	mov	QWORD PTR tv78[rbp], 0
$LN16@PMC_DivRem:
	mov	rax, QWORD PTR tv78[rbp]
	mov	QWORD PTR nq$[rbp], rax

; 307  :         *r = 0;

	mov	rax, QWORD PTR r$[rbp]
	mov	QWORD PTR [rax], 0

; 308  :     }

	jmp	$LN7@PMC_DivRem
$LN6@PMC_DivRem:

; 309  :     else
; 310  :     {
; 311  :         // u != 0 の場合
; 312  : 
; 313  :         if (q != NULL)

	cmp	QWORD PTR q$[rbp], 0
	je	$LN8@PMC_DivRem

; 314  :         {
; 315  :             char q_sign = nu->SIGN > 0 ? v_sign : -v_sign;

	mov	rax, QWORD PTR nu$[rbp]
	movsx	eax, BYTE PTR [rax+24]
	test	eax, eax
	jle	SHORT $LN17@PMC_DivRem
	movsx	eax, BYTE PTR v_sign$[rbp]
	mov	DWORD PTR tv86[rbp], eax
	jmp	SHORT $LN18@PMC_DivRem
$LN17@PMC_DivRem:
	movsx	eax, BYTE PTR v_sign$[rbp]
	neg	eax
	mov	DWORD PTR tv86[rbp], eax
$LN18@PMC_DivRem:
	movzx	eax, BYTE PTR tv86[rbp]
	mov	BYTE PTR q_sign$8[rbp], al

; 316  :             char r_sign = nu->SIGN;

	mov	rax, QWORD PTR nu$[rbp]
	movzx	eax, BYTE PTR [rax+24]
	mov	BYTE PTR r_sign$9[rbp], al

; 317  :             PMC_HANDLE_UINT q_abs;
; 318  :             _UINT64_T r_abs;
; 319  :             if ((result = ep_uint.DivRem_X_L(nu->ABS, v_abs, &q_abs, &r_abs)) != PMC_STATUS_OK)

	lea	r9, QWORD PTR r_abs$11[rbp]
	lea	r8, QWORD PTR q_abs$10[rbp]
	mov	rdx, QWORD PTR v_abs$[rbp]
	mov	rax, QWORD PTR nu$[rbp]
	mov	rcx, QWORD PTR [rax+16]
	call	QWORD PTR ep_uint+248
	mov	DWORD PTR result$[rbp], eax
	cmp	DWORD PTR result$[rbp], 0
	je	SHORT $LN10@PMC_DivRem

; 320  :                 return (result);

	mov	eax, DWORD PTR result$[rbp]
	jmp	$LN1@PMC_DivRem
$LN10@PMC_DivRem:

; 321  :             if ((result = AllocateNumber(&nq, q_abs->FLAGS.IS_ZERO ? 0 : q_sign, q_abs)) != PMC_STATUS_OK)

	mov	rax, QWORD PTR q_abs$10[rbp]
	mov	eax, DWORD PTR [rax]
	and	eax, 1
	test	eax, eax
	je	SHORT $LN19@PMC_DivRem
	mov	DWORD PTR tv134[rbp], 0
	jmp	SHORT $LN20@PMC_DivRem
$LN19@PMC_DivRem:
	movsx	eax, BYTE PTR q_sign$8[rbp]
	mov	DWORD PTR tv134[rbp], eax
$LN20@PMC_DivRem:
	mov	r8, QWORD PTR q_abs$10[rbp]
	movzx	edx, BYTE PTR tv134[rbp]
	lea	rcx, QWORD PTR nq$[rbp]
	call	AllocateNumber
	mov	DWORD PTR result$[rbp], eax
	cmp	DWORD PTR result$[rbp], 0
	je	SHORT $LN11@PMC_DivRem

; 322  :             {
; 323  :                 ep_uint.Dispose(q_abs);

	mov	rcx, QWORD PTR q_abs$10[rbp]
	call	QWORD PTR ep_uint+32

; 324  :                 return (result);

	mov	eax, DWORD PTR result$[rbp]
	jmp	$LN1@PMC_DivRem
$LN11@PMC_DivRem:

; 325  :             }
; 326  :             *r = r_sign > 0 ? (_INT64_T)r_abs : -(_INT64_T)r_abs;

	movsx	eax, BYTE PTR r_sign$9[rbp]
	test	eax, eax
	jle	SHORT $LN21@PMC_DivRem
	mov	rax, QWORD PTR r_abs$11[rbp]
	mov	QWORD PTR tv143[rbp], rax
	jmp	SHORT $LN22@PMC_DivRem
$LN21@PMC_DivRem:
	mov	rax, QWORD PTR r_abs$11[rbp]
	neg	rax
	mov	QWORD PTR tv143[rbp], rax
$LN22@PMC_DivRem:
	mov	rax, QWORD PTR r$[rbp]
	mov	rcx, QWORD PTR tv143[rbp]
	mov	QWORD PTR [rax], rcx

; 327  :         }

	jmp	$LN9@PMC_DivRem
$LN8@PMC_DivRem:

; 328  :         else
; 329  :         {
; 330  :             char r_sign = nu->SIGN;

	mov	rax, QWORD PTR nu$[rbp]
	movzx	eax, BYTE PTR [rax+24]
	mov	BYTE PTR r_sign$12[rbp], al

; 331  :             _UINT64_T r_abs;
; 332  :             if ((result = ep_uint.DivRem_X_L(nu->ABS, v_abs, NULL, &r_abs)) != PMC_STATUS_OK)

	lea	r9, QWORD PTR r_abs$13[rbp]
	xor	r8d, r8d
	mov	rdx, QWORD PTR v_abs$[rbp]
	mov	rax, QWORD PTR nu$[rbp]
	mov	rcx, QWORD PTR [rax+16]
	call	QWORD PTR ep_uint+248
	mov	DWORD PTR result$[rbp], eax
	cmp	DWORD PTR result$[rbp], 0
	je	SHORT $LN12@PMC_DivRem

; 333  :                 return (result);

	mov	eax, DWORD PTR result$[rbp]
	jmp	SHORT $LN1@PMC_DivRem
$LN12@PMC_DivRem:

; 334  :             nq = NULL;

	mov	QWORD PTR nq$[rbp], 0

; 335  :             *r = r_sign > 0 ? (_INT64_T)r_abs : -(_INT64_T)r_abs;

	movsx	eax, BYTE PTR r_sign$12[rbp]
	test	eax, eax
	jle	SHORT $LN23@PMC_DivRem
	mov	rax, QWORD PTR r_abs$13[rbp]
	mov	QWORD PTR tv155[rbp], rax
	jmp	SHORT $LN24@PMC_DivRem
$LN23@PMC_DivRem:
	mov	rax, QWORD PTR r_abs$13[rbp]
	neg	rax
	mov	QWORD PTR tv155[rbp], rax
$LN24@PMC_DivRem:
	mov	rax, QWORD PTR r$[rbp]
	mov	rcx, QWORD PTR tv155[rbp]
	mov	QWORD PTR [rax], rcx
$LN9@PMC_DivRem:
$LN7@PMC_DivRem:

; 336  :         }
; 337  :     }
; 338  :     if (q != NULL)

	cmp	QWORD PTR q$[rbp], 0
	je	SHORT $LN13@PMC_DivRem

; 339  :         *q = (PMC_HANDLE_SINT)nq;

	mov	rax, QWORD PTR q$[rbp]
	mov	rcx, QWORD PTR nq$[rbp]
	mov	QWORD PTR [rax], rcx
$LN13@PMC_DivRem:

; 340  :     return (PMC_STATUS_OK);

	xor	eax, eax
$LN1@PMC_DivRem:

; 341  : }

	mov	rdi, rax
	lea	rcx, QWORD PTR [rbp-32]
	lea	rdx, OFFSET FLAT:PMC_DivRem_X_L$rtcFrameData
	call	_RTC_CheckStackVars
	mov	rax, rdi
	mov	rcx, QWORD PTR __$ArrayPad$[rbp]
	xor	rcx, rbp
	call	__security_check_cookie
	lea	rsp, QWORD PTR [rbp+568]
	pop	rdi
	pop	rbp
	ret	0
PMC_DivRem_X_L ENDP
_TEXT	ENDS
; Function compile flags: /Odtp /RTCsu /ZI
; File z:\sources\lunor\repos\rougemeilland\palmtree.math.core.sint\palmtree.math.core.sint\pmc_divrem.c
;	COMDAT PMC_DivRem_X_I
_TEXT	SEGMENT
result$ = 4
nu$ = 40
nq$ = 72
v_sign$ = 100
v_abs$ = 132
q_sign$8 = 164
r_sign$9 = 196
q_abs$10 = 232
r_abs$11 = 260
r_sign$12 = 292
r_abs$13 = 324
tv155 = 532
tv143 = 532
tv134 = 532
tv86 = 532
tv78 = 536
__$ArrayPad$ = 544
u$ = 592
v$ = 600
q$ = 608
r$ = 616
PMC_DivRem_X_I PROC					; COMDAT

; 222  : {

$LN25:
	mov	QWORD PTR [rsp+32], r9
	mov	QWORD PTR [rsp+24], r8
	mov	DWORD PTR [rsp+16], edx
	mov	QWORD PTR [rsp+8], rcx
	push	rbp
	push	rdi
	sub	rsp, 600				; 00000258H
	lea	rbp, QWORD PTR [rsp+32]
	mov	rdi, rsp
	mov	ecx, 150				; 00000096H
	mov	eax, -858993460				; ccccccccH
	rep stosd
	mov	rcx, QWORD PTR [rsp+632]
	mov	rax, QWORD PTR __security_cookie
	xor	rax, rbp
	mov	QWORD PTR __$ArrayPad$[rbp], rax
	lea	rcx, OFFSET FLAT:__E9C852B3_pmc_divrem@c
	call	__CheckForDebuggerJustMyCode

; 223  :     if (u == NULL)

	cmp	QWORD PTR u$[rbp], 0
	jne	SHORT $LN2@PMC_DivRem

; 224  :         return (PMC_STATUS_ARGUMENT_ERROR);

	mov	eax, -1
	jmp	$LN1@PMC_DivRem
$LN2@PMC_DivRem:

; 225  :     if (r == NULL)

	cmp	QWORD PTR r$[rbp], 0
	jne	SHORT $LN3@PMC_DivRem

; 226  :         return (PMC_STATUS_ARGUMENT_ERROR);

	mov	eax, -1
	jmp	$LN1@PMC_DivRem
$LN3@PMC_DivRem:

; 227  :     PMC_STATUS_CODE result;
; 228  :     NUMBER_HEADER* nu = (NUMBER_HEADER*)u;

	mov	rax, QWORD PTR u$[rbp]
	mov	QWORD PTR nu$[rbp], rax

; 229  :     NUMBER_HEADER* nq;
; 230  :     if ((result = CheckNumber(nu)) != PMC_STATUS_OK)

	mov	rcx, QWORD PTR nu$[rbp]
	call	CheckNumber
	mov	DWORD PTR result$[rbp], eax
	cmp	DWORD PTR result$[rbp], 0
	je	SHORT $LN4@PMC_DivRem

; 231  :         return (result);

	mov	eax, DWORD PTR result$[rbp]
	jmp	$LN1@PMC_DivRem
$LN4@PMC_DivRem:

; 232  :     char v_sign;
; 233  :     _UINT32_T v_abs = GET_ABS_32(v, &v_sign);

	lea	rdx, QWORD PTR v_sign$[rbp]
	mov	ecx, DWORD PTR v$[rbp]
	call	GET_ABS_32
	mov	DWORD PTR v_abs$[rbp], eax

; 234  :     if (v_sign == 0)

	movsx	eax, BYTE PTR v_sign$[rbp]
	test	eax, eax
	jne	SHORT $LN5@PMC_DivRem

; 235  :     {
; 236  :         // v == 0 の場合
; 237  : 
; 238  :         // エラーを返す
; 239  :         return (PMC_STATUS_DIVISION_BY_ZERO);

	mov	eax, -3
	jmp	$LN1@PMC_DivRem
$LN5@PMC_DivRem:

; 240  :     }
; 241  :     if (nu->SIGN == 0)

	mov	rax, QWORD PTR nu$[rbp]
	movsx	eax, BYTE PTR [rax+24]
	test	eax, eax
	jne	SHORT $LN6@PMC_DivRem

; 242  :     {
; 243  :         // u == 0 の場合
; 244  : 
; 245  :         nq = q != NULL ? nq = &number_zero : NULL;

	cmp	QWORD PTR q$[rbp], 0
	je	SHORT $LN15@PMC_DivRem
	lea	rax, OFFSET FLAT:number_zero
	mov	QWORD PTR nq$[rbp], rax
	mov	rax, QWORD PTR nq$[rbp]
	mov	QWORD PTR tv78[rbp], rax
	jmp	SHORT $LN16@PMC_DivRem
$LN15@PMC_DivRem:
	mov	QWORD PTR tv78[rbp], 0
$LN16@PMC_DivRem:
	mov	rax, QWORD PTR tv78[rbp]
	mov	QWORD PTR nq$[rbp], rax

; 246  :         *r = 0;

	mov	rax, QWORD PTR r$[rbp]
	mov	DWORD PTR [rax], 0

; 247  :     }

	jmp	$LN7@PMC_DivRem
$LN6@PMC_DivRem:

; 248  :     else
; 249  :     {
; 250  :         // u != 0 の場合
; 251  : 
; 252  :         if (q != NULL)

	cmp	QWORD PTR q$[rbp], 0
	je	$LN8@PMC_DivRem

; 253  :         {
; 254  :             char q_sign = nu->SIGN > 0 ? v_sign : -v_sign;

	mov	rax, QWORD PTR nu$[rbp]
	movsx	eax, BYTE PTR [rax+24]
	test	eax, eax
	jle	SHORT $LN17@PMC_DivRem
	movsx	eax, BYTE PTR v_sign$[rbp]
	mov	DWORD PTR tv86[rbp], eax
	jmp	SHORT $LN18@PMC_DivRem
$LN17@PMC_DivRem:
	movsx	eax, BYTE PTR v_sign$[rbp]
	neg	eax
	mov	DWORD PTR tv86[rbp], eax
$LN18@PMC_DivRem:
	movzx	eax, BYTE PTR tv86[rbp]
	mov	BYTE PTR q_sign$8[rbp], al

; 255  :             char r_sign = nu->SIGN;

	mov	rax, QWORD PTR nu$[rbp]
	movzx	eax, BYTE PTR [rax+24]
	mov	BYTE PTR r_sign$9[rbp], al

; 256  :             PMC_HANDLE_UINT q_abs;
; 257  :             _UINT32_T r_abs;
; 258  :             if ((result = ep_uint.DivRem_X_I(nu->ABS, v_abs, &q_abs, &r_abs)) != PMC_STATUS_OK)

	lea	r9, QWORD PTR r_abs$11[rbp]
	lea	r8, QWORD PTR q_abs$10[rbp]
	mov	edx, DWORD PTR v_abs$[rbp]
	mov	rax, QWORD PTR nu$[rbp]
	mov	rcx, QWORD PTR [rax+16]
	call	QWORD PTR ep_uint+240
	mov	DWORD PTR result$[rbp], eax
	cmp	DWORD PTR result$[rbp], 0
	je	SHORT $LN10@PMC_DivRem

; 259  :                 return (result);

	mov	eax, DWORD PTR result$[rbp]
	jmp	$LN1@PMC_DivRem
$LN10@PMC_DivRem:

; 260  :             if ((result = AllocateNumber(&nq, q_abs->FLAGS.IS_ZERO ? 0 : q_sign, q_abs)) != PMC_STATUS_OK)

	mov	rax, QWORD PTR q_abs$10[rbp]
	mov	eax, DWORD PTR [rax]
	and	eax, 1
	test	eax, eax
	je	SHORT $LN19@PMC_DivRem
	mov	DWORD PTR tv134[rbp], 0
	jmp	SHORT $LN20@PMC_DivRem
$LN19@PMC_DivRem:
	movsx	eax, BYTE PTR q_sign$8[rbp]
	mov	DWORD PTR tv134[rbp], eax
$LN20@PMC_DivRem:
	mov	r8, QWORD PTR q_abs$10[rbp]
	movzx	edx, BYTE PTR tv134[rbp]
	lea	rcx, QWORD PTR nq$[rbp]
	call	AllocateNumber
	mov	DWORD PTR result$[rbp], eax
	cmp	DWORD PTR result$[rbp], 0
	je	SHORT $LN11@PMC_DivRem

; 261  :             {
; 262  :                 ep_uint.Dispose(q_abs);

	mov	rcx, QWORD PTR q_abs$10[rbp]
	call	QWORD PTR ep_uint+32

; 263  :                 return (result);

	mov	eax, DWORD PTR result$[rbp]
	jmp	$LN1@PMC_DivRem
$LN11@PMC_DivRem:

; 264  :             }
; 265  :             *r = r_sign > 0 ? (_INT32_T)r_abs : -(_INT32_T)r_abs;

	movsx	eax, BYTE PTR r_sign$9[rbp]
	test	eax, eax
	jle	SHORT $LN21@PMC_DivRem
	mov	eax, DWORD PTR r_abs$11[rbp]
	mov	DWORD PTR tv143[rbp], eax
	jmp	SHORT $LN22@PMC_DivRem
$LN21@PMC_DivRem:
	mov	eax, DWORD PTR r_abs$11[rbp]
	neg	eax
	mov	DWORD PTR tv143[rbp], eax
$LN22@PMC_DivRem:
	mov	rax, QWORD PTR r$[rbp]
	mov	ecx, DWORD PTR tv143[rbp]
	mov	DWORD PTR [rax], ecx

; 266  :         }

	jmp	SHORT $LN9@PMC_DivRem
$LN8@PMC_DivRem:

; 267  :         else
; 268  :         {
; 269  :             char r_sign = nu->SIGN;

	mov	rax, QWORD PTR nu$[rbp]
	movzx	eax, BYTE PTR [rax+24]
	mov	BYTE PTR r_sign$12[rbp], al

; 270  :             _UINT32_T r_abs;
; 271  :             if ((result = ep_uint.DivRem_X_I(nu->ABS, v_abs, NULL, &r_abs)) != PMC_STATUS_OK)

	lea	r9, QWORD PTR r_abs$13[rbp]
	xor	r8d, r8d
	mov	edx, DWORD PTR v_abs$[rbp]
	mov	rax, QWORD PTR nu$[rbp]
	mov	rcx, QWORD PTR [rax+16]
	call	QWORD PTR ep_uint+240
	mov	DWORD PTR result$[rbp], eax
	cmp	DWORD PTR result$[rbp], 0
	je	SHORT $LN12@PMC_DivRem

; 272  :                 return (result);

	mov	eax, DWORD PTR result$[rbp]
	jmp	SHORT $LN1@PMC_DivRem
$LN12@PMC_DivRem:

; 273  :             nq = NULL;

	mov	QWORD PTR nq$[rbp], 0

; 274  :             *r = r_sign > 0 ? (_INT32_T)r_abs : -(_INT32_T)r_abs;

	movsx	eax, BYTE PTR r_sign$12[rbp]
	test	eax, eax
	jle	SHORT $LN23@PMC_DivRem
	mov	eax, DWORD PTR r_abs$13[rbp]
	mov	DWORD PTR tv155[rbp], eax
	jmp	SHORT $LN24@PMC_DivRem
$LN23@PMC_DivRem:
	mov	eax, DWORD PTR r_abs$13[rbp]
	neg	eax
	mov	DWORD PTR tv155[rbp], eax
$LN24@PMC_DivRem:
	mov	rax, QWORD PTR r$[rbp]
	mov	ecx, DWORD PTR tv155[rbp]
	mov	DWORD PTR [rax], ecx
$LN9@PMC_DivRem:
$LN7@PMC_DivRem:

; 275  :         }
; 276  :     }
; 277  :     if (q != NULL)

	cmp	QWORD PTR q$[rbp], 0
	je	SHORT $LN13@PMC_DivRem

; 278  :         *q = (PMC_HANDLE_SINT)nq;

	mov	rax, QWORD PTR q$[rbp]
	mov	rcx, QWORD PTR nq$[rbp]
	mov	QWORD PTR [rax], rcx
$LN13@PMC_DivRem:

; 279  :     return (PMC_STATUS_OK);

	xor	eax, eax
$LN1@PMC_DivRem:

; 280  : }

	mov	rdi, rax
	lea	rcx, QWORD PTR [rbp-32]
	lea	rdx, OFFSET FLAT:PMC_DivRem_X_I$rtcFrameData
	call	_RTC_CheckStackVars
	mov	rax, rdi
	mov	rcx, QWORD PTR __$ArrayPad$[rbp]
	xor	rcx, rbp
	call	__security_check_cookie
	lea	rsp, QWORD PTR [rbp+568]
	pop	rdi
	pop	rbp
	ret	0
PMC_DivRem_X_I ENDP
_TEXT	ENDS
; Function compile flags: /Odtp /RTCsu /ZI
; File z:\sources\lunor\repos\rougemeilland\palmtree.math.core.sint\palmtree.math.core.sint\pmc_divrem.c
;	COMDAT PMC_DivRem_UX_X
_TEXT	SEGMENT
result$ = 4
nv$ = 40
nq$ = 72
q_sign$5 = 100
q_abs$6 = 136
tv93 = 340
tv77 = 344
__$ArrayPad$ = 352
u$ = 400
v$ = 408
q$ = 416
r$ = 424
PMC_DivRem_UX_X PROC					; COMDAT

; 166  : {

$LN20:
	mov	QWORD PTR [rsp+32], r9
	mov	QWORD PTR [rsp+24], r8
	mov	QWORD PTR [rsp+16], rdx
	mov	QWORD PTR [rsp+8], rcx
	push	rbp
	push	rdi
	sub	rsp, 408				; 00000198H
	lea	rbp, QWORD PTR [rsp+32]
	mov	rdi, rsp
	mov	ecx, 102				; 00000066H
	mov	eax, -858993460				; ccccccccH
	rep stosd
	mov	rcx, QWORD PTR [rsp+440]
	mov	rax, QWORD PTR __security_cookie
	xor	rax, rbp
	mov	QWORD PTR __$ArrayPad$[rbp], rax
	lea	rcx, OFFSET FLAT:__E9C852B3_pmc_divrem@c
	call	__CheckForDebuggerJustMyCode

; 167  :     if (u == NULL)

	cmp	QWORD PTR u$[rbp], 0
	jne	SHORT $LN2@PMC_DivRem

; 168  :         return (PMC_STATUS_ARGUMENT_ERROR);

	mov	eax, -1
	jmp	$LN1@PMC_DivRem
$LN2@PMC_DivRem:

; 169  :     if (v == NULL)

	cmp	QWORD PTR v$[rbp], 0
	jne	SHORT $LN3@PMC_DivRem

; 170  :         return (PMC_STATUS_ARGUMENT_ERROR);

	mov	eax, -1
	jmp	$LN1@PMC_DivRem
$LN3@PMC_DivRem:

; 171  :     if (r == NULL)

	cmp	QWORD PTR r$[rbp], 0
	jne	SHORT $LN4@PMC_DivRem

; 172  :         return (PMC_STATUS_ARGUMENT_ERROR);

	mov	eax, -1
	jmp	$LN1@PMC_DivRem
$LN4@PMC_DivRem:

; 173  :     PMC_STATUS_CODE result;
; 174  :     NUMBER_HEADER* nv = (NUMBER_HEADER*)v;

	mov	rax, QWORD PTR v$[rbp]
	mov	QWORD PTR nv$[rbp], rax

; 175  :     NUMBER_HEADER* nq;
; 176  :     if ((result = CheckNumber(nv)) != PMC_STATUS_OK)

	mov	rcx, QWORD PTR nv$[rbp]
	call	CheckNumber
	mov	DWORD PTR result$[rbp], eax
	cmp	DWORD PTR result$[rbp], 0
	je	SHORT $LN5@PMC_DivRem

; 177  :         return (result);

	mov	eax, DWORD PTR result$[rbp]
	jmp	$LN1@PMC_DivRem
$LN5@PMC_DivRem:

; 178  :     if (nv->SIGN == 0)

	mov	rax, QWORD PTR nv$[rbp]
	movsx	eax, BYTE PTR [rax+24]
	test	eax, eax
	jne	SHORT $LN6@PMC_DivRem

; 179  :     {
; 180  :         // v == 0 の場合
; 181  : 
; 182  :         // エラーを返す
; 183  :         return (PMC_STATUS_DIVISION_BY_ZERO);

	mov	eax, -3
	jmp	$LN1@PMC_DivRem
$LN6@PMC_DivRem:

; 184  :     }
; 185  :     if (u->FLAGS.IS_ZERO)

	mov	rax, QWORD PTR u$[rbp]
	mov	eax, DWORD PTR [rax]
	and	eax, 1
	test	eax, eax
	je	SHORT $LN7@PMC_DivRem

; 186  :     {
; 187  :         // u == 0 の場合
; 188  : 
; 189  :         nq = q != NULL ? nq = &number_zero : NULL;

	cmp	QWORD PTR q$[rbp], 0
	je	SHORT $LN16@PMC_DivRem
	lea	rax, OFFSET FLAT:number_zero
	mov	QWORD PTR nq$[rbp], rax
	mov	rax, QWORD PTR nq$[rbp]
	mov	QWORD PTR tv77[rbp], rax
	jmp	SHORT $LN17@PMC_DivRem
$LN16@PMC_DivRem:
	mov	QWORD PTR tv77[rbp], 0
$LN17@PMC_DivRem:
	mov	rax, QWORD PTR tv77[rbp]
	mov	QWORD PTR nq$[rbp], rax

; 190  :         *r = uint_number_zero;

	mov	rax, QWORD PTR r$[rbp]
	mov	rcx, QWORD PTR uint_number_zero
	mov	QWORD PTR [rax], rcx

; 191  :     }

	jmp	$LN8@PMC_DivRem
$LN7@PMC_DivRem:

; 192  :     else
; 193  :     {
; 194  :         // u != 0 の場合
; 195  : 
; 196  :         if (q != NULL)

	cmp	QWORD PTR q$[rbp], 0
	je	$LN9@PMC_DivRem

; 197  :         {
; 198  :             char q_sign = nv->SIGN;

	mov	rax, QWORD PTR nv$[rbp]
	movzx	eax, BYTE PTR [rax+24]
	mov	BYTE PTR q_sign$5[rbp], al

; 199  :             PMC_HANDLE_UINT q_abs;
; 200  :             if ((result = ep_uint.DivRem_X_X(u, nv->ABS, &q_abs, r)) != PMC_STATUS_OK)

	mov	r9, QWORD PTR r$[rbp]
	lea	r8, QWORD PTR q_abs$6[rbp]
	mov	rax, QWORD PTR nv$[rbp]
	mov	rdx, QWORD PTR [rax+16]
	mov	rcx, QWORD PTR u$[rbp]
	call	QWORD PTR ep_uint+256
	mov	DWORD PTR result$[rbp], eax
	cmp	DWORD PTR result$[rbp], 0
	je	SHORT $LN11@PMC_DivRem

; 201  :                 return (result);

	mov	eax, DWORD PTR result$[rbp]
	jmp	$LN1@PMC_DivRem
$LN11@PMC_DivRem:

; 202  :             if ((result = AllocateNumber(&nq, q_abs->FLAGS.IS_ZERO ? 0 : q_sign, q_abs)) != PMC_STATUS_OK)

	mov	rax, QWORD PTR q_abs$6[rbp]
	mov	eax, DWORD PTR [rax]
	and	eax, 1
	test	eax, eax
	je	SHORT $LN18@PMC_DivRem
	mov	DWORD PTR tv93[rbp], 0
	jmp	SHORT $LN19@PMC_DivRem
$LN18@PMC_DivRem:
	movsx	eax, BYTE PTR q_sign$5[rbp]
	mov	DWORD PTR tv93[rbp], eax
$LN19@PMC_DivRem:
	mov	r8, QWORD PTR q_abs$6[rbp]
	movzx	edx, BYTE PTR tv93[rbp]
	lea	rcx, QWORD PTR nq$[rbp]
	call	AllocateNumber
	mov	DWORD PTR result$[rbp], eax
	cmp	DWORD PTR result$[rbp], 0
	je	SHORT $LN12@PMC_DivRem

; 203  :             {
; 204  :                 ep_uint.Dispose(q_abs);

	mov	rcx, QWORD PTR q_abs$6[rbp]
	call	QWORD PTR ep_uint+32

; 205  :                 ep_uint.Dispose(*r);

	mov	rax, QWORD PTR r$[rbp]
	mov	rcx, QWORD PTR [rax]
	call	QWORD PTR ep_uint+32

; 206  :                 return (result);

	mov	eax, DWORD PTR result$[rbp]
	jmp	SHORT $LN1@PMC_DivRem
$LN12@PMC_DivRem:

; 207  :             }
; 208  :         }

	jmp	SHORT $LN10@PMC_DivRem
$LN9@PMC_DivRem:

; 209  :         else
; 210  :         {
; 211  :             if ((result = ep_uint.DivRem_X_X(u, nv->ABS, NULL, r)) != PMC_STATUS_OK)

	mov	r9, QWORD PTR r$[rbp]
	xor	r8d, r8d
	mov	rax, QWORD PTR nv$[rbp]
	mov	rdx, QWORD PTR [rax+16]
	mov	rcx, QWORD PTR u$[rbp]
	call	QWORD PTR ep_uint+256
	mov	DWORD PTR result$[rbp], eax
	cmp	DWORD PTR result$[rbp], 0
	je	SHORT $LN13@PMC_DivRem

; 212  :                 return (result);

	mov	eax, DWORD PTR result$[rbp]
	jmp	SHORT $LN1@PMC_DivRem
$LN13@PMC_DivRem:

; 213  :             nq = NULL;

	mov	QWORD PTR nq$[rbp], 0
$LN10@PMC_DivRem:
$LN8@PMC_DivRem:

; 214  :         }
; 215  :     }
; 216  :     if (q != NULL)

	cmp	QWORD PTR q$[rbp], 0
	je	SHORT $LN14@PMC_DivRem

; 217  :         *q = (PMC_HANDLE_SINT)nq;

	mov	rax, QWORD PTR q$[rbp]
	mov	rcx, QWORD PTR nq$[rbp]
	mov	QWORD PTR [rax], rcx
$LN14@PMC_DivRem:

; 218  :     return (PMC_STATUS_OK);

	xor	eax, eax
$LN1@PMC_DivRem:

; 219  : }

	mov	rdi, rax
	lea	rcx, QWORD PTR [rbp-32]
	lea	rdx, OFFSET FLAT:PMC_DivRem_UX_X$rtcFrameData
	call	_RTC_CheckStackVars
	mov	rax, rdi
	mov	rcx, QWORD PTR __$ArrayPad$[rbp]
	xor	rcx, rbp
	call	__security_check_cookie
	lea	rsp, QWORD PTR [rbp+376]
	pop	rdi
	pop	rbp
	ret	0
PMC_DivRem_UX_X ENDP
_TEXT	ENDS
; Function compile flags: /Odtp /RTCsu /ZI
; File z:\sources\lunor\repos\rougemeilland\palmtree.math.core.sint\palmtree.math.core.sint\pmc_divrem.c
;	COMDAT PMC_DivRem_L_X
_TEXT	SEGMENT
result$ = 4
nv$ = 40
nq$ = 72
nr$ = 104
u_sign$ = 132
u_abs$ = 168
q_sign$9 = 196
r_sign$10 = 228
q_abs$11 = 264
r_abs$12 = 296
r_sign$13 = 324
r_abs$14 = 360
tv159 = 564
tv142 = 564
tv133 = 564
tv87 = 564
tv78 = 568
__$ArrayPad$ = 576
u$ = 624
v$ = 632
q$ = 640
r$ = 648
PMC_DivRem_L_X PROC					; COMDAT

; 99   : {

$LN27:
	mov	QWORD PTR [rsp+32], r9
	mov	QWORD PTR [rsp+24], r8
	mov	QWORD PTR [rsp+16], rdx
	mov	QWORD PTR [rsp+8], rcx
	push	rbp
	push	rdi
	sub	rsp, 632				; 00000278H
	lea	rbp, QWORD PTR [rsp+32]
	mov	rdi, rsp
	mov	ecx, 158				; 0000009eH
	mov	eax, -858993460				; ccccccccH
	rep stosd
	mov	rcx, QWORD PTR [rsp+664]
	mov	rax, QWORD PTR __security_cookie
	xor	rax, rbp
	mov	QWORD PTR __$ArrayPad$[rbp], rax
	lea	rcx, OFFSET FLAT:__E9C852B3_pmc_divrem@c
	call	__CheckForDebuggerJustMyCode

; 100  :     // 大抵の場合は q と r の精度は _INT32_T で問題ないが、オーバーフローしてしまうケースが存在するため、PMC_HANDLE_SINT 型とする
; 101  :     // 例: u == -9223372036854775808, v == -1 の場合、q = 9223372036854775808, r = 0 となるが 9223372036854775808 は _INT64_Tでは表現できない。
; 102  :     if (v == NULL)

	cmp	QWORD PTR v$[rbp], 0
	jne	SHORT $LN2@PMC_DivRem

; 103  :         return (PMC_STATUS_ARGUMENT_ERROR);

	mov	eax, -1
	jmp	$LN1@PMC_DivRem
$LN2@PMC_DivRem:

; 104  :     if (r == NULL)

	cmp	QWORD PTR r$[rbp], 0
	jne	SHORT $LN3@PMC_DivRem

; 105  :         return (PMC_STATUS_ARGUMENT_ERROR);

	mov	eax, -1
	jmp	$LN1@PMC_DivRem
$LN3@PMC_DivRem:

; 106  :     PMC_STATUS_CODE result;
; 107  :     NUMBER_HEADER* nv = (NUMBER_HEADER*)v;

	mov	rax, QWORD PTR v$[rbp]
	mov	QWORD PTR nv$[rbp], rax

; 108  :     NUMBER_HEADER* nq;
; 109  :     NUMBER_HEADER* nr;
; 110  :     if ((result = CheckNumber(nv)) != PMC_STATUS_OK)

	mov	rcx, QWORD PTR nv$[rbp]
	call	CheckNumber
	mov	DWORD PTR result$[rbp], eax
	cmp	DWORD PTR result$[rbp], 0
	je	SHORT $LN4@PMC_DivRem

; 111  :         return (result);

	mov	eax, DWORD PTR result$[rbp]
	jmp	$LN1@PMC_DivRem
$LN4@PMC_DivRem:

; 112  :     char u_sign;
; 113  :     _UINT64_T u_abs = GET_ABS_64(u, &u_sign);

	lea	rdx, QWORD PTR u_sign$[rbp]
	mov	rcx, QWORD PTR u$[rbp]
	call	GET_ABS_64
	mov	QWORD PTR u_abs$[rbp], rax

; 114  :     if (nv->SIGN == 0)

	mov	rax, QWORD PTR nv$[rbp]
	movsx	eax, BYTE PTR [rax+24]
	test	eax, eax
	jne	SHORT $LN5@PMC_DivRem

; 115  :     {
; 116  :         // v == 0 の場合
; 117  : 
; 118  :         // エラーを返す
; 119  :         return (PMC_STATUS_DIVISION_BY_ZERO);

	mov	eax, -3
	jmp	$LN1@PMC_DivRem
$LN5@PMC_DivRem:

; 120  :     }
; 121  :     if (u_sign == 0)

	movsx	eax, BYTE PTR u_sign$[rbp]
	test	eax, eax
	jne	SHORT $LN6@PMC_DivRem

; 122  :     {
; 123  :         // u == 0 の場合
; 124  : 
; 125  :         nq = q != NULL ? &number_zero : NULL;

	cmp	QWORD PTR q$[rbp], 0
	je	SHORT $LN17@PMC_DivRem
	lea	rax, OFFSET FLAT:number_zero
	mov	QWORD PTR tv78[rbp], rax
	jmp	SHORT $LN18@PMC_DivRem
$LN17@PMC_DivRem:
	mov	QWORD PTR tv78[rbp], 0
$LN18@PMC_DivRem:
	mov	rax, QWORD PTR tv78[rbp]
	mov	QWORD PTR nq$[rbp], rax

; 126  :         nr = &number_zero;

	lea	rax, OFFSET FLAT:number_zero
	mov	QWORD PTR nr$[rbp], rax

; 127  :     }

	jmp	$LN7@PMC_DivRem
$LN6@PMC_DivRem:

; 128  :     else
; 129  :     {
; 130  :         // u != 0 の場合
; 131  : 
; 132  :         if (q != NULL)

	cmp	QWORD PTR q$[rbp], 0
	je	$LN8@PMC_DivRem

; 133  :         {
; 134  :             char q_sign = u_sign > 0 ? nv->SIGN : -nv->SIGN;

	movsx	eax, BYTE PTR u_sign$[rbp]
	test	eax, eax
	jle	SHORT $LN19@PMC_DivRem
	mov	rax, QWORD PTR nv$[rbp]
	movsx	eax, BYTE PTR [rax+24]
	mov	DWORD PTR tv87[rbp], eax
	jmp	SHORT $LN20@PMC_DivRem
$LN19@PMC_DivRem:
	mov	rax, QWORD PTR nv$[rbp]
	movsx	eax, BYTE PTR [rax+24]
	neg	eax
	mov	DWORD PTR tv87[rbp], eax
$LN20@PMC_DivRem:
	movzx	eax, BYTE PTR tv87[rbp]
	mov	BYTE PTR q_sign$9[rbp], al

; 135  :             char r_sign = u_sign;

	movzx	eax, BYTE PTR u_sign$[rbp]
	mov	BYTE PTR r_sign$10[rbp], al

; 136  :             _UINT64_T q_abs;
; 137  :             _UINT64_T r_abs;
; 138  :             if ((result = ep_uint.DivRem_L_X(u_abs, nv->ABS, &q_abs, &r_abs)) != PMC_STATUS_OK)

	lea	r9, QWORD PTR r_abs$12[rbp]
	lea	r8, QWORD PTR q_abs$11[rbp]
	mov	rax, QWORD PTR nv$[rbp]
	mov	rdx, QWORD PTR [rax+16]
	mov	rcx, QWORD PTR u_abs$[rbp]
	call	QWORD PTR ep_uint+232
	mov	DWORD PTR result$[rbp], eax
	cmp	DWORD PTR result$[rbp], 0
	je	SHORT $LN10@PMC_DivRem

; 139  :                 return (result);

	mov	eax, DWORD PTR result$[rbp]
	jmp	$LN1@PMC_DivRem
$LN10@PMC_DivRem:

; 140  :             if ((result = From_L_Imp(q_abs == 0 ? 0 : q_sign, q_abs, &nq)) != PMC_STATUS_OK)

	cmp	QWORD PTR q_abs$11[rbp], 0
	jne	SHORT $LN21@PMC_DivRem
	mov	DWORD PTR tv133[rbp], 0
	jmp	SHORT $LN22@PMC_DivRem
$LN21@PMC_DivRem:
	movsx	eax, BYTE PTR q_sign$9[rbp]
	mov	DWORD PTR tv133[rbp], eax
$LN22@PMC_DivRem:
	lea	r8, QWORD PTR nq$[rbp]
	mov	rdx, QWORD PTR q_abs$11[rbp]
	movzx	ecx, BYTE PTR tv133[rbp]
	call	From_L_Imp
	mov	DWORD PTR result$[rbp], eax
	cmp	DWORD PTR result$[rbp], 0
	je	SHORT $LN11@PMC_DivRem

; 141  :                 return (result);

	mov	eax, DWORD PTR result$[rbp]
	jmp	$LN1@PMC_DivRem
$LN11@PMC_DivRem:

; 142  :             if ((result = From_L_Imp(r_abs == 0 ? 0 :  r_sign, r_abs, &nr)) != PMC_STATUS_OK)

	cmp	QWORD PTR r_abs$12[rbp], 0
	jne	SHORT $LN23@PMC_DivRem
	mov	DWORD PTR tv142[rbp], 0
	jmp	SHORT $LN24@PMC_DivRem
$LN23@PMC_DivRem:
	movsx	eax, BYTE PTR r_sign$10[rbp]
	mov	DWORD PTR tv142[rbp], eax
$LN24@PMC_DivRem:
	lea	r8, QWORD PTR nr$[rbp]
	mov	rdx, QWORD PTR r_abs$12[rbp]
	movzx	ecx, BYTE PTR tv142[rbp]
	call	From_L_Imp
	mov	DWORD PTR result$[rbp], eax
	cmp	DWORD PTR result$[rbp], 0
	je	SHORT $LN12@PMC_DivRem

; 143  :             {
; 144  :                 DeallocateNumber(nq);

	mov	rcx, QWORD PTR nq$[rbp]
	call	DeallocateNumber

; 145  :                 return (result);

	mov	eax, DWORD PTR result$[rbp]
	jmp	$LN1@PMC_DivRem
$LN12@PMC_DivRem:

; 146  :             }
; 147  :         }

	jmp	$LN9@PMC_DivRem
$LN8@PMC_DivRem:

; 148  :         else
; 149  :         {
; 150  :             char r_sign = u_sign;

	movzx	eax, BYTE PTR u_sign$[rbp]
	mov	BYTE PTR r_sign$13[rbp], al

; 151  :             _UINT64_T r_abs;
; 152  :             if ((result = ep_uint.DivRem_L_X(u_abs, nv->ABS, NULL, &r_abs)) != PMC_STATUS_OK)

	lea	r9, QWORD PTR r_abs$14[rbp]
	xor	r8d, r8d
	mov	rax, QWORD PTR nv$[rbp]
	mov	rdx, QWORD PTR [rax+16]
	mov	rcx, QWORD PTR u_abs$[rbp]
	call	QWORD PTR ep_uint+232
	mov	DWORD PTR result$[rbp], eax
	cmp	DWORD PTR result$[rbp], 0
	je	SHORT $LN13@PMC_DivRem

; 153  :                 return (result);

	mov	eax, DWORD PTR result$[rbp]
	jmp	SHORT $LN1@PMC_DivRem
$LN13@PMC_DivRem:

; 154  :             nq = NULL;

	mov	QWORD PTR nq$[rbp], 0

; 155  :             if ((result = From_L_Imp(r_abs == 0 ? 0 : r_sign, r_abs, &nr)) != PMC_STATUS_OK)

	cmp	QWORD PTR r_abs$14[rbp], 0
	jne	SHORT $LN25@PMC_DivRem
	mov	DWORD PTR tv159[rbp], 0
	jmp	SHORT $LN26@PMC_DivRem
$LN25@PMC_DivRem:
	movsx	eax, BYTE PTR r_sign$13[rbp]
	mov	DWORD PTR tv159[rbp], eax
$LN26@PMC_DivRem:
	lea	r8, QWORD PTR nr$[rbp]
	mov	rdx, QWORD PTR r_abs$14[rbp]
	movzx	ecx, BYTE PTR tv159[rbp]
	call	From_L_Imp
	mov	DWORD PTR result$[rbp], eax
	cmp	DWORD PTR result$[rbp], 0
	je	SHORT $LN14@PMC_DivRem

; 156  :                 return (result);

	mov	eax, DWORD PTR result$[rbp]
	jmp	SHORT $LN1@PMC_DivRem
$LN14@PMC_DivRem:
$LN9@PMC_DivRem:
$LN7@PMC_DivRem:

; 157  :         }
; 158  :     }
; 159  :     if (q != NULL)

	cmp	QWORD PTR q$[rbp], 0
	je	SHORT $LN15@PMC_DivRem

; 160  :         *q = (PMC_HANDLE_SINT)nq;

	mov	rax, QWORD PTR q$[rbp]
	mov	rcx, QWORD PTR nq$[rbp]
	mov	QWORD PTR [rax], rcx
$LN15@PMC_DivRem:

; 161  :     *r = (PMC_HANDLE_SINT)nr;

	mov	rax, QWORD PTR r$[rbp]
	mov	rcx, QWORD PTR nr$[rbp]
	mov	QWORD PTR [rax], rcx

; 162  :     return (PMC_STATUS_OK);

	xor	eax, eax
$LN1@PMC_DivRem:

; 163  : }

	mov	rdi, rax
	lea	rcx, QWORD PTR [rbp-32]
	lea	rdx, OFFSET FLAT:PMC_DivRem_L_X$rtcFrameData
	call	_RTC_CheckStackVars
	mov	rax, rdi
	mov	rcx, QWORD PTR __$ArrayPad$[rbp]
	xor	rcx, rbp
	call	__security_check_cookie
	lea	rsp, QWORD PTR [rbp+600]
	pop	rdi
	pop	rbp
	ret	0
PMC_DivRem_L_X ENDP
_TEXT	ENDS
; Function compile flags: /Odtp /RTCsu /ZI
; File z:\sources\lunor\repos\rougemeilland\palmtree.math.core.sint\palmtree.math.core.sint\pmc_divrem.c
;	COMDAT PMC_DivRem_I_X
_TEXT	SEGMENT
result$ = 4
nv$ = 40
nq$ = 72
nr$ = 104
u_sign$ = 132
u_abs$ = 164
q_sign$9 = 196
r_sign$10 = 228
q_abs$11 = 260
r_abs$12 = 292
r_sign$13 = 324
r_abs$14 = 356
tv159 = 564
tv142 = 564
tv133 = 564
tv87 = 564
tv78 = 568
__$ArrayPad$ = 576
u$ = 624
v$ = 632
q$ = 640
r$ = 648
PMC_DivRem_I_X PROC					; COMDAT

; 32   : {

$LN27:
	mov	QWORD PTR [rsp+32], r9
	mov	QWORD PTR [rsp+24], r8
	mov	QWORD PTR [rsp+16], rdx
	mov	DWORD PTR [rsp+8], ecx
	push	rbp
	push	rdi
	sub	rsp, 632				; 00000278H
	lea	rbp, QWORD PTR [rsp+32]
	mov	rdi, rsp
	mov	ecx, 158				; 0000009eH
	mov	eax, -858993460				; ccccccccH
	rep stosd
	mov	ecx, DWORD PTR [rsp+664]
	mov	rax, QWORD PTR __security_cookie
	xor	rax, rbp
	mov	QWORD PTR __$ArrayPad$[rbp], rax
	lea	rcx, OFFSET FLAT:__E9C852B3_pmc_divrem@c
	call	__CheckForDebuggerJustMyCode

; 33   :     // 大抵の場合は q と r の精度は _INT32_T で問題ないが、オーバーフローしてしまうケースが存在するため、PMC_HANDLE_SINT 型とする
; 34   :     // 例: u == -2147483648, v == -1 の場合、q = 2147483648, r = 0 となるが 2147483648 は _INT32_Tでは表現できない。
; 35   :     if (v == NULL)

	cmp	QWORD PTR v$[rbp], 0
	jne	SHORT $LN2@PMC_DivRem

; 36   :         return (PMC_STATUS_ARGUMENT_ERROR);

	mov	eax, -1
	jmp	$LN1@PMC_DivRem
$LN2@PMC_DivRem:

; 37   :     if (r == NULL)

	cmp	QWORD PTR r$[rbp], 0
	jne	SHORT $LN3@PMC_DivRem

; 38   :         return (PMC_STATUS_ARGUMENT_ERROR);

	mov	eax, -1
	jmp	$LN1@PMC_DivRem
$LN3@PMC_DivRem:

; 39   :     PMC_STATUS_CODE result;
; 40   :     NUMBER_HEADER* nv = (NUMBER_HEADER*)v;

	mov	rax, QWORD PTR v$[rbp]
	mov	QWORD PTR nv$[rbp], rax

; 41   :     NUMBER_HEADER* nq;
; 42   :     NUMBER_HEADER* nr;
; 43   :     if ((result = CheckNumber(nv)) != PMC_STATUS_OK)

	mov	rcx, QWORD PTR nv$[rbp]
	call	CheckNumber
	mov	DWORD PTR result$[rbp], eax
	cmp	DWORD PTR result$[rbp], 0
	je	SHORT $LN4@PMC_DivRem

; 44   :         return (result);

	mov	eax, DWORD PTR result$[rbp]
	jmp	$LN1@PMC_DivRem
$LN4@PMC_DivRem:

; 45   :     char u_sign;
; 46   :     _UINT32_T u_abs = GET_ABS_32(u, &u_sign);

	lea	rdx, QWORD PTR u_sign$[rbp]
	mov	ecx, DWORD PTR u$[rbp]
	call	GET_ABS_32
	mov	DWORD PTR u_abs$[rbp], eax

; 47   :     if (nv->SIGN == 0)

	mov	rax, QWORD PTR nv$[rbp]
	movsx	eax, BYTE PTR [rax+24]
	test	eax, eax
	jne	SHORT $LN5@PMC_DivRem

; 48   :     {
; 49   :         // v == 0 の場合
; 50   : 
; 51   :         // エラーを返す
; 52   :         return (PMC_STATUS_DIVISION_BY_ZERO);

	mov	eax, -3
	jmp	$LN1@PMC_DivRem
$LN5@PMC_DivRem:

; 53   :     }
; 54   :     if (u_sign == 0)

	movsx	eax, BYTE PTR u_sign$[rbp]
	test	eax, eax
	jne	SHORT $LN6@PMC_DivRem

; 55   :     {
; 56   :         // u == 0 の場合
; 57   : 
; 58   :         nq = q != NULL ? &number_zero : NULL;

	cmp	QWORD PTR q$[rbp], 0
	je	SHORT $LN17@PMC_DivRem
	lea	rax, OFFSET FLAT:number_zero
	mov	QWORD PTR tv78[rbp], rax
	jmp	SHORT $LN18@PMC_DivRem
$LN17@PMC_DivRem:
	mov	QWORD PTR tv78[rbp], 0
$LN18@PMC_DivRem:
	mov	rax, QWORD PTR tv78[rbp]
	mov	QWORD PTR nq$[rbp], rax

; 59   :         nr = &number_zero;

	lea	rax, OFFSET FLAT:number_zero
	mov	QWORD PTR nr$[rbp], rax

; 60   :     }

	jmp	$LN7@PMC_DivRem
$LN6@PMC_DivRem:

; 61   :     else
; 62   :     {
; 63   :         // u != 0 の場合
; 64   : 
; 65   :         if (q != NULL)

	cmp	QWORD PTR q$[rbp], 0
	je	$LN8@PMC_DivRem

; 66   :         {
; 67   :             char q_sign = u_sign > 0 ? nv->SIGN : -nv->SIGN;

	movsx	eax, BYTE PTR u_sign$[rbp]
	test	eax, eax
	jle	SHORT $LN19@PMC_DivRem
	mov	rax, QWORD PTR nv$[rbp]
	movsx	eax, BYTE PTR [rax+24]
	mov	DWORD PTR tv87[rbp], eax
	jmp	SHORT $LN20@PMC_DivRem
$LN19@PMC_DivRem:
	mov	rax, QWORD PTR nv$[rbp]
	movsx	eax, BYTE PTR [rax+24]
	neg	eax
	mov	DWORD PTR tv87[rbp], eax
$LN20@PMC_DivRem:
	movzx	eax, BYTE PTR tv87[rbp]
	mov	BYTE PTR q_sign$9[rbp], al

; 68   :             char r_sign = u_sign;

	movzx	eax, BYTE PTR u_sign$[rbp]
	mov	BYTE PTR r_sign$10[rbp], al

; 69   :             _UINT32_T q_abs;
; 70   :             _UINT32_T r_abs;
; 71   :             if ((result = ep_uint.DivRem_I_X(u_abs, nv->ABS, &q_abs, &r_abs)) != PMC_STATUS_OK)

	lea	r9, QWORD PTR r_abs$12[rbp]
	lea	r8, QWORD PTR q_abs$11[rbp]
	mov	rax, QWORD PTR nv$[rbp]
	mov	rdx, QWORD PTR [rax+16]
	mov	ecx, DWORD PTR u_abs$[rbp]
	call	QWORD PTR ep_uint+224
	mov	DWORD PTR result$[rbp], eax
	cmp	DWORD PTR result$[rbp], 0
	je	SHORT $LN10@PMC_DivRem

; 72   :                 return (result);

	mov	eax, DWORD PTR result$[rbp]
	jmp	$LN1@PMC_DivRem
$LN10@PMC_DivRem:

; 73   :             if ((result = From_I_Imp(q_abs == 0 ? 0 : q_sign, q_abs, &nq)) != PMC_STATUS_OK)

	cmp	DWORD PTR q_abs$11[rbp], 0
	jne	SHORT $LN21@PMC_DivRem
	mov	DWORD PTR tv133[rbp], 0
	jmp	SHORT $LN22@PMC_DivRem
$LN21@PMC_DivRem:
	movsx	eax, BYTE PTR q_sign$9[rbp]
	mov	DWORD PTR tv133[rbp], eax
$LN22@PMC_DivRem:
	lea	r8, QWORD PTR nq$[rbp]
	mov	edx, DWORD PTR q_abs$11[rbp]
	movzx	ecx, BYTE PTR tv133[rbp]
	call	From_I_Imp
	mov	DWORD PTR result$[rbp], eax
	cmp	DWORD PTR result$[rbp], 0
	je	SHORT $LN11@PMC_DivRem

; 74   :                 return (result);

	mov	eax, DWORD PTR result$[rbp]
	jmp	$LN1@PMC_DivRem
$LN11@PMC_DivRem:

; 75   :             if ((result = From_I_Imp(r_abs == 0 ? 0 : r_sign, r_abs, &nr)) != PMC_STATUS_OK)

	cmp	DWORD PTR r_abs$12[rbp], 0
	jne	SHORT $LN23@PMC_DivRem
	mov	DWORD PTR tv142[rbp], 0
	jmp	SHORT $LN24@PMC_DivRem
$LN23@PMC_DivRem:
	movsx	eax, BYTE PTR r_sign$10[rbp]
	mov	DWORD PTR tv142[rbp], eax
$LN24@PMC_DivRem:
	lea	r8, QWORD PTR nr$[rbp]
	mov	edx, DWORD PTR r_abs$12[rbp]
	movzx	ecx, BYTE PTR tv142[rbp]
	call	From_I_Imp
	mov	DWORD PTR result$[rbp], eax
	cmp	DWORD PTR result$[rbp], 0
	je	SHORT $LN12@PMC_DivRem

; 76   :             {
; 77   :                 DeallocateNumber(nq);

	mov	rcx, QWORD PTR nq$[rbp]
	call	DeallocateNumber

; 78   :                 return (result);

	mov	eax, DWORD PTR result$[rbp]
	jmp	$LN1@PMC_DivRem
$LN12@PMC_DivRem:

; 79   :             }
; 80   :         }

	jmp	$LN9@PMC_DivRem
$LN8@PMC_DivRem:

; 81   :         else
; 82   :         {
; 83   :             char r_sign = u_sign;

	movzx	eax, BYTE PTR u_sign$[rbp]
	mov	BYTE PTR r_sign$13[rbp], al

; 84   :             _UINT32_T r_abs;
; 85   :             if ((result = ep_uint.DivRem_I_X(u_abs, nv->ABS, NULL, &r_abs)) != PMC_STATUS_OK)

	lea	r9, QWORD PTR r_abs$14[rbp]
	xor	r8d, r8d
	mov	rax, QWORD PTR nv$[rbp]
	mov	rdx, QWORD PTR [rax+16]
	mov	ecx, DWORD PTR u_abs$[rbp]
	call	QWORD PTR ep_uint+224
	mov	DWORD PTR result$[rbp], eax
	cmp	DWORD PTR result$[rbp], 0
	je	SHORT $LN13@PMC_DivRem

; 86   :                 return (result);

	mov	eax, DWORD PTR result$[rbp]
	jmp	SHORT $LN1@PMC_DivRem
$LN13@PMC_DivRem:

; 87   :             nq = NULL;

	mov	QWORD PTR nq$[rbp], 0

; 88   :             if ((result = From_I_Imp(r_abs == 0 ? 0 : r_sign, r_abs, &nr)) != PMC_STATUS_OK)

	cmp	DWORD PTR r_abs$14[rbp], 0
	jne	SHORT $LN25@PMC_DivRem
	mov	DWORD PTR tv159[rbp], 0
	jmp	SHORT $LN26@PMC_DivRem
$LN25@PMC_DivRem:
	movsx	eax, BYTE PTR r_sign$13[rbp]
	mov	DWORD PTR tv159[rbp], eax
$LN26@PMC_DivRem:
	lea	r8, QWORD PTR nr$[rbp]
	mov	edx, DWORD PTR r_abs$14[rbp]
	movzx	ecx, BYTE PTR tv159[rbp]
	call	From_I_Imp
	mov	DWORD PTR result$[rbp], eax
	cmp	DWORD PTR result$[rbp], 0
	je	SHORT $LN14@PMC_DivRem

; 89   :                 return (result);

	mov	eax, DWORD PTR result$[rbp]
	jmp	SHORT $LN1@PMC_DivRem
$LN14@PMC_DivRem:
$LN9@PMC_DivRem:
$LN7@PMC_DivRem:

; 90   :         }
; 91   :     }
; 92   :     if (q != NULL)

	cmp	QWORD PTR q$[rbp], 0
	je	SHORT $LN15@PMC_DivRem

; 93   :         *q = (PMC_HANDLE_SINT)nq;

	mov	rax, QWORD PTR q$[rbp]
	mov	rcx, QWORD PTR nq$[rbp]
	mov	QWORD PTR [rax], rcx
$LN15@PMC_DivRem:

; 94   :     *r = (PMC_HANDLE_SINT)nr;

	mov	rax, QWORD PTR r$[rbp]
	mov	rcx, QWORD PTR nr$[rbp]
	mov	QWORD PTR [rax], rcx

; 95   :     return (PMC_STATUS_OK);

	xor	eax, eax
$LN1@PMC_DivRem:

; 96   : }

	mov	rdi, rax
	lea	rcx, QWORD PTR [rbp-32]
	lea	rdx, OFFSET FLAT:PMC_DivRem_I_X$rtcFrameData
	call	_RTC_CheckStackVars
	mov	rax, rdi
	mov	rcx, QWORD PTR __$ArrayPad$[rbp]
	xor	rcx, rbp
	call	__security_check_cookie
	lea	rsp, QWORD PTR [rbp+600]
	pop	rdi
	pop	rbp
	ret	0
PMC_DivRem_I_X ENDP
_TEXT	ENDS
END
