; Listing generated by Microsoft (R) Optimizing Compiler Version 19.16.27026.1 

include listing.inc

INCLUDELIB MSVCRTD
INCLUDELIB OLDNAMES

_DATA	SEGMENT
COMM	uint_number_zero:QWORD
COMM	uint_number_one:QWORD
_DATA	ENDS
msvcjmc	SEGMENT
__7B7A869E_ctype@h DB 01H
__457DD326_basetsd@h DB 01H
__4384A2D9_corecrt_memcpy_s@h DB 01H
__4E51A221_corecrt_wstring@h DB 01H
__2140C079_string@h DB 01H
__1887E595_winnt@h DB 01H
__9FC7C64B_processthreadsapi@h DB 01H
__FA470AEC_memoryapi@h DB 01H
__F37DAFF1_winerror@h DB 01H
__7A450CCC_winbase@h DB 01H
__B4B40122_winioctl@h DB 01H
__86261D59_stralign@h DB 01H
__8CA3E54E_pmc_inline_func@h DB 01H
__6265BA8B_pmc_multiply@c DB 01H
msvcjmc	ENDS
PUBLIC	PMC_Multiply_I_X
PUBLIC	PMC_Multiply_L_X
PUBLIC	PMC_Multiply_UX_X
PUBLIC	PMC_Multiply_X_I
PUBLIC	PMC_Multiply_X_L
PUBLIC	PMC_Multiply_X_UX
PUBLIC	PMC_Multiply_X_X
PUBLIC	__JustMyCode_Default
EXTRN	AllocateNumber:PROC
EXTRN	CheckNumber:PROC
EXTRN	_RTC_CheckStackVars:PROC
EXTRN	_RTC_InitBase:PROC
EXTRN	_RTC_Shutdown:PROC
EXTRN	__CheckForDebuggerJustMyCode:PROC
EXTRN	__GSHandlerCheck:PROC
EXTRN	__security_check_cookie:PROC
EXTRN	ep_uint:BYTE
EXTRN	number_zero:BYTE
EXTRN	__security_cookie:QWORD
;	COMDAT pdata
pdata	SEGMENT
$pdata$PMC_Multiply_I_X DD imagerel $LN16
	DD	imagerel $LN16+421
	DD	imagerel $unwind$PMC_Multiply_I_X
pdata	ENDS
;	COMDAT pdata
pdata	SEGMENT
$pdata$PMC_Multiply_L_X DD imagerel $LN16
	DD	imagerel $LN16+425
	DD	imagerel $unwind$PMC_Multiply_L_X
pdata	ENDS
;	COMDAT pdata
pdata	SEGMENT
$pdata$PMC_Multiply_UX_X DD imagerel $LN12
	DD	imagerel $LN12+338
	DD	imagerel $unwind$PMC_Multiply_UX_X
pdata	ENDS
;	COMDAT pdata
pdata	SEGMENT
$pdata$PMC_Multiply_X_I DD imagerel $LN16
	DD	imagerel $LN16+414
	DD	imagerel $unwind$PMC_Multiply_X_I
pdata	ENDS
;	COMDAT pdata
pdata	SEGMENT
$pdata$PMC_Multiply_X_L DD imagerel $LN16
	DD	imagerel $LN16+417
	DD	imagerel $unwind$PMC_Multiply_X_L
pdata	ENDS
;	COMDAT pdata
pdata	SEGMENT
$pdata$PMC_Multiply_X_UX DD imagerel $LN12
	DD	imagerel $LN12+338
	DD	imagerel $unwind$PMC_Multiply_X_UX
pdata	ENDS
;	COMDAT pdata
pdata	SEGMENT
$pdata$PMC_Multiply_X_X DD imagerel $LN18
	DD	imagerel $LN18+469
	DD	imagerel $unwind$PMC_Multiply_X_X
pdata	ENDS
;	COMDAT pdata
pdata	SEGMENT
$pdata$GET_ABS_32 DD imagerel GET_ABS_32
	DD	imagerel GET_ABS_32+175
	DD	imagerel $unwind$GET_ABS_32
pdata	ENDS
;	COMDAT pdata
pdata	SEGMENT
$pdata$GET_ABS_64 DD imagerel GET_ABS_64
	DD	imagerel GET_ABS_64+198
	DD	imagerel $unwind$GET_ABS_64
pdata	ENDS
;	COMDAT pdata
pdata	SEGMENT
$pdata$MultiplyU_X_I_Imp DD imagerel MultiplyU_X_I_Imp
	DD	imagerel MultiplyU_X_I_Imp+257
	DD	imagerel $unwind$MultiplyU_X_I_Imp
pdata	ENDS
;	COMDAT pdata
pdata	SEGMENT
$pdata$MultiplyU_X_L_Imp DD imagerel MultiplyU_X_L_Imp
	DD	imagerel MultiplyU_X_L_Imp+259
	DD	imagerel $unwind$MultiplyU_X_L_Imp
pdata	ENDS
;	COMDAT pdata
pdata	SEGMENT
$pdata$MultiplyU_X_X_Imp DD imagerel MultiplyU_X_X_Imp
	DD	imagerel MultiplyU_X_X_Imp+265
	DD	imagerel $unwind$MultiplyU_X_X_Imp
pdata	ENDS
;	COMDAT rtc$TMZ
rtc$TMZ	SEGMENT
_RTC_Shutdown.rtc$TMZ DQ FLAT:_RTC_Shutdown
rtc$TMZ	ENDS
;	COMDAT rtc$IMZ
rtc$IMZ	SEGMENT
_RTC_InitBase.rtc$IMZ DQ FLAT:_RTC_InitBase
rtc$IMZ	ENDS
;	COMDAT xdata
xdata	SEGMENT
$unwind$MultiplyU_X_X_Imp DD 025054919H
	DD	011c2321H
	DD	070150025H
	DD	05014H
	DD	imagerel __GSHandlerCheck
	DD	0118H
xdata	ENDS
;	COMDAT CONST
CONST	SEGMENT
MultiplyU_X_X_Imp$rtcName$0 DB 077H
	DB	05fH
	DB	061H
	DB	062H
	DB	073H
	DB	00H
	ORG $+10
MultiplyU_X_X_Imp$rtcVarDesc DD 048H
	DD	08H
	DQ	FLAT:MultiplyU_X_X_Imp$rtcName$0
	ORG $+48
MultiplyU_X_X_Imp$rtcFrameData DD 01H
	DD	00H
	DQ	FLAT:MultiplyU_X_X_Imp$rtcVarDesc
CONST	ENDS
;	COMDAT xdata
xdata	SEGMENT
$unwind$MultiplyU_X_L_Imp DD 025054919H
	DD	011c2321H
	DD	070150025H
	DD	05014H
	DD	imagerel __GSHandlerCheck
	DD	0118H
xdata	ENDS
;	COMDAT CONST
CONST	SEGMENT
MultiplyU_X_L_Imp$rtcName$0 DB 077H
	DB	05fH
	DB	061H
	DB	062H
	DB	073H
	DB	00H
	ORG $+10
MultiplyU_X_L_Imp$rtcVarDesc DD 048H
	DD	08H
	DQ	FLAT:MultiplyU_X_L_Imp$rtcName$0
	ORG $+48
MultiplyU_X_L_Imp$rtcFrameData DD 01H
	DD	00H
	DQ	FLAT:MultiplyU_X_L_Imp$rtcVarDesc
CONST	ENDS
;	COMDAT xdata
xdata	SEGMENT
$unwind$MultiplyU_X_I_Imp DD 025054919H
	DD	011c2321H
	DD	070150025H
	DD	05014H
	DD	imagerel __GSHandlerCheck
	DD	0118H
xdata	ENDS
;	COMDAT CONST
CONST	SEGMENT
MultiplyU_X_I_Imp$rtcName$0 DB 077H
	DB	05fH
	DB	061H
	DB	062H
	DB	073H
	DB	00H
	ORG $+10
MultiplyU_X_I_Imp$rtcVarDesc DD 048H
	DD	08H
	DQ	FLAT:MultiplyU_X_I_Imp$rtcName$0
	ORG $+48
MultiplyU_X_I_Imp$rtcFrameData DD 01H
	DD	00H
	DQ	FLAT:MultiplyU_X_I_Imp$rtcVarDesc
CONST	ENDS
;	COMDAT xdata
xdata	SEGMENT
$unwind$GET_ABS_64 DD 025052f01H
	DD	01132318H
	DD	0700c001fH
	DD	0500bH
xdata	ENDS
;	COMDAT xdata
xdata	SEGMENT
$unwind$GET_ABS_32 DD 025052d01H
	DD	01122317H
	DD	0700b001fH
	DD	0500aH
xdata	ENDS
;	COMDAT xdata
xdata	SEGMENT
$unwind$PMC_Multiply_X_X DD 025054519H
	DD	0118231dH
	DD	07011002dH
	DD	05010H
	DD	imagerel __GSHandlerCheck
	DD	0158H
xdata	ENDS
;	COMDAT CONST
CONST	SEGMENT
PMC_Multiply_X_X$rtcName$0 DB 06eH
	DB	077H
	DB	00H
	ORG $+13
PMC_Multiply_X_X$rtcVarDesc DD 088H
	DD	08H
	DQ	FLAT:PMC_Multiply_X_X$rtcName$0
	ORG $+48
PMC_Multiply_X_X$rtcFrameData DD 01H
	DD	00H
	DQ	FLAT:PMC_Multiply_X_X$rtcVarDesc
CONST	ENDS
;	COMDAT xdata
xdata	SEGMENT
$unwind$PMC_Multiply_X_UX DD 025054519H
	DD	0118231dH
	DD	070110029H
	DD	05010H
	DD	imagerel __GSHandlerCheck
	DD	0138H
xdata	ENDS
;	COMDAT CONST
CONST	SEGMENT
PMC_Multiply_X_UX$rtcName$0 DB 06eH
	DB	077H
	DB	00H
	ORG $+13
PMC_Multiply_X_UX$rtcVarDesc DD 068H
	DD	08H
	DQ	FLAT:PMC_Multiply_X_UX$rtcName$0
	ORG $+48
PMC_Multiply_X_UX$rtcFrameData DD 01H
	DD	00H
	DQ	FLAT:PMC_Multiply_X_UX$rtcVarDesc
CONST	ENDS
;	COMDAT xdata
xdata	SEGMENT
$unwind$PMC_Multiply_X_L DD 025054519H
	DD	0118231dH
	DD	070110031H
	DD	05010H
	DD	imagerel __GSHandlerCheck
	DD	0178H
xdata	ENDS
;	COMDAT CONST
CONST	SEGMENT
PMC_Multiply_X_L$rtcName$0 DB 06eH
	DB	077H
	DB	00H
	ORG $+1
PMC_Multiply_X_L$rtcName$1 DB 076H
	DB	05fH
	DB	073H
	DB	069H
	DB	067H
	DB	06eH
	DB	00H
	ORG $+5
PMC_Multiply_X_L$rtcVarDesc DD 084H
	DD	01H
	DQ	FLAT:PMC_Multiply_X_L$rtcName$1
	DD	068H
	DD	08H
	DQ	FLAT:PMC_Multiply_X_L$rtcName$0
	ORG $+96
PMC_Multiply_X_L$rtcFrameData DD 02H
	DD	00H
	DQ	FLAT:PMC_Multiply_X_L$rtcVarDesc
CONST	ENDS
;	COMDAT xdata
xdata	SEGMENT
$unwind$PMC_Multiply_X_I DD 025054419H
	DD	0117231cH
	DD	070100031H
	DD	0500fH
	DD	imagerel __GSHandlerCheck
	DD	0178H
xdata	ENDS
;	COMDAT CONST
CONST	SEGMENT
PMC_Multiply_X_I$rtcName$0 DB 06eH
	DB	077H
	DB	00H
	ORG $+1
PMC_Multiply_X_I$rtcName$1 DB 076H
	DB	05fH
	DB	073H
	DB	069H
	DB	067H
	DB	06eH
	DB	00H
	ORG $+5
PMC_Multiply_X_I$rtcVarDesc DD 084H
	DD	01H
	DQ	FLAT:PMC_Multiply_X_I$rtcName$1
	DD	068H
	DD	08H
	DQ	FLAT:PMC_Multiply_X_I$rtcName$0
	ORG $+96
PMC_Multiply_X_I$rtcFrameData DD 02H
	DD	00H
	DQ	FLAT:PMC_Multiply_X_I$rtcVarDesc
CONST	ENDS
;	COMDAT xdata
xdata	SEGMENT
$unwind$PMC_Multiply_UX_X DD 025054519H
	DD	0118231dH
	DD	070110029H
	DD	05010H
	DD	imagerel __GSHandlerCheck
	DD	0138H
xdata	ENDS
;	COMDAT CONST
CONST	SEGMENT
PMC_Multiply_UX_X$rtcName$0 DB 06eH
	DB	077H
	DB	00H
	ORG $+13
PMC_Multiply_UX_X$rtcVarDesc DD 068H
	DD	08H
	DQ	FLAT:PMC_Multiply_UX_X$rtcName$0
	ORG $+48
PMC_Multiply_UX_X$rtcFrameData DD 01H
	DD	00H
	DQ	FLAT:PMC_Multiply_UX_X$rtcVarDesc
CONST	ENDS
;	COMDAT xdata
xdata	SEGMENT
$unwind$PMC_Multiply_L_X DD 025054519H
	DD	0118231dH
	DD	070110031H
	DD	05010H
	DD	imagerel __GSHandlerCheck
	DD	0178H
xdata	ENDS
;	COMDAT CONST
CONST	SEGMENT
PMC_Multiply_L_X$rtcName$0 DB 06eH
	DB	077H
	DB	00H
	ORG $+1
PMC_Multiply_L_X$rtcName$1 DB 075H
	DB	05fH
	DB	073H
	DB	069H
	DB	067H
	DB	06eH
	DB	00H
	ORG $+5
PMC_Multiply_L_X$rtcVarDesc DD 084H
	DD	01H
	DQ	FLAT:PMC_Multiply_L_X$rtcName$1
	DD	068H
	DD	08H
	DQ	FLAT:PMC_Multiply_L_X$rtcName$0
	ORG $+96
PMC_Multiply_L_X$rtcFrameData DD 02H
	DD	00H
	DQ	FLAT:PMC_Multiply_L_X$rtcVarDesc
CONST	ENDS
;	COMDAT xdata
xdata	SEGMENT
$unwind$PMC_Multiply_I_X DD 025054319H
	DD	0117231cH
	DD	070100031H
	DD	0500fH
	DD	imagerel __GSHandlerCheck
	DD	0178H
xdata	ENDS
;	COMDAT CONST
CONST	SEGMENT
PMC_Multiply_I_X$rtcName$0 DB 06eH
	DB	077H
	DB	00H
	ORG $+1
PMC_Multiply_I_X$rtcName$1 DB 075H
	DB	05fH
	DB	073H
	DB	069H
	DB	067H
	DB	06eH
	DB	00H
	ORG $+5
PMC_Multiply_I_X$rtcVarDesc DD 084H
	DD	01H
	DQ	FLAT:PMC_Multiply_I_X$rtcName$1
	DD	068H
	DD	08H
	DQ	FLAT:PMC_Multiply_I_X$rtcName$0
	ORG $+96
PMC_Multiply_I_X$rtcFrameData DD 02H
	DD	00H
	DQ	FLAT:PMC_Multiply_I_X$rtcVarDesc
CONST	ENDS
; Function compile flags: /Odt
;	COMDAT __JustMyCode_Default
_TEXT	SEGMENT
__JustMyCode_Default PROC				; COMDAT
	ret	0
__JustMyCode_Default ENDP
_TEXT	ENDS
; Function compile flags: /Odtp /RTCsu /ZI
; File z:\sources\lunor\repos\rougemeilland\palmtree.math.core.sint\palmtree.math.core.sint\pmc_multiply.c
;	COMDAT MultiplyU_X_X_Imp
_TEXT	SEGMENT
result$ = 4
w_abs$ = 40
__$ArrayPad$ = 248
w_sign$ = 288
u$ = 296
v$ = 304
w$ = 312
MultiplyU_X_X_Imp PROC					; COMDAT

; 72   : {

	mov	QWORD PTR [rsp+32], r9
	mov	QWORD PTR [rsp+24], r8
	mov	QWORD PTR [rsp+16], rdx
	mov	BYTE PTR [rsp+8], cl
	push	rbp
	push	rdi
	sub	rsp, 296				; 00000128H
	lea	rbp, QWORD PTR [rsp+32]
	mov	rdi, rsp
	mov	ecx, 74					; 0000004aH
	mov	eax, -858993460				; ccccccccH
	rep stosd
	movzx	ecx, BYTE PTR [rsp+328]
	mov	rax, QWORD PTR __security_cookie
	xor	rax, rbp
	mov	QWORD PTR __$ArrayPad$[rbp], rax
	lea	rcx, OFFSET FLAT:__6265BA8B_pmc_multiply@c
	call	__CheckForDebuggerJustMyCode

; 73   : #ifdef _DEBUG
; 74   :     if (u->FLAGS.IS_ZERO)

	mov	rax, QWORD PTR u$[rbp]
	mov	eax, DWORD PTR [rax]
	and	eax, 1
	test	eax, eax
	je	SHORT $LN2@MultiplyU_

; 75   :         return (PMC_STATUS_INTERNAL_ERROR);

	mov	eax, -256				; ffffffffffffff00H
	jmp	SHORT $LN1@MultiplyU_
$LN2@MultiplyU_:

; 76   :     if (v->FLAGS.IS_ZERO)

	mov	rax, QWORD PTR v$[rbp]
	mov	eax, DWORD PTR [rax]
	and	eax, 1
	test	eax, eax
	je	SHORT $LN3@MultiplyU_

; 77   :         return (PMC_STATUS_INTERNAL_ERROR);

	mov	eax, -256				; ffffffffffffff00H
	jmp	SHORT $LN1@MultiplyU_
$LN3@MultiplyU_:

; 78   : #endif
; 79   :     PMC_STATUS_CODE result;
; 80   :     PMC_HANDLE_UINT w_abs;
; 81   :     if ((result = ep_uint.Multiply_X_X(u, v, &w_abs)) != PMC_STATUS_OK)

	lea	r8, QWORD PTR w_abs$[rbp]
	mov	rdx, QWORD PTR v$[rbp]
	mov	rcx, QWORD PTR u$[rbp]
	call	QWORD PTR ep_uint+216
	mov	DWORD PTR result$[rbp], eax
	cmp	DWORD PTR result$[rbp], 0
	je	SHORT $LN4@MultiplyU_

; 82   :         return (result);

	mov	eax, DWORD PTR result$[rbp]
	jmp	SHORT $LN1@MultiplyU_
$LN4@MultiplyU_:

; 83   :     if ((result = AllocateNumber(w, w_sign, w_abs)) != PMC_STATUS_OK)

	mov	r8, QWORD PTR w_abs$[rbp]
	movzx	edx, BYTE PTR w_sign$[rbp]
	mov	rcx, QWORD PTR w$[rbp]
	call	AllocateNumber
	mov	DWORD PTR result$[rbp], eax
	cmp	DWORD PTR result$[rbp], 0
	je	SHORT $LN5@MultiplyU_

; 84   :     {
; 85   :         ep_uint.Dispose(w_abs);

	mov	rcx, QWORD PTR w_abs$[rbp]
	call	QWORD PTR ep_uint+32

; 86   :         return (result);

	mov	eax, DWORD PTR result$[rbp]
	jmp	SHORT $LN1@MultiplyU_
$LN5@MultiplyU_:

; 87   :     }
; 88   :     return (PMC_STATUS_OK);

	xor	eax, eax
$LN1@MultiplyU_:

; 89   : }

	mov	rdi, rax
	lea	rcx, QWORD PTR [rbp-32]
	lea	rdx, OFFSET FLAT:MultiplyU_X_X_Imp$rtcFrameData
	call	_RTC_CheckStackVars
	mov	rax, rdi
	mov	rcx, QWORD PTR __$ArrayPad$[rbp]
	xor	rcx, rbp
	call	__security_check_cookie
	lea	rsp, QWORD PTR [rbp+264]
	pop	rdi
	pop	rbp
	ret	0
MultiplyU_X_X_Imp ENDP
_TEXT	ENDS
; Function compile flags: /Odtp /RTCsu /ZI
; File z:\sources\lunor\repos\rougemeilland\palmtree.math.core.sint\palmtree.math.core.sint\pmc_multiply.c
;	COMDAT MultiplyU_X_L_Imp
_TEXT	SEGMENT
result$ = 4
w_abs$ = 40
__$ArrayPad$ = 248
w_sign$ = 288
u$ = 296
v$ = 304
w$ = 312
MultiplyU_X_L_Imp PROC					; COMDAT

; 52   : {

	mov	QWORD PTR [rsp+32], r9
	mov	QWORD PTR [rsp+24], r8
	mov	QWORD PTR [rsp+16], rdx
	mov	BYTE PTR [rsp+8], cl
	push	rbp
	push	rdi
	sub	rsp, 296				; 00000128H
	lea	rbp, QWORD PTR [rsp+32]
	mov	rdi, rsp
	mov	ecx, 74					; 0000004aH
	mov	eax, -858993460				; ccccccccH
	rep stosd
	movzx	ecx, BYTE PTR [rsp+328]
	mov	rax, QWORD PTR __security_cookie
	xor	rax, rbp
	mov	QWORD PTR __$ArrayPad$[rbp], rax
	lea	rcx, OFFSET FLAT:__6265BA8B_pmc_multiply@c
	call	__CheckForDebuggerJustMyCode

; 53   : #ifdef _DEBUG
; 54   :     if (u->FLAGS.IS_ZERO)

	mov	rax, QWORD PTR u$[rbp]
	mov	eax, DWORD PTR [rax]
	and	eax, 1
	test	eax, eax
	je	SHORT $LN2@MultiplyU_

; 55   :         return (PMC_STATUS_INTERNAL_ERROR);

	mov	eax, -256				; ffffffffffffff00H
	jmp	SHORT $LN1@MultiplyU_
$LN2@MultiplyU_:

; 56   :     if (v == 0)

	cmp	QWORD PTR v$[rbp], 0
	jne	SHORT $LN3@MultiplyU_

; 57   :         return (PMC_STATUS_INTERNAL_ERROR);

	mov	eax, -256				; ffffffffffffff00H
	jmp	SHORT $LN1@MultiplyU_
$LN3@MultiplyU_:

; 58   : #endif
; 59   :     PMC_STATUS_CODE result;
; 60   :     PMC_HANDLE_UINT w_abs;
; 61   :     if ((result = ep_uint.Multiply_X_L(u, v, &w_abs)) != PMC_STATUS_OK)

	lea	r8, QWORD PTR w_abs$[rbp]
	mov	rdx, QWORD PTR v$[rbp]
	mov	rcx, QWORD PTR u$[rbp]
	call	QWORD PTR ep_uint+208
	mov	DWORD PTR result$[rbp], eax
	cmp	DWORD PTR result$[rbp], 0
	je	SHORT $LN4@MultiplyU_

; 62   :         return (result);

	mov	eax, DWORD PTR result$[rbp]
	jmp	SHORT $LN1@MultiplyU_
$LN4@MultiplyU_:

; 63   :     if ((result = AllocateNumber(w, w_sign, w_abs)) != PMC_STATUS_OK)

	mov	r8, QWORD PTR w_abs$[rbp]
	movzx	edx, BYTE PTR w_sign$[rbp]
	mov	rcx, QWORD PTR w$[rbp]
	call	AllocateNumber
	mov	DWORD PTR result$[rbp], eax
	cmp	DWORD PTR result$[rbp], 0
	je	SHORT $LN5@MultiplyU_

; 64   :     {
; 65   :         ep_uint.Dispose(w_abs);

	mov	rcx, QWORD PTR w_abs$[rbp]
	call	QWORD PTR ep_uint+32

; 66   :         return (result);

	mov	eax, DWORD PTR result$[rbp]
	jmp	SHORT $LN1@MultiplyU_
$LN5@MultiplyU_:

; 67   :     }
; 68   :     return (PMC_STATUS_OK);

	xor	eax, eax
$LN1@MultiplyU_:

; 69   : }

	mov	rdi, rax
	lea	rcx, QWORD PTR [rbp-32]
	lea	rdx, OFFSET FLAT:MultiplyU_X_L_Imp$rtcFrameData
	call	_RTC_CheckStackVars
	mov	rax, rdi
	mov	rcx, QWORD PTR __$ArrayPad$[rbp]
	xor	rcx, rbp
	call	__security_check_cookie
	lea	rsp, QWORD PTR [rbp+264]
	pop	rdi
	pop	rbp
	ret	0
MultiplyU_X_L_Imp ENDP
_TEXT	ENDS
; Function compile flags: /Odtp /RTCsu /ZI
; File z:\sources\lunor\repos\rougemeilland\palmtree.math.core.sint\palmtree.math.core.sint\pmc_multiply.c
;	COMDAT MultiplyU_X_I_Imp
_TEXT	SEGMENT
result$ = 4
w_abs$ = 40
__$ArrayPad$ = 248
w_sign$ = 288
u$ = 296
v$ = 304
w$ = 312
MultiplyU_X_I_Imp PROC					; COMDAT

; 32   : {

	mov	QWORD PTR [rsp+32], r9
	mov	DWORD PTR [rsp+24], r8d
	mov	QWORD PTR [rsp+16], rdx
	mov	BYTE PTR [rsp+8], cl
	push	rbp
	push	rdi
	sub	rsp, 296				; 00000128H
	lea	rbp, QWORD PTR [rsp+32]
	mov	rdi, rsp
	mov	ecx, 74					; 0000004aH
	mov	eax, -858993460				; ccccccccH
	rep stosd
	movzx	ecx, BYTE PTR [rsp+328]
	mov	rax, QWORD PTR __security_cookie
	xor	rax, rbp
	mov	QWORD PTR __$ArrayPad$[rbp], rax
	lea	rcx, OFFSET FLAT:__6265BA8B_pmc_multiply@c
	call	__CheckForDebuggerJustMyCode

; 33   : #ifdef _DEBUG
; 34   :     if (u->FLAGS.IS_ZERO)

	mov	rax, QWORD PTR u$[rbp]
	mov	eax, DWORD PTR [rax]
	and	eax, 1
	test	eax, eax
	je	SHORT $LN2@MultiplyU_

; 35   :         return (PMC_STATUS_INTERNAL_ERROR);

	mov	eax, -256				; ffffffffffffff00H
	jmp	SHORT $LN1@MultiplyU_
$LN2@MultiplyU_:

; 36   :     if (v == 0)

	cmp	DWORD PTR v$[rbp], 0
	jne	SHORT $LN3@MultiplyU_

; 37   :         return (PMC_STATUS_INTERNAL_ERROR);

	mov	eax, -256				; ffffffffffffff00H
	jmp	SHORT $LN1@MultiplyU_
$LN3@MultiplyU_:

; 38   : #endif
; 39   :     PMC_STATUS_CODE result;
; 40   :     PMC_HANDLE_UINT w_abs;
; 41   :     if ((result = ep_uint.Multiply_X_I(u, v, &w_abs)) != PMC_STATUS_OK)

	lea	r8, QWORD PTR w_abs$[rbp]
	mov	edx, DWORD PTR v$[rbp]
	mov	rcx, QWORD PTR u$[rbp]
	call	QWORD PTR ep_uint+200
	mov	DWORD PTR result$[rbp], eax
	cmp	DWORD PTR result$[rbp], 0
	je	SHORT $LN4@MultiplyU_

; 42   :         return (result);

	mov	eax, DWORD PTR result$[rbp]
	jmp	SHORT $LN1@MultiplyU_
$LN4@MultiplyU_:

; 43   :     if ((result = AllocateNumber(w, w_sign, w_abs)) != PMC_STATUS_OK)

	mov	r8, QWORD PTR w_abs$[rbp]
	movzx	edx, BYTE PTR w_sign$[rbp]
	mov	rcx, QWORD PTR w$[rbp]
	call	AllocateNumber
	mov	DWORD PTR result$[rbp], eax
	cmp	DWORD PTR result$[rbp], 0
	je	SHORT $LN5@MultiplyU_

; 44   :     {
; 45   :         ep_uint.Dispose(w_abs);

	mov	rcx, QWORD PTR w_abs$[rbp]
	call	QWORD PTR ep_uint+32

; 46   :         return (result);

	mov	eax, DWORD PTR result$[rbp]
	jmp	SHORT $LN1@MultiplyU_
$LN5@MultiplyU_:

; 47   :     }
; 48   :     return (PMC_STATUS_OK);

	xor	eax, eax
$LN1@MultiplyU_:

; 49   : }

	mov	rdi, rax
	lea	rcx, QWORD PTR [rbp-32]
	lea	rdx, OFFSET FLAT:MultiplyU_X_I_Imp$rtcFrameData
	call	_RTC_CheckStackVars
	mov	rax, rdi
	mov	rcx, QWORD PTR __$ArrayPad$[rbp]
	xor	rcx, rbp
	call	__security_check_cookie
	lea	rsp, QWORD PTR [rbp+264]
	pop	rdi
	pop	rbp
	ret	0
MultiplyU_X_I_Imp ENDP
_TEXT	ENDS
; Function compile flags: /Odtp /RTCsu /ZI
; File z:\sources\lunor\repos\rougemeilland\palmtree.math.core.uint\palmtree.math.core.uint\pmc_inline_func.h
;	COMDAT GET_ABS_64
_TEXT	SEGMENT
tv68 = 192
u$ = 240
sign$ = 248
GET_ABS_64 PROC						; COMDAT

; 800  :     {

	mov	QWORD PTR [rsp+16], rdx
	mov	QWORD PTR [rsp+8], rcx
	push	rbp
	push	rdi
	sub	rsp, 248				; 000000f8H
	lea	rbp, QWORD PTR [rsp+32]
	mov	rdi, rsp
	mov	ecx, 62					; 0000003eH
	mov	eax, -858993460				; ccccccccH
	rep stosd
	mov	rcx, QWORD PTR [rsp+280]
	lea	rcx, OFFSET FLAT:__8CA3E54E_pmc_inline_func@h
	call	__CheckForDebuggerJustMyCode

; 801  :         if (u > 0)

	cmp	QWORD PTR u$[rbp], 0
	jle	SHORT $LN2@GET_ABS_64

; 802  :         {
; 803  :             *sign = 1;

	mov	rax, QWORD PTR sign$[rbp]
	mov	BYTE PTR [rax], 1

; 804  :             return ((_UINT64_T)u);

	mov	rax, QWORD PTR u$[rbp]
	jmp	SHORT $LN1@GET_ABS_64

; 805  :         }

	jmp	SHORT $LN3@GET_ABS_64
$LN2@GET_ABS_64:

; 806  :         else if (u == 0)

	cmp	QWORD PTR u$[rbp], 0
	jne	SHORT $LN4@GET_ABS_64

; 807  :         {
; 808  :             *sign = 0;

	mov	rax, QWORD PTR sign$[rbp]
	mov	BYTE PTR [rax], 0

; 809  :             return (0);

	xor	eax, eax
	jmp	SHORT $LN1@GET_ABS_64

; 810  :         }

	jmp	SHORT $LN5@GET_ABS_64
$LN4@GET_ABS_64:

; 811  :         else
; 812  :         {
; 813  :             *sign = -1;

	mov	rax, QWORD PTR sign$[rbp]
	mov	BYTE PTR [rax], -1

; 814  :             return ((_UINT64_T)u == 0x8000000000000000UL ? 0x8000000000000000UL : (_UINT64_T)-u);

	mov	rax, -9223372036854775808		; 8000000000000000H
	cmp	QWORD PTR u$[rbp], rax
	jne	SHORT $LN7@GET_ABS_64
	mov	rax, -9223372036854775808		; 8000000000000000H
	mov	QWORD PTR tv68[rbp], rax
	jmp	SHORT $LN8@GET_ABS_64
$LN7@GET_ABS_64:
	mov	rax, QWORD PTR u$[rbp]
	neg	rax
	mov	QWORD PTR tv68[rbp], rax
$LN8@GET_ABS_64:
	mov	rax, QWORD PTR tv68[rbp]
$LN5@GET_ABS_64:
$LN3@GET_ABS_64:
$LN1@GET_ABS_64:

; 815  :         }
; 816  :     }

	lea	rsp, QWORD PTR [rbp+216]
	pop	rdi
	pop	rbp
	ret	0
GET_ABS_64 ENDP
_TEXT	ENDS
; Function compile flags: /Odtp /RTCsu /ZI
; File z:\sources\lunor\repos\rougemeilland\palmtree.math.core.uint\palmtree.math.core.uint\pmc_inline_func.h
;	COMDAT GET_ABS_32
_TEXT	SEGMENT
tv68 = 192
u$ = 240
sign$ = 248
GET_ABS_32 PROC						; COMDAT

; 780  :     {

	mov	QWORD PTR [rsp+16], rdx
	mov	DWORD PTR [rsp+8], ecx
	push	rbp
	push	rdi
	sub	rsp, 248				; 000000f8H
	lea	rbp, QWORD PTR [rsp+32]
	mov	rdi, rsp
	mov	ecx, 62					; 0000003eH
	mov	eax, -858993460				; ccccccccH
	rep stosd
	mov	ecx, DWORD PTR [rsp+280]
	lea	rcx, OFFSET FLAT:__8CA3E54E_pmc_inline_func@h
	call	__CheckForDebuggerJustMyCode

; 781  :         if (u > 0)

	cmp	DWORD PTR u$[rbp], 0
	jle	SHORT $LN2@GET_ABS_32

; 782  :         {
; 783  :             *sign = 1;

	mov	rax, QWORD PTR sign$[rbp]
	mov	BYTE PTR [rax], 1

; 784  :             return ((_UINT32_T)u);

	mov	eax, DWORD PTR u$[rbp]
	jmp	SHORT $LN1@GET_ABS_32

; 785  :         }

	jmp	SHORT $LN3@GET_ABS_32
$LN2@GET_ABS_32:

; 786  :         else if (u == 0)

	cmp	DWORD PTR u$[rbp], 0
	jne	SHORT $LN4@GET_ABS_32

; 787  :         {
; 788  :             *sign = 0;

	mov	rax, QWORD PTR sign$[rbp]
	mov	BYTE PTR [rax], 0

; 789  :             return (0);

	xor	eax, eax
	jmp	SHORT $LN1@GET_ABS_32

; 790  :         }

	jmp	SHORT $LN5@GET_ABS_32
$LN4@GET_ABS_32:

; 791  :         else
; 792  :         {
; 793  :             *sign = -1;

	mov	rax, QWORD PTR sign$[rbp]
	mov	BYTE PTR [rax], -1

; 794  :             return ((_UINT32_T)u == 0x80000000U ? 0x80000000U : (_UINT32_T)-u);

	cmp	DWORD PTR u$[rbp], -2147483648		; 80000000H
	jne	SHORT $LN7@GET_ABS_32
	mov	DWORD PTR tv68[rbp], -2147483648	; 80000000H
	jmp	SHORT $LN8@GET_ABS_32
$LN7@GET_ABS_32:
	mov	eax, DWORD PTR u$[rbp]
	neg	eax
	mov	DWORD PTR tv68[rbp], eax
$LN8@GET_ABS_32:
	mov	eax, DWORD PTR tv68[rbp]
$LN5@GET_ABS_32:
$LN3@GET_ABS_32:
$LN1@GET_ABS_32:

; 795  :         }
; 796  : }

	lea	rsp, QWORD PTR [rbp+216]
	pop	rdi
	pop	rbp
	ret	0
GET_ABS_32 ENDP
_TEXT	ENDS
; Function compile flags: /Odtp /RTCsu /ZI
; File z:\sources\lunor\repos\rougemeilland\palmtree.math.core.sint\palmtree.math.core.sint\pmc_multiply.c
;	COMDAT PMC_Multiply_X_X
_TEXT	SEGMENT
result$ = 4
nu$ = 40
nv$ = 72
nw$ = 104
__$ArrayPad$ = 312
u$ = 352
v$ = 360
w$ = 368
PMC_Multiply_X_X PROC					; COMDAT

; 437  : {

$LN18:
	mov	QWORD PTR [rsp+24], r8
	mov	QWORD PTR [rsp+16], rdx
	mov	QWORD PTR [rsp+8], rcx
	push	rbp
	push	rdi
	sub	rsp, 360				; 00000168H
	lea	rbp, QWORD PTR [rsp+32]
	mov	rdi, rsp
	mov	ecx, 90					; 0000005aH
	mov	eax, -858993460				; ccccccccH
	rep stosd
	mov	rcx, QWORD PTR [rsp+392]
	mov	rax, QWORD PTR __security_cookie
	xor	rax, rbp
	mov	QWORD PTR __$ArrayPad$[rbp], rax
	lea	rcx, OFFSET FLAT:__6265BA8B_pmc_multiply@c
	call	__CheckForDebuggerJustMyCode

; 438  :     if (u == NULL)

	cmp	QWORD PTR u$[rbp], 0
	jne	SHORT $LN2@PMC_Multip

; 439  :         return (PMC_STATUS_ARGUMENT_ERROR);

	mov	eax, -1
	jmp	$LN1@PMC_Multip
$LN2@PMC_Multip:

; 440  :     if (v == NULL)

	cmp	QWORD PTR v$[rbp], 0
	jne	SHORT $LN3@PMC_Multip

; 441  :         return (PMC_STATUS_ARGUMENT_ERROR);

	mov	eax, -1
	jmp	$LN1@PMC_Multip
$LN3@PMC_Multip:

; 442  :     if (w == NULL)

	cmp	QWORD PTR w$[rbp], 0
	jne	SHORT $LN4@PMC_Multip

; 443  :         return (PMC_STATUS_ARGUMENT_ERROR);

	mov	eax, -1
	jmp	$LN1@PMC_Multip
$LN4@PMC_Multip:

; 444  :     PMC_STATUS_CODE result;
; 445  :     NUMBER_HEADER* nu = (NUMBER_HEADER*)u;

	mov	rax, QWORD PTR u$[rbp]
	mov	QWORD PTR nu$[rbp], rax

; 446  :     NUMBER_HEADER* nv = (NUMBER_HEADER*)v;

	mov	rax, QWORD PTR v$[rbp]
	mov	QWORD PTR nv$[rbp], rax

; 447  :     NUMBER_HEADER* nw;
; 448  :     if ((result = CheckNumber(nu)) != PMC_STATUS_OK)

	mov	rcx, QWORD PTR nu$[rbp]
	call	CheckNumber
	mov	DWORD PTR result$[rbp], eax
	cmp	DWORD PTR result$[rbp], 0
	je	SHORT $LN5@PMC_Multip

; 449  :         return (result);

	mov	eax, DWORD PTR result$[rbp]
	jmp	$LN1@PMC_Multip
$LN5@PMC_Multip:

; 450  :     if ((result = CheckNumber(nv)) != PMC_STATUS_OK)

	mov	rcx, QWORD PTR nv$[rbp]
	call	CheckNumber
	mov	DWORD PTR result$[rbp], eax
	cmp	DWORD PTR result$[rbp], 0
	je	SHORT $LN6@PMC_Multip

; 451  :         return (result);

	mov	eax, DWORD PTR result$[rbp]
	jmp	$LN1@PMC_Multip
$LN6@PMC_Multip:

; 452  :     if (nu->SIGN == 0)

	mov	rax, QWORD PTR nu$[rbp]
	movsx	eax, BYTE PTR [rax+24]
	test	eax, eax
	jne	SHORT $LN7@PMC_Multip

; 453  :     {
; 454  :         // u == 0 の場合
; 455  : 
; 456  :         // 0 を返す
; 457  :         nw = &number_zero;

	lea	rax, OFFSET FLAT:number_zero
	mov	QWORD PTR nw$[rbp], rax

; 458  :     }

	jmp	$LN8@PMC_Multip
$LN7@PMC_Multip:

; 459  :     else if (nu->SIGN > 0)

	mov	rax, QWORD PTR nu$[rbp]
	movsx	eax, BYTE PTR [rax+24]
	test	eax, eax
	jle	SHORT $LN9@PMC_Multip

; 460  :     {
; 461  :         // u > 0 の場合
; 462  : 
; 463  :         if (nv->SIGN == 0)

	mov	rax, QWORD PTR nv$[rbp]
	movsx	eax, BYTE PTR [rax+24]
	test	eax, eax
	jne	SHORT $LN11@PMC_Multip

; 464  :         {
; 465  :             // v == 0 の場合
; 466  : 
; 467  :             // 0 を返す
; 468  :             nw = &number_zero;

	lea	rax, OFFSET FLAT:number_zero
	mov	QWORD PTR nw$[rbp], rax

; 469  :         }

	jmp	SHORT $LN12@PMC_Multip
$LN11@PMC_Multip:

; 470  :         else
; 471  :         {
; 472  :             // v != 0 の場合
; 473  : 
; 474  :             // abs(u) * v を返す
; 475  :             if ((result = MultiplyU_X_X_Imp(nv->SIGN, nu->ABS, nv->ABS, &nw)) != PMC_STATUS_OK)

	lea	r9, QWORD PTR nw$[rbp]
	mov	rax, QWORD PTR nv$[rbp]
	mov	r8, QWORD PTR [rax+16]
	mov	rax, QWORD PTR nu$[rbp]
	mov	rdx, QWORD PTR [rax+16]
	mov	rax, QWORD PTR nv$[rbp]
	movzx	ecx, BYTE PTR [rax+24]
	call	MultiplyU_X_X_Imp
	mov	DWORD PTR result$[rbp], eax
	cmp	DWORD PTR result$[rbp], 0
	je	SHORT $LN13@PMC_Multip

; 476  :                 return (result);

	mov	eax, DWORD PTR result$[rbp]
	jmp	SHORT $LN1@PMC_Multip
$LN13@PMC_Multip:
$LN12@PMC_Multip:

; 477  :         }
; 478  :     }

	jmp	SHORT $LN10@PMC_Multip
$LN9@PMC_Multip:

; 479  :     else
; 480  :     {
; 481  :         // u < 0 の場合
; 482  : 
; 483  :         if (nv->SIGN == 0)

	mov	rax, QWORD PTR nv$[rbp]
	movsx	eax, BYTE PTR [rax+24]
	test	eax, eax
	jne	SHORT $LN14@PMC_Multip

; 484  :         {
; 485  :             // v == 0 の場合
; 486  : 
; 487  :             // 0 を返す
; 488  :             nw = &number_zero;

	lea	rax, OFFSET FLAT:number_zero
	mov	QWORD PTR nw$[rbp], rax

; 489  :         }

	jmp	SHORT $LN15@PMC_Multip
$LN14@PMC_Multip:

; 490  :         else
; 491  :         {
; 492  :             // v != 0 の場合
; 493  : 
; 494  :             // -abs(u) * v を返す
; 495  :             if ((result = MultiplyU_X_X_Imp(-nv->SIGN, nu->ABS, nv->ABS, &nw)) != PMC_STATUS_OK)

	mov	rax, QWORD PTR nv$[rbp]
	movsx	eax, BYTE PTR [rax+24]
	neg	eax
	lea	r9, QWORD PTR nw$[rbp]
	mov	rcx, QWORD PTR nv$[rbp]
	mov	r8, QWORD PTR [rcx+16]
	mov	rcx, QWORD PTR nu$[rbp]
	mov	rdx, QWORD PTR [rcx+16]
	movzx	ecx, al
	call	MultiplyU_X_X_Imp
	mov	DWORD PTR result$[rbp], eax
	cmp	DWORD PTR result$[rbp], 0
	je	SHORT $LN16@PMC_Multip

; 496  :                 return (result);

	mov	eax, DWORD PTR result$[rbp]
	jmp	SHORT $LN1@PMC_Multip
$LN16@PMC_Multip:
$LN15@PMC_Multip:
$LN10@PMC_Multip:
$LN8@PMC_Multip:

; 497  :         }
; 498  :     }
; 499  :     *w = (PMC_HANDLE_SINT)nw;

	mov	rax, QWORD PTR w$[rbp]
	mov	rcx, QWORD PTR nw$[rbp]
	mov	QWORD PTR [rax], rcx

; 500  :     return (PMC_STATUS_OK);

	xor	eax, eax
$LN1@PMC_Multip:

; 501  : }

	mov	rdi, rax
	lea	rcx, QWORD PTR [rbp-32]
	lea	rdx, OFFSET FLAT:PMC_Multiply_X_X$rtcFrameData
	call	_RTC_CheckStackVars
	mov	rax, rdi
	mov	rcx, QWORD PTR __$ArrayPad$[rbp]
	xor	rcx, rbp
	call	__security_check_cookie
	lea	rsp, QWORD PTR [rbp+328]
	pop	rdi
	pop	rbp
	ret	0
PMC_Multiply_X_X ENDP
_TEXT	ENDS
; Function compile flags: /Odtp /RTCsu /ZI
; File z:\sources\lunor\repos\rougemeilland\palmtree.math.core.sint\palmtree.math.core.sint\pmc_multiply.c
;	COMDAT PMC_Multiply_X_UX
_TEXT	SEGMENT
result$ = 4
nu$ = 40
nw$ = 72
__$ArrayPad$ = 280
u$ = 320
v$ = 328
w$ = 336
PMC_Multiply_X_UX PROC					; COMDAT

; 392  : {

$LN12:
	mov	QWORD PTR [rsp+24], r8
	mov	QWORD PTR [rsp+16], rdx
	mov	QWORD PTR [rsp+8], rcx
	push	rbp
	push	rdi
	sub	rsp, 328				; 00000148H
	lea	rbp, QWORD PTR [rsp+32]
	mov	rdi, rsp
	mov	ecx, 82					; 00000052H
	mov	eax, -858993460				; ccccccccH
	rep stosd
	mov	rcx, QWORD PTR [rsp+360]
	mov	rax, QWORD PTR __security_cookie
	xor	rax, rbp
	mov	QWORD PTR __$ArrayPad$[rbp], rax
	lea	rcx, OFFSET FLAT:__6265BA8B_pmc_multiply@c
	call	__CheckForDebuggerJustMyCode

; 393  :     if (u == NULL)

	cmp	QWORD PTR u$[rbp], 0
	jne	SHORT $LN2@PMC_Multip

; 394  :         return (PMC_STATUS_ARGUMENT_ERROR);

	mov	eax, -1
	jmp	$LN1@PMC_Multip
$LN2@PMC_Multip:

; 395  :     if (v == NULL)

	cmp	QWORD PTR v$[rbp], 0
	jne	SHORT $LN3@PMC_Multip

; 396  :         return (PMC_STATUS_ARGUMENT_ERROR);

	mov	eax, -1
	jmp	$LN1@PMC_Multip
$LN3@PMC_Multip:

; 397  :     if (w == NULL)

	cmp	QWORD PTR w$[rbp], 0
	jne	SHORT $LN4@PMC_Multip

; 398  :         return (PMC_STATUS_ARGUMENT_ERROR);

	mov	eax, -1
	jmp	$LN1@PMC_Multip
$LN4@PMC_Multip:

; 399  :     PMC_STATUS_CODE result;
; 400  :     NUMBER_HEADER* nu = (NUMBER_HEADER*)u;

	mov	rax, QWORD PTR u$[rbp]
	mov	QWORD PTR nu$[rbp], rax

; 401  :     NUMBER_HEADER* nw;
; 402  :     if ((result = CheckNumber(nu)) != PMC_STATUS_OK)

	mov	rcx, QWORD PTR nu$[rbp]
	call	CheckNumber
	mov	DWORD PTR result$[rbp], eax
	cmp	DWORD PTR result$[rbp], 0
	je	SHORT $LN5@PMC_Multip

; 403  :         return (result);

	mov	eax, DWORD PTR result$[rbp]
	jmp	SHORT $LN1@PMC_Multip
$LN5@PMC_Multip:

; 404  :     if (nu->SIGN == 0)

	mov	rax, QWORD PTR nu$[rbp]
	movsx	eax, BYTE PTR [rax+24]
	test	eax, eax
	jne	SHORT $LN6@PMC_Multip

; 405  :     {
; 406  :         // u == 0 の場合
; 407  : 
; 408  :         // 0 を返す
; 409  :         nw = &number_zero;

	lea	rax, OFFSET FLAT:number_zero
	mov	QWORD PTR nw$[rbp], rax

; 410  :     }

	jmp	SHORT $LN7@PMC_Multip
$LN6@PMC_Multip:

; 411  :     else
; 412  :     {
; 413  :         // u != 0 の場合
; 414  : 
; 415  :         if (v->FLAGS.IS_ZERO)

	mov	rax, QWORD PTR v$[rbp]
	mov	eax, DWORD PTR [rax]
	and	eax, 1
	test	eax, eax
	je	SHORT $LN8@PMC_Multip

; 416  :         {
; 417  :             // v == 0 の場合
; 418  : 
; 419  :             // 0 を返す
; 420  :             nw = &number_zero;

	lea	rax, OFFSET FLAT:number_zero
	mov	QWORD PTR nw$[rbp], rax

; 421  :         }

	jmp	SHORT $LN9@PMC_Multip
$LN8@PMC_Multip:

; 422  :         else
; 423  :         {
; 424  :             // v > 0 の場合
; 425  : 
; 426  :             // u * v を返す
; 427  :             if ((result = MultiplyU_X_X_Imp(nu->SIGN, nu->ABS, v, &nw)) != PMC_STATUS_OK)

	lea	r9, QWORD PTR nw$[rbp]
	mov	r8, QWORD PTR v$[rbp]
	mov	rax, QWORD PTR nu$[rbp]
	mov	rdx, QWORD PTR [rax+16]
	mov	rax, QWORD PTR nu$[rbp]
	movzx	ecx, BYTE PTR [rax+24]
	call	MultiplyU_X_X_Imp
	mov	DWORD PTR result$[rbp], eax
	cmp	DWORD PTR result$[rbp], 0
	je	SHORT $LN10@PMC_Multip

; 428  :                 return (result);

	mov	eax, DWORD PTR result$[rbp]
	jmp	SHORT $LN1@PMC_Multip
$LN10@PMC_Multip:
$LN9@PMC_Multip:
$LN7@PMC_Multip:

; 429  :         }
; 430  : 
; 431  :     }
; 432  :     *w = (PMC_HANDLE_SINT)nw;

	mov	rax, QWORD PTR w$[rbp]
	mov	rcx, QWORD PTR nw$[rbp]
	mov	QWORD PTR [rax], rcx

; 433  :     return (PMC_STATUS_OK);

	xor	eax, eax
$LN1@PMC_Multip:

; 434  : }

	mov	rdi, rax
	lea	rcx, QWORD PTR [rbp-32]
	lea	rdx, OFFSET FLAT:PMC_Multiply_X_UX$rtcFrameData
	call	_RTC_CheckStackVars
	mov	rax, rdi
	mov	rcx, QWORD PTR __$ArrayPad$[rbp]
	xor	rcx, rbp
	call	__security_check_cookie
	lea	rsp, QWORD PTR [rbp+296]
	pop	rdi
	pop	rbp
	ret	0
PMC_Multiply_X_UX ENDP
_TEXT	ENDS
; Function compile flags: /Odtp /RTCsu /ZI
; File z:\sources\lunor\repos\rougemeilland\palmtree.math.core.sint\palmtree.math.core.sint\pmc_multiply.c
;	COMDAT PMC_Multiply_X_L
_TEXT	SEGMENT
result$ = 4
nu$ = 40
nw$ = 72
v_sign$ = 100
v_abs$ = 136
__$ArrayPad$ = 344
u$ = 384
v$ = 392
w$ = 400
PMC_Multiply_X_L PROC					; COMDAT

; 328  : {

$LN16:
	mov	QWORD PTR [rsp+24], r8
	mov	QWORD PTR [rsp+16], rdx
	mov	QWORD PTR [rsp+8], rcx
	push	rbp
	push	rdi
	sub	rsp, 392				; 00000188H
	lea	rbp, QWORD PTR [rsp+32]
	mov	rdi, rsp
	mov	ecx, 98					; 00000062H
	mov	eax, -858993460				; ccccccccH
	rep stosd
	mov	rcx, QWORD PTR [rsp+424]
	mov	rax, QWORD PTR __security_cookie
	xor	rax, rbp
	mov	QWORD PTR __$ArrayPad$[rbp], rax
	lea	rcx, OFFSET FLAT:__6265BA8B_pmc_multiply@c
	call	__CheckForDebuggerJustMyCode

; 329  :     if (u == NULL)

	cmp	QWORD PTR u$[rbp], 0
	jne	SHORT $LN2@PMC_Multip

; 330  :         return (PMC_STATUS_ARGUMENT_ERROR);

	mov	eax, -1
	jmp	$LN1@PMC_Multip
$LN2@PMC_Multip:

; 331  :     if (w == NULL)

	cmp	QWORD PTR w$[rbp], 0
	jne	SHORT $LN3@PMC_Multip

; 332  :         return (PMC_STATUS_ARGUMENT_ERROR);

	mov	eax, -1
	jmp	$LN1@PMC_Multip
$LN3@PMC_Multip:

; 333  :     PMC_STATUS_CODE result;
; 334  :     NUMBER_HEADER* nu = (NUMBER_HEADER*)u;

	mov	rax, QWORD PTR u$[rbp]
	mov	QWORD PTR nu$[rbp], rax

; 335  :     NUMBER_HEADER* nw;
; 336  :     if ((result = CheckNumber(nu)) != PMC_STATUS_OK)

	mov	rcx, QWORD PTR nu$[rbp]
	call	CheckNumber
	mov	DWORD PTR result$[rbp], eax
	cmp	DWORD PTR result$[rbp], 0
	je	SHORT $LN4@PMC_Multip

; 337  :         return (result);

	mov	eax, DWORD PTR result$[rbp]
	jmp	$LN1@PMC_Multip
$LN4@PMC_Multip:

; 338  :     char v_sign;
; 339  :     _UINT64_T v_abs = GET_ABS_64(v, &v_sign);

	lea	rdx, QWORD PTR v_sign$[rbp]
	mov	rcx, QWORD PTR v$[rbp]
	call	GET_ABS_64
	mov	QWORD PTR v_abs$[rbp], rax

; 340  :     if (nu->SIGN == 0)

	mov	rax, QWORD PTR nu$[rbp]
	movsx	eax, BYTE PTR [rax+24]
	test	eax, eax
	jne	SHORT $LN5@PMC_Multip

; 341  :     {
; 342  :         // u == 0 の場合
; 343  : 
; 344  :         // 0 を返す
; 345  :         nw = &number_zero;

	lea	rax, OFFSET FLAT:number_zero
	mov	QWORD PTR nw$[rbp], rax

; 346  :     }

	jmp	$LN6@PMC_Multip
$LN5@PMC_Multip:

; 347  :     else if (nu->SIGN > 0)

	mov	rax, QWORD PTR nu$[rbp]
	movsx	eax, BYTE PTR [rax+24]
	test	eax, eax
	jle	SHORT $LN7@PMC_Multip

; 348  :     {
; 349  :         // u > 0 の場合
; 350  : 
; 351  :         if (v_sign == 0)

	movsx	eax, BYTE PTR v_sign$[rbp]
	test	eax, eax
	jne	SHORT $LN9@PMC_Multip

; 352  :         {
; 353  :             // v == 0 の場合
; 354  : 
; 355  :             // 0 を返す
; 356  :             nw = &number_zero;

	lea	rax, OFFSET FLAT:number_zero
	mov	QWORD PTR nw$[rbp], rax

; 357  :         }

	jmp	SHORT $LN10@PMC_Multip
$LN9@PMC_Multip:

; 358  :         else
; 359  :         {
; 360  :             // v != 0 の場合
; 361  : 
; 362  :             // abs(u) * abs(v) を返す
; 363  :             if ((result = MultiplyU_X_L_Imp(v_sign, nu->ABS, v_abs, &nw)) != PMC_STATUS_OK)

	lea	r9, QWORD PTR nw$[rbp]
	mov	r8, QWORD PTR v_abs$[rbp]
	mov	rax, QWORD PTR nu$[rbp]
	mov	rdx, QWORD PTR [rax+16]
	movzx	ecx, BYTE PTR v_sign$[rbp]
	call	MultiplyU_X_L_Imp
	mov	DWORD PTR result$[rbp], eax
	cmp	DWORD PTR result$[rbp], 0
	je	SHORT $LN11@PMC_Multip

; 364  :                 return (result);

	mov	eax, DWORD PTR result$[rbp]
	jmp	SHORT $LN1@PMC_Multip
$LN11@PMC_Multip:
$LN10@PMC_Multip:

; 365  :         }
; 366  :     }

	jmp	SHORT $LN8@PMC_Multip
$LN7@PMC_Multip:

; 367  :     else
; 368  :     {
; 369  :         // u < 0 の場合
; 370  : 
; 371  :         if (v_sign == 0)

	movsx	eax, BYTE PTR v_sign$[rbp]
	test	eax, eax
	jne	SHORT $LN12@PMC_Multip

; 372  :         {
; 373  :             // v == 0 の場合
; 374  : 
; 375  :             // 0 を返す
; 376  :             nw = &number_zero;

	lea	rax, OFFSET FLAT:number_zero
	mov	QWORD PTR nw$[rbp], rax

; 377  :         }

	jmp	SHORT $LN13@PMC_Multip
$LN12@PMC_Multip:

; 378  :         else
; 379  :         {
; 380  :             // v != 0 の場合
; 381  : 
; 382  :             // -abs(u) * abs(v) を返す
; 383  :             if ((result = MultiplyU_X_L_Imp(-v_sign, nu->ABS, v_abs, &nw)) != PMC_STATUS_OK)

	movsx	eax, BYTE PTR v_sign$[rbp]
	neg	eax
	lea	r9, QWORD PTR nw$[rbp]
	mov	r8, QWORD PTR v_abs$[rbp]
	mov	rcx, QWORD PTR nu$[rbp]
	mov	rdx, QWORD PTR [rcx+16]
	movzx	ecx, al
	call	MultiplyU_X_L_Imp
	mov	DWORD PTR result$[rbp], eax
	cmp	DWORD PTR result$[rbp], 0
	je	SHORT $LN14@PMC_Multip

; 384  :                 return (result);

	mov	eax, DWORD PTR result$[rbp]
	jmp	SHORT $LN1@PMC_Multip
$LN14@PMC_Multip:
$LN13@PMC_Multip:
$LN8@PMC_Multip:
$LN6@PMC_Multip:

; 385  :         }
; 386  :     }
; 387  :     *w = (PMC_HANDLE_SINT)nw;

	mov	rax, QWORD PTR w$[rbp]
	mov	rcx, QWORD PTR nw$[rbp]
	mov	QWORD PTR [rax], rcx

; 388  :     return (PMC_STATUS_OK);

	xor	eax, eax
$LN1@PMC_Multip:

; 389  : }

	mov	rdi, rax
	lea	rcx, QWORD PTR [rbp-32]
	lea	rdx, OFFSET FLAT:PMC_Multiply_X_L$rtcFrameData
	call	_RTC_CheckStackVars
	mov	rax, rdi
	mov	rcx, QWORD PTR __$ArrayPad$[rbp]
	xor	rcx, rbp
	call	__security_check_cookie
	lea	rsp, QWORD PTR [rbp+360]
	pop	rdi
	pop	rbp
	ret	0
PMC_Multiply_X_L ENDP
_TEXT	ENDS
; Function compile flags: /Odtp /RTCsu /ZI
; File z:\sources\lunor\repos\rougemeilland\palmtree.math.core.sint\palmtree.math.core.sint\pmc_multiply.c
;	COMDAT PMC_Multiply_X_I
_TEXT	SEGMENT
result$ = 4
nu$ = 40
nw$ = 72
v_sign$ = 100
v_abs$ = 132
__$ArrayPad$ = 344
u$ = 384
v$ = 392
w$ = 400
PMC_Multiply_X_I PROC					; COMDAT

; 264  : {

$LN16:
	mov	QWORD PTR [rsp+24], r8
	mov	DWORD PTR [rsp+16], edx
	mov	QWORD PTR [rsp+8], rcx
	push	rbp
	push	rdi
	sub	rsp, 392				; 00000188H
	lea	rbp, QWORD PTR [rsp+32]
	mov	rdi, rsp
	mov	ecx, 98					; 00000062H
	mov	eax, -858993460				; ccccccccH
	rep stosd
	mov	rcx, QWORD PTR [rsp+424]
	mov	rax, QWORD PTR __security_cookie
	xor	rax, rbp
	mov	QWORD PTR __$ArrayPad$[rbp], rax
	lea	rcx, OFFSET FLAT:__6265BA8B_pmc_multiply@c
	call	__CheckForDebuggerJustMyCode

; 265  :     if (u == NULL)

	cmp	QWORD PTR u$[rbp], 0
	jne	SHORT $LN2@PMC_Multip

; 266  :         return (PMC_STATUS_ARGUMENT_ERROR);

	mov	eax, -1
	jmp	$LN1@PMC_Multip
$LN2@PMC_Multip:

; 267  :     if (w == NULL)

	cmp	QWORD PTR w$[rbp], 0
	jne	SHORT $LN3@PMC_Multip

; 268  :         return (PMC_STATUS_ARGUMENT_ERROR);

	mov	eax, -1
	jmp	$LN1@PMC_Multip
$LN3@PMC_Multip:

; 269  :     PMC_STATUS_CODE result;
; 270  :     NUMBER_HEADER* nu = (NUMBER_HEADER*)u;

	mov	rax, QWORD PTR u$[rbp]
	mov	QWORD PTR nu$[rbp], rax

; 271  :     NUMBER_HEADER* nw;
; 272  :     if ((result = CheckNumber(nu)) != PMC_STATUS_OK)

	mov	rcx, QWORD PTR nu$[rbp]
	call	CheckNumber
	mov	DWORD PTR result$[rbp], eax
	cmp	DWORD PTR result$[rbp], 0
	je	SHORT $LN4@PMC_Multip

; 273  :         return (result);

	mov	eax, DWORD PTR result$[rbp]
	jmp	$LN1@PMC_Multip
$LN4@PMC_Multip:

; 274  :     char v_sign;
; 275  :     _UINT32_T v_abs = GET_ABS_32(v, &v_sign);

	lea	rdx, QWORD PTR v_sign$[rbp]
	mov	ecx, DWORD PTR v$[rbp]
	call	GET_ABS_32
	mov	DWORD PTR v_abs$[rbp], eax

; 276  :     if (nu->SIGN == 0)

	mov	rax, QWORD PTR nu$[rbp]
	movsx	eax, BYTE PTR [rax+24]
	test	eax, eax
	jne	SHORT $LN5@PMC_Multip

; 277  :     {
; 278  :         // u == 0 の場合
; 279  : 
; 280  :         // 0 を返す
; 281  :         nw = &number_zero;

	lea	rax, OFFSET FLAT:number_zero
	mov	QWORD PTR nw$[rbp], rax

; 282  :     }

	jmp	$LN6@PMC_Multip
$LN5@PMC_Multip:

; 283  :     else if (nu->SIGN > 0)

	mov	rax, QWORD PTR nu$[rbp]
	movsx	eax, BYTE PTR [rax+24]
	test	eax, eax
	jle	SHORT $LN7@PMC_Multip

; 284  :     {
; 285  :         // u > 0 の場合
; 286  : 
; 287  :         if (v_sign == 0)

	movsx	eax, BYTE PTR v_sign$[rbp]
	test	eax, eax
	jne	SHORT $LN9@PMC_Multip

; 288  :         {
; 289  :             // v == 0 の場合
; 290  : 
; 291  :             // 0 を返す
; 292  :             nw = &number_zero;

	lea	rax, OFFSET FLAT:number_zero
	mov	QWORD PTR nw$[rbp], rax

; 293  :         }

	jmp	SHORT $LN10@PMC_Multip
$LN9@PMC_Multip:

; 294  :         else
; 295  :         {
; 296  :             // v != 0 の場合
; 297  : 
; 298  :             // abs(u) * abs(v) を返す
; 299  :             if ((result = MultiplyU_X_I_Imp(v_sign, nu->ABS, v_abs, &nw)) != PMC_STATUS_OK)

	lea	r9, QWORD PTR nw$[rbp]
	mov	r8d, DWORD PTR v_abs$[rbp]
	mov	rax, QWORD PTR nu$[rbp]
	mov	rdx, QWORD PTR [rax+16]
	movzx	ecx, BYTE PTR v_sign$[rbp]
	call	MultiplyU_X_I_Imp
	mov	DWORD PTR result$[rbp], eax
	cmp	DWORD PTR result$[rbp], 0
	je	SHORT $LN11@PMC_Multip

; 300  :                 return (result);

	mov	eax, DWORD PTR result$[rbp]
	jmp	SHORT $LN1@PMC_Multip
$LN11@PMC_Multip:
$LN10@PMC_Multip:

; 301  :         }
; 302  :     }

	jmp	SHORT $LN8@PMC_Multip
$LN7@PMC_Multip:

; 303  :     else
; 304  :     {
; 305  :         // u < 0 の場合
; 306  : 
; 307  :         if (v_sign == 0)

	movsx	eax, BYTE PTR v_sign$[rbp]
	test	eax, eax
	jne	SHORT $LN12@PMC_Multip

; 308  :         {
; 309  :             // v == 0 の場合
; 310  : 
; 311  :             // 0 を返す
; 312  :             nw = &number_zero;

	lea	rax, OFFSET FLAT:number_zero
	mov	QWORD PTR nw$[rbp], rax

; 313  :         }

	jmp	SHORT $LN13@PMC_Multip
$LN12@PMC_Multip:

; 314  :         else
; 315  :         {
; 316  :             // v != 0 の場合
; 317  : 
; 318  :             // -abs(u) * abs(v) を返す
; 319  :             if ((result = MultiplyU_X_I_Imp(-v_sign, nu->ABS, v_abs, &nw)) != PMC_STATUS_OK)

	movsx	eax, BYTE PTR v_sign$[rbp]
	neg	eax
	lea	r9, QWORD PTR nw$[rbp]
	mov	r8d, DWORD PTR v_abs$[rbp]
	mov	rcx, QWORD PTR nu$[rbp]
	mov	rdx, QWORD PTR [rcx+16]
	movzx	ecx, al
	call	MultiplyU_X_I_Imp
	mov	DWORD PTR result$[rbp], eax
	cmp	DWORD PTR result$[rbp], 0
	je	SHORT $LN14@PMC_Multip

; 320  :                 return (result);

	mov	eax, DWORD PTR result$[rbp]
	jmp	SHORT $LN1@PMC_Multip
$LN14@PMC_Multip:
$LN13@PMC_Multip:
$LN8@PMC_Multip:
$LN6@PMC_Multip:

; 321  :         }
; 322  :     }
; 323  :     *w = (PMC_HANDLE_SINT)nw;

	mov	rax, QWORD PTR w$[rbp]
	mov	rcx, QWORD PTR nw$[rbp]
	mov	QWORD PTR [rax], rcx

; 324  :     return (PMC_STATUS_OK);

	xor	eax, eax
$LN1@PMC_Multip:

; 325  : }

	mov	rdi, rax
	lea	rcx, QWORD PTR [rbp-32]
	lea	rdx, OFFSET FLAT:PMC_Multiply_X_I$rtcFrameData
	call	_RTC_CheckStackVars
	mov	rax, rdi
	mov	rcx, QWORD PTR __$ArrayPad$[rbp]
	xor	rcx, rbp
	call	__security_check_cookie
	lea	rsp, QWORD PTR [rbp+360]
	pop	rdi
	pop	rbp
	ret	0
PMC_Multiply_X_I ENDP
_TEXT	ENDS
; Function compile flags: /Odtp /RTCsu /ZI
; File z:\sources\lunor\repos\rougemeilland\palmtree.math.core.sint\palmtree.math.core.sint\pmc_multiply.c
;	COMDAT PMC_Multiply_UX_X
_TEXT	SEGMENT
result$ = 4
nv$ = 40
nw$ = 72
__$ArrayPad$ = 280
u$ = 320
v$ = 328
w$ = 336
PMC_Multiply_UX_X PROC					; COMDAT

; 220  : {

$LN12:
	mov	QWORD PTR [rsp+24], r8
	mov	QWORD PTR [rsp+16], rdx
	mov	QWORD PTR [rsp+8], rcx
	push	rbp
	push	rdi
	sub	rsp, 328				; 00000148H
	lea	rbp, QWORD PTR [rsp+32]
	mov	rdi, rsp
	mov	ecx, 82					; 00000052H
	mov	eax, -858993460				; ccccccccH
	rep stosd
	mov	rcx, QWORD PTR [rsp+360]
	mov	rax, QWORD PTR __security_cookie
	xor	rax, rbp
	mov	QWORD PTR __$ArrayPad$[rbp], rax
	lea	rcx, OFFSET FLAT:__6265BA8B_pmc_multiply@c
	call	__CheckForDebuggerJustMyCode

; 221  :     if (u == NULL)

	cmp	QWORD PTR u$[rbp], 0
	jne	SHORT $LN2@PMC_Multip

; 222  :         return (PMC_STATUS_ARGUMENT_ERROR);

	mov	eax, -1
	jmp	$LN1@PMC_Multip
$LN2@PMC_Multip:

; 223  :     if (v == NULL)

	cmp	QWORD PTR v$[rbp], 0
	jne	SHORT $LN3@PMC_Multip

; 224  :         return (PMC_STATUS_ARGUMENT_ERROR);

	mov	eax, -1
	jmp	$LN1@PMC_Multip
$LN3@PMC_Multip:

; 225  :     if (w == NULL)

	cmp	QWORD PTR w$[rbp], 0
	jne	SHORT $LN4@PMC_Multip

; 226  :         return (PMC_STATUS_ARGUMENT_ERROR);

	mov	eax, -1
	jmp	$LN1@PMC_Multip
$LN4@PMC_Multip:

; 227  :     PMC_STATUS_CODE result;
; 228  :     NUMBER_HEADER* nv = (NUMBER_HEADER*)v;

	mov	rax, QWORD PTR v$[rbp]
	mov	QWORD PTR nv$[rbp], rax

; 229  :     NUMBER_HEADER* nw;
; 230  :     if ((result = CheckNumber(nv)) != PMC_STATUS_OK)

	mov	rcx, QWORD PTR nv$[rbp]
	call	CheckNumber
	mov	DWORD PTR result$[rbp], eax
	cmp	DWORD PTR result$[rbp], 0
	je	SHORT $LN5@PMC_Multip

; 231  :         return (result);

	mov	eax, DWORD PTR result$[rbp]
	jmp	SHORT $LN1@PMC_Multip
$LN5@PMC_Multip:

; 232  :     if (u->FLAGS.IS_ZERO)

	mov	rax, QWORD PTR u$[rbp]
	mov	eax, DWORD PTR [rax]
	and	eax, 1
	test	eax, eax
	je	SHORT $LN6@PMC_Multip

; 233  :     {
; 234  :         // u == 0 の場合
; 235  : 
; 236  :         // 0 を返す
; 237  :         nw = &number_zero;

	lea	rax, OFFSET FLAT:number_zero
	mov	QWORD PTR nw$[rbp], rax

; 238  :     }

	jmp	SHORT $LN7@PMC_Multip
$LN6@PMC_Multip:

; 239  :     else
; 240  :     {
; 241  :         // u > 0 の場合
; 242  : 
; 243  :         if (nv->SIGN == 0)

	mov	rax, QWORD PTR nv$[rbp]
	movsx	eax, BYTE PTR [rax+24]
	test	eax, eax
	jne	SHORT $LN8@PMC_Multip

; 244  :         {
; 245  :             // v == 0 の場合
; 246  : 
; 247  :             // 0 を返す
; 248  :             nw = &number_zero;

	lea	rax, OFFSET FLAT:number_zero
	mov	QWORD PTR nw$[rbp], rax

; 249  :         }

	jmp	SHORT $LN9@PMC_Multip
$LN8@PMC_Multip:

; 250  :         else
; 251  :         {
; 252  :             // u != 0 の場合
; 253  : 
; 254  :             // abs(u) * v を返す
; 255  :             if ((result = MultiplyU_X_X_Imp(nv->SIGN, nv->ABS, u, &nw)) != PMC_STATUS_OK)

	lea	r9, QWORD PTR nw$[rbp]
	mov	r8, QWORD PTR u$[rbp]
	mov	rax, QWORD PTR nv$[rbp]
	mov	rdx, QWORD PTR [rax+16]
	mov	rax, QWORD PTR nv$[rbp]
	movzx	ecx, BYTE PTR [rax+24]
	call	MultiplyU_X_X_Imp
	mov	DWORD PTR result$[rbp], eax
	cmp	DWORD PTR result$[rbp], 0
	je	SHORT $LN10@PMC_Multip

; 256  :                 return (result);

	mov	eax, DWORD PTR result$[rbp]
	jmp	SHORT $LN1@PMC_Multip
$LN10@PMC_Multip:
$LN9@PMC_Multip:
$LN7@PMC_Multip:

; 257  :         }
; 258  :     }
; 259  :     *w = (PMC_HANDLE_SINT)nw;

	mov	rax, QWORD PTR w$[rbp]
	mov	rcx, QWORD PTR nw$[rbp]
	mov	QWORD PTR [rax], rcx

; 260  :     return (PMC_STATUS_OK);

	xor	eax, eax
$LN1@PMC_Multip:

; 261  : }

	mov	rdi, rax
	lea	rcx, QWORD PTR [rbp-32]
	lea	rdx, OFFSET FLAT:PMC_Multiply_UX_X$rtcFrameData
	call	_RTC_CheckStackVars
	mov	rax, rdi
	mov	rcx, QWORD PTR __$ArrayPad$[rbp]
	xor	rcx, rbp
	call	__security_check_cookie
	lea	rsp, QWORD PTR [rbp+296]
	pop	rdi
	pop	rbp
	ret	0
PMC_Multiply_UX_X ENDP
_TEXT	ENDS
; Function compile flags: /Odtp /RTCsu /ZI
; File z:\sources\lunor\repos\rougemeilland\palmtree.math.core.sint\palmtree.math.core.sint\pmc_multiply.c
;	COMDAT PMC_Multiply_L_X
_TEXT	SEGMENT
result$ = 4
nv$ = 40
nw$ = 72
u_sign$ = 100
u_abs$ = 136
__$ArrayPad$ = 344
u$ = 384
v$ = 392
w$ = 400
PMC_Multiply_L_X PROC					; COMDAT

; 156  : {

$LN16:
	mov	QWORD PTR [rsp+24], r8
	mov	QWORD PTR [rsp+16], rdx
	mov	QWORD PTR [rsp+8], rcx
	push	rbp
	push	rdi
	sub	rsp, 392				; 00000188H
	lea	rbp, QWORD PTR [rsp+32]
	mov	rdi, rsp
	mov	ecx, 98					; 00000062H
	mov	eax, -858993460				; ccccccccH
	rep stosd
	mov	rcx, QWORD PTR [rsp+424]
	mov	rax, QWORD PTR __security_cookie
	xor	rax, rbp
	mov	QWORD PTR __$ArrayPad$[rbp], rax
	lea	rcx, OFFSET FLAT:__6265BA8B_pmc_multiply@c
	call	__CheckForDebuggerJustMyCode

; 157  :     if (v == NULL)

	cmp	QWORD PTR v$[rbp], 0
	jne	SHORT $LN2@PMC_Multip

; 158  :         return (PMC_STATUS_ARGUMENT_ERROR);

	mov	eax, -1
	jmp	$LN1@PMC_Multip
$LN2@PMC_Multip:

; 159  :     if (w == NULL)

	cmp	QWORD PTR w$[rbp], 0
	jne	SHORT $LN3@PMC_Multip

; 160  :         return (PMC_STATUS_ARGUMENT_ERROR);

	mov	eax, -1
	jmp	$LN1@PMC_Multip
$LN3@PMC_Multip:

; 161  :     PMC_STATUS_CODE result;
; 162  :     NUMBER_HEADER* nv = (NUMBER_HEADER*)v;

	mov	rax, QWORD PTR v$[rbp]
	mov	QWORD PTR nv$[rbp], rax

; 163  :     NUMBER_HEADER* nw;
; 164  :     if ((result = CheckNumber(nv)) != PMC_STATUS_OK)

	mov	rcx, QWORD PTR nv$[rbp]
	call	CheckNumber
	mov	DWORD PTR result$[rbp], eax
	cmp	DWORD PTR result$[rbp], 0
	je	SHORT $LN4@PMC_Multip

; 165  :         return (result);

	mov	eax, DWORD PTR result$[rbp]
	jmp	$LN1@PMC_Multip
$LN4@PMC_Multip:

; 166  :     char u_sign;
; 167  :     _UINT64_T u_abs = GET_ABS_64(u, &u_sign);

	lea	rdx, QWORD PTR u_sign$[rbp]
	mov	rcx, QWORD PTR u$[rbp]
	call	GET_ABS_64
	mov	QWORD PTR u_abs$[rbp], rax

; 168  :     if (u_sign == 0)

	movsx	eax, BYTE PTR u_sign$[rbp]
	test	eax, eax
	jne	SHORT $LN5@PMC_Multip

; 169  :     {
; 170  :         // u == 0 の場合
; 171  : 
; 172  :         // 0 を返す
; 173  :         nw = &number_zero;

	lea	rax, OFFSET FLAT:number_zero
	mov	QWORD PTR nw$[rbp], rax

; 174  :     }

	jmp	$LN6@PMC_Multip
$LN5@PMC_Multip:

; 175  :     else if (u_sign > 0)

	movsx	eax, BYTE PTR u_sign$[rbp]
	test	eax, eax
	jle	SHORT $LN7@PMC_Multip

; 176  :     {
; 177  :         // u > 0 の場合
; 178  : 
; 179  :         if (nv->SIGN == 0)

	mov	rax, QWORD PTR nv$[rbp]
	movsx	eax, BYTE PTR [rax+24]
	test	eax, eax
	jne	SHORT $LN9@PMC_Multip

; 180  :         {
; 181  :             // v == 0 の場合
; 182  : 
; 183  :             // 0 を返す
; 184  :             nw = &number_zero;

	lea	rax, OFFSET FLAT:number_zero
	mov	QWORD PTR nw$[rbp], rax

; 185  :         }

	jmp	SHORT $LN10@PMC_Multip
$LN9@PMC_Multip:

; 186  :         else
; 187  :         {
; 188  :             // v != 0 の場合
; 189  : 
; 190  :             // abs(u) * v を返す
; 191  :             if ((result = MultiplyU_X_L_Imp(nv->SIGN, nv->ABS, u_abs, &nw)) != PMC_STATUS_OK)

	lea	r9, QWORD PTR nw$[rbp]
	mov	r8, QWORD PTR u_abs$[rbp]
	mov	rax, QWORD PTR nv$[rbp]
	mov	rdx, QWORD PTR [rax+16]
	mov	rax, QWORD PTR nv$[rbp]
	movzx	ecx, BYTE PTR [rax+24]
	call	MultiplyU_X_L_Imp
	mov	DWORD PTR result$[rbp], eax
	cmp	DWORD PTR result$[rbp], 0
	je	SHORT $LN11@PMC_Multip

; 192  :                 return (result);

	mov	eax, DWORD PTR result$[rbp]
	jmp	SHORT $LN1@PMC_Multip
$LN11@PMC_Multip:
$LN10@PMC_Multip:

; 193  :         }
; 194  :     }

	jmp	SHORT $LN8@PMC_Multip
$LN7@PMC_Multip:

; 195  :     else
; 196  :     {
; 197  :         // u < 0 の場合
; 198  : 
; 199  :         if (nv->SIGN == 0)

	mov	rax, QWORD PTR nv$[rbp]
	movsx	eax, BYTE PTR [rax+24]
	test	eax, eax
	jne	SHORT $LN12@PMC_Multip

; 200  :         {
; 201  :             // v == 0 の場合
; 202  : 
; 203  :             // 0 を返す
; 204  :             nw = &number_zero;

	lea	rax, OFFSET FLAT:number_zero
	mov	QWORD PTR nw$[rbp], rax

; 205  :         }

	jmp	SHORT $LN13@PMC_Multip
$LN12@PMC_Multip:

; 206  :         else
; 207  :         {
; 208  :             // v != 0 の場合
; 209  : 
; 210  :             // -abs(u) * v を返す
; 211  :             if ((result = MultiplyU_X_L_Imp(-nv->SIGN, nv->ABS, u_abs, &nw)) != PMC_STATUS_OK)

	mov	rax, QWORD PTR nv$[rbp]
	movsx	eax, BYTE PTR [rax+24]
	neg	eax
	lea	r9, QWORD PTR nw$[rbp]
	mov	r8, QWORD PTR u_abs$[rbp]
	mov	rcx, QWORD PTR nv$[rbp]
	mov	rdx, QWORD PTR [rcx+16]
	movzx	ecx, al
	call	MultiplyU_X_L_Imp
	mov	DWORD PTR result$[rbp], eax
	cmp	DWORD PTR result$[rbp], 0
	je	SHORT $LN14@PMC_Multip

; 212  :                 return (result);

	mov	eax, DWORD PTR result$[rbp]
	jmp	SHORT $LN1@PMC_Multip
$LN14@PMC_Multip:
$LN13@PMC_Multip:
$LN8@PMC_Multip:
$LN6@PMC_Multip:

; 213  :         }
; 214  :     }
; 215  :     *w = (PMC_HANDLE_SINT)nw;

	mov	rax, QWORD PTR w$[rbp]
	mov	rcx, QWORD PTR nw$[rbp]
	mov	QWORD PTR [rax], rcx

; 216  :     return (PMC_STATUS_OK);

	xor	eax, eax
$LN1@PMC_Multip:

; 217  : }

	mov	rdi, rax
	lea	rcx, QWORD PTR [rbp-32]
	lea	rdx, OFFSET FLAT:PMC_Multiply_L_X$rtcFrameData
	call	_RTC_CheckStackVars
	mov	rax, rdi
	mov	rcx, QWORD PTR __$ArrayPad$[rbp]
	xor	rcx, rbp
	call	__security_check_cookie
	lea	rsp, QWORD PTR [rbp+360]
	pop	rdi
	pop	rbp
	ret	0
PMC_Multiply_L_X ENDP
_TEXT	ENDS
; Function compile flags: /Odtp /RTCsu /ZI
; File z:\sources\lunor\repos\rougemeilland\palmtree.math.core.sint\palmtree.math.core.sint\pmc_multiply.c
;	COMDAT PMC_Multiply_I_X
_TEXT	SEGMENT
result$ = 4
nv$ = 40
nw$ = 72
u_sign$ = 100
u_abs$ = 132
__$ArrayPad$ = 344
u$ = 384
v$ = 392
w$ = 400
PMC_Multiply_I_X PROC					; COMDAT

; 92   : {

$LN16:
	mov	QWORD PTR [rsp+24], r8
	mov	QWORD PTR [rsp+16], rdx
	mov	DWORD PTR [rsp+8], ecx
	push	rbp
	push	rdi
	sub	rsp, 392				; 00000188H
	lea	rbp, QWORD PTR [rsp+32]
	mov	rdi, rsp
	mov	ecx, 98					; 00000062H
	mov	eax, -858993460				; ccccccccH
	rep stosd
	mov	ecx, DWORD PTR [rsp+424]
	mov	rax, QWORD PTR __security_cookie
	xor	rax, rbp
	mov	QWORD PTR __$ArrayPad$[rbp], rax
	lea	rcx, OFFSET FLAT:__6265BA8B_pmc_multiply@c
	call	__CheckForDebuggerJustMyCode

; 93   :     if (v == NULL)

	cmp	QWORD PTR v$[rbp], 0
	jne	SHORT $LN2@PMC_Multip

; 94   :         return (PMC_STATUS_ARGUMENT_ERROR);

	mov	eax, -1
	jmp	$LN1@PMC_Multip
$LN2@PMC_Multip:

; 95   :     if (w == NULL)

	cmp	QWORD PTR w$[rbp], 0
	jne	SHORT $LN3@PMC_Multip

; 96   :         return (PMC_STATUS_ARGUMENT_ERROR);

	mov	eax, -1
	jmp	$LN1@PMC_Multip
$LN3@PMC_Multip:

; 97   :     PMC_STATUS_CODE result;
; 98   :     NUMBER_HEADER* nv = (NUMBER_HEADER*)v;

	mov	rax, QWORD PTR v$[rbp]
	mov	QWORD PTR nv$[rbp], rax

; 99   :     NUMBER_HEADER* nw;
; 100  :     if ((result = CheckNumber(nv)) != PMC_STATUS_OK)

	mov	rcx, QWORD PTR nv$[rbp]
	call	CheckNumber
	mov	DWORD PTR result$[rbp], eax
	cmp	DWORD PTR result$[rbp], 0
	je	SHORT $LN4@PMC_Multip

; 101  :         return (result);

	mov	eax, DWORD PTR result$[rbp]
	jmp	$LN1@PMC_Multip
$LN4@PMC_Multip:

; 102  :     char u_sign;
; 103  :     _UINT32_T u_abs = GET_ABS_32(u, &u_sign);

	lea	rdx, QWORD PTR u_sign$[rbp]
	mov	ecx, DWORD PTR u$[rbp]
	call	GET_ABS_32
	mov	DWORD PTR u_abs$[rbp], eax

; 104  :     if (u_sign == 0)

	movsx	eax, BYTE PTR u_sign$[rbp]
	test	eax, eax
	jne	SHORT $LN5@PMC_Multip

; 105  :     {
; 106  :         // u == 0 の場合
; 107  : 
; 108  :         // 0 を返す
; 109  :         nw = &number_zero;

	lea	rax, OFFSET FLAT:number_zero
	mov	QWORD PTR nw$[rbp], rax

; 110  :     }

	jmp	$LN6@PMC_Multip
$LN5@PMC_Multip:

; 111  :     else if (u_sign > 0)

	movsx	eax, BYTE PTR u_sign$[rbp]
	test	eax, eax
	jle	SHORT $LN7@PMC_Multip

; 112  :     {
; 113  :         // u > 0 の場合
; 114  : 
; 115  :         if (nv->SIGN == 0)

	mov	rax, QWORD PTR nv$[rbp]
	movsx	eax, BYTE PTR [rax+24]
	test	eax, eax
	jne	SHORT $LN9@PMC_Multip

; 116  :         {
; 117  :             // v == 0 の場合
; 118  : 
; 119  :             // 0 を返す
; 120  :             nw = &number_zero;

	lea	rax, OFFSET FLAT:number_zero
	mov	QWORD PTR nw$[rbp], rax

; 121  :         }

	jmp	SHORT $LN10@PMC_Multip
$LN9@PMC_Multip:

; 122  :         else
; 123  :         {
; 124  :             // v != 0 の場合
; 125  : 
; 126  :             // abs(u) * v を返す
; 127  :             if ((result = MultiplyU_X_I_Imp(nv->SIGN, nv->ABS, u_abs, &nw)) != PMC_STATUS_OK)

	lea	r9, QWORD PTR nw$[rbp]
	mov	r8d, DWORD PTR u_abs$[rbp]
	mov	rax, QWORD PTR nv$[rbp]
	mov	rdx, QWORD PTR [rax+16]
	mov	rax, QWORD PTR nv$[rbp]
	movzx	ecx, BYTE PTR [rax+24]
	call	MultiplyU_X_I_Imp
	mov	DWORD PTR result$[rbp], eax
	cmp	DWORD PTR result$[rbp], 0
	je	SHORT $LN11@PMC_Multip

; 128  :                 return (result);

	mov	eax, DWORD PTR result$[rbp]
	jmp	SHORT $LN1@PMC_Multip
$LN11@PMC_Multip:
$LN10@PMC_Multip:

; 129  :         }
; 130  :     }

	jmp	SHORT $LN8@PMC_Multip
$LN7@PMC_Multip:

; 131  :     else
; 132  :     {
; 133  :         // u < 0 の場合
; 134  : 
; 135  :         if (nv->SIGN == 0)

	mov	rax, QWORD PTR nv$[rbp]
	movsx	eax, BYTE PTR [rax+24]
	test	eax, eax
	jne	SHORT $LN12@PMC_Multip

; 136  :         {
; 137  :             // v == 0 の場合
; 138  : 
; 139  :             // 0 を返す
; 140  :             nw = &number_zero;

	lea	rax, OFFSET FLAT:number_zero
	mov	QWORD PTR nw$[rbp], rax

; 141  :         }

	jmp	SHORT $LN13@PMC_Multip
$LN12@PMC_Multip:

; 142  :         else
; 143  :         {
; 144  :             // v != 0 の場合
; 145  : 
; 146  :             // -abs(u) * v を返す
; 147  :             if ((result = MultiplyU_X_I_Imp(-nv->SIGN, nv->ABS, u_abs, &nw)) != PMC_STATUS_OK)

	mov	rax, QWORD PTR nv$[rbp]
	movsx	eax, BYTE PTR [rax+24]
	neg	eax
	lea	r9, QWORD PTR nw$[rbp]
	mov	r8d, DWORD PTR u_abs$[rbp]
	mov	rcx, QWORD PTR nv$[rbp]
	mov	rdx, QWORD PTR [rcx+16]
	movzx	ecx, al
	call	MultiplyU_X_I_Imp
	mov	DWORD PTR result$[rbp], eax
	cmp	DWORD PTR result$[rbp], 0
	je	SHORT $LN14@PMC_Multip

; 148  :                 return (result);

	mov	eax, DWORD PTR result$[rbp]
	jmp	SHORT $LN1@PMC_Multip
$LN14@PMC_Multip:
$LN13@PMC_Multip:
$LN8@PMC_Multip:
$LN6@PMC_Multip:

; 149  :         }
; 150  :     }
; 151  :     *w = (PMC_HANDLE_SINT)nw;

	mov	rax, QWORD PTR w$[rbp]
	mov	rcx, QWORD PTR nw$[rbp]
	mov	QWORD PTR [rax], rcx

; 152  :     return (PMC_STATUS_OK);

	xor	eax, eax
$LN1@PMC_Multip:

; 153  : }

	mov	rdi, rax
	lea	rcx, QWORD PTR [rbp-32]
	lea	rdx, OFFSET FLAT:PMC_Multiply_I_X$rtcFrameData
	call	_RTC_CheckStackVars
	mov	rax, rdi
	mov	rcx, QWORD PTR __$ArrayPad$[rbp]
	xor	rcx, rbp
	call	__security_check_cookie
	lea	rsp, QWORD PTR [rbp+360]
	pop	rdi
	pop	rbp
	ret	0
PMC_Multiply_I_X ENDP
_TEXT	ENDS
END
