; Listing generated by Microsoft (R) Optimizing Compiler Version 19.16.27026.1 

include listing.inc

INCLUDELIB MSVCRTD
INCLUDELIB OLDNAMES

msvcjmc	SEGMENT
__7B7A869E_ctype@h DB 01H
__457DD326_basetsd@h DB 01H
__4384A2D9_corecrt_memcpy_s@h DB 01H
__4E51A221_corecrt_wstring@h DB 01H
__2140C079_string@h DB 01H
__1887E595_winnt@h DB 01H
__9FC7C64B_processthreadsapi@h DB 01H
__FA470AEC_memoryapi@h DB 01H
__F37DAFF1_winerror@h DB 01H
__7A450CCC_winbase@h DB 01H
__B4B40122_winioctl@h DB 01H
__86261D59_stralign@h DB 01H
__8CA3E54E_pmc_inline_func@h DB 01H
__5A8189A9_pmc_add_sub@c DB 01H
msvcjmc	ENDS
PUBLIC	PMC_Add_I_X
PUBLIC	PMC_Add_L_X
PUBLIC	PMC_Add_UX_X
PUBLIC	PMC_Add_X_I
PUBLIC	PMC_Add_X_L
PUBLIC	PMC_Add_X_UX
PUBLIC	PMC_Add_X_X
PUBLIC	PMC_Subtruct_I_X
PUBLIC	PMC_Subtruct_L_X
PUBLIC	PMC_Subtruct_UX_X
PUBLIC	PMC_Subtruct_X_I
PUBLIC	PMC_Subtruct_X_L
PUBLIC	PMC_Subtruct_X_UX
PUBLIC	PMC_Subtruct_X_X
PUBLIC	__JustMyCode_Default
EXTRN	AllocateNumber:PROC
EXTRN	CheckNumber:PROC
EXTRN	DuplicateNumber:PROC
EXTRN	IsZero_UINT:PROC
EXTRN	Negate_Imp:PROC
EXTRN	From_I_Imp:PROC
EXTRN	From_L_Imp:PROC
EXTRN	_RTC_CheckStackVars:PROC
EXTRN	_RTC_InitBase:PROC
EXTRN	_RTC_Shutdown:PROC
EXTRN	__CheckForDebuggerJustMyCode:PROC
EXTRN	__GSHandlerCheck:PROC
EXTRN	__security_check_cookie:PROC
EXTRN	ep_uint:BYTE
EXTRN	number_zero:BYTE
EXTRN	__security_cookie:QWORD
;	COMDAT pdata
pdata	SEGMENT
$pdata$PMC_Add_I_X DD imagerel $LN27
	DD	imagerel $LN27+616
	DD	imagerel $unwind$PMC_Add_I_X
pdata	ENDS
;	COMDAT pdata
pdata	SEGMENT
$pdata$PMC_Add_L_X DD imagerel $LN27
	DD	imagerel $LN27+622
	DD	imagerel $unwind$PMC_Add_L_X
pdata	ENDS
;	COMDAT pdata
pdata	SEGMENT
$pdata$PMC_Add_UX_X DD imagerel $LN20
	DD	imagerel $LN20+512
	DD	imagerel $unwind$PMC_Add_UX_X
pdata	ENDS
;	COMDAT pdata
pdata	SEGMENT
$pdata$PMC_Add_X_I DD imagerel $LN27
	DD	imagerel $LN27+596
	DD	imagerel $unwind$PMC_Add_X_I
pdata	ENDS
;	COMDAT pdata
pdata	SEGMENT
$pdata$PMC_Add_X_L DD imagerel $LN27
	DD	imagerel $LN27+600
	DD	imagerel $unwind$PMC_Add_X_L
pdata	ENDS
;	COMDAT pdata
pdata	SEGMENT
$pdata$PMC_Add_X_UX DD imagerel $LN25
	DD	imagerel $LN25+609
	DD	imagerel $unwind$PMC_Add_X_UX
pdata	ENDS
;	COMDAT pdata
pdata	SEGMENT
$pdata$PMC_Add_X_X DD imagerel $LN29
	DD	imagerel $LN29+654
	DD	imagerel $unwind$PMC_Add_X_X
pdata	ENDS
;	COMDAT pdata
pdata	SEGMENT
$pdata$PMC_Subtruct_I_X DD imagerel $LN27
	DD	imagerel $LN27+616
	DD	imagerel $unwind$PMC_Subtruct_I_X
pdata	ENDS
;	COMDAT pdata
pdata	SEGMENT
$pdata$PMC_Subtruct_L_X DD imagerel $LN27
	DD	imagerel $LN27+622
	DD	imagerel $unwind$PMC_Subtruct_L_X
pdata	ENDS
;	COMDAT pdata
pdata	SEGMENT
$pdata$PMC_Subtruct_UX_X DD imagerel $LN21
	DD	imagerel $LN21+532
	DD	imagerel $unwind$PMC_Subtruct_UX_X
pdata	ENDS
;	COMDAT pdata
pdata	SEGMENT
$pdata$PMC_Subtruct_X_I DD imagerel $LN27
	DD	imagerel $LN27+601
	DD	imagerel $unwind$PMC_Subtruct_X_I
pdata	ENDS
;	COMDAT pdata
pdata	SEGMENT
$pdata$PMC_Subtruct_X_L DD imagerel $LN27
	DD	imagerel $LN27+605
	DD	imagerel $unwind$PMC_Subtruct_X_L
pdata	ENDS
;	COMDAT pdata
pdata	SEGMENT
$pdata$PMC_Subtruct_X_UX DD imagerel $LN24
	DD	imagerel $LN24+568
	DD	imagerel $unwind$PMC_Subtruct_X_UX
pdata	ENDS
;	COMDAT pdata
pdata	SEGMENT
$pdata$PMC_Subtruct_X_X DD imagerel $LN29
	DD	imagerel $LN29+654
	DD	imagerel $unwind$PMC_Subtruct_X_X
pdata	ENDS
;	COMDAT pdata
pdata	SEGMENT
$pdata$GET_ABS_32 DD imagerel GET_ABS_32
	DD	imagerel GET_ABS_32+175
	DD	imagerel $unwind$GET_ABS_32
pdata	ENDS
;	COMDAT pdata
pdata	SEGMENT
$pdata$GET_ABS_64 DD imagerel GET_ABS_64
	DD	imagerel GET_ABS_64+198
	DD	imagerel $unwind$GET_ABS_64
pdata	ENDS
;	COMDAT pdata
pdata	SEGMENT
$pdata$AddU_X_I_Imp DD imagerel AddU_X_I_Imp
	DD	imagerel AddU_X_I_Imp+218
	DD	imagerel $unwind$AddU_X_I_Imp
pdata	ENDS
;	COMDAT pdata
pdata	SEGMENT
$pdata$AddU_X_L_Imp DD imagerel AddU_X_L_Imp
	DD	imagerel AddU_X_L_Imp+219
	DD	imagerel $unwind$AddU_X_L_Imp
pdata	ENDS
;	COMDAT pdata
pdata	SEGMENT
$pdata$AddU_X_X_Imp DD imagerel AddU_X_X_Imp
	DD	imagerel AddU_X_X_Imp+219
	DD	imagerel $unwind$AddU_X_X_Imp
pdata	ENDS
;	COMDAT pdata
pdata	SEGMENT
$pdata$SubtructU_X_I_Imp DD imagerel SubtructU_X_I_Imp
	DD	imagerel SubtructU_X_I_Imp+425
	DD	imagerel $unwind$SubtructU_X_I_Imp
pdata	ENDS
;	COMDAT pdata
pdata	SEGMENT
$pdata$SubtructU_X_L_Imp DD imagerel SubtructU_X_L_Imp
	DD	imagerel SubtructU_X_L_Imp+429
	DD	imagerel $unwind$SubtructU_X_L_Imp
pdata	ENDS
;	COMDAT pdata
pdata	SEGMENT
$pdata$SubtructU_X_X_Imp DD imagerel SubtructU_X_X_Imp
	DD	imagerel SubtructU_X_X_Imp+386
	DD	imagerel $unwind$SubtructU_X_X_Imp
pdata	ENDS
;	COMDAT rtc$TMZ
rtc$TMZ	SEGMENT
_RTC_Shutdown.rtc$TMZ DQ FLAT:_RTC_Shutdown
rtc$TMZ	ENDS
;	COMDAT rtc$IMZ
rtc$IMZ	SEGMENT
_RTC_InitBase.rtc$IMZ DQ FLAT:_RTC_InitBase
rtc$IMZ	ENDS
;	COMDAT xdata
xdata	SEGMENT
$unwind$SubtructU_X_X_Imp DD 025054919H
	DD	011c2321H
	DD	07015002dH
	DD	05014H
	DD	imagerel __GSHandlerCheck
	DD	0158H
xdata	ENDS
;	COMDAT CONST
CONST	SEGMENT
SubtructU_X_X_Imp$rtcName$0 DB 063H
	DB	00H
	ORG $+2
SubtructU_X_X_Imp$rtcName$1 DB 077H
	DB	05fH
	DB	061H
	DB	062H
	DB	073H
	DB	00H
	ORG $+2
SubtructU_X_X_Imp$rtcName$2 DB 077H
	DB	05fH
	DB	061H
	DB	062H
	DB	073H
	DB	00H
	ORG $+6
SubtructU_X_X_Imp$rtcFrameData DD 03H
	DD	00H
	DQ	FLAT:SubtructU_X_X_Imp$rtcVarDesc
	ORG $+8
SubtructU_X_X_Imp$rtcVarDesc DD 088H
	DD	08H
	DQ	FLAT:SubtructU_X_X_Imp$rtcName$2
	DD	068H
	DD	08H
	DQ	FLAT:SubtructU_X_X_Imp$rtcName$1
	DD	044H
	DD	04H
	DQ	FLAT:SubtructU_X_X_Imp$rtcName$0
CONST	ENDS
;	COMDAT xdata
xdata	SEGMENT
$unwind$SubtructU_X_L_Imp DD 025054919H
	DD	011c2321H
	DD	070150031H
	DD	05014H
	DD	imagerel __GSHandlerCheck
	DD	0178H
xdata	ENDS
;	COMDAT CONST
CONST	SEGMENT
SubtructU_X_L_Imp$rtcName$0 DB 063H
	DB	00H
	ORG $+2
SubtructU_X_L_Imp$rtcName$1 DB 077H
	DB	05fH
	DB	061H
	DB	062H
	DB	073H
	DB	00H
	ORG $+2
SubtructU_X_L_Imp$rtcName$2 DB 074H
	DB	00H
	ORG $+2
SubtructU_X_L_Imp$rtcName$3 DB 077H
	DB	05fH
	DB	061H
	DB	062H
	DB	073H
	DB	00H
	ORG $+2
SubtructU_X_L_Imp$rtcFrameData DD 04H
	DD	00H
	DQ	FLAT:SubtructU_X_L_Imp$rtcVarDesc
	ORG $+8
SubtructU_X_L_Imp$rtcVarDesc DD 0a8H
	DD	08H
	DQ	FLAT:SubtructU_X_L_Imp$rtcName$3
	DD	088H
	DD	08H
	DQ	FLAT:SubtructU_X_L_Imp$rtcName$2
	DD	068H
	DD	08H
	DQ	FLAT:SubtructU_X_L_Imp$rtcName$1
	DD	044H
	DD	04H
	DQ	FLAT:SubtructU_X_L_Imp$rtcName$0
CONST	ENDS
;	COMDAT xdata
xdata	SEGMENT
$unwind$SubtructU_X_I_Imp DD 025054919H
	DD	011c2321H
	DD	070150031H
	DD	05014H
	DD	imagerel __GSHandlerCheck
	DD	0178H
xdata	ENDS
;	COMDAT CONST
CONST	SEGMENT
SubtructU_X_I_Imp$rtcName$0 DB 063H
	DB	00H
	ORG $+2
SubtructU_X_I_Imp$rtcName$1 DB 077H
	DB	05fH
	DB	061H
	DB	062H
	DB	073H
	DB	00H
	ORG $+2
SubtructU_X_I_Imp$rtcName$2 DB 074H
	DB	00H
	ORG $+2
SubtructU_X_I_Imp$rtcName$3 DB 077H
	DB	05fH
	DB	061H
	DB	062H
	DB	073H
	DB	00H
	ORG $+2
SubtructU_X_I_Imp$rtcFrameData DD 04H
	DD	00H
	DQ	FLAT:SubtructU_X_I_Imp$rtcVarDesc
	ORG $+8
SubtructU_X_I_Imp$rtcVarDesc DD 0a8H
	DD	08H
	DQ	FLAT:SubtructU_X_I_Imp$rtcName$3
	DD	084H
	DD	04H
	DQ	FLAT:SubtructU_X_I_Imp$rtcName$2
	DD	068H
	DD	08H
	DQ	FLAT:SubtructU_X_I_Imp$rtcName$1
	DD	044H
	DD	04H
	DQ	FLAT:SubtructU_X_I_Imp$rtcName$0
CONST	ENDS
;	COMDAT xdata
xdata	SEGMENT
$unwind$AddU_X_X_Imp DD 025054919H
	DD	011c2321H
	DD	070150025H
	DD	05014H
	DD	imagerel __GSHandlerCheck
	DD	0118H
xdata	ENDS
;	COMDAT CONST
CONST	SEGMENT
AddU_X_X_Imp$rtcName$0 DB 077H
	DB	05fH
	DB	061H
	DB	062H
	DB	073H
	DB	00H
	ORG $+10
AddU_X_X_Imp$rtcVarDesc DD 048H
	DD	08H
	DQ	FLAT:AddU_X_X_Imp$rtcName$0
	ORG $+48
AddU_X_X_Imp$rtcFrameData DD 01H
	DD	00H
	DQ	FLAT:AddU_X_X_Imp$rtcVarDesc
CONST	ENDS
;	COMDAT xdata
xdata	SEGMENT
$unwind$AddU_X_L_Imp DD 025054919H
	DD	011c2321H
	DD	070150025H
	DD	05014H
	DD	imagerel __GSHandlerCheck
	DD	0118H
xdata	ENDS
;	COMDAT CONST
CONST	SEGMENT
AddU_X_L_Imp$rtcName$0 DB 077H
	DB	05fH
	DB	061H
	DB	062H
	DB	073H
	DB	00H
	ORG $+10
AddU_X_L_Imp$rtcVarDesc DD 048H
	DD	08H
	DQ	FLAT:AddU_X_L_Imp$rtcName$0
	ORG $+48
AddU_X_L_Imp$rtcFrameData DD 01H
	DD	00H
	DQ	FLAT:AddU_X_L_Imp$rtcVarDesc
CONST	ENDS
;	COMDAT xdata
xdata	SEGMENT
$unwind$AddU_X_I_Imp DD 025054919H
	DD	011c2321H
	DD	070150025H
	DD	05014H
	DD	imagerel __GSHandlerCheck
	DD	0118H
xdata	ENDS
;	COMDAT CONST
CONST	SEGMENT
AddU_X_I_Imp$rtcName$0 DB 077H
	DB	05fH
	DB	061H
	DB	062H
	DB	073H
	DB	00H
	ORG $+10
AddU_X_I_Imp$rtcVarDesc DD 048H
	DD	08H
	DQ	FLAT:AddU_X_I_Imp$rtcName$0
	ORG $+48
AddU_X_I_Imp$rtcFrameData DD 01H
	DD	00H
	DQ	FLAT:AddU_X_I_Imp$rtcVarDesc
CONST	ENDS
;	COMDAT xdata
xdata	SEGMENT
$unwind$GET_ABS_64 DD 025052f01H
	DD	01132318H
	DD	0700c001fH
	DD	0500bH
xdata	ENDS
;	COMDAT xdata
xdata	SEGMENT
$unwind$GET_ABS_32 DD 025052d01H
	DD	01122317H
	DD	0700b001fH
	DD	0500aH
xdata	ENDS
;	COMDAT xdata
xdata	SEGMENT
$unwind$PMC_Subtruct_X_X DD 025054519H
	DD	0118231dH
	DD	07011002dH
	DD	05010H
	DD	imagerel __GSHandlerCheck
	DD	0158H
xdata	ENDS
;	COMDAT CONST
CONST	SEGMENT
PMC_Subtruct_X_X$rtcName$0 DB 06eH
	DB	077H
	DB	00H
	ORG $+13
PMC_Subtruct_X_X$rtcVarDesc DD 088H
	DD	08H
	DQ	FLAT:PMC_Subtruct_X_X$rtcName$0
	ORG $+48
PMC_Subtruct_X_X$rtcFrameData DD 01H
	DD	00H
	DQ	FLAT:PMC_Subtruct_X_X$rtcVarDesc
CONST	ENDS
;	COMDAT xdata
xdata	SEGMENT
$unwind$PMC_Subtruct_X_UX DD 025054519H
	DD	0118231dH
	DD	070110031H
	DD	05010H
	DD	imagerel __GSHandlerCheck
	DD	0178H
xdata	ENDS
;	COMDAT CONST
CONST	SEGMENT
PMC_Subtruct_X_UX$rtcName$0 DB 06eH
	DB	077H
	DB	00H
	ORG $+5
PMC_Subtruct_X_UX$rtcName$1 DB 076H
	DB	05fH
	DB	069H
	DB	073H
	DB	05fH
	DB	07aH
	DB	065H
	DB	072H
	DB	06fH
	DB	00H
	ORG $+2
PMC_Subtruct_X_UX$rtcName$2 DB 06eH
	DB	065H
	DB	077H
	DB	05fH
	DB	076H
	DB	00H
	ORG $+6
PMC_Subtruct_X_UX$rtcVarDesc DD 0a8H
	DD	08H
	DQ	FLAT:PMC_Subtruct_X_UX$rtcName$2
	DD	084H
	DD	01H
	DQ	FLAT:PMC_Subtruct_X_UX$rtcName$1
	DD	068H
	DD	08H
	DQ	FLAT:PMC_Subtruct_X_UX$rtcName$0
	ORG $+144
PMC_Subtruct_X_UX$rtcFrameData DD 03H
	DD	00H
	DQ	FLAT:PMC_Subtruct_X_UX$rtcVarDesc
CONST	ENDS
;	COMDAT xdata
xdata	SEGMENT
$unwind$PMC_Subtruct_X_L DD 025054519H
	DD	0118231dH
	DD	070110031H
	DD	05010H
	DD	imagerel __GSHandlerCheck
	DD	0178H
xdata	ENDS
;	COMDAT CONST
CONST	SEGMENT
PMC_Subtruct_X_L$rtcName$0 DB 06eH
	DB	077H
	DB	00H
	ORG $+1
PMC_Subtruct_X_L$rtcName$1 DB 076H
	DB	05fH
	DB	073H
	DB	069H
	DB	067H
	DB	06eH
	DB	00H
	ORG $+5
PMC_Subtruct_X_L$rtcVarDesc DD 084H
	DD	01H
	DQ	FLAT:PMC_Subtruct_X_L$rtcName$1
	DD	068H
	DD	08H
	DQ	FLAT:PMC_Subtruct_X_L$rtcName$0
	ORG $+96
PMC_Subtruct_X_L$rtcFrameData DD 02H
	DD	00H
	DQ	FLAT:PMC_Subtruct_X_L$rtcVarDesc
CONST	ENDS
;	COMDAT xdata
xdata	SEGMENT
$unwind$PMC_Subtruct_X_I DD 025054419H
	DD	0117231cH
	DD	070100031H
	DD	0500fH
	DD	imagerel __GSHandlerCheck
	DD	0178H
xdata	ENDS
;	COMDAT CONST
CONST	SEGMENT
PMC_Subtruct_X_I$rtcName$0 DB 06eH
	DB	077H
	DB	00H
	ORG $+1
PMC_Subtruct_X_I$rtcName$1 DB 076H
	DB	05fH
	DB	073H
	DB	069H
	DB	067H
	DB	06eH
	DB	00H
	ORG $+5
PMC_Subtruct_X_I$rtcVarDesc DD 084H
	DD	01H
	DQ	FLAT:PMC_Subtruct_X_I$rtcName$1
	DD	068H
	DD	08H
	DQ	FLAT:PMC_Subtruct_X_I$rtcName$0
	ORG $+96
PMC_Subtruct_X_I$rtcFrameData DD 02H
	DD	00H
	DQ	FLAT:PMC_Subtruct_X_I$rtcVarDesc
CONST	ENDS
;	COMDAT xdata
xdata	SEGMENT
$unwind$PMC_Subtruct_UX_X DD 025054519H
	DD	0118231dH
	DD	070110031H
	DD	05010H
	DD	imagerel __GSHandlerCheck
	DD	0178H
xdata	ENDS
;	COMDAT CONST
CONST	SEGMENT
PMC_Subtruct_UX_X$rtcName$0 DB 06eH
	DB	077H
	DB	00H
	ORG $+5
PMC_Subtruct_UX_X$rtcName$1 DB 075H
	DB	05fH
	DB	069H
	DB	073H
	DB	05fH
	DB	07aH
	DB	065H
	DB	072H
	DB	06fH
	DB	00H
	ORG $+2
PMC_Subtruct_UX_X$rtcName$2 DB 06eH
	DB	065H
	DB	077H
	DB	05fH
	DB	075H
	DB	00H
	ORG $+6
PMC_Subtruct_UX_X$rtcVarDesc DD 0a8H
	DD	08H
	DQ	FLAT:PMC_Subtruct_UX_X$rtcName$2
	DD	084H
	DD	01H
	DQ	FLAT:PMC_Subtruct_UX_X$rtcName$1
	DD	068H
	DD	08H
	DQ	FLAT:PMC_Subtruct_UX_X$rtcName$0
	ORG $+144
PMC_Subtruct_UX_X$rtcFrameData DD 03H
	DD	00H
	DQ	FLAT:PMC_Subtruct_UX_X$rtcVarDesc
CONST	ENDS
;	COMDAT xdata
xdata	SEGMENT
$unwind$PMC_Subtruct_L_X DD 025054519H
	DD	0118231dH
	DD	070110031H
	DD	05010H
	DD	imagerel __GSHandlerCheck
	DD	0178H
xdata	ENDS
;	COMDAT CONST
CONST	SEGMENT
PMC_Subtruct_L_X$rtcName$0 DB 06eH
	DB	077H
	DB	00H
	ORG $+1
PMC_Subtruct_L_X$rtcName$1 DB 075H
	DB	05fH
	DB	073H
	DB	069H
	DB	067H
	DB	06eH
	DB	00H
	ORG $+5
PMC_Subtruct_L_X$rtcVarDesc DD 084H
	DD	01H
	DQ	FLAT:PMC_Subtruct_L_X$rtcName$1
	DD	068H
	DD	08H
	DQ	FLAT:PMC_Subtruct_L_X$rtcName$0
	ORG $+96
PMC_Subtruct_L_X$rtcFrameData DD 02H
	DD	00H
	DQ	FLAT:PMC_Subtruct_L_X$rtcVarDesc
CONST	ENDS
;	COMDAT xdata
xdata	SEGMENT
$unwind$PMC_Subtruct_I_X DD 025054319H
	DD	0117231cH
	DD	070100031H
	DD	0500fH
	DD	imagerel __GSHandlerCheck
	DD	0178H
xdata	ENDS
;	COMDAT CONST
CONST	SEGMENT
PMC_Subtruct_I_X$rtcName$0 DB 06eH
	DB	077H
	DB	00H
	ORG $+1
PMC_Subtruct_I_X$rtcName$1 DB 075H
	DB	05fH
	DB	073H
	DB	069H
	DB	067H
	DB	06eH
	DB	00H
	ORG $+5
PMC_Subtruct_I_X$rtcVarDesc DD 084H
	DD	01H
	DQ	FLAT:PMC_Subtruct_I_X$rtcName$1
	DD	068H
	DD	08H
	DQ	FLAT:PMC_Subtruct_I_X$rtcName$0
	ORG $+96
PMC_Subtruct_I_X$rtcFrameData DD 02H
	DD	00H
	DQ	FLAT:PMC_Subtruct_I_X$rtcVarDesc
CONST	ENDS
;	COMDAT xdata
xdata	SEGMENT
$unwind$PMC_Add_X_X DD 025054519H
	DD	0118231dH
	DD	07011002dH
	DD	05010H
	DD	imagerel __GSHandlerCheck
	DD	0158H
xdata	ENDS
;	COMDAT CONST
CONST	SEGMENT
PMC_Add_X_X$rtcName$0 DB 06eH
	DB	077H
	DB	00H
	ORG $+13
PMC_Add_X_X$rtcVarDesc DD 088H
	DD	08H
	DQ	FLAT:PMC_Add_X_X$rtcName$0
	ORG $+48
PMC_Add_X_X$rtcFrameData DD 01H
	DD	00H
	DQ	FLAT:PMC_Add_X_X$rtcVarDesc
CONST	ENDS
;	COMDAT xdata
xdata	SEGMENT
$unwind$PMC_Add_X_UX DD 025054519H
	DD	0118231dH
	DD	070110035H
	DD	05010H
	DD	imagerel __GSHandlerCheck
	DD	0198H
xdata	ENDS
;	COMDAT CONST
CONST	SEGMENT
PMC_Add_X_UX$rtcName$0 DB 06eH
	DB	077H
	DB	00H
	ORG $+5
PMC_Add_X_UX$rtcName$1 DB 076H
	DB	05fH
	DB	069H
	DB	073H
	DB	05fH
	DB	07aH
	DB	065H
	DB	072H
	DB	06fH
	DB	00H
	ORG $+2
PMC_Add_X_UX$rtcName$2 DB 06eH
	DB	065H
	DB	077H
	DB	05fH
	DB	076H
	DB	00H
	ORG $+2
PMC_Add_X_UX$rtcName$3 DB 074H
	DB	079H
	DB	070H
	DB	065H
	DB	00H
	ORG $+7
PMC_Add_X_UX$rtcFrameData DD 04H
	DD	00H
	DQ	FLAT:PMC_Add_X_UX$rtcVarDesc
	ORG $+8
PMC_Add_X_UX$rtcVarDesc DD 0c4H
	DD	04H
	DQ	FLAT:PMC_Add_X_UX$rtcName$3
	DD	0a8H
	DD	08H
	DQ	FLAT:PMC_Add_X_UX$rtcName$2
	DD	084H
	DD	01H
	DQ	FLAT:PMC_Add_X_UX$rtcName$1
	DD	068H
	DD	08H
	DQ	FLAT:PMC_Add_X_UX$rtcName$0
CONST	ENDS
;	COMDAT xdata
xdata	SEGMENT
$unwind$PMC_Add_X_L DD 025054519H
	DD	0118231dH
	DD	070110031H
	DD	05010H
	DD	imagerel __GSHandlerCheck
	DD	0178H
xdata	ENDS
;	COMDAT CONST
CONST	SEGMENT
PMC_Add_X_L$rtcName$0 DB 06eH
	DB	077H
	DB	00H
	ORG $+1
PMC_Add_X_L$rtcName$1 DB 076H
	DB	05fH
	DB	073H
	DB	069H
	DB	067H
	DB	06eH
	DB	00H
	ORG $+5
PMC_Add_X_L$rtcVarDesc DD 084H
	DD	01H
	DQ	FLAT:PMC_Add_X_L$rtcName$1
	DD	068H
	DD	08H
	DQ	FLAT:PMC_Add_X_L$rtcName$0
	ORG $+96
PMC_Add_X_L$rtcFrameData DD 02H
	DD	00H
	DQ	FLAT:PMC_Add_X_L$rtcVarDesc
CONST	ENDS
;	COMDAT xdata
xdata	SEGMENT
$unwind$PMC_Add_X_I DD 025054419H
	DD	0117231cH
	DD	070100031H
	DD	0500fH
	DD	imagerel __GSHandlerCheck
	DD	0178H
xdata	ENDS
;	COMDAT CONST
CONST	SEGMENT
PMC_Add_X_I$rtcName$0 DB 06eH
	DB	077H
	DB	00H
	ORG $+1
PMC_Add_X_I$rtcName$1 DB 076H
	DB	05fH
	DB	073H
	DB	069H
	DB	067H
	DB	06eH
	DB	00H
	ORG $+5
PMC_Add_X_I$rtcVarDesc DD 084H
	DD	01H
	DQ	FLAT:PMC_Add_X_I$rtcName$1
	DD	068H
	DD	08H
	DQ	FLAT:PMC_Add_X_I$rtcName$0
	ORG $+96
PMC_Add_X_I$rtcFrameData DD 02H
	DD	00H
	DQ	FLAT:PMC_Add_X_I$rtcVarDesc
CONST	ENDS
;	COMDAT xdata
xdata	SEGMENT
$unwind$PMC_Add_UX_X DD 025054519H
	DD	0118231dH
	DD	070110031H
	DD	05010H
	DD	imagerel __GSHandlerCheck
	DD	0178H
xdata	ENDS
;	COMDAT CONST
CONST	SEGMENT
PMC_Add_UX_X$rtcName$0 DB 06eH
	DB	077H
	DB	00H
	ORG $+5
PMC_Add_UX_X$rtcName$1 DB 075H
	DB	05fH
	DB	069H
	DB	073H
	DB	05fH
	DB	07aH
	DB	065H
	DB	072H
	DB	06fH
	DB	00H
	ORG $+2
PMC_Add_UX_X$rtcName$2 DB 06eH
	DB	065H
	DB	077H
	DB	05fH
	DB	075H
	DB	00H
	ORG $+6
PMC_Add_UX_X$rtcVarDesc DD 0a8H
	DD	08H
	DQ	FLAT:PMC_Add_UX_X$rtcName$2
	DD	084H
	DD	01H
	DQ	FLAT:PMC_Add_UX_X$rtcName$1
	DD	068H
	DD	08H
	DQ	FLAT:PMC_Add_UX_X$rtcName$0
	ORG $+144
PMC_Add_UX_X$rtcFrameData DD 03H
	DD	00H
	DQ	FLAT:PMC_Add_UX_X$rtcVarDesc
CONST	ENDS
;	COMDAT xdata
xdata	SEGMENT
$unwind$PMC_Add_L_X DD 025054519H
	DD	0118231dH
	DD	070110031H
	DD	05010H
	DD	imagerel __GSHandlerCheck
	DD	0178H
xdata	ENDS
;	COMDAT CONST
CONST	SEGMENT
PMC_Add_L_X$rtcName$0 DB 06eH
	DB	077H
	DB	00H
	ORG $+1
PMC_Add_L_X$rtcName$1 DB 075H
	DB	05fH
	DB	073H
	DB	069H
	DB	067H
	DB	06eH
	DB	00H
	ORG $+5
PMC_Add_L_X$rtcVarDesc DD 084H
	DD	01H
	DQ	FLAT:PMC_Add_L_X$rtcName$1
	DD	068H
	DD	08H
	DQ	FLAT:PMC_Add_L_X$rtcName$0
	ORG $+96
PMC_Add_L_X$rtcFrameData DD 02H
	DD	00H
	DQ	FLAT:PMC_Add_L_X$rtcVarDesc
CONST	ENDS
;	COMDAT xdata
xdata	SEGMENT
$unwind$PMC_Add_I_X DD 025054319H
	DD	0117231cH
	DD	070100031H
	DD	0500fH
	DD	imagerel __GSHandlerCheck
	DD	0178H
xdata	ENDS
;	COMDAT CONST
CONST	SEGMENT
PMC_Add_I_X$rtcName$0 DB 06eH
	DB	077H
	DB	00H
	ORG $+1
PMC_Add_I_X$rtcName$1 DB 075H
	DB	05fH
	DB	073H
	DB	069H
	DB	067H
	DB	06eH
	DB	00H
	ORG $+5
PMC_Add_I_X$rtcVarDesc DD 084H
	DD	01H
	DQ	FLAT:PMC_Add_I_X$rtcName$1
	DD	068H
	DD	08H
	DQ	FLAT:PMC_Add_I_X$rtcName$0
	ORG $+96
PMC_Add_I_X$rtcFrameData DD 02H
	DD	00H
	DQ	FLAT:PMC_Add_I_X$rtcVarDesc
CONST	ENDS
; Function compile flags: /Odt
;	COMDAT __JustMyCode_Default
_TEXT	SEGMENT
__JustMyCode_Default PROC				; COMDAT
	ret	0
__JustMyCode_Default ENDP
_TEXT	ENDS
; Function compile flags: /Odtp /RTCsu /ZI
; File z:\sources\lunor\repos\rougemeilland\palmtree.math.core.sint\palmtree.math.core.sint\pmc_add_sub.c
;	COMDAT SubtructU_X_X_Imp
_TEXT	SEGMENT
result$ = 4
c$ = 36
w_abs$6 = 72
w_abs$7 = 104
__$ArrayPad$ = 312
sign$ = 352
u$ = 360
v$ = 368
w$ = 376
SubtructU_X_X_Imp PROC					; COMDAT

; 168  : {

	mov	QWORD PTR [rsp+32], r9
	mov	QWORD PTR [rsp+24], r8
	mov	QWORD PTR [rsp+16], rdx
	mov	BYTE PTR [rsp+8], cl
	push	rbp
	push	rdi
	sub	rsp, 360				; 00000168H
	lea	rbp, QWORD PTR [rsp+32]
	mov	rdi, rsp
	mov	ecx, 90					; 0000005aH
	mov	eax, -858993460				; ccccccccH
	rep stosd
	movzx	ecx, BYTE PTR [rsp+392]
	mov	rax, QWORD PTR __security_cookie
	xor	rax, rbp
	mov	QWORD PTR __$ArrayPad$[rbp], rax
	lea	rcx, OFFSET FLAT:__5A8189A9_pmc_add_sub@c
	call	__CheckForDebuggerJustMyCode

; 169  :     PMC_STATUS_CODE result;
; 170  :     _INT32_T c;
; 171  :     if ((result = ep_uint.Compare_X_X(u, v, &c)) != PMC_STATUS_OK)

	lea	r8, QWORD PTR c$[rbp]
	mov	rdx, QWORD PTR v$[rbp]
	mov	rcx, QWORD PTR u$[rbp]
	call	QWORD PTR ep_uint+456
	mov	DWORD PTR result$[rbp], eax
	cmp	DWORD PTR result$[rbp], 0
	je	SHORT $LN2@SubtructU_

; 172  :         return (result);

	mov	eax, DWORD PTR result$[rbp]
	jmp	$LN1@SubtructU_
$LN2@SubtructU_:

; 173  :     if (c > 0)

	cmp	DWORD PTR c$[rbp], 0
	jle	SHORT $LN3@SubtructU_

; 174  :     {
; 175  :         // abs(u) > abs(v) ÇÃèÍçá
; 176  : 
; 177  :         // abs(u) - abs(v) Çï‘Ç∑
; 178  :         PMC_HANDLE_UINT w_abs;
; 179  :         if ((result = ep_uint.Subtruct_X_X(u, v, &w_abs)) != PMC_STATUS_OK)

	lea	r8, QWORD PTR w_abs$6[rbp]
	mov	rdx, QWORD PTR v$[rbp]
	mov	rcx, QWORD PTR u$[rbp]
	call	QWORD PTR ep_uint+200
	mov	DWORD PTR result$[rbp], eax
	cmp	DWORD PTR result$[rbp], 0
	je	SHORT $LN5@SubtructU_

; 180  :             return (result);

	mov	eax, DWORD PTR result$[rbp]
	jmp	$LN1@SubtructU_
$LN5@SubtructU_:

; 181  :         if ((result = AllocateNumber(w, sign, w_abs)) != PMC_STATUS_OK)

	mov	r8, QWORD PTR w_abs$6[rbp]
	movzx	edx, BYTE PTR sign$[rbp]
	mov	rcx, QWORD PTR w$[rbp]
	call	AllocateNumber
	mov	DWORD PTR result$[rbp], eax
	cmp	DWORD PTR result$[rbp], 0
	je	SHORT $LN6@SubtructU_

; 182  :         {
; 183  :             ep_uint.Dispose(w_abs);

	mov	rcx, QWORD PTR w_abs$6[rbp]
	call	QWORD PTR ep_uint+32

; 184  :             return (result);

	mov	eax, DWORD PTR result$[rbp]
	jmp	SHORT $LN1@SubtructU_
$LN6@SubtructU_:

; 185  :         }
; 186  :     }

	jmp	SHORT $LN4@SubtructU_
$LN3@SubtructU_:

; 187  :     else if (c == 0)

	cmp	DWORD PTR c$[rbp], 0
	jne	SHORT $LN7@SubtructU_

; 188  :     {
; 189  :         // abs(u) == abs(v) ÇÃèÍçá
; 190  : 
; 191  :         // 0 Çï‘Ç∑
; 192  :         *w = &number_zero;

	mov	rax, QWORD PTR w$[rbp]
	lea	rcx, OFFSET FLAT:number_zero
	mov	QWORD PTR [rax], rcx

; 193  :     }

	jmp	SHORT $LN8@SubtructU_
$LN7@SubtructU_:

; 194  :     else
; 195  :     {
; 196  :         // abs(u) < abs(v) ÇÃèÍçá
; 197  : 
; 198  :         // - (abs(v) - abs(u)) Çï‘Ç∑
; 199  :         PMC_HANDLE_UINT w_abs;
; 200  :         if ((result = ep_uint.Subtruct_X_X(v, u, &w_abs)) != PMC_STATUS_OK)

	lea	r8, QWORD PTR w_abs$7[rbp]
	mov	rdx, QWORD PTR u$[rbp]
	mov	rcx, QWORD PTR v$[rbp]
	call	QWORD PTR ep_uint+200
	mov	DWORD PTR result$[rbp], eax
	cmp	DWORD PTR result$[rbp], 0
	je	SHORT $LN9@SubtructU_

; 201  :             return (result);

	mov	eax, DWORD PTR result$[rbp]
	jmp	SHORT $LN1@SubtructU_
$LN9@SubtructU_:

; 202  :         if ((result = AllocateNumber(w, -sign, w_abs)) != PMC_STATUS_OK)

	movsx	eax, BYTE PTR sign$[rbp]
	neg	eax
	mov	r8, QWORD PTR w_abs$7[rbp]
	movzx	edx, al
	mov	rcx, QWORD PTR w$[rbp]
	call	AllocateNumber
	mov	DWORD PTR result$[rbp], eax
	cmp	DWORD PTR result$[rbp], 0
	je	SHORT $LN10@SubtructU_

; 203  :         {
; 204  :             ep_uint.Dispose(w_abs);

	mov	rcx, QWORD PTR w_abs$7[rbp]
	call	QWORD PTR ep_uint+32

; 205  :             return (result);

	mov	eax, DWORD PTR result$[rbp]
	jmp	SHORT $LN1@SubtructU_
$LN10@SubtructU_:
$LN8@SubtructU_:
$LN4@SubtructU_:

; 206  :         }
; 207  :     }
; 208  :     return (PMC_STATUS_OK);

	xor	eax, eax
$LN1@SubtructU_:

; 209  : }

	mov	rdi, rax
	lea	rcx, QWORD PTR [rbp-32]
	lea	rdx, OFFSET FLAT:SubtructU_X_X_Imp$rtcFrameData
	call	_RTC_CheckStackVars
	mov	rax, rdi
	mov	rcx, QWORD PTR __$ArrayPad$[rbp]
	xor	rcx, rbp
	call	__security_check_cookie
	lea	rsp, QWORD PTR [rbp+328]
	pop	rdi
	pop	rbp
	ret	0
SubtructU_X_X_Imp ENDP
_TEXT	ENDS
; Function compile flags: /Odtp /RTCsu /ZI
; File z:\sources\lunor\repos\rougemeilland\palmtree.math.core.sint\palmtree.math.core.sint\pmc_add_sub.c
;	COMDAT SubtructU_X_L_Imp
_TEXT	SEGMENT
result$ = 4
c$ = 36
w_abs$7 = 72
t$8 = 104
w_abs$9 = 136
__$ArrayPad$ = 344
sign$ = 384
u$ = 392
v$ = 400
w$ = 408
SubtructU_X_L_Imp PROC					; COMDAT

; 121  : {

	mov	QWORD PTR [rsp+32], r9
	mov	QWORD PTR [rsp+24], r8
	mov	QWORD PTR [rsp+16], rdx
	mov	BYTE PTR [rsp+8], cl
	push	rbp
	push	rdi
	sub	rsp, 392				; 00000188H
	lea	rbp, QWORD PTR [rsp+32]
	mov	rdi, rsp
	mov	ecx, 98					; 00000062H
	mov	eax, -858993460				; ccccccccH
	rep stosd
	movzx	ecx, BYTE PTR [rsp+424]
	mov	rax, QWORD PTR __security_cookie
	xor	rax, rbp
	mov	QWORD PTR __$ArrayPad$[rbp], rax
	lea	rcx, OFFSET FLAT:__5A8189A9_pmc_add_sub@c
	call	__CheckForDebuggerJustMyCode

; 122  :     PMC_STATUS_CODE result;
; 123  :     _INT32_T c;
; 124  :     if ((result = ep_uint.Compare_X_L(u, v, &c)) != PMC_STATUS_OK)

	lea	r8, QWORD PTR c$[rbp]
	mov	rdx, QWORD PTR v$[rbp]
	mov	rcx, QWORD PTR u$[rbp]
	call	QWORD PTR ep_uint+448
	mov	DWORD PTR result$[rbp], eax
	cmp	DWORD PTR result$[rbp], 0
	je	SHORT $LN2@SubtructU_

; 125  :         return (result);

	mov	eax, DWORD PTR result$[rbp]
	jmp	$LN1@SubtructU_
$LN2@SubtructU_:

; 126  :     if (c > 0)

	cmp	DWORD PTR c$[rbp], 0
	jle	SHORT $LN3@SubtructU_

; 127  :     {
; 128  :         // abs(u) > abs(v) ÇÃèÍçá
; 129  : 
; 130  :         // abs(u) - abs(v) Çï‘Ç∑
; 131  :         PMC_HANDLE_UINT w_abs;
; 132  :         if ((result = ep_uint.Subtruct_X_L(u, v, &w_abs)) != PMC_STATUS_OK)

	lea	r8, QWORD PTR w_abs$7[rbp]
	mov	rdx, QWORD PTR v$[rbp]
	mov	rcx, QWORD PTR u$[rbp]
	call	QWORD PTR ep_uint+192
	mov	DWORD PTR result$[rbp], eax
	cmp	DWORD PTR result$[rbp], 0
	je	SHORT $LN5@SubtructU_

; 133  :             return (result);

	mov	eax, DWORD PTR result$[rbp]
	jmp	$LN1@SubtructU_
$LN5@SubtructU_:

; 134  :         if ((result = AllocateNumber(w, sign, w_abs)) != PMC_STATUS_OK)

	mov	r8, QWORD PTR w_abs$7[rbp]
	movzx	edx, BYTE PTR sign$[rbp]
	mov	rcx, QWORD PTR w$[rbp]
	call	AllocateNumber
	mov	DWORD PTR result$[rbp], eax
	cmp	DWORD PTR result$[rbp], 0
	je	SHORT $LN6@SubtructU_

; 135  :         {
; 136  :             ep_uint.Dispose(w_abs);

	mov	rcx, QWORD PTR w_abs$7[rbp]
	call	QWORD PTR ep_uint+32

; 137  :             return (result);

	mov	eax, DWORD PTR result$[rbp]
	jmp	$LN1@SubtructU_
$LN6@SubtructU_:

; 138  :         }
; 139  :     }

	jmp	$LN4@SubtructU_
$LN3@SubtructU_:

; 140  :     else if (c == 0)

	cmp	DWORD PTR c$[rbp], 0
	jne	SHORT $LN7@SubtructU_

; 141  :     {
; 142  :         // abs(u) == abs(v) ÇÃèÍçá
; 143  : 
; 144  :         // 0 Çï‘Ç∑
; 145  :         *w = &number_zero;

	mov	rax, QWORD PTR w$[rbp]
	lea	rcx, OFFSET FLAT:number_zero
	mov	QWORD PTR [rax], rcx

; 146  :     }

	jmp	SHORT $LN8@SubtructU_
$LN7@SubtructU_:

; 147  :     else
; 148  :     {
; 149  :         // abs(u) < abs(v) ÇÃèÍçá
; 150  : 
; 151  :         // - (abs(v) - abs(u)) Çï‘Ç∑
; 152  :         _UINT64_T t;
; 153  :         if ((result = ep_uint.Subtruct_L_X(v, u, &t)) != PMC_STATUS_OK)

	lea	r8, QWORD PTR t$8[rbp]
	mov	rdx, QWORD PTR u$[rbp]
	mov	rcx, QWORD PTR v$[rbp]
	call	QWORD PTR ep_uint+176
	mov	DWORD PTR result$[rbp], eax
	cmp	DWORD PTR result$[rbp], 0
	je	SHORT $LN9@SubtructU_

; 154  :             return (result);

	mov	eax, DWORD PTR result$[rbp]
	jmp	SHORT $LN1@SubtructU_
$LN9@SubtructU_:

; 155  :         PMC_HANDLE_UINT w_abs;
; 156  :         if ((result = ep_uint.From_L(t, &w_abs)) != PMC_STATUS_OK)

	lea	rdx, QWORD PTR w_abs$9[rbp]
	mov	rcx, QWORD PTR t$8[rbp]
	call	QWORD PTR ep_uint+24
	mov	DWORD PTR result$[rbp], eax
	cmp	DWORD PTR result$[rbp], 0
	je	SHORT $LN10@SubtructU_

; 157  :             return (result);

	mov	eax, DWORD PTR result$[rbp]
	jmp	SHORT $LN1@SubtructU_
$LN10@SubtructU_:

; 158  :         if ((result = AllocateNumber(w, -sign, w_abs)) != PMC_STATUS_OK)

	movsx	eax, BYTE PTR sign$[rbp]
	neg	eax
	mov	r8, QWORD PTR w_abs$9[rbp]
	movzx	edx, al
	mov	rcx, QWORD PTR w$[rbp]
	call	AllocateNumber
	mov	DWORD PTR result$[rbp], eax
	cmp	DWORD PTR result$[rbp], 0
	je	SHORT $LN11@SubtructU_

; 159  :         {
; 160  :             ep_uint.Dispose(w_abs);

	mov	rcx, QWORD PTR w_abs$9[rbp]
	call	QWORD PTR ep_uint+32

; 161  :             return (result);

	mov	eax, DWORD PTR result$[rbp]
	jmp	SHORT $LN1@SubtructU_
$LN11@SubtructU_:
$LN8@SubtructU_:
$LN4@SubtructU_:

; 162  :         }
; 163  :     }
; 164  :     return (PMC_STATUS_OK);

	xor	eax, eax
$LN1@SubtructU_:

; 165  : }

	mov	rdi, rax
	lea	rcx, QWORD PTR [rbp-32]
	lea	rdx, OFFSET FLAT:SubtructU_X_L_Imp$rtcFrameData
	call	_RTC_CheckStackVars
	mov	rax, rdi
	mov	rcx, QWORD PTR __$ArrayPad$[rbp]
	xor	rcx, rbp
	call	__security_check_cookie
	lea	rsp, QWORD PTR [rbp+360]
	pop	rdi
	pop	rbp
	ret	0
SubtructU_X_L_Imp ENDP
_TEXT	ENDS
; Function compile flags: /Odtp /RTCsu /ZI
; File z:\sources\lunor\repos\rougemeilland\palmtree.math.core.sint\palmtree.math.core.sint\pmc_add_sub.c
;	COMDAT SubtructU_X_I_Imp
_TEXT	SEGMENT
result$ = 4
c$ = 36
w_abs$7 = 72
t$8 = 100
w_abs$9 = 136
__$ArrayPad$ = 344
sign$ = 384
u$ = 392
v$ = 400
w$ = 408
SubtructU_X_I_Imp PROC					; COMDAT

; 74   : {

	mov	QWORD PTR [rsp+32], r9
	mov	DWORD PTR [rsp+24], r8d
	mov	QWORD PTR [rsp+16], rdx
	mov	BYTE PTR [rsp+8], cl
	push	rbp
	push	rdi
	sub	rsp, 392				; 00000188H
	lea	rbp, QWORD PTR [rsp+32]
	mov	rdi, rsp
	mov	ecx, 98					; 00000062H
	mov	eax, -858993460				; ccccccccH
	rep stosd
	movzx	ecx, BYTE PTR [rsp+424]
	mov	rax, QWORD PTR __security_cookie
	xor	rax, rbp
	mov	QWORD PTR __$ArrayPad$[rbp], rax
	lea	rcx, OFFSET FLAT:__5A8189A9_pmc_add_sub@c
	call	__CheckForDebuggerJustMyCode

; 75   :     PMC_STATUS_CODE result;
; 76   :     _INT32_T c;
; 77   :     if ((result = ep_uint.Compare_X_I(u, v, &c)) != PMC_STATUS_OK)

	lea	r8, QWORD PTR c$[rbp]
	mov	edx, DWORD PTR v$[rbp]
	mov	rcx, QWORD PTR u$[rbp]
	call	QWORD PTR ep_uint+440
	mov	DWORD PTR result$[rbp], eax
	cmp	DWORD PTR result$[rbp], 0
	je	SHORT $LN2@SubtructU_

; 78   :         return (result);

	mov	eax, DWORD PTR result$[rbp]
	jmp	$LN1@SubtructU_
$LN2@SubtructU_:

; 79   :     if (c > 0)

	cmp	DWORD PTR c$[rbp], 0
	jle	SHORT $LN3@SubtructU_

; 80   :     {
; 81   :         // abs(u) > abs(v) ÇÃèÍçá
; 82   : 
; 83   :         // abs(u) - abs(v) Çï‘Ç∑
; 84   :         PMC_HANDLE_UINT w_abs;
; 85   :         if ((result = ep_uint.Subtruct_X_I(u, v, &w_abs)) != PMC_STATUS_OK)

	lea	r8, QWORD PTR w_abs$7[rbp]
	mov	edx, DWORD PTR v$[rbp]
	mov	rcx, QWORD PTR u$[rbp]
	call	QWORD PTR ep_uint+184
	mov	DWORD PTR result$[rbp], eax
	cmp	DWORD PTR result$[rbp], 0
	je	SHORT $LN5@SubtructU_

; 86   :             return (result);

	mov	eax, DWORD PTR result$[rbp]
	jmp	$LN1@SubtructU_
$LN5@SubtructU_:

; 87   :         if ((result = AllocateNumber(w, sign, w_abs)) != PMC_STATUS_OK)

	mov	r8, QWORD PTR w_abs$7[rbp]
	movzx	edx, BYTE PTR sign$[rbp]
	mov	rcx, QWORD PTR w$[rbp]
	call	AllocateNumber
	mov	DWORD PTR result$[rbp], eax
	cmp	DWORD PTR result$[rbp], 0
	je	SHORT $LN6@SubtructU_

; 88   :         {
; 89   :             ep_uint.Dispose(w_abs);

	mov	rcx, QWORD PTR w_abs$7[rbp]
	call	QWORD PTR ep_uint+32

; 90   :             return (result);

	mov	eax, DWORD PTR result$[rbp]
	jmp	$LN1@SubtructU_
$LN6@SubtructU_:

; 91   :         }
; 92   :     }

	jmp	$LN4@SubtructU_
$LN3@SubtructU_:

; 93   :     else if (c == 0)

	cmp	DWORD PTR c$[rbp], 0
	jne	SHORT $LN7@SubtructU_

; 94   :     {
; 95   :         // abs(u) == abs(v) ÇÃèÍçá
; 96   : 
; 97   :         // 0 Çï‘Ç∑
; 98   :         *w = &number_zero;

	mov	rax, QWORD PTR w$[rbp]
	lea	rcx, OFFSET FLAT:number_zero
	mov	QWORD PTR [rax], rcx

; 99   :     }

	jmp	SHORT $LN8@SubtructU_
$LN7@SubtructU_:

; 100  :     else
; 101  :     {
; 102  :         // abs(u) < abs(v) ÇÃèÍçá
; 103  : 
; 104  :         // - (abs(v) - abs(u)) Çï‘Ç∑
; 105  :         _UINT32_T t;
; 106  :         if ((result = ep_uint.Subtruct_I_X(v, u, &t)) != PMC_STATUS_OK)

	lea	r8, QWORD PTR t$8[rbp]
	mov	rdx, QWORD PTR u$[rbp]
	mov	ecx, DWORD PTR v$[rbp]
	call	QWORD PTR ep_uint+168
	mov	DWORD PTR result$[rbp], eax
	cmp	DWORD PTR result$[rbp], 0
	je	SHORT $LN9@SubtructU_

; 107  :             return (result);

	mov	eax, DWORD PTR result$[rbp]
	jmp	SHORT $LN1@SubtructU_
$LN9@SubtructU_:

; 108  :         PMC_HANDLE_UINT w_abs;
; 109  :         if ((result = ep_uint.From_I(t, &w_abs)) != PMC_STATUS_OK)

	lea	rdx, QWORD PTR w_abs$9[rbp]
	mov	ecx, DWORD PTR t$8[rbp]
	call	QWORD PTR ep_uint+16
	mov	DWORD PTR result$[rbp], eax
	cmp	DWORD PTR result$[rbp], 0
	je	SHORT $LN10@SubtructU_

; 110  :             return (result);

	mov	eax, DWORD PTR result$[rbp]
	jmp	SHORT $LN1@SubtructU_
$LN10@SubtructU_:

; 111  :         if ((result = AllocateNumber(w, -sign, w_abs)) != PMC_STATUS_OK)

	movsx	eax, BYTE PTR sign$[rbp]
	neg	eax
	mov	r8, QWORD PTR w_abs$9[rbp]
	movzx	edx, al
	mov	rcx, QWORD PTR w$[rbp]
	call	AllocateNumber
	mov	DWORD PTR result$[rbp], eax
	cmp	DWORD PTR result$[rbp], 0
	je	SHORT $LN11@SubtructU_

; 112  :         {
; 113  :             ep_uint.Dispose(w_abs);

	mov	rcx, QWORD PTR w_abs$9[rbp]
	call	QWORD PTR ep_uint+32

; 114  :             return (result);

	mov	eax, DWORD PTR result$[rbp]
	jmp	SHORT $LN1@SubtructU_
$LN11@SubtructU_:
$LN8@SubtructU_:
$LN4@SubtructU_:

; 115  :         }
; 116  :     }
; 117  :     return (PMC_STATUS_OK);

	xor	eax, eax
$LN1@SubtructU_:

; 118  : }

	mov	rdi, rax
	lea	rcx, QWORD PTR [rbp-32]
	lea	rdx, OFFSET FLAT:SubtructU_X_I_Imp$rtcFrameData
	call	_RTC_CheckStackVars
	mov	rax, rdi
	mov	rcx, QWORD PTR __$ArrayPad$[rbp]
	xor	rcx, rbp
	call	__security_check_cookie
	lea	rsp, QWORD PTR [rbp+360]
	pop	rdi
	pop	rbp
	ret	0
SubtructU_X_I_Imp ENDP
_TEXT	ENDS
; Function compile flags: /Odtp /RTCsu /ZI
; File z:\sources\lunor\repos\rougemeilland\palmtree.math.core.sint\palmtree.math.core.sint\pmc_add_sub.c
;	COMDAT AddU_X_X_Imp
_TEXT	SEGMENT
result$ = 4
w_abs$ = 40
__$ArrayPad$ = 248
sign$ = 288
u$ = 296
v$ = 304
w$ = 312
AddU_X_X_Imp PROC					; COMDAT

; 60   : {

	mov	QWORD PTR [rsp+32], r9
	mov	QWORD PTR [rsp+24], r8
	mov	QWORD PTR [rsp+16], rdx
	mov	BYTE PTR [rsp+8], cl
	push	rbp
	push	rdi
	sub	rsp, 296				; 00000128H
	lea	rbp, QWORD PTR [rsp+32]
	mov	rdi, rsp
	mov	ecx, 74					; 0000004aH
	mov	eax, -858993460				; ccccccccH
	rep stosd
	movzx	ecx, BYTE PTR [rsp+328]
	mov	rax, QWORD PTR __security_cookie
	xor	rax, rbp
	mov	QWORD PTR __$ArrayPad$[rbp], rax
	lea	rcx, OFFSET FLAT:__5A8189A9_pmc_add_sub@c
	call	__CheckForDebuggerJustMyCode

; 61   :     PMC_STATUS_CODE result;
; 62   :     PMC_HANDLE_UINT w_abs;
; 63   :     if ((result = ep_uint.Add_X_X(u, v, &w_abs)) != PMC_STATUS_OK)

	lea	r8, QWORD PTR w_abs$[rbp]
	mov	rdx, QWORD PTR v$[rbp]
	mov	rcx, QWORD PTR u$[rbp]
	call	QWORD PTR ep_uint+160
	mov	DWORD PTR result$[rbp], eax
	cmp	DWORD PTR result$[rbp], 0
	je	SHORT $LN2@AddU_X_X_I

; 64   :         return (result);

	mov	eax, DWORD PTR result$[rbp]
	jmp	SHORT $LN1@AddU_X_X_I
$LN2@AddU_X_X_I:

; 65   :     if ((result = AllocateNumber(w, sign, w_abs)) != PMC_STATUS_OK)

	mov	r8, QWORD PTR w_abs$[rbp]
	movzx	edx, BYTE PTR sign$[rbp]
	mov	rcx, QWORD PTR w$[rbp]
	call	AllocateNumber
	mov	DWORD PTR result$[rbp], eax
	cmp	DWORD PTR result$[rbp], 0
	je	SHORT $LN3@AddU_X_X_I

; 66   :     {
; 67   :         ep_uint.Dispose(w_abs);

	mov	rcx, QWORD PTR w_abs$[rbp]
	call	QWORD PTR ep_uint+32

; 68   :         return (result);

	mov	eax, DWORD PTR result$[rbp]
	jmp	SHORT $LN1@AddU_X_X_I
$LN3@AddU_X_X_I:

; 69   :     }
; 70   :     return (PMC_STATUS_OK);

	xor	eax, eax
$LN1@AddU_X_X_I:

; 71   : }

	mov	rdi, rax
	lea	rcx, QWORD PTR [rbp-32]
	lea	rdx, OFFSET FLAT:AddU_X_X_Imp$rtcFrameData
	call	_RTC_CheckStackVars
	mov	rax, rdi
	mov	rcx, QWORD PTR __$ArrayPad$[rbp]
	xor	rcx, rbp
	call	__security_check_cookie
	lea	rsp, QWORD PTR [rbp+264]
	pop	rdi
	pop	rbp
	ret	0
AddU_X_X_Imp ENDP
_TEXT	ENDS
; Function compile flags: /Odtp /RTCsu /ZI
; File z:\sources\lunor\repos\rougemeilland\palmtree.math.core.sint\palmtree.math.core.sint\pmc_add_sub.c
;	COMDAT AddU_X_L_Imp
_TEXT	SEGMENT
result$ = 4
w_abs$ = 40
__$ArrayPad$ = 248
sign$ = 288
u$ = 296
v$ = 304
w$ = 312
AddU_X_L_Imp PROC					; COMDAT

; 46   : {

	mov	QWORD PTR [rsp+32], r9
	mov	QWORD PTR [rsp+24], r8
	mov	QWORD PTR [rsp+16], rdx
	mov	BYTE PTR [rsp+8], cl
	push	rbp
	push	rdi
	sub	rsp, 296				; 00000128H
	lea	rbp, QWORD PTR [rsp+32]
	mov	rdi, rsp
	mov	ecx, 74					; 0000004aH
	mov	eax, -858993460				; ccccccccH
	rep stosd
	movzx	ecx, BYTE PTR [rsp+328]
	mov	rax, QWORD PTR __security_cookie
	xor	rax, rbp
	mov	QWORD PTR __$ArrayPad$[rbp], rax
	lea	rcx, OFFSET FLAT:__5A8189A9_pmc_add_sub@c
	call	__CheckForDebuggerJustMyCode

; 47   :     PMC_STATUS_CODE result;
; 48   :     PMC_HANDLE_UINT w_abs;
; 49   :     if ((result = ep_uint.Add_X_L(u, v, &w_abs)) != PMC_STATUS_OK)

	lea	r8, QWORD PTR w_abs$[rbp]
	mov	rdx, QWORD PTR v$[rbp]
	mov	rcx, QWORD PTR u$[rbp]
	call	QWORD PTR ep_uint+152
	mov	DWORD PTR result$[rbp], eax
	cmp	DWORD PTR result$[rbp], 0
	je	SHORT $LN2@AddU_X_L_I

; 50   :         return (result);

	mov	eax, DWORD PTR result$[rbp]
	jmp	SHORT $LN1@AddU_X_L_I
$LN2@AddU_X_L_I:

; 51   :     if ((result = AllocateNumber(w, sign, w_abs)) != PMC_STATUS_OK)

	mov	r8, QWORD PTR w_abs$[rbp]
	movzx	edx, BYTE PTR sign$[rbp]
	mov	rcx, QWORD PTR w$[rbp]
	call	AllocateNumber
	mov	DWORD PTR result$[rbp], eax
	cmp	DWORD PTR result$[rbp], 0
	je	SHORT $LN3@AddU_X_L_I

; 52   :     {
; 53   :         ep_uint.Dispose(w_abs);

	mov	rcx, QWORD PTR w_abs$[rbp]
	call	QWORD PTR ep_uint+32

; 54   :         return (result);

	mov	eax, DWORD PTR result$[rbp]
	jmp	SHORT $LN1@AddU_X_L_I
$LN3@AddU_X_L_I:

; 55   :     }
; 56   :     return (PMC_STATUS_OK);

	xor	eax, eax
$LN1@AddU_X_L_I:

; 57   : }

	mov	rdi, rax
	lea	rcx, QWORD PTR [rbp-32]
	lea	rdx, OFFSET FLAT:AddU_X_L_Imp$rtcFrameData
	call	_RTC_CheckStackVars
	mov	rax, rdi
	mov	rcx, QWORD PTR __$ArrayPad$[rbp]
	xor	rcx, rbp
	call	__security_check_cookie
	lea	rsp, QWORD PTR [rbp+264]
	pop	rdi
	pop	rbp
	ret	0
AddU_X_L_Imp ENDP
_TEXT	ENDS
; Function compile flags: /Odtp /RTCsu /ZI
; File z:\sources\lunor\repos\rougemeilland\palmtree.math.core.sint\palmtree.math.core.sint\pmc_add_sub.c
;	COMDAT AddU_X_I_Imp
_TEXT	SEGMENT
result$ = 4
w_abs$ = 40
__$ArrayPad$ = 248
sign$ = 288
u$ = 296
v$ = 304
w$ = 312
AddU_X_I_Imp PROC					; COMDAT

; 32   : {

	mov	QWORD PTR [rsp+32], r9
	mov	DWORD PTR [rsp+24], r8d
	mov	QWORD PTR [rsp+16], rdx
	mov	BYTE PTR [rsp+8], cl
	push	rbp
	push	rdi
	sub	rsp, 296				; 00000128H
	lea	rbp, QWORD PTR [rsp+32]
	mov	rdi, rsp
	mov	ecx, 74					; 0000004aH
	mov	eax, -858993460				; ccccccccH
	rep stosd
	movzx	ecx, BYTE PTR [rsp+328]
	mov	rax, QWORD PTR __security_cookie
	xor	rax, rbp
	mov	QWORD PTR __$ArrayPad$[rbp], rax
	lea	rcx, OFFSET FLAT:__5A8189A9_pmc_add_sub@c
	call	__CheckForDebuggerJustMyCode

; 33   :     PMC_STATUS_CODE result;
; 34   :     PMC_HANDLE_UINT w_abs;
; 35   :     if ((result = ep_uint.Add_X_I(u, v, &w_abs)) != PMC_STATUS_OK)

	lea	r8, QWORD PTR w_abs$[rbp]
	mov	edx, DWORD PTR v$[rbp]
	mov	rcx, QWORD PTR u$[rbp]
	call	QWORD PTR ep_uint+144
	mov	DWORD PTR result$[rbp], eax
	cmp	DWORD PTR result$[rbp], 0
	je	SHORT $LN2@AddU_X_I_I

; 36   :         return (result);

	mov	eax, DWORD PTR result$[rbp]
	jmp	SHORT $LN1@AddU_X_I_I
$LN2@AddU_X_I_I:

; 37   :     if ((result = AllocateNumber(w, sign, w_abs)) != PMC_STATUS_OK)

	mov	r8, QWORD PTR w_abs$[rbp]
	movzx	edx, BYTE PTR sign$[rbp]
	mov	rcx, QWORD PTR w$[rbp]
	call	AllocateNumber
	mov	DWORD PTR result$[rbp], eax
	cmp	DWORD PTR result$[rbp], 0
	je	SHORT $LN3@AddU_X_I_I

; 38   :     {
; 39   :         ep_uint.Dispose(w_abs);

	mov	rcx, QWORD PTR w_abs$[rbp]
	call	QWORD PTR ep_uint+32

; 40   :         return (result);

	mov	eax, DWORD PTR result$[rbp]
	jmp	SHORT $LN1@AddU_X_I_I
$LN3@AddU_X_I_I:

; 41   :     }
; 42   :     return (PMC_STATUS_OK);

	xor	eax, eax
$LN1@AddU_X_I_I:

; 43   : }

	mov	rdi, rax
	lea	rcx, QWORD PTR [rbp-32]
	lea	rdx, OFFSET FLAT:AddU_X_I_Imp$rtcFrameData
	call	_RTC_CheckStackVars
	mov	rax, rdi
	mov	rcx, QWORD PTR __$ArrayPad$[rbp]
	xor	rcx, rbp
	call	__security_check_cookie
	lea	rsp, QWORD PTR [rbp+264]
	pop	rdi
	pop	rbp
	ret	0
AddU_X_I_Imp ENDP
_TEXT	ENDS
; Function compile flags: /Odtp /RTCsu /ZI
; File z:\sources\lunor\repos\rougemeilland\palmtree.math.core.uint\palmtree.math.core.uint\pmc_inline_func.h
;	COMDAT GET_ABS_64
_TEXT	SEGMENT
tv68 = 192
u$ = 240
sign$ = 248
GET_ABS_64 PROC						; COMDAT

; 800  :     {

	mov	QWORD PTR [rsp+16], rdx
	mov	QWORD PTR [rsp+8], rcx
	push	rbp
	push	rdi
	sub	rsp, 248				; 000000f8H
	lea	rbp, QWORD PTR [rsp+32]
	mov	rdi, rsp
	mov	ecx, 62					; 0000003eH
	mov	eax, -858993460				; ccccccccH
	rep stosd
	mov	rcx, QWORD PTR [rsp+280]
	lea	rcx, OFFSET FLAT:__8CA3E54E_pmc_inline_func@h
	call	__CheckForDebuggerJustMyCode

; 801  :         if (u > 0)

	cmp	QWORD PTR u$[rbp], 0
	jle	SHORT $LN2@GET_ABS_64

; 802  :         {
; 803  :             *sign = 1;

	mov	rax, QWORD PTR sign$[rbp]
	mov	BYTE PTR [rax], 1

; 804  :             return ((_UINT64_T)u);

	mov	rax, QWORD PTR u$[rbp]
	jmp	SHORT $LN1@GET_ABS_64

; 805  :         }

	jmp	SHORT $LN3@GET_ABS_64
$LN2@GET_ABS_64:

; 806  :         else if (u == 0)

	cmp	QWORD PTR u$[rbp], 0
	jne	SHORT $LN4@GET_ABS_64

; 807  :         {
; 808  :             *sign = 0;

	mov	rax, QWORD PTR sign$[rbp]
	mov	BYTE PTR [rax], 0

; 809  :             return (0);

	xor	eax, eax
	jmp	SHORT $LN1@GET_ABS_64

; 810  :         }

	jmp	SHORT $LN5@GET_ABS_64
$LN4@GET_ABS_64:

; 811  :         else
; 812  :         {
; 813  :             *sign = -1;

	mov	rax, QWORD PTR sign$[rbp]
	mov	BYTE PTR [rax], -1

; 814  :             return ((_UINT64_T)u == 0x8000000000000000UL ? 0x8000000000000000UL : (_UINT64_T)-u);

	mov	rax, -9223372036854775808		; 8000000000000000H
	cmp	QWORD PTR u$[rbp], rax
	jne	SHORT $LN7@GET_ABS_64
	mov	rax, -9223372036854775808		; 8000000000000000H
	mov	QWORD PTR tv68[rbp], rax
	jmp	SHORT $LN8@GET_ABS_64
$LN7@GET_ABS_64:
	mov	rax, QWORD PTR u$[rbp]
	neg	rax
	mov	QWORD PTR tv68[rbp], rax
$LN8@GET_ABS_64:
	mov	rax, QWORD PTR tv68[rbp]
$LN5@GET_ABS_64:
$LN3@GET_ABS_64:
$LN1@GET_ABS_64:

; 815  :         }
; 816  :     }

	lea	rsp, QWORD PTR [rbp+216]
	pop	rdi
	pop	rbp
	ret	0
GET_ABS_64 ENDP
_TEXT	ENDS
; Function compile flags: /Odtp /RTCsu /ZI
; File z:\sources\lunor\repos\rougemeilland\palmtree.math.core.uint\palmtree.math.core.uint\pmc_inline_func.h
;	COMDAT GET_ABS_32
_TEXT	SEGMENT
tv68 = 192
u$ = 240
sign$ = 248
GET_ABS_32 PROC						; COMDAT

; 780  :     {

	mov	QWORD PTR [rsp+16], rdx
	mov	DWORD PTR [rsp+8], ecx
	push	rbp
	push	rdi
	sub	rsp, 248				; 000000f8H
	lea	rbp, QWORD PTR [rsp+32]
	mov	rdi, rsp
	mov	ecx, 62					; 0000003eH
	mov	eax, -858993460				; ccccccccH
	rep stosd
	mov	ecx, DWORD PTR [rsp+280]
	lea	rcx, OFFSET FLAT:__8CA3E54E_pmc_inline_func@h
	call	__CheckForDebuggerJustMyCode

; 781  :         if (u > 0)

	cmp	DWORD PTR u$[rbp], 0
	jle	SHORT $LN2@GET_ABS_32

; 782  :         {
; 783  :             *sign = 1;

	mov	rax, QWORD PTR sign$[rbp]
	mov	BYTE PTR [rax], 1

; 784  :             return ((_UINT32_T)u);

	mov	eax, DWORD PTR u$[rbp]
	jmp	SHORT $LN1@GET_ABS_32

; 785  :         }

	jmp	SHORT $LN3@GET_ABS_32
$LN2@GET_ABS_32:

; 786  :         else if (u == 0)

	cmp	DWORD PTR u$[rbp], 0
	jne	SHORT $LN4@GET_ABS_32

; 787  :         {
; 788  :             *sign = 0;

	mov	rax, QWORD PTR sign$[rbp]
	mov	BYTE PTR [rax], 0

; 789  :             return (0);

	xor	eax, eax
	jmp	SHORT $LN1@GET_ABS_32

; 790  :         }

	jmp	SHORT $LN5@GET_ABS_32
$LN4@GET_ABS_32:

; 791  :         else
; 792  :         {
; 793  :             *sign = -1;

	mov	rax, QWORD PTR sign$[rbp]
	mov	BYTE PTR [rax], -1

; 794  :             return ((_UINT32_T)u == 0x80000000U ? 0x80000000U : (_UINT32_T)-u);

	cmp	DWORD PTR u$[rbp], -2147483648		; 80000000H
	jne	SHORT $LN7@GET_ABS_32
	mov	DWORD PTR tv68[rbp], -2147483648	; 80000000H
	jmp	SHORT $LN8@GET_ABS_32
$LN7@GET_ABS_32:
	mov	eax, DWORD PTR u$[rbp]
	neg	eax
	mov	DWORD PTR tv68[rbp], eax
$LN8@GET_ABS_32:
	mov	eax, DWORD PTR tv68[rbp]
$LN5@GET_ABS_32:
$LN3@GET_ABS_32:
$LN1@GET_ABS_32:

; 795  :         }
; 796  : }

	lea	rsp, QWORD PTR [rbp+216]
	pop	rdi
	pop	rbp
	ret	0
GET_ABS_32 ENDP
_TEXT	ENDS
; Function compile flags: /Odtp /RTCsu /ZI
; File z:\sources\lunor\repos\rougemeilland\palmtree.math.core.sint\palmtree.math.core.sint\pmc_add_sub.c
;	COMDAT PMC_Subtruct_X_X
_TEXT	SEGMENT
result$ = 4
nu$ = 40
nv$ = 72
nw$ = 104
__$ArrayPad$ = 312
u$ = 352
v$ = 360
w$ = 368
PMC_Subtruct_X_X PROC					; COMDAT

; 1400 : {

$LN29:
	mov	QWORD PTR [rsp+24], r8
	mov	QWORD PTR [rsp+16], rdx
	mov	QWORD PTR [rsp+8], rcx
	push	rbp
	push	rdi
	sub	rsp, 360				; 00000168H
	lea	rbp, QWORD PTR [rsp+32]
	mov	rdi, rsp
	mov	ecx, 90					; 0000005aH
	mov	eax, -858993460				; ccccccccH
	rep stosd
	mov	rcx, QWORD PTR [rsp+392]
	mov	rax, QWORD PTR __security_cookie
	xor	rax, rbp
	mov	QWORD PTR __$ArrayPad$[rbp], rax
	lea	rcx, OFFSET FLAT:__5A8189A9_pmc_add_sub@c
	call	__CheckForDebuggerJustMyCode

; 1401 :     if (u == NULL)

	cmp	QWORD PTR u$[rbp], 0
	jne	SHORT $LN2@PMC_Subtru

; 1402 :         return (PMC_STATUS_ARGUMENT_ERROR);

	mov	eax, -1
	jmp	$LN1@PMC_Subtru
$LN2@PMC_Subtru:

; 1403 :     if (v == NULL)

	cmp	QWORD PTR v$[rbp], 0
	jne	SHORT $LN3@PMC_Subtru

; 1404 :         return (PMC_STATUS_ARGUMENT_ERROR);

	mov	eax, -1
	jmp	$LN1@PMC_Subtru
$LN3@PMC_Subtru:

; 1405 :     if (w == NULL)

	cmp	QWORD PTR w$[rbp], 0
	jne	SHORT $LN4@PMC_Subtru

; 1406 :         return (PMC_STATUS_ARGUMENT_ERROR);

	mov	eax, -1
	jmp	$LN1@PMC_Subtru
$LN4@PMC_Subtru:

; 1407 :     PMC_STATUS_CODE result;
; 1408 :     NUMBER_HEADER* nu = (NUMBER_HEADER*)u;

	mov	rax, QWORD PTR u$[rbp]
	mov	QWORD PTR nu$[rbp], rax

; 1409 :     NUMBER_HEADER* nv = (NUMBER_HEADER*)v;

	mov	rax, QWORD PTR v$[rbp]
	mov	QWORD PTR nv$[rbp], rax

; 1410 :     NUMBER_HEADER* nw;
; 1411 :     if ((result = CheckNumber(nu)) != PMC_STATUS_OK)

	mov	rcx, QWORD PTR nu$[rbp]
	call	CheckNumber
	mov	DWORD PTR result$[rbp], eax
	cmp	DWORD PTR result$[rbp], 0
	je	SHORT $LN5@PMC_Subtru

; 1412 :         return (result);

	mov	eax, DWORD PTR result$[rbp]
	jmp	$LN1@PMC_Subtru
$LN5@PMC_Subtru:

; 1413 :     if ((result = CheckNumber(nv)) != PMC_STATUS_OK)

	mov	rcx, QWORD PTR nv$[rbp]
	call	CheckNumber
	mov	DWORD PTR result$[rbp], eax
	cmp	DWORD PTR result$[rbp], 0
	je	SHORT $LN6@PMC_Subtru

; 1414 :         return (result);

	mov	eax, DWORD PTR result$[rbp]
	jmp	$LN1@PMC_Subtru
$LN6@PMC_Subtru:

; 1415 :     if (nu->SIGN == 0)

	mov	rax, QWORD PTR nu$[rbp]
	movsx	eax, BYTE PTR [rax+16]
	test	eax, eax
	jne	SHORT $LN7@PMC_Subtru

; 1416 :     {
; 1417 :         // u == 0 ÇÃèÍçá
; 1418 : 
; 1419 :         if (nv->SIGN == 0)

	mov	rax, QWORD PTR nv$[rbp]
	movsx	eax, BYTE PTR [rax+16]
	test	eax, eax
	jne	SHORT $LN9@PMC_Subtru

; 1420 :         {
; 1421 :             // v == 0 ÇÃèÍçá
; 1422 : 
; 1423 :             // 0 Çï‘Ç∑
; 1424 :             nw = &number_zero;

	lea	rax, OFFSET FLAT:number_zero
	mov	QWORD PTR nw$[rbp], rax

; 1425 :         }

	jmp	SHORT $LN10@PMC_Subtru
$LN9@PMC_Subtru:

; 1426 :         else
; 1427 :         {
; 1428 :             // v != 0 ÇÃèÍçá
; 1429 : 
; 1430 :             // -v Çï‘Ç∑
; 1431 :             if ((result = Negate_Imp(nv, &nw)) != PMC_STATUS_OK)

	lea	rdx, QWORD PTR nw$[rbp]
	mov	rcx, QWORD PTR nv$[rbp]
	call	Negate_Imp
	mov	DWORD PTR result$[rbp], eax
	cmp	DWORD PTR result$[rbp], 0
	je	SHORT $LN11@PMC_Subtru

; 1432 :                 return (result);

	mov	eax, DWORD PTR result$[rbp]
	jmp	$LN1@PMC_Subtru
$LN11@PMC_Subtru:
$LN10@PMC_Subtru:

; 1433 :         }
; 1434 :     }

	jmp	$LN8@PMC_Subtru
$LN7@PMC_Subtru:

; 1435 :     else if (nu->SIGN > 0)

	mov	rax, QWORD PTR nu$[rbp]
	movsx	eax, BYTE PTR [rax+16]
	test	eax, eax
	jle	$LN12@PMC_Subtru

; 1436 :     {
; 1437 :         // u > 0 ÇÃèÍçá
; 1438 : 
; 1439 :         if (nv->SIGN == 0)

	mov	rax, QWORD PTR nv$[rbp]
	movsx	eax, BYTE PTR [rax+16]
	test	eax, eax
	jne	SHORT $LN14@PMC_Subtru

; 1440 :         {
; 1441 :             // v == 0 ÇÃèÍçá
; 1442 : 
; 1443 :             // u Çï‘Ç∑
; 1444 :             if ((result = DuplicateNumber(nu, &nw)) != PMC_STATUS_OK)

	lea	rdx, QWORD PTR nw$[rbp]
	mov	rcx, QWORD PTR nu$[rbp]
	call	DuplicateNumber
	mov	DWORD PTR result$[rbp], eax
	cmp	DWORD PTR result$[rbp], 0
	je	SHORT $LN16@PMC_Subtru

; 1445 :                 return (result);

	mov	eax, DWORD PTR result$[rbp]
	jmp	$LN1@PMC_Subtru
$LN16@PMC_Subtru:

; 1446 :         }

	jmp	SHORT $LN15@PMC_Subtru
$LN14@PMC_Subtru:

; 1447 :         else if (nv->SIGN > 0)

	mov	rax, QWORD PTR nv$[rbp]
	movsx	eax, BYTE PTR [rax+16]
	test	eax, eax
	jle	SHORT $LN17@PMC_Subtru

; 1448 :         {
; 1449 :             // v > 0 ÇÃèÍçá
; 1450 : 
; 1451 :             // abs(u) - abs(v) Çï‘Ç∑
; 1452 :             if ((result = SubtructU_X_X_Imp(1, nu->ABS, nv->ABS, &nw)) != PMC_STATUS_OK)

	lea	r9, QWORD PTR nw$[rbp]
	mov	rax, QWORD PTR nv$[rbp]
	mov	r8, QWORD PTR [rax+8]
	mov	rax, QWORD PTR nu$[rbp]
	mov	rdx, QWORD PTR [rax+8]
	mov	cl, 1
	call	SubtructU_X_X_Imp
	mov	DWORD PTR result$[rbp], eax
	cmp	DWORD PTR result$[rbp], 0
	je	SHORT $LN19@PMC_Subtru

; 1453 :                 return (result);

	mov	eax, DWORD PTR result$[rbp]
	jmp	$LN1@PMC_Subtru
$LN19@PMC_Subtru:

; 1454 :         }

	jmp	SHORT $LN18@PMC_Subtru
$LN17@PMC_Subtru:

; 1455 :         else
; 1456 :         {
; 1457 :             // v < 0 ÇÃèÍçá
; 1458 : 
; 1459 :             // abs(u) + abs(v) ÇåvéZÇ∑ÇÈ
; 1460 :             if ((result = AddU_X_X_Imp(1, nu->ABS, nv->ABS, &nw)) != PMC_STATUS_OK)

	lea	r9, QWORD PTR nw$[rbp]
	mov	rax, QWORD PTR nv$[rbp]
	mov	r8, QWORD PTR [rax+8]
	mov	rax, QWORD PTR nu$[rbp]
	mov	rdx, QWORD PTR [rax+8]
	mov	cl, 1
	call	AddU_X_X_Imp
	mov	DWORD PTR result$[rbp], eax
	cmp	DWORD PTR result$[rbp], 0
	je	SHORT $LN20@PMC_Subtru

; 1461 :                 return (result);

	mov	eax, DWORD PTR result$[rbp]
	jmp	$LN1@PMC_Subtru
$LN20@PMC_Subtru:
$LN18@PMC_Subtru:
$LN15@PMC_Subtru:

; 1462 :         }
; 1463 :     }

	jmp	$LN13@PMC_Subtru
$LN12@PMC_Subtru:

; 1464 :     else
; 1465 :     {
; 1466 :         // u < 0 ÇÃèÍçá
; 1467 : 
; 1468 :         if (nv->SIGN == 0)

	mov	rax, QWORD PTR nv$[rbp]
	movsx	eax, BYTE PTR [rax+16]
	test	eax, eax
	jne	SHORT $LN21@PMC_Subtru

; 1469 :         {
; 1470 :             // v == 0 ÇÃèÍçá
; 1471 : 
; 1472 :             // u Çï‘Ç∑
; 1473 :             if ((result = DuplicateNumber(nu, &nw)) != PMC_STATUS_OK)

	lea	rdx, QWORD PTR nw$[rbp]
	mov	rcx, QWORD PTR nu$[rbp]
	call	DuplicateNumber
	mov	DWORD PTR result$[rbp], eax
	cmp	DWORD PTR result$[rbp], 0
	je	SHORT $LN23@PMC_Subtru

; 1474 :                 return (result);

	mov	eax, DWORD PTR result$[rbp]
	jmp	SHORT $LN1@PMC_Subtru
$LN23@PMC_Subtru:

; 1475 :         }

	jmp	SHORT $LN22@PMC_Subtru
$LN21@PMC_Subtru:

; 1476 :         else if (nv->SIGN > 0)

	mov	rax, QWORD PTR nv$[rbp]
	movsx	eax, BYTE PTR [rax+16]
	test	eax, eax
	jle	SHORT $LN24@PMC_Subtru

; 1477 :         {
; 1478 :             // v > 0 ÇÃèÍçá
; 1479 : 
; 1480 :             // - abs(u) - abs(v) ÇåvéZÇ∑ÇÈ
; 1481 :             if ((result = AddU_X_X_Imp(-1, nu->ABS, nv->ABS, &nw)) != PMC_STATUS_OK)

	lea	r9, QWORD PTR nw$[rbp]
	mov	rax, QWORD PTR nv$[rbp]
	mov	r8, QWORD PTR [rax+8]
	mov	rax, QWORD PTR nu$[rbp]
	mov	rdx, QWORD PTR [rax+8]
	mov	cl, -1
	call	AddU_X_X_Imp
	mov	DWORD PTR result$[rbp], eax
	cmp	DWORD PTR result$[rbp], 0
	je	SHORT $LN26@PMC_Subtru

; 1482 :                 return (result);

	mov	eax, DWORD PTR result$[rbp]
	jmp	SHORT $LN1@PMC_Subtru
$LN26@PMC_Subtru:

; 1483 :         }

	jmp	SHORT $LN25@PMC_Subtru
$LN24@PMC_Subtru:

; 1484 :         else
; 1485 :         {
; 1486 :             // v < 0 ÇÃèÍçá
; 1487 : 
; 1488 :             // - abs(u) + abs(v) Çï‘Ç∑
; 1489 :             if ((result = SubtructU_X_X_Imp(-1, nu->ABS, nv->ABS, &nw)) != PMC_STATUS_OK)

	lea	r9, QWORD PTR nw$[rbp]
	mov	rax, QWORD PTR nv$[rbp]
	mov	r8, QWORD PTR [rax+8]
	mov	rax, QWORD PTR nu$[rbp]
	mov	rdx, QWORD PTR [rax+8]
	mov	cl, -1
	call	SubtructU_X_X_Imp
	mov	DWORD PTR result$[rbp], eax
	cmp	DWORD PTR result$[rbp], 0
	je	SHORT $LN27@PMC_Subtru

; 1490 :                 return (result);

	mov	eax, DWORD PTR result$[rbp]
	jmp	SHORT $LN1@PMC_Subtru
$LN27@PMC_Subtru:
$LN25@PMC_Subtru:
$LN22@PMC_Subtru:
$LN13@PMC_Subtru:
$LN8@PMC_Subtru:

; 1491 :         }
; 1492 :     }
; 1493 :     *w = (PMC_HANDLE_SINT)nw;

	mov	rax, QWORD PTR w$[rbp]
	mov	rcx, QWORD PTR nw$[rbp]
	mov	QWORD PTR [rax], rcx

; 1494 :     return (PMC_STATUS_OK);

	xor	eax, eax
$LN1@PMC_Subtru:

; 1495 : }

	mov	rdi, rax
	lea	rcx, QWORD PTR [rbp-32]
	lea	rdx, OFFSET FLAT:PMC_Subtruct_X_X$rtcFrameData
	call	_RTC_CheckStackVars
	mov	rax, rdi
	mov	rcx, QWORD PTR __$ArrayPad$[rbp]
	xor	rcx, rbp
	call	__security_check_cookie
	lea	rsp, QWORD PTR [rbp+328]
	pop	rdi
	pop	rbp
	ret	0
PMC_Subtruct_X_X ENDP
_TEXT	ENDS
; Function compile flags: /Odtp /RTCsu /ZI
; File z:\sources\lunor\repos\rougemeilland\palmtree.math.core.sint\palmtree.math.core.sint\pmc_add_sub.c
;	COMDAT PMC_Subtruct_X_UX
_TEXT	SEGMENT
result$ = 4
nu$ = 40
nw$ = 72
v_is_zero$ = 100
new_v$6 = 136
__$ArrayPad$ = 344
u$ = 384
v$ = 392
w$ = 400
PMC_Subtruct_X_UX PROC					; COMDAT

; 1310 : {

$LN24:
	mov	QWORD PTR [rsp+24], r8
	mov	QWORD PTR [rsp+16], rdx
	mov	QWORD PTR [rsp+8], rcx
	push	rbp
	push	rdi
	sub	rsp, 392				; 00000188H
	lea	rbp, QWORD PTR [rsp+32]
	mov	rdi, rsp
	mov	ecx, 98					; 00000062H
	mov	eax, -858993460				; ccccccccH
	rep stosd
	mov	rcx, QWORD PTR [rsp+424]
	mov	rax, QWORD PTR __security_cookie
	xor	rax, rbp
	mov	QWORD PTR __$ArrayPad$[rbp], rax
	lea	rcx, OFFSET FLAT:__5A8189A9_pmc_add_sub@c
	call	__CheckForDebuggerJustMyCode

; 1311 :     if (u == NULL)

	cmp	QWORD PTR u$[rbp], 0
	jne	SHORT $LN2@PMC_Subtru

; 1312 :         return (PMC_STATUS_ARGUMENT_ERROR);

	mov	eax, -1
	jmp	$LN1@PMC_Subtru
$LN2@PMC_Subtru:

; 1313 :     if (v == NULL)

	cmp	QWORD PTR v$[rbp], 0
	jne	SHORT $LN3@PMC_Subtru

; 1314 :         return (PMC_STATUS_ARGUMENT_ERROR);

	mov	eax, -1
	jmp	$LN1@PMC_Subtru
$LN3@PMC_Subtru:

; 1315 :     if (w == NULL)

	cmp	QWORD PTR w$[rbp], 0
	jne	SHORT $LN4@PMC_Subtru

; 1316 :         return (PMC_STATUS_ARGUMENT_ERROR);

	mov	eax, -1
	jmp	$LN1@PMC_Subtru
$LN4@PMC_Subtru:

; 1317 :     PMC_STATUS_CODE result;
; 1318 :     NUMBER_HEADER* nu = (NUMBER_HEADER*)u;

	mov	rax, QWORD PTR u$[rbp]
	mov	QWORD PTR nu$[rbp], rax

; 1319 :     NUMBER_HEADER* nw;
; 1320 :     if ((result = CheckNumber(nu)) != PMC_STATUS_OK)

	mov	rcx, QWORD PTR nu$[rbp]
	call	CheckNumber
	mov	DWORD PTR result$[rbp], eax
	cmp	DWORD PTR result$[rbp], 0
	je	SHORT $LN5@PMC_Subtru

; 1321 :         return (result);

	mov	eax, DWORD PTR result$[rbp]
	jmp	$LN1@PMC_Subtru
$LN5@PMC_Subtru:

; 1322 :     char v_is_zero;
; 1323 :     if ((result = IsZero_UINT(v, &v_is_zero)) != PMC_STATUS_OK)

	lea	rdx, QWORD PTR v_is_zero$[rbp]
	mov	rcx, QWORD PTR v$[rbp]
	call	IsZero_UINT
	mov	DWORD PTR result$[rbp], eax
	cmp	DWORD PTR result$[rbp], 0
	je	SHORT $LN6@PMC_Subtru

; 1324 :         return (result);

	mov	eax, DWORD PTR result$[rbp]
	jmp	$LN1@PMC_Subtru
$LN6@PMC_Subtru:

; 1325 :     if (nu->SIGN == 0)

	mov	rax, QWORD PTR nu$[rbp]
	movsx	eax, BYTE PTR [rax+16]
	test	eax, eax
	jne	SHORT $LN7@PMC_Subtru

; 1326 :     {
; 1327 :         // u == 0 ÇÃèÍçá
; 1328 : 
; 1329 :         if (v_is_zero)

	movsx	eax, BYTE PTR v_is_zero$[rbp]
	test	eax, eax
	je	SHORT $LN9@PMC_Subtru

; 1330 :         {
; 1331 :             // v == 0 ÇÃèÍçá
; 1332 : 
; 1333 :             // 0 Çï‘Ç∑
; 1334 :             nw = &number_zero;

	lea	rax, OFFSET FLAT:number_zero
	mov	QWORD PTR nw$[rbp], rax

; 1335 :         }

	jmp	SHORT $LN10@PMC_Subtru
$LN9@PMC_Subtru:

; 1336 :         else
; 1337 :         {
; 1338 :             // v > 0 ÇÃèÍçá
; 1339 : 
; 1340 :             // -v Çï‘Ç∑
; 1341 :             PMC_HANDLE_UINT new_v;
; 1342 :             if ((result = ep_uint.Clone_X(v, &new_v)) != PMC_STATUS_OK)

	lea	rdx, QWORD PTR new_v$6[rbp]
	mov	rcx, QWORD PTR v$[rbp]
	call	QWORD PTR ep_uint+88
	mov	DWORD PTR result$[rbp], eax
	cmp	DWORD PTR result$[rbp], 0
	je	SHORT $LN11@PMC_Subtru

; 1343 :                 return (result);

	mov	eax, DWORD PTR result$[rbp]
	jmp	$LN1@PMC_Subtru
$LN11@PMC_Subtru:

; 1344 :             if ((result = AllocateNumber(&nw, -1, new_v)) != PMC_STATUS_OK)

	mov	r8, QWORD PTR new_v$6[rbp]
	mov	dl, -1
	lea	rcx, QWORD PTR nw$[rbp]
	call	AllocateNumber
	mov	DWORD PTR result$[rbp], eax
	cmp	DWORD PTR result$[rbp], 0
	je	SHORT $LN12@PMC_Subtru

; 1345 :             {
; 1346 :                 ep_uint.Dispose(new_v);

	mov	rcx, QWORD PTR new_v$6[rbp]
	call	QWORD PTR ep_uint+32

; 1347 :                 return (result);

	mov	eax, DWORD PTR result$[rbp]
	jmp	$LN1@PMC_Subtru
$LN12@PMC_Subtru:
$LN10@PMC_Subtru:

; 1348 :             }
; 1349 :         }
; 1350 : 
; 1351 :     }

	jmp	$LN8@PMC_Subtru
$LN7@PMC_Subtru:

; 1352 :     else if (nu->SIGN > 0)

	mov	rax, QWORD PTR nu$[rbp]
	movsx	eax, BYTE PTR [rax+16]
	test	eax, eax
	jle	SHORT $LN13@PMC_Subtru

; 1353 :     {
; 1354 :         // u > 0 ÇÃèÍçá
; 1355 : 
; 1356 :         if (v_is_zero)

	movsx	eax, BYTE PTR v_is_zero$[rbp]
	test	eax, eax
	je	SHORT $LN15@PMC_Subtru

; 1357 :         {
; 1358 :             // v == 0 ÇÃèÍçá
; 1359 : 
; 1360 :             // u Çï‘Ç∑
; 1361 :             if ((result = DuplicateNumber(nu, &nw)) != PMC_STATUS_OK)

	lea	rdx, QWORD PTR nw$[rbp]
	mov	rcx, QWORD PTR nu$[rbp]
	call	DuplicateNumber
	mov	DWORD PTR result$[rbp], eax
	cmp	DWORD PTR result$[rbp], 0
	je	SHORT $LN17@PMC_Subtru

; 1362 :                 return (result);

	mov	eax, DWORD PTR result$[rbp]
	jmp	$LN1@PMC_Subtru
$LN17@PMC_Subtru:

; 1363 :         }

	jmp	SHORT $LN16@PMC_Subtru
$LN15@PMC_Subtru:

; 1364 :         else
; 1365 :         {
; 1366 :             // v > 0 ÇÃèÍçá
; 1367 : 
; 1368 :             // abs(u) - v Çï‘Ç∑
; 1369 :             if ((result = SubtructU_X_X_Imp(1, nu->ABS, v, &nw)) != PMC_STATUS_OK)

	lea	r9, QWORD PTR nw$[rbp]
	mov	r8, QWORD PTR v$[rbp]
	mov	rax, QWORD PTR nu$[rbp]
	mov	rdx, QWORD PTR [rax+8]
	mov	cl, 1
	call	SubtructU_X_X_Imp
	mov	DWORD PTR result$[rbp], eax
	cmp	DWORD PTR result$[rbp], 0
	je	SHORT $LN18@PMC_Subtru

; 1370 :                 return (result);

	mov	eax, DWORD PTR result$[rbp]
	jmp	SHORT $LN1@PMC_Subtru
$LN18@PMC_Subtru:
$LN16@PMC_Subtru:

; 1371 :         }
; 1372 : 
; 1373 :     }

	jmp	SHORT $LN14@PMC_Subtru
$LN13@PMC_Subtru:

; 1374 :     else
; 1375 :     {
; 1376 :         // u < 0 ÇÃèÍçá
; 1377 : 
; 1378 :         if (v_is_zero)

	movsx	eax, BYTE PTR v_is_zero$[rbp]
	test	eax, eax
	je	SHORT $LN19@PMC_Subtru

; 1379 :         {
; 1380 :             // v == 0 ÇÃèÍçá
; 1381 : 
; 1382 :             // u Çï‘Ç∑
; 1383 :             if ((result = DuplicateNumber(nu, &nw)) != PMC_STATUS_OK)

	lea	rdx, QWORD PTR nw$[rbp]
	mov	rcx, QWORD PTR nu$[rbp]
	call	DuplicateNumber
	mov	DWORD PTR result$[rbp], eax
	cmp	DWORD PTR result$[rbp], 0
	je	SHORT $LN21@PMC_Subtru

; 1384 :                 return (result);

	mov	eax, DWORD PTR result$[rbp]
	jmp	SHORT $LN1@PMC_Subtru
$LN21@PMC_Subtru:

; 1385 :         }

	jmp	SHORT $LN20@PMC_Subtru
$LN19@PMC_Subtru:

; 1386 :         else
; 1387 :         {
; 1388 :             // v > 0 ÇÃèÍçá
; 1389 : 
; 1390 :             // - abs(u) - v ÇåvéZÇ∑ÇÈ
; 1391 :             if ((result = AddU_X_X_Imp(-1, nu->ABS, v, &nw)) != PMC_STATUS_OK)

	lea	r9, QWORD PTR nw$[rbp]
	mov	r8, QWORD PTR v$[rbp]
	mov	rax, QWORD PTR nu$[rbp]
	mov	rdx, QWORD PTR [rax+8]
	mov	cl, -1
	call	AddU_X_X_Imp
	mov	DWORD PTR result$[rbp], eax
	cmp	DWORD PTR result$[rbp], 0
	je	SHORT $LN22@PMC_Subtru

; 1392 :                 return (result);

	mov	eax, DWORD PTR result$[rbp]
	jmp	SHORT $LN1@PMC_Subtru
$LN22@PMC_Subtru:
$LN20@PMC_Subtru:
$LN14@PMC_Subtru:
$LN8@PMC_Subtru:

; 1393 :         }
; 1394 :     }
; 1395 :     *w = (PMC_HANDLE_SINT)nw;

	mov	rax, QWORD PTR w$[rbp]
	mov	rcx, QWORD PTR nw$[rbp]
	mov	QWORD PTR [rax], rcx

; 1396 :     return (PMC_STATUS_OK);

	xor	eax, eax
$LN1@PMC_Subtru:

; 1397 : }

	mov	rdi, rax
	lea	rcx, QWORD PTR [rbp-32]
	lea	rdx, OFFSET FLAT:PMC_Subtruct_X_UX$rtcFrameData
	call	_RTC_CheckStackVars
	mov	rax, rdi
	mov	rcx, QWORD PTR __$ArrayPad$[rbp]
	xor	rcx, rbp
	call	__security_check_cookie
	lea	rsp, QWORD PTR [rbp+360]
	pop	rdi
	pop	rbp
	ret	0
PMC_Subtruct_X_UX ENDP
_TEXT	ENDS
; Function compile flags: /Odtp /RTCsu /ZI
; File z:\sources\lunor\repos\rougemeilland\palmtree.math.core.sint\palmtree.math.core.sint\pmc_add_sub.c
;	COMDAT PMC_Subtruct_X_L
_TEXT	SEGMENT
result$ = 4
nu$ = 40
nw$ = 72
v_sign$ = 100
v_abs$ = 136
__$ArrayPad$ = 344
u$ = 384
v$ = 392
w$ = 400
PMC_Subtruct_X_L PROC					; COMDAT

; 1215 : {

$LN27:
	mov	QWORD PTR [rsp+24], r8
	mov	QWORD PTR [rsp+16], rdx
	mov	QWORD PTR [rsp+8], rcx
	push	rbp
	push	rdi
	sub	rsp, 392				; 00000188H
	lea	rbp, QWORD PTR [rsp+32]
	mov	rdi, rsp
	mov	ecx, 98					; 00000062H
	mov	eax, -858993460				; ccccccccH
	rep stosd
	mov	rcx, QWORD PTR [rsp+424]
	mov	rax, QWORD PTR __security_cookie
	xor	rax, rbp
	mov	QWORD PTR __$ArrayPad$[rbp], rax
	lea	rcx, OFFSET FLAT:__5A8189A9_pmc_add_sub@c
	call	__CheckForDebuggerJustMyCode

; 1216 :     if (u == NULL)

	cmp	QWORD PTR u$[rbp], 0
	jne	SHORT $LN2@PMC_Subtru

; 1217 :         return (PMC_STATUS_ARGUMENT_ERROR);

	mov	eax, -1
	jmp	$LN1@PMC_Subtru
$LN2@PMC_Subtru:

; 1218 :     if (w == NULL)

	cmp	QWORD PTR w$[rbp], 0
	jne	SHORT $LN3@PMC_Subtru

; 1219 :         return (PMC_STATUS_ARGUMENT_ERROR);

	mov	eax, -1
	jmp	$LN1@PMC_Subtru
$LN3@PMC_Subtru:

; 1220 :     PMC_STATUS_CODE result;
; 1221 :     NUMBER_HEADER* nu = (NUMBER_HEADER*)u;

	mov	rax, QWORD PTR u$[rbp]
	mov	QWORD PTR nu$[rbp], rax

; 1222 :     NUMBER_HEADER* nw;
; 1223 :     if ((result = CheckNumber(nu)) != PMC_STATUS_OK)

	mov	rcx, QWORD PTR nu$[rbp]
	call	CheckNumber
	mov	DWORD PTR result$[rbp], eax
	cmp	DWORD PTR result$[rbp], 0
	je	SHORT $LN4@PMC_Subtru

; 1224 :         return (result);

	mov	eax, DWORD PTR result$[rbp]
	jmp	$LN1@PMC_Subtru
$LN4@PMC_Subtru:

; 1225 :     char v_sign;
; 1226 :     _UINT64_T v_abs = GET_ABS_64(v, &v_sign);

	lea	rdx, QWORD PTR v_sign$[rbp]
	mov	rcx, QWORD PTR v$[rbp]
	call	GET_ABS_64
	mov	QWORD PTR v_abs$[rbp], rax

; 1227 :     if (nu->SIGN == 0)

	mov	rax, QWORD PTR nu$[rbp]
	movsx	eax, BYTE PTR [rax+16]
	test	eax, eax
	jne	SHORT $LN5@PMC_Subtru

; 1228 :     {
; 1229 :         // u == 0 ÇÃèÍçá
; 1230 : 
; 1231 :         if (v_sign == 0)

	movsx	eax, BYTE PTR v_sign$[rbp]
	test	eax, eax
	jne	SHORT $LN7@PMC_Subtru

; 1232 :         {
; 1233 :             // v == 0 ÇÃèÍçá
; 1234 : 
; 1235 :             // 0 Çï‘Ç∑
; 1236 :             nw = &number_zero;

	lea	rax, OFFSET FLAT:number_zero
	mov	QWORD PTR nw$[rbp], rax

; 1237 :         }

	jmp	SHORT $LN8@PMC_Subtru
$LN7@PMC_Subtru:

; 1238 :         else
; 1239 :         {
; 1240 :             // v != 0 ÇÃèÍçá
; 1241 : 
; 1242 :             // -v Çï‘Ç∑
; 1243 :             if ((result = From_L_Imp(-v_sign, v_abs, &nw)) != PMC_STATUS_OK)

	movsx	eax, BYTE PTR v_sign$[rbp]
	neg	eax
	lea	r8, QWORD PTR nw$[rbp]
	mov	rdx, QWORD PTR v_abs$[rbp]
	movzx	ecx, al
	call	From_L_Imp
	mov	DWORD PTR result$[rbp], eax
	cmp	DWORD PTR result$[rbp], 0
	je	SHORT $LN9@PMC_Subtru

; 1244 :                 return (result);

	mov	eax, DWORD PTR result$[rbp]
	jmp	$LN1@PMC_Subtru
$LN9@PMC_Subtru:
$LN8@PMC_Subtru:

; 1245 :         }
; 1246 :     }

	jmp	$LN6@PMC_Subtru
$LN5@PMC_Subtru:

; 1247 :     else if (nu->SIGN > 0)

	mov	rax, QWORD PTR nu$[rbp]
	movsx	eax, BYTE PTR [rax+16]
	test	eax, eax
	jle	$LN10@PMC_Subtru

; 1248 :     {
; 1249 :         // u > 0 ÇÃèÍçá
; 1250 : 
; 1251 :         if (v_sign == 0)

	movsx	eax, BYTE PTR v_sign$[rbp]
	test	eax, eax
	jne	SHORT $LN12@PMC_Subtru

; 1252 :         {
; 1253 :             // v == 0 ÇÃèÍçá
; 1254 : 
; 1255 :             // u Çï‘Ç∑
; 1256 :             if ((result = DuplicateNumber(nu, &nw)) != PMC_STATUS_OK)

	lea	rdx, QWORD PTR nw$[rbp]
	mov	rcx, QWORD PTR nu$[rbp]
	call	DuplicateNumber
	mov	DWORD PTR result$[rbp], eax
	cmp	DWORD PTR result$[rbp], 0
	je	SHORT $LN14@PMC_Subtru

; 1257 :                 return (result);

	mov	eax, DWORD PTR result$[rbp]
	jmp	$LN1@PMC_Subtru
$LN14@PMC_Subtru:

; 1258 :         }

	jmp	SHORT $LN13@PMC_Subtru
$LN12@PMC_Subtru:

; 1259 :         else if (v_sign > 0)

	movsx	eax, BYTE PTR v_sign$[rbp]
	test	eax, eax
	jle	SHORT $LN15@PMC_Subtru

; 1260 :         {
; 1261 :             // v > 0 ÇÃèÍçá
; 1262 : 
; 1263 :             // abs(u) - abs(v) Çï‘Ç∑
; 1264 :             if ((result = SubtructU_X_L_Imp(1, nu->ABS, v_abs, &nw)) != PMC_STATUS_OK)

	lea	r9, QWORD PTR nw$[rbp]
	mov	r8, QWORD PTR v_abs$[rbp]
	mov	rax, QWORD PTR nu$[rbp]
	mov	rdx, QWORD PTR [rax+8]
	mov	cl, 1
	call	SubtructU_X_L_Imp
	mov	DWORD PTR result$[rbp], eax
	cmp	DWORD PTR result$[rbp], 0
	je	SHORT $LN17@PMC_Subtru

; 1265 :                 return (result);

	mov	eax, DWORD PTR result$[rbp]
	jmp	$LN1@PMC_Subtru
$LN17@PMC_Subtru:

; 1266 :         }

	jmp	SHORT $LN16@PMC_Subtru
$LN15@PMC_Subtru:

; 1267 :         else
; 1268 :         {
; 1269 :             // v < 0 ÇÃèÍçá
; 1270 : 
; 1271 :             // abs(u) + abs(v) ÇåvéZÇ∑ÇÈ
; 1272 :             if ((result = AddU_X_L_Imp(1, nu->ABS, v_abs, &nw)) != PMC_STATUS_OK)

	lea	r9, QWORD PTR nw$[rbp]
	mov	r8, QWORD PTR v_abs$[rbp]
	mov	rax, QWORD PTR nu$[rbp]
	mov	rdx, QWORD PTR [rax+8]
	mov	cl, 1
	call	AddU_X_L_Imp
	mov	DWORD PTR result$[rbp], eax
	cmp	DWORD PTR result$[rbp], 0
	je	SHORT $LN18@PMC_Subtru

; 1273 :                 return (result);

	mov	eax, DWORD PTR result$[rbp]
	jmp	$LN1@PMC_Subtru
$LN18@PMC_Subtru:
$LN16@PMC_Subtru:
$LN13@PMC_Subtru:

; 1274 :         }
; 1275 :     }

	jmp	SHORT $LN11@PMC_Subtru
$LN10@PMC_Subtru:

; 1276 :     else
; 1277 :     {
; 1278 :         // u < 0 ÇÃèÍçá
; 1279 : 
; 1280 :         if (v_sign == 0)

	movsx	eax, BYTE PTR v_sign$[rbp]
	test	eax, eax
	jne	SHORT $LN19@PMC_Subtru

; 1281 :         {
; 1282 :             // v == 0 ÇÃèÍçá
; 1283 : 
; 1284 :             // u Çï‘Ç∑
; 1285 :             if ((result = DuplicateNumber(nu, &nw)) != PMC_STATUS_OK)

	lea	rdx, QWORD PTR nw$[rbp]
	mov	rcx, QWORD PTR nu$[rbp]
	call	DuplicateNumber
	mov	DWORD PTR result$[rbp], eax
	cmp	DWORD PTR result$[rbp], 0
	je	SHORT $LN21@PMC_Subtru

; 1286 :                 return (result);

	mov	eax, DWORD PTR result$[rbp]
	jmp	SHORT $LN1@PMC_Subtru
$LN21@PMC_Subtru:

; 1287 :         }

	jmp	SHORT $LN20@PMC_Subtru
$LN19@PMC_Subtru:

; 1288 :         else if (v_sign > 0)

	movsx	eax, BYTE PTR v_sign$[rbp]
	test	eax, eax
	jle	SHORT $LN22@PMC_Subtru

; 1289 :         {
; 1290 :             // v > 0 ÇÃèÍçá
; 1291 : 
; 1292 :             // - abs(u) - abs(v) ÇåvéZÇ∑ÇÈ
; 1293 :             if ((result = AddU_X_L_Imp(-1, nu->ABS, v_abs, &nw)) != PMC_STATUS_OK)

	lea	r9, QWORD PTR nw$[rbp]
	mov	r8, QWORD PTR v_abs$[rbp]
	mov	rax, QWORD PTR nu$[rbp]
	mov	rdx, QWORD PTR [rax+8]
	mov	cl, -1
	call	AddU_X_L_Imp
	mov	DWORD PTR result$[rbp], eax
	cmp	DWORD PTR result$[rbp], 0
	je	SHORT $LN24@PMC_Subtru

; 1294 :                 return (result);

	mov	eax, DWORD PTR result$[rbp]
	jmp	SHORT $LN1@PMC_Subtru
$LN24@PMC_Subtru:

; 1295 :         }

	jmp	SHORT $LN23@PMC_Subtru
$LN22@PMC_Subtru:

; 1296 :         else
; 1297 :         {
; 1298 :             // v < 0 ÇÃèÍçá
; 1299 : 
; 1300 :             // - abs(u) + abs(v) Çï‘Ç∑
; 1301 :             if ((result = SubtructU_X_L_Imp(-1, nu->ABS, v_abs, &nw)) != PMC_STATUS_OK)

	lea	r9, QWORD PTR nw$[rbp]
	mov	r8, QWORD PTR v_abs$[rbp]
	mov	rax, QWORD PTR nu$[rbp]
	mov	rdx, QWORD PTR [rax+8]
	mov	cl, -1
	call	SubtructU_X_L_Imp
	mov	DWORD PTR result$[rbp], eax
	cmp	DWORD PTR result$[rbp], 0
	je	SHORT $LN25@PMC_Subtru

; 1302 :                 return (result);

	mov	eax, DWORD PTR result$[rbp]
	jmp	SHORT $LN1@PMC_Subtru
$LN25@PMC_Subtru:
$LN23@PMC_Subtru:
$LN20@PMC_Subtru:
$LN11@PMC_Subtru:
$LN6@PMC_Subtru:

; 1303 :         }
; 1304 :     }
; 1305 :     *w = (PMC_HANDLE_SINT)nw;

	mov	rax, QWORD PTR w$[rbp]
	mov	rcx, QWORD PTR nw$[rbp]
	mov	QWORD PTR [rax], rcx

; 1306 :     return (PMC_STATUS_OK);

	xor	eax, eax
$LN1@PMC_Subtru:

; 1307 : }

	mov	rdi, rax
	lea	rcx, QWORD PTR [rbp-32]
	lea	rdx, OFFSET FLAT:PMC_Subtruct_X_L$rtcFrameData
	call	_RTC_CheckStackVars
	mov	rax, rdi
	mov	rcx, QWORD PTR __$ArrayPad$[rbp]
	xor	rcx, rbp
	call	__security_check_cookie
	lea	rsp, QWORD PTR [rbp+360]
	pop	rdi
	pop	rbp
	ret	0
PMC_Subtruct_X_L ENDP
_TEXT	ENDS
; Function compile flags: /Odtp /RTCsu /ZI
; File z:\sources\lunor\repos\rougemeilland\palmtree.math.core.sint\palmtree.math.core.sint\pmc_add_sub.c
;	COMDAT PMC_Subtruct_X_I
_TEXT	SEGMENT
result$ = 4
nu$ = 40
nw$ = 72
v_sign$ = 100
v_abs$ = 132
__$ArrayPad$ = 344
u$ = 384
v$ = 392
w$ = 400
PMC_Subtruct_X_I PROC					; COMDAT

; 1120 : {

$LN27:
	mov	QWORD PTR [rsp+24], r8
	mov	DWORD PTR [rsp+16], edx
	mov	QWORD PTR [rsp+8], rcx
	push	rbp
	push	rdi
	sub	rsp, 392				; 00000188H
	lea	rbp, QWORD PTR [rsp+32]
	mov	rdi, rsp
	mov	ecx, 98					; 00000062H
	mov	eax, -858993460				; ccccccccH
	rep stosd
	mov	rcx, QWORD PTR [rsp+424]
	mov	rax, QWORD PTR __security_cookie
	xor	rax, rbp
	mov	QWORD PTR __$ArrayPad$[rbp], rax
	lea	rcx, OFFSET FLAT:__5A8189A9_pmc_add_sub@c
	call	__CheckForDebuggerJustMyCode

; 1121 :     if (u == NULL)

	cmp	QWORD PTR u$[rbp], 0
	jne	SHORT $LN2@PMC_Subtru

; 1122 :         return (PMC_STATUS_ARGUMENT_ERROR);

	mov	eax, -1
	jmp	$LN1@PMC_Subtru
$LN2@PMC_Subtru:

; 1123 :     if (w == NULL)

	cmp	QWORD PTR w$[rbp], 0
	jne	SHORT $LN3@PMC_Subtru

; 1124 :         return (PMC_STATUS_ARGUMENT_ERROR);

	mov	eax, -1
	jmp	$LN1@PMC_Subtru
$LN3@PMC_Subtru:

; 1125 :     PMC_STATUS_CODE result;
; 1126 :     NUMBER_HEADER* nu = (NUMBER_HEADER*)u;

	mov	rax, QWORD PTR u$[rbp]
	mov	QWORD PTR nu$[rbp], rax

; 1127 :     NUMBER_HEADER* nw;
; 1128 :     if ((result = CheckNumber(nu)) != PMC_STATUS_OK)

	mov	rcx, QWORD PTR nu$[rbp]
	call	CheckNumber
	mov	DWORD PTR result$[rbp], eax
	cmp	DWORD PTR result$[rbp], 0
	je	SHORT $LN4@PMC_Subtru

; 1129 :         return (result);

	mov	eax, DWORD PTR result$[rbp]
	jmp	$LN1@PMC_Subtru
$LN4@PMC_Subtru:

; 1130 :     char v_sign;
; 1131 :     _UINT32_T v_abs = GET_ABS_32(v, &v_sign);

	lea	rdx, QWORD PTR v_sign$[rbp]
	mov	ecx, DWORD PTR v$[rbp]
	call	GET_ABS_32
	mov	DWORD PTR v_abs$[rbp], eax

; 1132 :     if (nu->SIGN == 0)

	mov	rax, QWORD PTR nu$[rbp]
	movsx	eax, BYTE PTR [rax+16]
	test	eax, eax
	jne	SHORT $LN5@PMC_Subtru

; 1133 :     {
; 1134 :         // u == 0 ÇÃèÍçá
; 1135 : 
; 1136 :         if (v_sign == 0)

	movsx	eax, BYTE PTR v_sign$[rbp]
	test	eax, eax
	jne	SHORT $LN7@PMC_Subtru

; 1137 :         {
; 1138 :             // v == 0 ÇÃèÍçá
; 1139 : 
; 1140 :             // 0 Çï‘Ç∑
; 1141 :             nw = &number_zero;

	lea	rax, OFFSET FLAT:number_zero
	mov	QWORD PTR nw$[rbp], rax

; 1142 :         }

	jmp	SHORT $LN8@PMC_Subtru
$LN7@PMC_Subtru:

; 1143 :         else
; 1144 :         {
; 1145 :             // v != 0 ÇÃèÍçá
; 1146 : 
; 1147 :             // -v Çï‘Ç∑
; 1148 :             if ((result = From_I_Imp(-v_sign, v_abs, &nw)) != PMC_STATUS_OK)

	movsx	eax, BYTE PTR v_sign$[rbp]
	neg	eax
	lea	r8, QWORD PTR nw$[rbp]
	mov	edx, DWORD PTR v_abs$[rbp]
	movzx	ecx, al
	call	From_I_Imp
	mov	DWORD PTR result$[rbp], eax
	cmp	DWORD PTR result$[rbp], 0
	je	SHORT $LN9@PMC_Subtru

; 1149 :                 return (result);

	mov	eax, DWORD PTR result$[rbp]
	jmp	$LN1@PMC_Subtru
$LN9@PMC_Subtru:
$LN8@PMC_Subtru:

; 1150 :         }
; 1151 :     }

	jmp	$LN6@PMC_Subtru
$LN5@PMC_Subtru:

; 1152 :     else if (nu->SIGN > 0)

	mov	rax, QWORD PTR nu$[rbp]
	movsx	eax, BYTE PTR [rax+16]
	test	eax, eax
	jle	$LN10@PMC_Subtru

; 1153 :     {
; 1154 :         // u > 0 ÇÃèÍçá
; 1155 : 
; 1156 :         if (v_sign == 0)

	movsx	eax, BYTE PTR v_sign$[rbp]
	test	eax, eax
	jne	SHORT $LN12@PMC_Subtru

; 1157 :         {
; 1158 :             // v == 0 ÇÃèÍçá
; 1159 : 
; 1160 :             // u Çï‘Ç∑
; 1161 :             if ((result = DuplicateNumber(nu, &nw)) != PMC_STATUS_OK)

	lea	rdx, QWORD PTR nw$[rbp]
	mov	rcx, QWORD PTR nu$[rbp]
	call	DuplicateNumber
	mov	DWORD PTR result$[rbp], eax
	cmp	DWORD PTR result$[rbp], 0
	je	SHORT $LN14@PMC_Subtru

; 1162 :                 return (result);

	mov	eax, DWORD PTR result$[rbp]
	jmp	$LN1@PMC_Subtru
$LN14@PMC_Subtru:

; 1163 :         }

	jmp	SHORT $LN13@PMC_Subtru
$LN12@PMC_Subtru:

; 1164 :         else if (v_sign > 0)

	movsx	eax, BYTE PTR v_sign$[rbp]
	test	eax, eax
	jle	SHORT $LN15@PMC_Subtru

; 1165 :         {
; 1166 :             // v > 0 ÇÃèÍçá
; 1167 : 
; 1168 :             // abs(u) - abs(v) Çï‘Ç∑
; 1169 :             if ((result = SubtructU_X_I_Imp(1, nu->ABS, v_abs, &nw)) != PMC_STATUS_OK)

	lea	r9, QWORD PTR nw$[rbp]
	mov	r8d, DWORD PTR v_abs$[rbp]
	mov	rax, QWORD PTR nu$[rbp]
	mov	rdx, QWORD PTR [rax+8]
	mov	cl, 1
	call	SubtructU_X_I_Imp
	mov	DWORD PTR result$[rbp], eax
	cmp	DWORD PTR result$[rbp], 0
	je	SHORT $LN17@PMC_Subtru

; 1170 :                 return (result);

	mov	eax, DWORD PTR result$[rbp]
	jmp	$LN1@PMC_Subtru
$LN17@PMC_Subtru:

; 1171 :         }

	jmp	SHORT $LN16@PMC_Subtru
$LN15@PMC_Subtru:

; 1172 :         else
; 1173 :         {
; 1174 :             // v < 0 ÇÃèÍçá
; 1175 : 
; 1176 :             // abs(u) + abs(v) ÇåvéZÇ∑ÇÈ
; 1177 :             if ((result = AddU_X_I_Imp(1, nu->ABS, v_abs, &nw)) != PMC_STATUS_OK)

	lea	r9, QWORD PTR nw$[rbp]
	mov	r8d, DWORD PTR v_abs$[rbp]
	mov	rax, QWORD PTR nu$[rbp]
	mov	rdx, QWORD PTR [rax+8]
	mov	cl, 1
	call	AddU_X_I_Imp
	mov	DWORD PTR result$[rbp], eax
	cmp	DWORD PTR result$[rbp], 0
	je	SHORT $LN18@PMC_Subtru

; 1178 :                 return (result);

	mov	eax, DWORD PTR result$[rbp]
	jmp	$LN1@PMC_Subtru
$LN18@PMC_Subtru:
$LN16@PMC_Subtru:
$LN13@PMC_Subtru:

; 1179 :         }
; 1180 :     }

	jmp	SHORT $LN11@PMC_Subtru
$LN10@PMC_Subtru:

; 1181 :     else
; 1182 :     {
; 1183 :         // u < 0 ÇÃèÍçá
; 1184 : 
; 1185 :         if (v_sign == 0)

	movsx	eax, BYTE PTR v_sign$[rbp]
	test	eax, eax
	jne	SHORT $LN19@PMC_Subtru

; 1186 :         {
; 1187 :             // v == 0 ÇÃèÍçá
; 1188 : 
; 1189 :             // u Çï‘Ç∑
; 1190 :             if ((result = DuplicateNumber(nu, &nw)) != PMC_STATUS_OK)

	lea	rdx, QWORD PTR nw$[rbp]
	mov	rcx, QWORD PTR nu$[rbp]
	call	DuplicateNumber
	mov	DWORD PTR result$[rbp], eax
	cmp	DWORD PTR result$[rbp], 0
	je	SHORT $LN21@PMC_Subtru

; 1191 :                 return (result);

	mov	eax, DWORD PTR result$[rbp]
	jmp	SHORT $LN1@PMC_Subtru
$LN21@PMC_Subtru:

; 1192 :         }

	jmp	SHORT $LN20@PMC_Subtru
$LN19@PMC_Subtru:

; 1193 :         else if (v_sign > 0)

	movsx	eax, BYTE PTR v_sign$[rbp]
	test	eax, eax
	jle	SHORT $LN22@PMC_Subtru

; 1194 :         {
; 1195 :             // v > 0 ÇÃèÍçá
; 1196 : 
; 1197 :             // - abs(u) - abs(v) ÇåvéZÇ∑ÇÈ
; 1198 :             if ((result = AddU_X_I_Imp(-1, nu->ABS, v_abs, &nw)) != PMC_STATUS_OK)

	lea	r9, QWORD PTR nw$[rbp]
	mov	r8d, DWORD PTR v_abs$[rbp]
	mov	rax, QWORD PTR nu$[rbp]
	mov	rdx, QWORD PTR [rax+8]
	mov	cl, -1
	call	AddU_X_I_Imp
	mov	DWORD PTR result$[rbp], eax
	cmp	DWORD PTR result$[rbp], 0
	je	SHORT $LN24@PMC_Subtru

; 1199 :                 return (result);

	mov	eax, DWORD PTR result$[rbp]
	jmp	SHORT $LN1@PMC_Subtru
$LN24@PMC_Subtru:

; 1200 :         }

	jmp	SHORT $LN23@PMC_Subtru
$LN22@PMC_Subtru:

; 1201 :         else
; 1202 :         {
; 1203 :             // v < 0 ÇÃèÍçá
; 1204 : 
; 1205 :             // - abs(u) + abs(v) Çï‘Ç∑
; 1206 :             if ((result = SubtructU_X_I_Imp(-1, nu->ABS, v_abs, &nw)) != PMC_STATUS_OK)

	lea	r9, QWORD PTR nw$[rbp]
	mov	r8d, DWORD PTR v_abs$[rbp]
	mov	rax, QWORD PTR nu$[rbp]
	mov	rdx, QWORD PTR [rax+8]
	mov	cl, -1
	call	SubtructU_X_I_Imp
	mov	DWORD PTR result$[rbp], eax
	cmp	DWORD PTR result$[rbp], 0
	je	SHORT $LN25@PMC_Subtru

; 1207 :                 return (result);

	mov	eax, DWORD PTR result$[rbp]
	jmp	SHORT $LN1@PMC_Subtru
$LN25@PMC_Subtru:
$LN23@PMC_Subtru:
$LN20@PMC_Subtru:
$LN11@PMC_Subtru:
$LN6@PMC_Subtru:

; 1208 :         }
; 1209 :     }
; 1210 :     *w = (PMC_HANDLE_SINT)nw;

	mov	rax, QWORD PTR w$[rbp]
	mov	rcx, QWORD PTR nw$[rbp]
	mov	QWORD PTR [rax], rcx

; 1211 :     return (PMC_STATUS_OK);

	xor	eax, eax
$LN1@PMC_Subtru:

; 1212 : }

	mov	rdi, rax
	lea	rcx, QWORD PTR [rbp-32]
	lea	rdx, OFFSET FLAT:PMC_Subtruct_X_I$rtcFrameData
	call	_RTC_CheckStackVars
	mov	rax, rdi
	mov	rcx, QWORD PTR __$ArrayPad$[rbp]
	xor	rcx, rbp
	call	__security_check_cookie
	lea	rsp, QWORD PTR [rbp+360]
	pop	rdi
	pop	rbp
	ret	0
PMC_Subtruct_X_I ENDP
_TEXT	ENDS
; Function compile flags: /Odtp /RTCsu /ZI
; File z:\sources\lunor\repos\rougemeilland\palmtree.math.core.sint\palmtree.math.core.sint\pmc_add_sub.c
;	COMDAT PMC_Subtruct_UX_X
_TEXT	SEGMENT
result$ = 4
nv$ = 40
nw$ = 72
u_is_zero$ = 100
new_u$6 = 136
__$ArrayPad$ = 344
u$ = 384
v$ = 392
w$ = 400
PMC_Subtruct_UX_X PROC					; COMDAT

; 1045 : {

$LN21:
	mov	QWORD PTR [rsp+24], r8
	mov	QWORD PTR [rsp+16], rdx
	mov	QWORD PTR [rsp+8], rcx
	push	rbp
	push	rdi
	sub	rsp, 392				; 00000188H
	lea	rbp, QWORD PTR [rsp+32]
	mov	rdi, rsp
	mov	ecx, 98					; 00000062H
	mov	eax, -858993460				; ccccccccH
	rep stosd
	mov	rcx, QWORD PTR [rsp+424]
	mov	rax, QWORD PTR __security_cookie
	xor	rax, rbp
	mov	QWORD PTR __$ArrayPad$[rbp], rax
	lea	rcx, OFFSET FLAT:__5A8189A9_pmc_add_sub@c
	call	__CheckForDebuggerJustMyCode

; 1046 :     if (u == NULL)

	cmp	QWORD PTR u$[rbp], 0
	jne	SHORT $LN2@PMC_Subtru

; 1047 :         return (PMC_STATUS_ARGUMENT_ERROR);

	mov	eax, -1
	jmp	$LN1@PMC_Subtru
$LN2@PMC_Subtru:

; 1048 :     if (v == NULL)

	cmp	QWORD PTR v$[rbp], 0
	jne	SHORT $LN3@PMC_Subtru

; 1049 :         return (PMC_STATUS_ARGUMENT_ERROR);

	mov	eax, -1
	jmp	$LN1@PMC_Subtru
$LN3@PMC_Subtru:

; 1050 :     if (w == NULL)

	cmp	QWORD PTR w$[rbp], 0
	jne	SHORT $LN4@PMC_Subtru

; 1051 :         return (PMC_STATUS_ARGUMENT_ERROR);

	mov	eax, -1
	jmp	$LN1@PMC_Subtru
$LN4@PMC_Subtru:

; 1052 :     PMC_STATUS_CODE result;
; 1053 :     NUMBER_HEADER* nv = (NUMBER_HEADER*)v;

	mov	rax, QWORD PTR v$[rbp]
	mov	QWORD PTR nv$[rbp], rax

; 1054 :     NUMBER_HEADER* nw;
; 1055 :     if ((result = CheckNumber(nv)) != PMC_STATUS_OK)

	mov	rcx, QWORD PTR nv$[rbp]
	call	CheckNumber
	mov	DWORD PTR result$[rbp], eax
	cmp	DWORD PTR result$[rbp], 0
	je	SHORT $LN5@PMC_Subtru

; 1056 :         return (result);

	mov	eax, DWORD PTR result$[rbp]
	jmp	$LN1@PMC_Subtru
$LN5@PMC_Subtru:

; 1057 :     char u_is_zero;
; 1058 :     if ((result = IsZero_UINT(u, &u_is_zero)) != PMC_STATUS_OK)

	lea	rdx, QWORD PTR u_is_zero$[rbp]
	mov	rcx, QWORD PTR u$[rbp]
	call	IsZero_UINT
	mov	DWORD PTR result$[rbp], eax
	cmp	DWORD PTR result$[rbp], 0
	je	SHORT $LN6@PMC_Subtru

; 1059 :         return (result);

	mov	eax, DWORD PTR result$[rbp]
	jmp	$LN1@PMC_Subtru
$LN6@PMC_Subtru:

; 1060 :     if (u_is_zero)

	movsx	eax, BYTE PTR u_is_zero$[rbp]
	test	eax, eax
	je	SHORT $LN7@PMC_Subtru

; 1061 :     {
; 1062 :         // u == 0 ÇÃèÍçá
; 1063 : 
; 1064 :         if (nv->SIGN == 0)

	mov	rax, QWORD PTR nv$[rbp]
	movsx	eax, BYTE PTR [rax+16]
	test	eax, eax
	jne	SHORT $LN9@PMC_Subtru

; 1065 :         {
; 1066 :             // v == 0 ÇÃèÍçá
; 1067 : 
; 1068 :             // 0 Çï‘Ç∑
; 1069 :             nw = &number_zero;

	lea	rax, OFFSET FLAT:number_zero
	mov	QWORD PTR nw$[rbp], rax

; 1070 :         }

	jmp	SHORT $LN10@PMC_Subtru
$LN9@PMC_Subtru:

; 1071 :         else
; 1072 :         {
; 1073 :             // v != 0 ÇÃèÍçá
; 1074 : 
; 1075 :             // -v Çï‘Ç∑
; 1076 :             if ((result = Negate_Imp(nv, &nw)) != PMC_STATUS_OK)

	lea	rdx, QWORD PTR nw$[rbp]
	mov	rcx, QWORD PTR nv$[rbp]
	call	Negate_Imp
	mov	DWORD PTR result$[rbp], eax
	cmp	DWORD PTR result$[rbp], 0
	je	SHORT $LN11@PMC_Subtru

; 1077 :                 return (result);

	mov	eax, DWORD PTR result$[rbp]
	jmp	$LN1@PMC_Subtru
$LN11@PMC_Subtru:
$LN10@PMC_Subtru:

; 1078 :         }
; 1079 :     }

	jmp	$LN8@PMC_Subtru
$LN7@PMC_Subtru:

; 1080 :     else
; 1081 :     {
; 1082 :         // u > 0 ÇÃèÍçá
; 1083 : 
; 1084 :         if (nv->SIGN == 0)

	mov	rax, QWORD PTR nv$[rbp]
	movsx	eax, BYTE PTR [rax+16]
	test	eax, eax
	jne	SHORT $LN12@PMC_Subtru

; 1085 :         {
; 1086 :             // v == 0 ÇÃèÍçá
; 1087 : 
; 1088 :             // u Çï‘Ç∑
; 1089 :             PMC_HANDLE_UINT new_u;
; 1090 :             if ((result = ep_uint.Clone_X(u, &new_u)) != PMC_STATUS_OK)

	lea	rdx, QWORD PTR new_u$6[rbp]
	mov	rcx, QWORD PTR u$[rbp]
	call	QWORD PTR ep_uint+88
	mov	DWORD PTR result$[rbp], eax
	cmp	DWORD PTR result$[rbp], 0
	je	SHORT $LN14@PMC_Subtru

; 1091 :                 return (result);

	mov	eax, DWORD PTR result$[rbp]
	jmp	$LN1@PMC_Subtru
$LN14@PMC_Subtru:

; 1092 :             if ((result = AllocateNumber(&nw, 1, new_u)) != PMC_STATUS_OK)

	mov	r8, QWORD PTR new_u$6[rbp]
	mov	dl, 1
	lea	rcx, QWORD PTR nw$[rbp]
	call	AllocateNumber
	mov	DWORD PTR result$[rbp], eax
	cmp	DWORD PTR result$[rbp], 0
	je	SHORT $LN15@PMC_Subtru

; 1093 :             {
; 1094 :                 ep_uint.Dispose(new_u);

	mov	rcx, QWORD PTR new_u$6[rbp]
	call	QWORD PTR ep_uint+32

; 1095 :                 return (result);

	mov	eax, DWORD PTR result$[rbp]
	jmp	SHORT $LN1@PMC_Subtru
$LN15@PMC_Subtru:

; 1096 :             }
; 1097 :         }

	jmp	SHORT $LN13@PMC_Subtru
$LN12@PMC_Subtru:

; 1098 :         else if (nv->SIGN > 0)

	mov	rax, QWORD PTR nv$[rbp]
	movsx	eax, BYTE PTR [rax+16]
	test	eax, eax
	jle	SHORT $LN16@PMC_Subtru

; 1099 :         {
; 1100 :             // u > 0 ÇÃèÍçá
; 1101 : 
; 1102 :             // u - abs(v) Çï‘Ç∑
; 1103 :             if ((result = SubtructU_X_X_Imp(1, u, nv->ABS, &nw)) != PMC_STATUS_OK)

	lea	r9, QWORD PTR nw$[rbp]
	mov	rax, QWORD PTR nv$[rbp]
	mov	r8, QWORD PTR [rax+8]
	mov	rdx, QWORD PTR u$[rbp]
	mov	cl, 1
	call	SubtructU_X_X_Imp
	mov	DWORD PTR result$[rbp], eax
	cmp	DWORD PTR result$[rbp], 0
	je	SHORT $LN18@PMC_Subtru

; 1104 :                 return (result);

	mov	eax, DWORD PTR result$[rbp]
	jmp	SHORT $LN1@PMC_Subtru
$LN18@PMC_Subtru:

; 1105 :         }

	jmp	SHORT $LN17@PMC_Subtru
$LN16@PMC_Subtru:

; 1106 :         else
; 1107 :         {
; 1108 :             // u < 0 ÇÃèÍçá
; 1109 : 
; 1110 :             // u + abs(v) ÇåvéZÇ∑ÇÈ
; 1111 :             if ((result = AddU_X_X_Imp(1, u, nv->ABS, &nw)) != PMC_STATUS_OK)

	lea	r9, QWORD PTR nw$[rbp]
	mov	rax, QWORD PTR nv$[rbp]
	mov	r8, QWORD PTR [rax+8]
	mov	rdx, QWORD PTR u$[rbp]
	mov	cl, 1
	call	AddU_X_X_Imp
	mov	DWORD PTR result$[rbp], eax
	cmp	DWORD PTR result$[rbp], 0
	je	SHORT $LN19@PMC_Subtru

; 1112 :                 return (result);

	mov	eax, DWORD PTR result$[rbp]
	jmp	SHORT $LN1@PMC_Subtru
$LN19@PMC_Subtru:
$LN17@PMC_Subtru:
$LN13@PMC_Subtru:
$LN8@PMC_Subtru:

; 1113 :         }
; 1114 :     }
; 1115 :     *w = (PMC_HANDLE_SINT)nw;

	mov	rax, QWORD PTR w$[rbp]
	mov	rcx, QWORD PTR nw$[rbp]
	mov	QWORD PTR [rax], rcx

; 1116 :     return (PMC_STATUS_OK);

	xor	eax, eax
$LN1@PMC_Subtru:

; 1117 : }

	mov	rdi, rax
	lea	rcx, QWORD PTR [rbp-32]
	lea	rdx, OFFSET FLAT:PMC_Subtruct_UX_X$rtcFrameData
	call	_RTC_CheckStackVars
	mov	rax, rdi
	mov	rcx, QWORD PTR __$ArrayPad$[rbp]
	xor	rcx, rbp
	call	__security_check_cookie
	lea	rsp, QWORD PTR [rbp+360]
	pop	rdi
	pop	rbp
	ret	0
PMC_Subtruct_UX_X ENDP
_TEXT	ENDS
; Function compile flags: /Odtp /RTCsu /ZI
; File z:\sources\lunor\repos\rougemeilland\palmtree.math.core.sint\palmtree.math.core.sint\pmc_add_sub.c
;	COMDAT PMC_Subtruct_L_X
_TEXT	SEGMENT
result$ = 4
nv$ = 40
nw$ = 72
u_sign$ = 100
u_abs$ = 136
__$ArrayPad$ = 344
u$ = 384
v$ = 392
w$ = 400
PMC_Subtruct_L_X PROC					; COMDAT

; 950  : {

$LN27:
	mov	QWORD PTR [rsp+24], r8
	mov	QWORD PTR [rsp+16], rdx
	mov	QWORD PTR [rsp+8], rcx
	push	rbp
	push	rdi
	sub	rsp, 392				; 00000188H
	lea	rbp, QWORD PTR [rsp+32]
	mov	rdi, rsp
	mov	ecx, 98					; 00000062H
	mov	eax, -858993460				; ccccccccH
	rep stosd
	mov	rcx, QWORD PTR [rsp+424]
	mov	rax, QWORD PTR __security_cookie
	xor	rax, rbp
	mov	QWORD PTR __$ArrayPad$[rbp], rax
	lea	rcx, OFFSET FLAT:__5A8189A9_pmc_add_sub@c
	call	__CheckForDebuggerJustMyCode

; 951  :     if (v == NULL)

	cmp	QWORD PTR v$[rbp], 0
	jne	SHORT $LN2@PMC_Subtru

; 952  :         return (PMC_STATUS_ARGUMENT_ERROR);

	mov	eax, -1
	jmp	$LN1@PMC_Subtru
$LN2@PMC_Subtru:

; 953  :     if (w == NULL)

	cmp	QWORD PTR w$[rbp], 0
	jne	SHORT $LN3@PMC_Subtru

; 954  :         return (PMC_STATUS_ARGUMENT_ERROR);

	mov	eax, -1
	jmp	$LN1@PMC_Subtru
$LN3@PMC_Subtru:

; 955  :     PMC_STATUS_CODE result;
; 956  :     NUMBER_HEADER* nv = (NUMBER_HEADER*)v;

	mov	rax, QWORD PTR v$[rbp]
	mov	QWORD PTR nv$[rbp], rax

; 957  :     NUMBER_HEADER* nw;
; 958  :     if ((result = CheckNumber(nv)) != PMC_STATUS_OK)

	mov	rcx, QWORD PTR nv$[rbp]
	call	CheckNumber
	mov	DWORD PTR result$[rbp], eax
	cmp	DWORD PTR result$[rbp], 0
	je	SHORT $LN4@PMC_Subtru

; 959  :         return (result);

	mov	eax, DWORD PTR result$[rbp]
	jmp	$LN1@PMC_Subtru
$LN4@PMC_Subtru:

; 960  :     char u_sign;
; 961  :     _UINT64_T u_abs = GET_ABS_64(u, &u_sign);

	lea	rdx, QWORD PTR u_sign$[rbp]
	mov	rcx, QWORD PTR u$[rbp]
	call	GET_ABS_64
	mov	QWORD PTR u_abs$[rbp], rax

; 962  :     if (u_sign == 0)

	movsx	eax, BYTE PTR u_sign$[rbp]
	test	eax, eax
	jne	SHORT $LN5@PMC_Subtru

; 963  :     {
; 964  :         // u == 0 ÇÃèÍçá
; 965  : 
; 966  :         if (nv->SIGN == 0)

	mov	rax, QWORD PTR nv$[rbp]
	movsx	eax, BYTE PTR [rax+16]
	test	eax, eax
	jne	SHORT $LN7@PMC_Subtru

; 967  :         {
; 968  :             // v == 0 ÇÃèÍçá
; 969  : 
; 970  :             // 0 Çï‘Ç∑
; 971  :             nw = &number_zero;

	lea	rax, OFFSET FLAT:number_zero
	mov	QWORD PTR nw$[rbp], rax

; 972  :         }

	jmp	SHORT $LN8@PMC_Subtru
$LN7@PMC_Subtru:

; 973  :         else
; 974  :         {
; 975  :             // v != 0 ÇÃèÍçá
; 976  : 
; 977  :             // -v Çï‘Ç∑
; 978  :             if ((result = Negate_Imp(nv, &nw)) != PMC_STATUS_OK)

	lea	rdx, QWORD PTR nw$[rbp]
	mov	rcx, QWORD PTR nv$[rbp]
	call	Negate_Imp
	mov	DWORD PTR result$[rbp], eax
	cmp	DWORD PTR result$[rbp], 0
	je	SHORT $LN9@PMC_Subtru

; 979  :                 return (result);

	mov	eax, DWORD PTR result$[rbp]
	jmp	$LN1@PMC_Subtru
$LN9@PMC_Subtru:
$LN8@PMC_Subtru:

; 980  :         }
; 981  :     }

	jmp	$LN6@PMC_Subtru
$LN5@PMC_Subtru:

; 982  :     else if (u_sign > 0)

	movsx	eax, BYTE PTR u_sign$[rbp]
	test	eax, eax
	jle	$LN10@PMC_Subtru

; 983  :     {
; 984  :         // u > 0 ÇÃèÍçá
; 985  : 
; 986  :         if (nv->SIGN == 0)

	mov	rax, QWORD PTR nv$[rbp]
	movsx	eax, BYTE PTR [rax+16]
	test	eax, eax
	jne	SHORT $LN12@PMC_Subtru

; 987  :         {
; 988  :             // v == 0 ÇÃèÍçá
; 989  : 
; 990  :             // u Çï‘Ç∑
; 991  :             if ((result = From_L_Imp(u_sign, u_abs, &nw)) != PMC_STATUS_OK)

	lea	r8, QWORD PTR nw$[rbp]
	mov	rdx, QWORD PTR u_abs$[rbp]
	movzx	ecx, BYTE PTR u_sign$[rbp]
	call	From_L_Imp
	mov	DWORD PTR result$[rbp], eax
	cmp	DWORD PTR result$[rbp], 0
	je	SHORT $LN14@PMC_Subtru

; 992  :                 return (result);

	mov	eax, DWORD PTR result$[rbp]
	jmp	$LN1@PMC_Subtru
$LN14@PMC_Subtru:

; 993  :         }

	jmp	SHORT $LN13@PMC_Subtru
$LN12@PMC_Subtru:

; 994  :         else if (nv->SIGN > 0)

	mov	rax, QWORD PTR nv$[rbp]
	movsx	eax, BYTE PTR [rax+16]
	test	eax, eax
	jle	SHORT $LN15@PMC_Subtru

; 995  :         {
; 996  :             // v > 0 ÇÃèÍçá
; 997  : 
; 998  :             // abs(u) - abs(v) Çï‘Ç∑
; 999  :             if ((result = SubtructU_X_L_Imp(-1, nv->ABS, u_abs, &nw)) != PMC_STATUS_OK)

	lea	r9, QWORD PTR nw$[rbp]
	mov	r8, QWORD PTR u_abs$[rbp]
	mov	rax, QWORD PTR nv$[rbp]
	mov	rdx, QWORD PTR [rax+8]
	mov	cl, -1
	call	SubtructU_X_L_Imp
	mov	DWORD PTR result$[rbp], eax
	cmp	DWORD PTR result$[rbp], 0
	je	SHORT $LN17@PMC_Subtru

; 1000 :                 return (result);

	mov	eax, DWORD PTR result$[rbp]
	jmp	$LN1@PMC_Subtru
$LN17@PMC_Subtru:

; 1001 :         }

	jmp	SHORT $LN16@PMC_Subtru
$LN15@PMC_Subtru:

; 1002 :         else
; 1003 :         {
; 1004 :             // v < 0 ÇÃèÍçá
; 1005 : 
; 1006 :             // abs(u) + abs(v) ÇåvéZÇ∑ÇÈ
; 1007 :             if ((result = AddU_X_L_Imp(1, nv->ABS, u_abs, &nw)) != PMC_STATUS_OK)

	lea	r9, QWORD PTR nw$[rbp]
	mov	r8, QWORD PTR u_abs$[rbp]
	mov	rax, QWORD PTR nv$[rbp]
	mov	rdx, QWORD PTR [rax+8]
	mov	cl, 1
	call	AddU_X_L_Imp
	mov	DWORD PTR result$[rbp], eax
	cmp	DWORD PTR result$[rbp], 0
	je	SHORT $LN18@PMC_Subtru

; 1008 :                 return (result);

	mov	eax, DWORD PTR result$[rbp]
	jmp	$LN1@PMC_Subtru
$LN18@PMC_Subtru:
$LN16@PMC_Subtru:
$LN13@PMC_Subtru:

; 1009 :         }
; 1010 :     }

	jmp	$LN11@PMC_Subtru
$LN10@PMC_Subtru:

; 1011 :     else
; 1012 :     {
; 1013 :         // u < 0 ÇÃèÍçá
; 1014 : 
; 1015 :         if (nv->SIGN == 0)

	mov	rax, QWORD PTR nv$[rbp]
	movsx	eax, BYTE PTR [rax+16]
	test	eax, eax
	jne	SHORT $LN19@PMC_Subtru

; 1016 :         {
; 1017 :             // v == 0 ÇÃèÍçá
; 1018 : 
; 1019 :             // u Çï‘Ç∑
; 1020 :             if ((result = From_L_Imp(u_sign, u_abs, &nw)) != PMC_STATUS_OK)

	lea	r8, QWORD PTR nw$[rbp]
	mov	rdx, QWORD PTR u_abs$[rbp]
	movzx	ecx, BYTE PTR u_sign$[rbp]
	call	From_L_Imp
	mov	DWORD PTR result$[rbp], eax
	cmp	DWORD PTR result$[rbp], 0
	je	SHORT $LN21@PMC_Subtru

; 1021 :                 return (result);

	mov	eax, DWORD PTR result$[rbp]
	jmp	SHORT $LN1@PMC_Subtru
$LN21@PMC_Subtru:

; 1022 :         }

	jmp	SHORT $LN20@PMC_Subtru
$LN19@PMC_Subtru:

; 1023 :         else if (nv->SIGN > 0)

	mov	rax, QWORD PTR nv$[rbp]
	movsx	eax, BYTE PTR [rax+16]
	test	eax, eax
	jle	SHORT $LN22@PMC_Subtru

; 1024 :         {
; 1025 :             // v > 0 ÇÃèÍçá
; 1026 : 
; 1027 :             // - abs(u) - abs(v) ÇåvéZÇ∑ÇÈ
; 1028 :             if ((result = AddU_X_L_Imp(-1, nv->ABS, u_abs, &nw)) != PMC_STATUS_OK)

	lea	r9, QWORD PTR nw$[rbp]
	mov	r8, QWORD PTR u_abs$[rbp]
	mov	rax, QWORD PTR nv$[rbp]
	mov	rdx, QWORD PTR [rax+8]
	mov	cl, -1
	call	AddU_X_L_Imp
	mov	DWORD PTR result$[rbp], eax
	cmp	DWORD PTR result$[rbp], 0
	je	SHORT $LN24@PMC_Subtru

; 1029 :                 return (result);

	mov	eax, DWORD PTR result$[rbp]
	jmp	SHORT $LN1@PMC_Subtru
$LN24@PMC_Subtru:

; 1030 :         }

	jmp	SHORT $LN23@PMC_Subtru
$LN22@PMC_Subtru:

; 1031 :         else
; 1032 :         {
; 1033 :             // v < 0 ÇÃèÍçá
; 1034 : 
; 1035 :             // - abs(u) + abs(v) Çï‘Ç∑
; 1036 :             if ((result = SubtructU_X_L_Imp(1, nv->ABS, u_abs, &nw)) != PMC_STATUS_OK)

	lea	r9, QWORD PTR nw$[rbp]
	mov	r8, QWORD PTR u_abs$[rbp]
	mov	rax, QWORD PTR nv$[rbp]
	mov	rdx, QWORD PTR [rax+8]
	mov	cl, 1
	call	SubtructU_X_L_Imp
	mov	DWORD PTR result$[rbp], eax
	cmp	DWORD PTR result$[rbp], 0
	je	SHORT $LN25@PMC_Subtru

; 1037 :                 return (result);

	mov	eax, DWORD PTR result$[rbp]
	jmp	SHORT $LN1@PMC_Subtru
$LN25@PMC_Subtru:
$LN23@PMC_Subtru:
$LN20@PMC_Subtru:
$LN11@PMC_Subtru:
$LN6@PMC_Subtru:

; 1038 :         }
; 1039 :     }
; 1040 :     *w = (PMC_HANDLE_SINT)nw;

	mov	rax, QWORD PTR w$[rbp]
	mov	rcx, QWORD PTR nw$[rbp]
	mov	QWORD PTR [rax], rcx

; 1041 :     return (PMC_STATUS_OK);

	xor	eax, eax
$LN1@PMC_Subtru:

; 1042 : }

	mov	rdi, rax
	lea	rcx, QWORD PTR [rbp-32]
	lea	rdx, OFFSET FLAT:PMC_Subtruct_L_X$rtcFrameData
	call	_RTC_CheckStackVars
	mov	rax, rdi
	mov	rcx, QWORD PTR __$ArrayPad$[rbp]
	xor	rcx, rbp
	call	__security_check_cookie
	lea	rsp, QWORD PTR [rbp+360]
	pop	rdi
	pop	rbp
	ret	0
PMC_Subtruct_L_X ENDP
_TEXT	ENDS
; Function compile flags: /Odtp /RTCsu /ZI
; File z:\sources\lunor\repos\rougemeilland\palmtree.math.core.sint\palmtree.math.core.sint\pmc_add_sub.c
;	COMDAT PMC_Subtruct_I_X
_TEXT	SEGMENT
result$ = 4
nv$ = 40
nw$ = 72
u_sign$ = 100
u_abs$ = 132
__$ArrayPad$ = 344
u$ = 384
v$ = 392
w$ = 400
PMC_Subtruct_I_X PROC					; COMDAT

; 855  : {

$LN27:
	mov	QWORD PTR [rsp+24], r8
	mov	QWORD PTR [rsp+16], rdx
	mov	DWORD PTR [rsp+8], ecx
	push	rbp
	push	rdi
	sub	rsp, 392				; 00000188H
	lea	rbp, QWORD PTR [rsp+32]
	mov	rdi, rsp
	mov	ecx, 98					; 00000062H
	mov	eax, -858993460				; ccccccccH
	rep stosd
	mov	ecx, DWORD PTR [rsp+424]
	mov	rax, QWORD PTR __security_cookie
	xor	rax, rbp
	mov	QWORD PTR __$ArrayPad$[rbp], rax
	lea	rcx, OFFSET FLAT:__5A8189A9_pmc_add_sub@c
	call	__CheckForDebuggerJustMyCode

; 856  :     if (v == NULL)

	cmp	QWORD PTR v$[rbp], 0
	jne	SHORT $LN2@PMC_Subtru

; 857  :         return (PMC_STATUS_ARGUMENT_ERROR);

	mov	eax, -1
	jmp	$LN1@PMC_Subtru
$LN2@PMC_Subtru:

; 858  :     if (w == NULL)

	cmp	QWORD PTR w$[rbp], 0
	jne	SHORT $LN3@PMC_Subtru

; 859  :         return (PMC_STATUS_ARGUMENT_ERROR);

	mov	eax, -1
	jmp	$LN1@PMC_Subtru
$LN3@PMC_Subtru:

; 860  :     PMC_STATUS_CODE result;
; 861  :     NUMBER_HEADER* nv = (NUMBER_HEADER*)v;

	mov	rax, QWORD PTR v$[rbp]
	mov	QWORD PTR nv$[rbp], rax

; 862  :     NUMBER_HEADER* nw;
; 863  :     if ((result = CheckNumber(nv)) != PMC_STATUS_OK)

	mov	rcx, QWORD PTR nv$[rbp]
	call	CheckNumber
	mov	DWORD PTR result$[rbp], eax
	cmp	DWORD PTR result$[rbp], 0
	je	SHORT $LN4@PMC_Subtru

; 864  :         return (result);

	mov	eax, DWORD PTR result$[rbp]
	jmp	$LN1@PMC_Subtru
$LN4@PMC_Subtru:

; 865  :     char u_sign;
; 866  :     _UINT32_T u_abs = GET_ABS_32(u, &u_sign);

	lea	rdx, QWORD PTR u_sign$[rbp]
	mov	ecx, DWORD PTR u$[rbp]
	call	GET_ABS_32
	mov	DWORD PTR u_abs$[rbp], eax

; 867  :     if (u_sign == 0)

	movsx	eax, BYTE PTR u_sign$[rbp]
	test	eax, eax
	jne	SHORT $LN5@PMC_Subtru

; 868  :     {
; 869  :         // u == 0 ÇÃèÍçá
; 870  : 
; 871  :         if (nv->SIGN == 0)

	mov	rax, QWORD PTR nv$[rbp]
	movsx	eax, BYTE PTR [rax+16]
	test	eax, eax
	jne	SHORT $LN7@PMC_Subtru

; 872  :         {
; 873  :             // v == 0 ÇÃèÍçá
; 874  : 
; 875  :             // 0 Çï‘Ç∑
; 876  :             nw = &number_zero;

	lea	rax, OFFSET FLAT:number_zero
	mov	QWORD PTR nw$[rbp], rax

; 877  :         }

	jmp	SHORT $LN8@PMC_Subtru
$LN7@PMC_Subtru:

; 878  :         else
; 879  :         {
; 880  :             // v != 0 ÇÃèÍçá
; 881  : 
; 882  :             // -v Çï‘Ç∑
; 883  :             if ((result = Negate_Imp(nv, &nw)) != PMC_STATUS_OK)

	lea	rdx, QWORD PTR nw$[rbp]
	mov	rcx, QWORD PTR nv$[rbp]
	call	Negate_Imp
	mov	DWORD PTR result$[rbp], eax
	cmp	DWORD PTR result$[rbp], 0
	je	SHORT $LN9@PMC_Subtru

; 884  :                 return (result);

	mov	eax, DWORD PTR result$[rbp]
	jmp	$LN1@PMC_Subtru
$LN9@PMC_Subtru:
$LN8@PMC_Subtru:

; 885  :         }
; 886  :     }

	jmp	$LN6@PMC_Subtru
$LN5@PMC_Subtru:

; 887  :     else if (u_sign > 0)

	movsx	eax, BYTE PTR u_sign$[rbp]
	test	eax, eax
	jle	$LN10@PMC_Subtru

; 888  :     {
; 889  :         // u > 0 ÇÃèÍçá
; 890  : 
; 891  :         if (nv->SIGN == 0)

	mov	rax, QWORD PTR nv$[rbp]
	movsx	eax, BYTE PTR [rax+16]
	test	eax, eax
	jne	SHORT $LN12@PMC_Subtru

; 892  :         {
; 893  :             // v == 0 ÇÃèÍçá
; 894  : 
; 895  :             // u Çï‘Ç∑
; 896  :             if ((result = From_I_Imp(u_sign, u_abs, &nw)) != PMC_STATUS_OK)

	lea	r8, QWORD PTR nw$[rbp]
	mov	edx, DWORD PTR u_abs$[rbp]
	movzx	ecx, BYTE PTR u_sign$[rbp]
	call	From_I_Imp
	mov	DWORD PTR result$[rbp], eax
	cmp	DWORD PTR result$[rbp], 0
	je	SHORT $LN14@PMC_Subtru

; 897  :                 return (result);

	mov	eax, DWORD PTR result$[rbp]
	jmp	$LN1@PMC_Subtru
$LN14@PMC_Subtru:

; 898  :         }

	jmp	SHORT $LN13@PMC_Subtru
$LN12@PMC_Subtru:

; 899  :         else if (nv->SIGN > 0)

	mov	rax, QWORD PTR nv$[rbp]
	movsx	eax, BYTE PTR [rax+16]
	test	eax, eax
	jle	SHORT $LN15@PMC_Subtru

; 900  :         {
; 901  :             // v > 0 ÇÃèÍçá
; 902  : 
; 903  :             // abs(u) - abs(v) Çï‘Ç∑
; 904  :             if ((result = SubtructU_X_I_Imp(-1, nv->ABS, u_abs, &nw)) != PMC_STATUS_OK)

	lea	r9, QWORD PTR nw$[rbp]
	mov	r8d, DWORD PTR u_abs$[rbp]
	mov	rax, QWORD PTR nv$[rbp]
	mov	rdx, QWORD PTR [rax+8]
	mov	cl, -1
	call	SubtructU_X_I_Imp
	mov	DWORD PTR result$[rbp], eax
	cmp	DWORD PTR result$[rbp], 0
	je	SHORT $LN17@PMC_Subtru

; 905  :                 return (result);

	mov	eax, DWORD PTR result$[rbp]
	jmp	$LN1@PMC_Subtru
$LN17@PMC_Subtru:

; 906  :         }

	jmp	SHORT $LN16@PMC_Subtru
$LN15@PMC_Subtru:

; 907  :         else
; 908  :         {
; 909  :             // v < 0 ÇÃèÍçá
; 910  : 
; 911  :             // abs(u) + abs(v) ÇåvéZÇ∑ÇÈ
; 912  :             if ((result = AddU_X_I_Imp(1, nv->ABS, u_abs, &nw)) != PMC_STATUS_OK)

	lea	r9, QWORD PTR nw$[rbp]
	mov	r8d, DWORD PTR u_abs$[rbp]
	mov	rax, QWORD PTR nv$[rbp]
	mov	rdx, QWORD PTR [rax+8]
	mov	cl, 1
	call	AddU_X_I_Imp
	mov	DWORD PTR result$[rbp], eax
	cmp	DWORD PTR result$[rbp], 0
	je	SHORT $LN18@PMC_Subtru

; 913  :                 return (result);

	mov	eax, DWORD PTR result$[rbp]
	jmp	$LN1@PMC_Subtru
$LN18@PMC_Subtru:
$LN16@PMC_Subtru:
$LN13@PMC_Subtru:

; 914  :         }
; 915  :     }

	jmp	$LN11@PMC_Subtru
$LN10@PMC_Subtru:

; 916  :     else
; 917  :     {
; 918  :         // u < 0 ÇÃèÍçá
; 919  : 
; 920  :         if (nv->SIGN == 0)

	mov	rax, QWORD PTR nv$[rbp]
	movsx	eax, BYTE PTR [rax+16]
	test	eax, eax
	jne	SHORT $LN19@PMC_Subtru

; 921  :         {
; 922  :             // v == 0 ÇÃèÍçá
; 923  : 
; 924  :             // u Çï‘Ç∑
; 925  :             if ((result = From_I_Imp(u_sign, u_abs, &nw)) != PMC_STATUS_OK)

	lea	r8, QWORD PTR nw$[rbp]
	mov	edx, DWORD PTR u_abs$[rbp]
	movzx	ecx, BYTE PTR u_sign$[rbp]
	call	From_I_Imp
	mov	DWORD PTR result$[rbp], eax
	cmp	DWORD PTR result$[rbp], 0
	je	SHORT $LN21@PMC_Subtru

; 926  :                 return (result);

	mov	eax, DWORD PTR result$[rbp]
	jmp	SHORT $LN1@PMC_Subtru
$LN21@PMC_Subtru:

; 927  :         }

	jmp	SHORT $LN20@PMC_Subtru
$LN19@PMC_Subtru:

; 928  :         else if (nv->SIGN > 0)

	mov	rax, QWORD PTR nv$[rbp]
	movsx	eax, BYTE PTR [rax+16]
	test	eax, eax
	jle	SHORT $LN22@PMC_Subtru

; 929  :         {
; 930  :             // v > 0 ÇÃèÍçá
; 931  : 
; 932  :             // - abs(u) - abs(v) ÇåvéZÇ∑ÇÈ
; 933  :             if ((result = AddU_X_I_Imp(-1, nv->ABS, u_abs, &nw)) != PMC_STATUS_OK)

	lea	r9, QWORD PTR nw$[rbp]
	mov	r8d, DWORD PTR u_abs$[rbp]
	mov	rax, QWORD PTR nv$[rbp]
	mov	rdx, QWORD PTR [rax+8]
	mov	cl, -1
	call	AddU_X_I_Imp
	mov	DWORD PTR result$[rbp], eax
	cmp	DWORD PTR result$[rbp], 0
	je	SHORT $LN24@PMC_Subtru

; 934  :                 return (result);

	mov	eax, DWORD PTR result$[rbp]
	jmp	SHORT $LN1@PMC_Subtru
$LN24@PMC_Subtru:

; 935  :         }

	jmp	SHORT $LN23@PMC_Subtru
$LN22@PMC_Subtru:

; 936  :         else
; 937  :         {
; 938  :             // v < 0 ÇÃèÍçá
; 939  : 
; 940  :             // - abs(u) + abs(v) Çï‘Ç∑
; 941  :             if ((result = SubtructU_X_I_Imp(1, nv->ABS, u_abs, &nw)) != PMC_STATUS_OK)

	lea	r9, QWORD PTR nw$[rbp]
	mov	r8d, DWORD PTR u_abs$[rbp]
	mov	rax, QWORD PTR nv$[rbp]
	mov	rdx, QWORD PTR [rax+8]
	mov	cl, 1
	call	SubtructU_X_I_Imp
	mov	DWORD PTR result$[rbp], eax
	cmp	DWORD PTR result$[rbp], 0
	je	SHORT $LN25@PMC_Subtru

; 942  :                 return (result);

	mov	eax, DWORD PTR result$[rbp]
	jmp	SHORT $LN1@PMC_Subtru
$LN25@PMC_Subtru:
$LN23@PMC_Subtru:
$LN20@PMC_Subtru:
$LN11@PMC_Subtru:
$LN6@PMC_Subtru:

; 943  :         }
; 944  :     }
; 945  :     *w = (PMC_HANDLE_SINT)nw;

	mov	rax, QWORD PTR w$[rbp]
	mov	rcx, QWORD PTR nw$[rbp]
	mov	QWORD PTR [rax], rcx

; 946  :     return (PMC_STATUS_OK);

	xor	eax, eax
$LN1@PMC_Subtru:

; 947  : }

	mov	rdi, rax
	lea	rcx, QWORD PTR [rbp-32]
	lea	rdx, OFFSET FLAT:PMC_Subtruct_I_X$rtcFrameData
	call	_RTC_CheckStackVars
	mov	rax, rdi
	mov	rcx, QWORD PTR __$ArrayPad$[rbp]
	xor	rcx, rbp
	call	__security_check_cookie
	lea	rsp, QWORD PTR [rbp+360]
	pop	rdi
	pop	rbp
	ret	0
PMC_Subtruct_I_X ENDP
_TEXT	ENDS
; Function compile flags: /Odtp /RTCsu /ZI
; File z:\sources\lunor\repos\rougemeilland\palmtree.math.core.sint\palmtree.math.core.sint\pmc_add_sub.c
;	COMDAT PMC_Add_X_X
_TEXT	SEGMENT
result$ = 4
nu$ = 40
nv$ = 72
nw$ = 104
__$ArrayPad$ = 312
u$ = 352
v$ = 360
w$ = 368
PMC_Add_X_X PROC					; COMDAT

; 757  : {

$LN29:
	mov	QWORD PTR [rsp+24], r8
	mov	QWORD PTR [rsp+16], rdx
	mov	QWORD PTR [rsp+8], rcx
	push	rbp
	push	rdi
	sub	rsp, 360				; 00000168H
	lea	rbp, QWORD PTR [rsp+32]
	mov	rdi, rsp
	mov	ecx, 90					; 0000005aH
	mov	eax, -858993460				; ccccccccH
	rep stosd
	mov	rcx, QWORD PTR [rsp+392]
	mov	rax, QWORD PTR __security_cookie
	xor	rax, rbp
	mov	QWORD PTR __$ArrayPad$[rbp], rax
	lea	rcx, OFFSET FLAT:__5A8189A9_pmc_add_sub@c
	call	__CheckForDebuggerJustMyCode

; 758  :     if (u == NULL)

	cmp	QWORD PTR u$[rbp], 0
	jne	SHORT $LN2@PMC_Add_X_

; 759  :         return (PMC_STATUS_ARGUMENT_ERROR);

	mov	eax, -1
	jmp	$LN1@PMC_Add_X_
$LN2@PMC_Add_X_:

; 760  :     if (v == NULL)

	cmp	QWORD PTR v$[rbp], 0
	jne	SHORT $LN3@PMC_Add_X_

; 761  :         return (PMC_STATUS_ARGUMENT_ERROR);

	mov	eax, -1
	jmp	$LN1@PMC_Add_X_
$LN3@PMC_Add_X_:

; 762  :     if (w == NULL)

	cmp	QWORD PTR w$[rbp], 0
	jne	SHORT $LN4@PMC_Add_X_

; 763  :         return (PMC_STATUS_ARGUMENT_ERROR);

	mov	eax, -1
	jmp	$LN1@PMC_Add_X_
$LN4@PMC_Add_X_:

; 764  :     PMC_STATUS_CODE result;
; 765  :     NUMBER_HEADER* nu = (NUMBER_HEADER*)u;

	mov	rax, QWORD PTR u$[rbp]
	mov	QWORD PTR nu$[rbp], rax

; 766  :     NUMBER_HEADER* nv = (NUMBER_HEADER*)v;

	mov	rax, QWORD PTR v$[rbp]
	mov	QWORD PTR nv$[rbp], rax

; 767  :     NUMBER_HEADER* nw;
; 768  :     if ((result = CheckNumber(nu)) != PMC_STATUS_OK)

	mov	rcx, QWORD PTR nu$[rbp]
	call	CheckNumber
	mov	DWORD PTR result$[rbp], eax
	cmp	DWORD PTR result$[rbp], 0
	je	SHORT $LN5@PMC_Add_X_

; 769  :         return (result);

	mov	eax, DWORD PTR result$[rbp]
	jmp	$LN1@PMC_Add_X_
$LN5@PMC_Add_X_:

; 770  :     if ((result = CheckNumber(nv)) != PMC_STATUS_OK)

	mov	rcx, QWORD PTR nv$[rbp]
	call	CheckNumber
	mov	DWORD PTR result$[rbp], eax
	cmp	DWORD PTR result$[rbp], 0
	je	SHORT $LN6@PMC_Add_X_

; 771  :         return (result);

	mov	eax, DWORD PTR result$[rbp]
	jmp	$LN1@PMC_Add_X_
$LN6@PMC_Add_X_:

; 772  :     if (nu->SIGN == 0)

	mov	rax, QWORD PTR nu$[rbp]
	movsx	eax, BYTE PTR [rax+16]
	test	eax, eax
	jne	SHORT $LN7@PMC_Add_X_

; 773  :     {
; 774  :         // u == 0 ÇÃèÍçá
; 775  : 
; 776  :         if (nv->SIGN == 0)

	mov	rax, QWORD PTR nv$[rbp]
	movsx	eax, BYTE PTR [rax+16]
	test	eax, eax
	jne	SHORT $LN9@PMC_Add_X_

; 777  :         {
; 778  :             // v == 0 ÇÃèÍçá
; 779  : 
; 780  :             // 0 Çï‘Ç∑
; 781  :             nw = &number_zero;

	lea	rax, OFFSET FLAT:number_zero
	mov	QWORD PTR nw$[rbp], rax

; 782  :         }

	jmp	SHORT $LN10@PMC_Add_X_
$LN9@PMC_Add_X_:

; 783  :         else
; 784  :         {
; 785  :             // v != 0 ÇÃèÍçá
; 786  : 
; 787  :             // v Çï‘Ç∑
; 788  :             if ((result = DuplicateNumber(nv, &nw)) != PMC_STATUS_OK)

	lea	rdx, QWORD PTR nw$[rbp]
	mov	rcx, QWORD PTR nv$[rbp]
	call	DuplicateNumber
	mov	DWORD PTR result$[rbp], eax
	cmp	DWORD PTR result$[rbp], 0
	je	SHORT $LN11@PMC_Add_X_

; 789  :                 return (result);

	mov	eax, DWORD PTR result$[rbp]
	jmp	$LN1@PMC_Add_X_
$LN11@PMC_Add_X_:
$LN10@PMC_Add_X_:

; 790  :         }
; 791  :     }

	jmp	$LN8@PMC_Add_X_
$LN7@PMC_Add_X_:

; 792  :     else if (nu->SIGN > 0)

	mov	rax, QWORD PTR nu$[rbp]
	movsx	eax, BYTE PTR [rax+16]
	test	eax, eax
	jle	$LN12@PMC_Add_X_

; 793  :     {
; 794  :         // u > 0 ÇÃèÍçá
; 795  : 
; 796  :         if (nv->SIGN == 0)

	mov	rax, QWORD PTR nv$[rbp]
	movsx	eax, BYTE PTR [rax+16]
	test	eax, eax
	jne	SHORT $LN14@PMC_Add_X_

; 797  :         {
; 798  :             // v == 0 ÇÃèÍçá
; 799  : 
; 800  :             // u Çï‘Ç∑
; 801  :             if ((result = DuplicateNumber(nu, &nw)) != PMC_STATUS_OK)

	lea	rdx, QWORD PTR nw$[rbp]
	mov	rcx, QWORD PTR nu$[rbp]
	call	DuplicateNumber
	mov	DWORD PTR result$[rbp], eax
	cmp	DWORD PTR result$[rbp], 0
	je	SHORT $LN16@PMC_Add_X_

; 802  :                 return (result);

	mov	eax, DWORD PTR result$[rbp]
	jmp	$LN1@PMC_Add_X_
$LN16@PMC_Add_X_:

; 803  :         }

	jmp	SHORT $LN15@PMC_Add_X_
$LN14@PMC_Add_X_:

; 804  :         else if (nv->SIGN > 0)

	mov	rax, QWORD PTR nv$[rbp]
	movsx	eax, BYTE PTR [rax+16]
	test	eax, eax
	jle	SHORT $LN17@PMC_Add_X_

; 805  :         {
; 806  :             // v > 0 ÇÃèÍçá
; 807  : 
; 808  :             // abs(u) + abs(v) Çï‘Ç∑
; 809  :             if ((result = AddU_X_X_Imp(1, nu->ABS, nv->ABS, &nw)) != PMC_STATUS_OK)

	lea	r9, QWORD PTR nw$[rbp]
	mov	rax, QWORD PTR nv$[rbp]
	mov	r8, QWORD PTR [rax+8]
	mov	rax, QWORD PTR nu$[rbp]
	mov	rdx, QWORD PTR [rax+8]
	mov	cl, 1
	call	AddU_X_X_Imp
	mov	DWORD PTR result$[rbp], eax
	cmp	DWORD PTR result$[rbp], 0
	je	SHORT $LN19@PMC_Add_X_

; 810  :                 return (result);

	mov	eax, DWORD PTR result$[rbp]
	jmp	$LN1@PMC_Add_X_
$LN19@PMC_Add_X_:

; 811  :         }

	jmp	SHORT $LN18@PMC_Add_X_
$LN17@PMC_Add_X_:

; 812  :         else
; 813  :         {
; 814  :             // v < 0 ÇÃèÍçá
; 815  : 
; 816  :             // abs(u) - abs(v) ÇåvéZÇ∑ÇÈ
; 817  :             if ((result = SubtructU_X_X_Imp(1, nu->ABS, nv->ABS, &nw)) != PMC_STATUS_OK)

	lea	r9, QWORD PTR nw$[rbp]
	mov	rax, QWORD PTR nv$[rbp]
	mov	r8, QWORD PTR [rax+8]
	mov	rax, QWORD PTR nu$[rbp]
	mov	rdx, QWORD PTR [rax+8]
	mov	cl, 1
	call	SubtructU_X_X_Imp
	mov	DWORD PTR result$[rbp], eax
	cmp	DWORD PTR result$[rbp], 0
	je	SHORT $LN20@PMC_Add_X_

; 818  :                 return (result);

	mov	eax, DWORD PTR result$[rbp]
	jmp	$LN1@PMC_Add_X_
$LN20@PMC_Add_X_:
$LN18@PMC_Add_X_:
$LN15@PMC_Add_X_:

; 819  :         }
; 820  :     }

	jmp	$LN13@PMC_Add_X_
$LN12@PMC_Add_X_:

; 821  :     else
; 822  :     {
; 823  :         // u < 0 ÇÃèÍçá
; 824  : 
; 825  :         if (nv->SIGN == 0)

	mov	rax, QWORD PTR nv$[rbp]
	movsx	eax, BYTE PTR [rax+16]
	test	eax, eax
	jne	SHORT $LN21@PMC_Add_X_

; 826  :         {
; 827  :             // v == 0 ÇÃèÍçá
; 828  : 
; 829  :             // u Çï‘Ç∑
; 830  :             if ((result = DuplicateNumber(nu, &nw)) != PMC_STATUS_OK)

	lea	rdx, QWORD PTR nw$[rbp]
	mov	rcx, QWORD PTR nu$[rbp]
	call	DuplicateNumber
	mov	DWORD PTR result$[rbp], eax
	cmp	DWORD PTR result$[rbp], 0
	je	SHORT $LN23@PMC_Add_X_

; 831  :                 return (result);

	mov	eax, DWORD PTR result$[rbp]
	jmp	SHORT $LN1@PMC_Add_X_
$LN23@PMC_Add_X_:

; 832  :         }

	jmp	SHORT $LN22@PMC_Add_X_
$LN21@PMC_Add_X_:

; 833  :         else if (nv->SIGN > 0)

	mov	rax, QWORD PTR nv$[rbp]
	movsx	eax, BYTE PTR [rax+16]
	test	eax, eax
	jle	SHORT $LN24@PMC_Add_X_

; 834  :         {
; 835  :             // v > 0 ÇÃèÍçá
; 836  : 
; 837  :             // - abs(u) + abs(v) ÇåvéZÇ∑ÇÈ
; 838  :             if ((result = SubtructU_X_X_Imp(-1, nu->ABS, nv->ABS, &nw)) != PMC_STATUS_OK)

	lea	r9, QWORD PTR nw$[rbp]
	mov	rax, QWORD PTR nv$[rbp]
	mov	r8, QWORD PTR [rax+8]
	mov	rax, QWORD PTR nu$[rbp]
	mov	rdx, QWORD PTR [rax+8]
	mov	cl, -1
	call	SubtructU_X_X_Imp
	mov	DWORD PTR result$[rbp], eax
	cmp	DWORD PTR result$[rbp], 0
	je	SHORT $LN26@PMC_Add_X_

; 839  :                 return (result);

	mov	eax, DWORD PTR result$[rbp]
	jmp	SHORT $LN1@PMC_Add_X_
$LN26@PMC_Add_X_:

; 840  :         }

	jmp	SHORT $LN25@PMC_Add_X_
$LN24@PMC_Add_X_:

; 841  :         else
; 842  :         {
; 843  :             // v < 0 ÇÃèÍçá
; 844  : 
; 845  :             // - abs(u) - abs(v) Çï‘Ç∑
; 846  :             if ((result = AddU_X_X_Imp(-1, nu->ABS, nv->ABS, &nw)) != PMC_STATUS_OK)

	lea	r9, QWORD PTR nw$[rbp]
	mov	rax, QWORD PTR nv$[rbp]
	mov	r8, QWORD PTR [rax+8]
	mov	rax, QWORD PTR nu$[rbp]
	mov	rdx, QWORD PTR [rax+8]
	mov	cl, -1
	call	AddU_X_X_Imp
	mov	DWORD PTR result$[rbp], eax
	cmp	DWORD PTR result$[rbp], 0
	je	SHORT $LN27@PMC_Add_X_

; 847  :                 return (result);

	mov	eax, DWORD PTR result$[rbp]
	jmp	SHORT $LN1@PMC_Add_X_
$LN27@PMC_Add_X_:
$LN25@PMC_Add_X_:
$LN22@PMC_Add_X_:
$LN13@PMC_Add_X_:
$LN8@PMC_Add_X_:

; 848  :         }
; 849  :     }
; 850  :     *w = (PMC_HANDLE_SINT)nw;

	mov	rax, QWORD PTR w$[rbp]
	mov	rcx, QWORD PTR nw$[rbp]
	mov	QWORD PTR [rax], rcx

; 851  :     return (PMC_STATUS_OK);

	xor	eax, eax
$LN1@PMC_Add_X_:

; 852  : }

	mov	rdi, rax
	lea	rcx, QWORD PTR [rbp-32]
	lea	rdx, OFFSET FLAT:PMC_Add_X_X$rtcFrameData
	call	_RTC_CheckStackVars
	mov	rax, rdi
	mov	rcx, QWORD PTR __$ArrayPad$[rbp]
	xor	rcx, rbp
	call	__security_check_cookie
	lea	rsp, QWORD PTR [rbp+328]
	pop	rdi
	pop	rbp
	ret	0
PMC_Add_X_X ENDP
_TEXT	ENDS
; Function compile flags: /Odtp /RTCsu /ZI
; File z:\sources\lunor\repos\rougemeilland\palmtree.math.core.sint\palmtree.math.core.sint\pmc_add_sub.c
;	COMDAT PMC_Add_X_UX
_TEXT	SEGMENT
result$ = 4
nu$ = 40
nw$ = 72
v_is_zero$ = 100
new_v$7 = 136
type$8 = 164
__$ArrayPad$ = 376
u$ = 416
v$ = 424
w$ = 432
PMC_Add_X_UX PROC					; COMDAT

; 665  : {

$LN25:
	mov	QWORD PTR [rsp+24], r8
	mov	QWORD PTR [rsp+16], rdx
	mov	QWORD PTR [rsp+8], rcx
	push	rbp
	push	rdi
	sub	rsp, 424				; 000001a8H
	lea	rbp, QWORD PTR [rsp+32]
	mov	rdi, rsp
	mov	ecx, 106				; 0000006aH
	mov	eax, -858993460				; ccccccccH
	rep stosd
	mov	rcx, QWORD PTR [rsp+456]
	mov	rax, QWORD PTR __security_cookie
	xor	rax, rbp
	mov	QWORD PTR __$ArrayPad$[rbp], rax
	lea	rcx, OFFSET FLAT:__5A8189A9_pmc_add_sub@c
	call	__CheckForDebuggerJustMyCode

; 666  :     if (u == NULL)

	cmp	QWORD PTR u$[rbp], 0
	jne	SHORT $LN2@PMC_Add_X_

; 667  :         return (PMC_STATUS_ARGUMENT_ERROR);

	mov	eax, -1
	jmp	$LN1@PMC_Add_X_
$LN2@PMC_Add_X_:

; 668  :     if (v == NULL)

	cmp	QWORD PTR v$[rbp], 0
	jne	SHORT $LN3@PMC_Add_X_

; 669  :         return (PMC_STATUS_ARGUMENT_ERROR);

	mov	eax, -1
	jmp	$LN1@PMC_Add_X_
$LN3@PMC_Add_X_:

; 670  :     if (w == NULL)

	cmp	QWORD PTR w$[rbp], 0
	jne	SHORT $LN4@PMC_Add_X_

; 671  :         return (PMC_STATUS_ARGUMENT_ERROR);

	mov	eax, -1
	jmp	$LN1@PMC_Add_X_
$LN4@PMC_Add_X_:

; 672  :     PMC_STATUS_CODE result;
; 673  :     NUMBER_HEADER* nu = (NUMBER_HEADER*)u;

	mov	rax, QWORD PTR u$[rbp]
	mov	QWORD PTR nu$[rbp], rax

; 674  :     NUMBER_HEADER* nw;
; 675  :     if ((result = CheckNumber(nu)) != PMC_STATUS_OK)

	mov	rcx, QWORD PTR nu$[rbp]
	call	CheckNumber
	mov	DWORD PTR result$[rbp], eax
	cmp	DWORD PTR result$[rbp], 0
	je	SHORT $LN5@PMC_Add_X_

; 676  :         return (result);

	mov	eax, DWORD PTR result$[rbp]
	jmp	$LN1@PMC_Add_X_
$LN5@PMC_Add_X_:

; 677  :     char v_is_zero;
; 678  :     if ((result = IsZero_UINT(v, &v_is_zero)) != PMC_STATUS_OK)

	lea	rdx, QWORD PTR v_is_zero$[rbp]
	mov	rcx, QWORD PTR v$[rbp]
	call	IsZero_UINT
	mov	DWORD PTR result$[rbp], eax
	cmp	DWORD PTR result$[rbp], 0
	je	SHORT $LN6@PMC_Add_X_

; 679  :         return (result);

	mov	eax, DWORD PTR result$[rbp]
	jmp	$LN1@PMC_Add_X_
$LN6@PMC_Add_X_:

; 680  :     if (nu->SIGN == 0)

	mov	rax, QWORD PTR nu$[rbp]
	movsx	eax, BYTE PTR [rax+16]
	test	eax, eax
	jne	$LN7@PMC_Add_X_

; 681  :     {
; 682  :         // u == 0 ÇÃèÍçá
; 683  : 
; 684  :         if (v_is_zero)

	movsx	eax, BYTE PTR v_is_zero$[rbp]
	test	eax, eax
	je	SHORT $LN9@PMC_Add_X_

; 685  :         {
; 686  :             // v == 0 ÇÃèÍçá
; 687  : 
; 688  :             // 0 Çï‘Ç∑
; 689  :             nw = &number_zero;

	lea	rax, OFFSET FLAT:number_zero
	mov	QWORD PTR nw$[rbp], rax

; 690  :         }

	jmp	SHORT $LN10@PMC_Add_X_
$LN9@PMC_Add_X_:

; 691  :         else
; 692  :         {
; 693  :             // v > 0 ÇÃèÍçá
; 694  : 
; 695  :             // v Çï‘Ç∑
; 696  :             PMC_HANDLE_UINT new_v;
; 697  :             if ((result = ep_uint.Clone_X(v, &new_v)) != PMC_STATUS_OK)

	lea	rdx, QWORD PTR new_v$7[rbp]
	mov	rcx, QWORD PTR v$[rbp]
	call	QWORD PTR ep_uint+88
	mov	DWORD PTR result$[rbp], eax
	cmp	DWORD PTR result$[rbp], 0
	je	SHORT $LN11@PMC_Add_X_

; 698  :                 return (result);

	mov	eax, DWORD PTR result$[rbp]
	jmp	$LN1@PMC_Add_X_
$LN11@PMC_Add_X_:

; 699  :             PMC_NUMBER_TYPE_CODE type;
; 700  :             if ((result = ep_uint.GetNumberType_X(new_v, &type)) != PMC_STATUS_OK)

	lea	rdx, QWORD PTR type$8[rbp]
	mov	rcx, QWORD PTR new_v$7[rbp]
	call	QWORD PTR ep_uint+40
	mov	DWORD PTR result$[rbp], eax
	cmp	DWORD PTR result$[rbp], 0
	je	SHORT $LN12@PMC_Add_X_

; 701  :                 return (result);

	mov	eax, DWORD PTR result$[rbp]
	jmp	$LN1@PMC_Add_X_
$LN12@PMC_Add_X_:

; 702  :             if ((result = AllocateNumber(&nw, 1, new_v)) != PMC_STATUS_OK)

	mov	r8, QWORD PTR new_v$7[rbp]
	mov	dl, 1
	lea	rcx, QWORD PTR nw$[rbp]
	call	AllocateNumber
	mov	DWORD PTR result$[rbp], eax
	cmp	DWORD PTR result$[rbp], 0
	je	SHORT $LN13@PMC_Add_X_

; 703  :             {
; 704  :                 ep_uint.Dispose(new_v);

	mov	rcx, QWORD PTR new_v$7[rbp]
	call	QWORD PTR ep_uint+32

; 705  :                 return (result);

	mov	eax, DWORD PTR result$[rbp]
	jmp	$LN1@PMC_Add_X_
$LN13@PMC_Add_X_:
$LN10@PMC_Add_X_:

; 706  :             }
; 707  :         }
; 708  :     }

	jmp	$LN8@PMC_Add_X_
$LN7@PMC_Add_X_:

; 709  :     else if (nu->SIGN > 0)

	mov	rax, QWORD PTR nu$[rbp]
	movsx	eax, BYTE PTR [rax+16]
	test	eax, eax
	jle	SHORT $LN14@PMC_Add_X_

; 710  :     {
; 711  :         // u > 0 ÇÃèÍçá
; 712  : 
; 713  :         if (v_is_zero)

	movsx	eax, BYTE PTR v_is_zero$[rbp]
	test	eax, eax
	je	SHORT $LN16@PMC_Add_X_

; 714  :         {
; 715  :             // v == 0 ÇÃèÍçá
; 716  : 
; 717  :             // u Çï‘Ç∑
; 718  :             if ((result = DuplicateNumber(nu, &nw)) != PMC_STATUS_OK)

	lea	rdx, QWORD PTR nw$[rbp]
	mov	rcx, QWORD PTR nu$[rbp]
	call	DuplicateNumber
	mov	DWORD PTR result$[rbp], eax
	cmp	DWORD PTR result$[rbp], 0
	je	SHORT $LN18@PMC_Add_X_

; 719  :                 return (result);

	mov	eax, DWORD PTR result$[rbp]
	jmp	$LN1@PMC_Add_X_
$LN18@PMC_Add_X_:

; 720  :         }

	jmp	SHORT $LN17@PMC_Add_X_
$LN16@PMC_Add_X_:

; 721  :         else
; 722  :         {
; 723  :             // v > 0 ÇÃèÍçá
; 724  : 
; 725  :             // abs(u) + v Çï‘Ç∑
; 726  :             if ((result = AddU_X_X_Imp(1, nu->ABS, v, &nw)) != PMC_STATUS_OK)

	lea	r9, QWORD PTR nw$[rbp]
	mov	r8, QWORD PTR v$[rbp]
	mov	rax, QWORD PTR nu$[rbp]
	mov	rdx, QWORD PTR [rax+8]
	mov	cl, 1
	call	AddU_X_X_Imp
	mov	DWORD PTR result$[rbp], eax
	cmp	DWORD PTR result$[rbp], 0
	je	SHORT $LN19@PMC_Add_X_

; 727  :                 return (result);

	mov	eax, DWORD PTR result$[rbp]
	jmp	SHORT $LN1@PMC_Add_X_
$LN19@PMC_Add_X_:
$LN17@PMC_Add_X_:

; 728  :         }
; 729  :     }

	jmp	SHORT $LN15@PMC_Add_X_
$LN14@PMC_Add_X_:

; 730  :     else
; 731  :     {
; 732  :         // u < 0 ÇÃèÍçá
; 733  : 
; 734  :         if (v_is_zero)

	movsx	eax, BYTE PTR v_is_zero$[rbp]
	test	eax, eax
	je	SHORT $LN20@PMC_Add_X_

; 735  :         {
; 736  :             // v == 0 ÇÃèÍçá
; 737  : 
; 738  :             // u Çï‘Ç∑
; 739  :             if ((result = DuplicateNumber(nu, &nw)) != PMC_STATUS_OK)

	lea	rdx, QWORD PTR nw$[rbp]
	mov	rcx, QWORD PTR nu$[rbp]
	call	DuplicateNumber
	mov	DWORD PTR result$[rbp], eax
	cmp	DWORD PTR result$[rbp], 0
	je	SHORT $LN22@PMC_Add_X_

; 740  :                 return (result);

	mov	eax, DWORD PTR result$[rbp]
	jmp	SHORT $LN1@PMC_Add_X_
$LN22@PMC_Add_X_:

; 741  :         }

	jmp	SHORT $LN21@PMC_Add_X_
$LN20@PMC_Add_X_:

; 742  :         else
; 743  :         {
; 744  :             // v > 0 ÇÃèÍçá
; 745  : 
; 746  :             // - abs(u) + v Çï‘Ç∑
; 747  :             if ((result = SubtructU_X_X_Imp(-1, nu->ABS, v, &nw)) != PMC_STATUS_OK)

	lea	r9, QWORD PTR nw$[rbp]
	mov	r8, QWORD PTR v$[rbp]
	mov	rax, QWORD PTR nu$[rbp]
	mov	rdx, QWORD PTR [rax+8]
	mov	cl, -1
	call	SubtructU_X_X_Imp
	mov	DWORD PTR result$[rbp], eax
	cmp	DWORD PTR result$[rbp], 0
	je	SHORT $LN23@PMC_Add_X_

; 748  :                 return (result);

	mov	eax, DWORD PTR result$[rbp]
	jmp	SHORT $LN1@PMC_Add_X_
$LN23@PMC_Add_X_:
$LN21@PMC_Add_X_:
$LN15@PMC_Add_X_:
$LN8@PMC_Add_X_:

; 749  :         }
; 750  : 
; 751  :     }
; 752  :     *w = (PMC_HANDLE_SINT)nw;

	mov	rax, QWORD PTR w$[rbp]
	mov	rcx, QWORD PTR nw$[rbp]
	mov	QWORD PTR [rax], rcx

; 753  :     return (PMC_STATUS_OK);

	xor	eax, eax
$LN1@PMC_Add_X_:

; 754  : }

	mov	rdi, rax
	lea	rcx, QWORD PTR [rbp-32]
	lea	rdx, OFFSET FLAT:PMC_Add_X_UX$rtcFrameData
	call	_RTC_CheckStackVars
	mov	rax, rdi
	mov	rcx, QWORD PTR __$ArrayPad$[rbp]
	xor	rcx, rbp
	call	__security_check_cookie
	lea	rsp, QWORD PTR [rbp+392]
	pop	rdi
	pop	rbp
	ret	0
PMC_Add_X_UX ENDP
_TEXT	ENDS
; Function compile flags: /Odtp /RTCsu /ZI
; File z:\sources\lunor\repos\rougemeilland\palmtree.math.core.sint\palmtree.math.core.sint\pmc_add_sub.c
;	COMDAT PMC_Add_X_L
_TEXT	SEGMENT
result$ = 4
nu$ = 40
nw$ = 72
v_sign$ = 100
v_abs$ = 136
__$ArrayPad$ = 344
u$ = 384
v$ = 392
w$ = 400
PMC_Add_X_L PROC					; COMDAT

; 570  : {

$LN27:
	mov	QWORD PTR [rsp+24], r8
	mov	QWORD PTR [rsp+16], rdx
	mov	QWORD PTR [rsp+8], rcx
	push	rbp
	push	rdi
	sub	rsp, 392				; 00000188H
	lea	rbp, QWORD PTR [rsp+32]
	mov	rdi, rsp
	mov	ecx, 98					; 00000062H
	mov	eax, -858993460				; ccccccccH
	rep stosd
	mov	rcx, QWORD PTR [rsp+424]
	mov	rax, QWORD PTR __security_cookie
	xor	rax, rbp
	mov	QWORD PTR __$ArrayPad$[rbp], rax
	lea	rcx, OFFSET FLAT:__5A8189A9_pmc_add_sub@c
	call	__CheckForDebuggerJustMyCode

; 571  :     if (u == NULL)

	cmp	QWORD PTR u$[rbp], 0
	jne	SHORT $LN2@PMC_Add_X_

; 572  :         return (PMC_STATUS_ARGUMENT_ERROR);

	mov	eax, -1
	jmp	$LN1@PMC_Add_X_
$LN2@PMC_Add_X_:

; 573  :     if (w == NULL)

	cmp	QWORD PTR w$[rbp], 0
	jne	SHORT $LN3@PMC_Add_X_

; 574  :         return (PMC_STATUS_ARGUMENT_ERROR);

	mov	eax, -1
	jmp	$LN1@PMC_Add_X_
$LN3@PMC_Add_X_:

; 575  :     PMC_STATUS_CODE result;
; 576  :     NUMBER_HEADER* nu = (NUMBER_HEADER*)u;

	mov	rax, QWORD PTR u$[rbp]
	mov	QWORD PTR nu$[rbp], rax

; 577  :     NUMBER_HEADER* nw;
; 578  :     if ((result = CheckNumber(nu)) != PMC_STATUS_OK)

	mov	rcx, QWORD PTR nu$[rbp]
	call	CheckNumber
	mov	DWORD PTR result$[rbp], eax
	cmp	DWORD PTR result$[rbp], 0
	je	SHORT $LN4@PMC_Add_X_

; 579  :         return (result);

	mov	eax, DWORD PTR result$[rbp]
	jmp	$LN1@PMC_Add_X_
$LN4@PMC_Add_X_:

; 580  :     char v_sign;
; 581  :     _UINT64_T v_abs = GET_ABS_64(v, &v_sign);

	lea	rdx, QWORD PTR v_sign$[rbp]
	mov	rcx, QWORD PTR v$[rbp]
	call	GET_ABS_64
	mov	QWORD PTR v_abs$[rbp], rax

; 582  :     if (nu->SIGN == 0)

	mov	rax, QWORD PTR nu$[rbp]
	movsx	eax, BYTE PTR [rax+16]
	test	eax, eax
	jne	SHORT $LN5@PMC_Add_X_

; 583  :     {
; 584  :         // u == 0 ÇÃèÍçá
; 585  : 
; 586  :         if (v_sign == 0)

	movsx	eax, BYTE PTR v_sign$[rbp]
	test	eax, eax
	jne	SHORT $LN7@PMC_Add_X_

; 587  :         {
; 588  :             // v == 0 ÇÃèÍçá
; 589  : 
; 590  :             // 0 Çï‘Ç∑
; 591  :             nw = &number_zero;

	lea	rax, OFFSET FLAT:number_zero
	mov	QWORD PTR nw$[rbp], rax

; 592  :         }

	jmp	SHORT $LN8@PMC_Add_X_
$LN7@PMC_Add_X_:

; 593  :         else
; 594  :         {
; 595  :             // v != 0 ÇÃèÍçá
; 596  : 
; 597  :             // v Çï‘Ç∑
; 598  :             if ((result = From_L_Imp(v_sign, v_abs, &nw)) != PMC_STATUS_OK)

	lea	r8, QWORD PTR nw$[rbp]
	mov	rdx, QWORD PTR v_abs$[rbp]
	movzx	ecx, BYTE PTR v_sign$[rbp]
	call	From_L_Imp
	mov	DWORD PTR result$[rbp], eax
	cmp	DWORD PTR result$[rbp], 0
	je	SHORT $LN9@PMC_Add_X_

; 599  :                 return (result);

	mov	eax, DWORD PTR result$[rbp]
	jmp	$LN1@PMC_Add_X_
$LN9@PMC_Add_X_:
$LN8@PMC_Add_X_:

; 600  :         }
; 601  :     }

	jmp	$LN6@PMC_Add_X_
$LN5@PMC_Add_X_:

; 602  :     else if (nu->SIGN > 0)

	mov	rax, QWORD PTR nu$[rbp]
	movsx	eax, BYTE PTR [rax+16]
	test	eax, eax
	jle	$LN10@PMC_Add_X_

; 603  :     {
; 604  :         // u > 0 ÇÃèÍçá
; 605  : 
; 606  :         if (v_sign == 0)

	movsx	eax, BYTE PTR v_sign$[rbp]
	test	eax, eax
	jne	SHORT $LN12@PMC_Add_X_

; 607  :         {
; 608  :             // v == 0 ÇÃèÍçá
; 609  : 
; 610  :             // u Çï‘Ç∑
; 611  :             if ((result = DuplicateNumber(nu, &nw)) != PMC_STATUS_OK)

	lea	rdx, QWORD PTR nw$[rbp]
	mov	rcx, QWORD PTR nu$[rbp]
	call	DuplicateNumber
	mov	DWORD PTR result$[rbp], eax
	cmp	DWORD PTR result$[rbp], 0
	je	SHORT $LN14@PMC_Add_X_

; 612  :                 return (result);

	mov	eax, DWORD PTR result$[rbp]
	jmp	$LN1@PMC_Add_X_
$LN14@PMC_Add_X_:

; 613  :         }

	jmp	SHORT $LN13@PMC_Add_X_
$LN12@PMC_Add_X_:

; 614  :         else if (v_sign > 0)

	movsx	eax, BYTE PTR v_sign$[rbp]
	test	eax, eax
	jle	SHORT $LN15@PMC_Add_X_

; 615  :         {
; 616  :             // v > 0 ÇÃèÍçá
; 617  : 
; 618  :             // abs(u) + abs(v) Çï‘Ç∑
; 619  :             if ((result = AddU_X_L_Imp(1, nu->ABS, v_abs, &nw)) != PMC_STATUS_OK)

	lea	r9, QWORD PTR nw$[rbp]
	mov	r8, QWORD PTR v_abs$[rbp]
	mov	rax, QWORD PTR nu$[rbp]
	mov	rdx, QWORD PTR [rax+8]
	mov	cl, 1
	call	AddU_X_L_Imp
	mov	DWORD PTR result$[rbp], eax
	cmp	DWORD PTR result$[rbp], 0
	je	SHORT $LN17@PMC_Add_X_

; 620  :                 return (result);

	mov	eax, DWORD PTR result$[rbp]
	jmp	$LN1@PMC_Add_X_
$LN17@PMC_Add_X_:

; 621  :         }

	jmp	SHORT $LN16@PMC_Add_X_
$LN15@PMC_Add_X_:

; 622  :         else
; 623  :         {
; 624  :             // v < 0 ÇÃèÍçá
; 625  : 
; 626  :             // abs(u) - abs(v) ÇåvéZÇ∑ÇÈ
; 627  :             if ((result = SubtructU_X_L_Imp(1, nu->ABS, v_abs, &nw)) != PMC_STATUS_OK)

	lea	r9, QWORD PTR nw$[rbp]
	mov	r8, QWORD PTR v_abs$[rbp]
	mov	rax, QWORD PTR nu$[rbp]
	mov	rdx, QWORD PTR [rax+8]
	mov	cl, 1
	call	SubtructU_X_L_Imp
	mov	DWORD PTR result$[rbp], eax
	cmp	DWORD PTR result$[rbp], 0
	je	SHORT $LN18@PMC_Add_X_

; 628  :                 return (result);

	mov	eax, DWORD PTR result$[rbp]
	jmp	$LN1@PMC_Add_X_
$LN18@PMC_Add_X_:
$LN16@PMC_Add_X_:
$LN13@PMC_Add_X_:

; 629  :         }
; 630  :     }

	jmp	SHORT $LN11@PMC_Add_X_
$LN10@PMC_Add_X_:

; 631  :     else
; 632  :     {
; 633  :         // u < 0 ÇÃèÍçá
; 634  : 
; 635  :         if (v_sign == 0)

	movsx	eax, BYTE PTR v_sign$[rbp]
	test	eax, eax
	jne	SHORT $LN19@PMC_Add_X_

; 636  :         {
; 637  :             // v == 0 ÇÃèÍçá
; 638  : 
; 639  :             // u Çï‘Ç∑
; 640  :             if ((result = DuplicateNumber(nu, &nw)) != PMC_STATUS_OK)

	lea	rdx, QWORD PTR nw$[rbp]
	mov	rcx, QWORD PTR nu$[rbp]
	call	DuplicateNumber
	mov	DWORD PTR result$[rbp], eax
	cmp	DWORD PTR result$[rbp], 0
	je	SHORT $LN21@PMC_Add_X_

; 641  :                 return (result);

	mov	eax, DWORD PTR result$[rbp]
	jmp	SHORT $LN1@PMC_Add_X_
$LN21@PMC_Add_X_:

; 642  :         }

	jmp	SHORT $LN20@PMC_Add_X_
$LN19@PMC_Add_X_:

; 643  :         else if (v_sign > 0)

	movsx	eax, BYTE PTR v_sign$[rbp]
	test	eax, eax
	jle	SHORT $LN22@PMC_Add_X_

; 644  :         {
; 645  :             // v > 0 ÇÃèÍçá
; 646  : 
; 647  :             // - abs(u) + abs(v) ÇåvéZÇ∑ÇÈ
; 648  :             if ((result = SubtructU_X_L_Imp(-1, nu->ABS, v_abs, &nw)) != PMC_STATUS_OK)

	lea	r9, QWORD PTR nw$[rbp]
	mov	r8, QWORD PTR v_abs$[rbp]
	mov	rax, QWORD PTR nu$[rbp]
	mov	rdx, QWORD PTR [rax+8]
	mov	cl, -1
	call	SubtructU_X_L_Imp
	mov	DWORD PTR result$[rbp], eax
	cmp	DWORD PTR result$[rbp], 0
	je	SHORT $LN24@PMC_Add_X_

; 649  :                 return (result);

	mov	eax, DWORD PTR result$[rbp]
	jmp	SHORT $LN1@PMC_Add_X_
$LN24@PMC_Add_X_:

; 650  :         }

	jmp	SHORT $LN23@PMC_Add_X_
$LN22@PMC_Add_X_:

; 651  :         else
; 652  :         {
; 653  :             // v < 0 ÇÃèÍçá
; 654  : 
; 655  :             // - abs(u) - abs(v) Çï‘Ç∑
; 656  :             if ((result = AddU_X_L_Imp(-1, nu->ABS, v_abs, &nw)) != PMC_STATUS_OK)

	lea	r9, QWORD PTR nw$[rbp]
	mov	r8, QWORD PTR v_abs$[rbp]
	mov	rax, QWORD PTR nu$[rbp]
	mov	rdx, QWORD PTR [rax+8]
	mov	cl, -1
	call	AddU_X_L_Imp
	mov	DWORD PTR result$[rbp], eax
	cmp	DWORD PTR result$[rbp], 0
	je	SHORT $LN25@PMC_Add_X_

; 657  :                 return (result);

	mov	eax, DWORD PTR result$[rbp]
	jmp	SHORT $LN1@PMC_Add_X_
$LN25@PMC_Add_X_:
$LN23@PMC_Add_X_:
$LN20@PMC_Add_X_:
$LN11@PMC_Add_X_:
$LN6@PMC_Add_X_:

; 658  :         }
; 659  :     }
; 660  :     *w = (PMC_HANDLE_SINT)nw;

	mov	rax, QWORD PTR w$[rbp]
	mov	rcx, QWORD PTR nw$[rbp]
	mov	QWORD PTR [rax], rcx

; 661  :     return (PMC_STATUS_OK);

	xor	eax, eax
$LN1@PMC_Add_X_:

; 662  : }

	mov	rdi, rax
	lea	rcx, QWORD PTR [rbp-32]
	lea	rdx, OFFSET FLAT:PMC_Add_X_L$rtcFrameData
	call	_RTC_CheckStackVars
	mov	rax, rdi
	mov	rcx, QWORD PTR __$ArrayPad$[rbp]
	xor	rcx, rbp
	call	__security_check_cookie
	lea	rsp, QWORD PTR [rbp+360]
	pop	rdi
	pop	rbp
	ret	0
PMC_Add_X_L ENDP
_TEXT	ENDS
; Function compile flags: /Odtp /RTCsu /ZI
; File z:\sources\lunor\repos\rougemeilland\palmtree.math.core.sint\palmtree.math.core.sint\pmc_add_sub.c
;	COMDAT PMC_Add_X_I
_TEXT	SEGMENT
result$ = 4
nu$ = 40
nw$ = 72
v_sign$ = 100
v_abs$ = 132
__$ArrayPad$ = 344
u$ = 384
v$ = 392
w$ = 400
PMC_Add_X_I PROC					; COMDAT

; 475  : {

$LN27:
	mov	QWORD PTR [rsp+24], r8
	mov	DWORD PTR [rsp+16], edx
	mov	QWORD PTR [rsp+8], rcx
	push	rbp
	push	rdi
	sub	rsp, 392				; 00000188H
	lea	rbp, QWORD PTR [rsp+32]
	mov	rdi, rsp
	mov	ecx, 98					; 00000062H
	mov	eax, -858993460				; ccccccccH
	rep stosd
	mov	rcx, QWORD PTR [rsp+424]
	mov	rax, QWORD PTR __security_cookie
	xor	rax, rbp
	mov	QWORD PTR __$ArrayPad$[rbp], rax
	lea	rcx, OFFSET FLAT:__5A8189A9_pmc_add_sub@c
	call	__CheckForDebuggerJustMyCode

; 476  :     if (u == NULL)

	cmp	QWORD PTR u$[rbp], 0
	jne	SHORT $LN2@PMC_Add_X_

; 477  :         return (PMC_STATUS_ARGUMENT_ERROR);

	mov	eax, -1
	jmp	$LN1@PMC_Add_X_
$LN2@PMC_Add_X_:

; 478  :     if (w == NULL)

	cmp	QWORD PTR w$[rbp], 0
	jne	SHORT $LN3@PMC_Add_X_

; 479  :         return (PMC_STATUS_ARGUMENT_ERROR);

	mov	eax, -1
	jmp	$LN1@PMC_Add_X_
$LN3@PMC_Add_X_:

; 480  :     PMC_STATUS_CODE result;
; 481  :     NUMBER_HEADER* nu = (NUMBER_HEADER*)u;

	mov	rax, QWORD PTR u$[rbp]
	mov	QWORD PTR nu$[rbp], rax

; 482  :     NUMBER_HEADER* nw;
; 483  :     if ((result = CheckNumber(nu)) != PMC_STATUS_OK)

	mov	rcx, QWORD PTR nu$[rbp]
	call	CheckNumber
	mov	DWORD PTR result$[rbp], eax
	cmp	DWORD PTR result$[rbp], 0
	je	SHORT $LN4@PMC_Add_X_

; 484  :         return (result);

	mov	eax, DWORD PTR result$[rbp]
	jmp	$LN1@PMC_Add_X_
$LN4@PMC_Add_X_:

; 485  :     char v_sign;
; 486  :     _UINT32_T v_abs = GET_ABS_32(v, &v_sign);

	lea	rdx, QWORD PTR v_sign$[rbp]
	mov	ecx, DWORD PTR v$[rbp]
	call	GET_ABS_32
	mov	DWORD PTR v_abs$[rbp], eax

; 487  :     if (nu->SIGN == 0)

	mov	rax, QWORD PTR nu$[rbp]
	movsx	eax, BYTE PTR [rax+16]
	test	eax, eax
	jne	SHORT $LN5@PMC_Add_X_

; 488  :     {
; 489  :         // u == 0 ÇÃèÍçá
; 490  : 
; 491  :         if (v_sign == 0)

	movsx	eax, BYTE PTR v_sign$[rbp]
	test	eax, eax
	jne	SHORT $LN7@PMC_Add_X_

; 492  :         {
; 493  :             // v == 0 ÇÃèÍçá
; 494  : 
; 495  :             // 0 Çï‘Ç∑
; 496  :             nw = &number_zero;

	lea	rax, OFFSET FLAT:number_zero
	mov	QWORD PTR nw$[rbp], rax

; 497  :         }

	jmp	SHORT $LN8@PMC_Add_X_
$LN7@PMC_Add_X_:

; 498  :         else
; 499  :         {
; 500  :             // v != 0 ÇÃèÍçá
; 501  : 
; 502  :             // v Çï‘Ç∑
; 503  :             if ((result = From_I_Imp(v_sign, v_abs, &nw)) != PMC_STATUS_OK)

	lea	r8, QWORD PTR nw$[rbp]
	mov	edx, DWORD PTR v_abs$[rbp]
	movzx	ecx, BYTE PTR v_sign$[rbp]
	call	From_I_Imp
	mov	DWORD PTR result$[rbp], eax
	cmp	DWORD PTR result$[rbp], 0
	je	SHORT $LN9@PMC_Add_X_

; 504  :                 return (result);

	mov	eax, DWORD PTR result$[rbp]
	jmp	$LN1@PMC_Add_X_
$LN9@PMC_Add_X_:
$LN8@PMC_Add_X_:

; 505  :         }
; 506  :     }

	jmp	$LN6@PMC_Add_X_
$LN5@PMC_Add_X_:

; 507  :     else if (nu->SIGN > 0)

	mov	rax, QWORD PTR nu$[rbp]
	movsx	eax, BYTE PTR [rax+16]
	test	eax, eax
	jle	$LN10@PMC_Add_X_

; 508  :     {
; 509  :         // u > 0 ÇÃèÍçá
; 510  : 
; 511  :         if (v_sign == 0)

	movsx	eax, BYTE PTR v_sign$[rbp]
	test	eax, eax
	jne	SHORT $LN12@PMC_Add_X_

; 512  :         {
; 513  :             // v == 0 ÇÃèÍçá
; 514  : 
; 515  :             // u Çï‘Ç∑
; 516  :             if ((result = DuplicateNumber(nu, &nw)) != PMC_STATUS_OK)

	lea	rdx, QWORD PTR nw$[rbp]
	mov	rcx, QWORD PTR nu$[rbp]
	call	DuplicateNumber
	mov	DWORD PTR result$[rbp], eax
	cmp	DWORD PTR result$[rbp], 0
	je	SHORT $LN14@PMC_Add_X_

; 517  :                 return (result);

	mov	eax, DWORD PTR result$[rbp]
	jmp	$LN1@PMC_Add_X_
$LN14@PMC_Add_X_:

; 518  :         }

	jmp	SHORT $LN13@PMC_Add_X_
$LN12@PMC_Add_X_:

; 519  :         else if (v_sign > 0)

	movsx	eax, BYTE PTR v_sign$[rbp]
	test	eax, eax
	jle	SHORT $LN15@PMC_Add_X_

; 520  :         {
; 521  :             // v > 0 ÇÃèÍçá
; 522  : 
; 523  :             // abs(u) + abs(v) Çï‘Ç∑
; 524  :             if ((result = AddU_X_I_Imp(1, nu->ABS, v_abs, &nw)) != PMC_STATUS_OK)

	lea	r9, QWORD PTR nw$[rbp]
	mov	r8d, DWORD PTR v_abs$[rbp]
	mov	rax, QWORD PTR nu$[rbp]
	mov	rdx, QWORD PTR [rax+8]
	mov	cl, 1
	call	AddU_X_I_Imp
	mov	DWORD PTR result$[rbp], eax
	cmp	DWORD PTR result$[rbp], 0
	je	SHORT $LN17@PMC_Add_X_

; 525  :                 return (result);

	mov	eax, DWORD PTR result$[rbp]
	jmp	$LN1@PMC_Add_X_
$LN17@PMC_Add_X_:

; 526  :         }

	jmp	SHORT $LN16@PMC_Add_X_
$LN15@PMC_Add_X_:

; 527  :         else
; 528  :         {
; 529  :             // v < 0 ÇÃèÍçá
; 530  : 
; 531  :             // abs(u) - abs(v) ÇåvéZÇ∑ÇÈ
; 532  :             if ((result = SubtructU_X_I_Imp(1, nu->ABS, v_abs, &nw)) != PMC_STATUS_OK)

	lea	r9, QWORD PTR nw$[rbp]
	mov	r8d, DWORD PTR v_abs$[rbp]
	mov	rax, QWORD PTR nu$[rbp]
	mov	rdx, QWORD PTR [rax+8]
	mov	cl, 1
	call	SubtructU_X_I_Imp
	mov	DWORD PTR result$[rbp], eax
	cmp	DWORD PTR result$[rbp], 0
	je	SHORT $LN18@PMC_Add_X_

; 533  :                 return (result);

	mov	eax, DWORD PTR result$[rbp]
	jmp	$LN1@PMC_Add_X_
$LN18@PMC_Add_X_:
$LN16@PMC_Add_X_:
$LN13@PMC_Add_X_:

; 534  :         }
; 535  :     }

	jmp	SHORT $LN11@PMC_Add_X_
$LN10@PMC_Add_X_:

; 536  :     else
; 537  :     {
; 538  :         // u < 0 ÇÃèÍçá
; 539  : 
; 540  :         if (v_sign == 0)

	movsx	eax, BYTE PTR v_sign$[rbp]
	test	eax, eax
	jne	SHORT $LN19@PMC_Add_X_

; 541  :         {
; 542  :             // v == 0 ÇÃèÍçá
; 543  : 
; 544  :             // u Çï‘Ç∑
; 545  :             if ((result = DuplicateNumber(nu, &nw)) != PMC_STATUS_OK)

	lea	rdx, QWORD PTR nw$[rbp]
	mov	rcx, QWORD PTR nu$[rbp]
	call	DuplicateNumber
	mov	DWORD PTR result$[rbp], eax
	cmp	DWORD PTR result$[rbp], 0
	je	SHORT $LN21@PMC_Add_X_

; 546  :                 return (result);

	mov	eax, DWORD PTR result$[rbp]
	jmp	SHORT $LN1@PMC_Add_X_
$LN21@PMC_Add_X_:

; 547  :         }

	jmp	SHORT $LN20@PMC_Add_X_
$LN19@PMC_Add_X_:

; 548  :         else if (v_sign > 0)

	movsx	eax, BYTE PTR v_sign$[rbp]
	test	eax, eax
	jle	SHORT $LN22@PMC_Add_X_

; 549  :         {
; 550  :             // v > 0 ÇÃèÍçá
; 551  : 
; 552  :             // - abs(u) + abs(v) ÇåvéZÇ∑ÇÈ
; 553  :             if ((result = SubtructU_X_I_Imp(-1, nu->ABS, v_abs, &nw)) != PMC_STATUS_OK)

	lea	r9, QWORD PTR nw$[rbp]
	mov	r8d, DWORD PTR v_abs$[rbp]
	mov	rax, QWORD PTR nu$[rbp]
	mov	rdx, QWORD PTR [rax+8]
	mov	cl, -1
	call	SubtructU_X_I_Imp
	mov	DWORD PTR result$[rbp], eax
	cmp	DWORD PTR result$[rbp], 0
	je	SHORT $LN24@PMC_Add_X_

; 554  :                 return (result);

	mov	eax, DWORD PTR result$[rbp]
	jmp	SHORT $LN1@PMC_Add_X_
$LN24@PMC_Add_X_:

; 555  :         }

	jmp	SHORT $LN23@PMC_Add_X_
$LN22@PMC_Add_X_:

; 556  :         else
; 557  :         {
; 558  :             // v < 0 ÇÃèÍçá
; 559  : 
; 560  :             // - abs(u) - abs(v) Çï‘Ç∑
; 561  :             if ((result = AddU_X_I_Imp(-1, nu->ABS, v_abs, &nw)) != PMC_STATUS_OK)

	lea	r9, QWORD PTR nw$[rbp]
	mov	r8d, DWORD PTR v_abs$[rbp]
	mov	rax, QWORD PTR nu$[rbp]
	mov	rdx, QWORD PTR [rax+8]
	mov	cl, -1
	call	AddU_X_I_Imp
	mov	DWORD PTR result$[rbp], eax
	cmp	DWORD PTR result$[rbp], 0
	je	SHORT $LN25@PMC_Add_X_

; 562  :                 return (result);

	mov	eax, DWORD PTR result$[rbp]
	jmp	SHORT $LN1@PMC_Add_X_
$LN25@PMC_Add_X_:
$LN23@PMC_Add_X_:
$LN20@PMC_Add_X_:
$LN11@PMC_Add_X_:
$LN6@PMC_Add_X_:

; 563  :         }
; 564  :     }
; 565  :     *w = (PMC_HANDLE_SINT)nw;

	mov	rax, QWORD PTR w$[rbp]
	mov	rcx, QWORD PTR nw$[rbp]
	mov	QWORD PTR [rax], rcx

; 566  :     return (PMC_STATUS_OK);

	xor	eax, eax
$LN1@PMC_Add_X_:

; 567  : }

	mov	rdi, rax
	lea	rcx, QWORD PTR [rbp-32]
	lea	rdx, OFFSET FLAT:PMC_Add_X_I$rtcFrameData
	call	_RTC_CheckStackVars
	mov	rax, rdi
	mov	rcx, QWORD PTR __$ArrayPad$[rbp]
	xor	rcx, rbp
	call	__security_check_cookie
	lea	rsp, QWORD PTR [rbp+360]
	pop	rdi
	pop	rbp
	ret	0
PMC_Add_X_I ENDP
_TEXT	ENDS
; Function compile flags: /Odtp /RTCsu /ZI
; File z:\sources\lunor\repos\rougemeilland\palmtree.math.core.sint\palmtree.math.core.sint\pmc_add_sub.c
;	COMDAT PMC_Add_UX_X
_TEXT	SEGMENT
result$ = 4
nv$ = 40
nw$ = 72
u_is_zero$ = 100
new_u$6 = 136
__$ArrayPad$ = 344
u$ = 384
v$ = 392
w$ = 400
PMC_Add_UX_X PROC					; COMDAT

; 402  : {

$LN20:
	mov	QWORD PTR [rsp+24], r8
	mov	QWORD PTR [rsp+16], rdx
	mov	QWORD PTR [rsp+8], rcx
	push	rbp
	push	rdi
	sub	rsp, 392				; 00000188H
	lea	rbp, QWORD PTR [rsp+32]
	mov	rdi, rsp
	mov	ecx, 98					; 00000062H
	mov	eax, -858993460				; ccccccccH
	rep stosd
	mov	rcx, QWORD PTR [rsp+424]
	mov	rax, QWORD PTR __security_cookie
	xor	rax, rbp
	mov	QWORD PTR __$ArrayPad$[rbp], rax
	lea	rcx, OFFSET FLAT:__5A8189A9_pmc_add_sub@c
	call	__CheckForDebuggerJustMyCode

; 403  :     if (v == NULL)

	cmp	QWORD PTR v$[rbp], 0
	jne	SHORT $LN2@PMC_Add_UX

; 404  :         return (PMC_STATUS_ARGUMENT_ERROR);

	mov	eax, -1
	jmp	$LN1@PMC_Add_UX
$LN2@PMC_Add_UX:

; 405  :     if (w == NULL)

	cmp	QWORD PTR w$[rbp], 0
	jne	SHORT $LN3@PMC_Add_UX

; 406  :         return (PMC_STATUS_ARGUMENT_ERROR);

	mov	eax, -1
	jmp	$LN1@PMC_Add_UX
$LN3@PMC_Add_UX:

; 407  :     PMC_STATUS_CODE result;
; 408  :     NUMBER_HEADER* nv = (NUMBER_HEADER*)v;

	mov	rax, QWORD PTR v$[rbp]
	mov	QWORD PTR nv$[rbp], rax

; 409  :     NUMBER_HEADER* nw;
; 410  :     if ((result = CheckNumber(nv)) != PMC_STATUS_OK)

	mov	rcx, QWORD PTR nv$[rbp]
	call	CheckNumber
	mov	DWORD PTR result$[rbp], eax
	cmp	DWORD PTR result$[rbp], 0
	je	SHORT $LN4@PMC_Add_UX

; 411  :         return (result);

	mov	eax, DWORD PTR result$[rbp]
	jmp	$LN1@PMC_Add_UX
$LN4@PMC_Add_UX:

; 412  :     char u_is_zero;
; 413  :     if ((result = IsZero_UINT(u, &u_is_zero)) != PMC_STATUS_OK)

	lea	rdx, QWORD PTR u_is_zero$[rbp]
	mov	rcx, QWORD PTR u$[rbp]
	call	IsZero_UINT
	mov	DWORD PTR result$[rbp], eax
	cmp	DWORD PTR result$[rbp], 0
	je	SHORT $LN5@PMC_Add_UX

; 414  :         return (result);

	mov	eax, DWORD PTR result$[rbp]
	jmp	$LN1@PMC_Add_UX
$LN5@PMC_Add_UX:

; 415  :     if (u_is_zero)

	movsx	eax, BYTE PTR u_is_zero$[rbp]
	test	eax, eax
	je	SHORT $LN6@PMC_Add_UX

; 416  :     {
; 417  :         // u == 0 ÇÃèÍçá
; 418  : 
; 419  :         if (nv->SIGN == 0)

	mov	rax, QWORD PTR nv$[rbp]
	movsx	eax, BYTE PTR [rax+16]
	test	eax, eax
	jne	SHORT $LN8@PMC_Add_UX

; 420  :         {
; 421  :             // v == 0 ÇÃèÍçá
; 422  : 
; 423  :             // 0 Çï‘Ç∑
; 424  :             nw = &number_zero;

	lea	rax, OFFSET FLAT:number_zero
	mov	QWORD PTR nw$[rbp], rax

; 425  :         }

	jmp	SHORT $LN9@PMC_Add_UX
$LN8@PMC_Add_UX:

; 426  :         else
; 427  :         {
; 428  :             // v != 0 ÇÃèÍçá
; 429  : 
; 430  :             // v Çï‘Ç∑
; 431  :             if ((result = DuplicateNumber(nv, &nw)) != PMC_STATUS_OK)

	lea	rdx, QWORD PTR nw$[rbp]
	mov	rcx, QWORD PTR nv$[rbp]
	call	DuplicateNumber
	mov	DWORD PTR result$[rbp], eax
	cmp	DWORD PTR result$[rbp], 0
	je	SHORT $LN10@PMC_Add_UX

; 432  :                 return (result);

	mov	eax, DWORD PTR result$[rbp]
	jmp	$LN1@PMC_Add_UX
$LN10@PMC_Add_UX:
$LN9@PMC_Add_UX:

; 433  :         }
; 434  :     }

	jmp	$LN7@PMC_Add_UX
$LN6@PMC_Add_UX:

; 435  :     else
; 436  :     {
; 437  :         // u > 0 ÇÃèÍçá
; 438  : 
; 439  :         if (nv->SIGN == 0)

	mov	rax, QWORD PTR nv$[rbp]
	movsx	eax, BYTE PTR [rax+16]
	test	eax, eax
	jne	SHORT $LN11@PMC_Add_UX

; 440  :         {
; 441  :             // v == 0 ÇÃèÍçá
; 442  : 
; 443  :             // u Çï‘Ç∑
; 444  :             PMC_HANDLE_UINT new_u;
; 445  :             if ((result = ep_uint.Clone_X(u, &new_u)) != PMC_STATUS_OK)

	lea	rdx, QWORD PTR new_u$6[rbp]
	mov	rcx, QWORD PTR u$[rbp]
	call	QWORD PTR ep_uint+88
	mov	DWORD PTR result$[rbp], eax
	cmp	DWORD PTR result$[rbp], 0
	je	SHORT $LN13@PMC_Add_UX

; 446  :                 return (result);

	mov	eax, DWORD PTR result$[rbp]
	jmp	$LN1@PMC_Add_UX
$LN13@PMC_Add_UX:

; 447  :             if ((result = AllocateNumber(&nw, 1, new_u)) != PMC_STATUS_OK)

	mov	r8, QWORD PTR new_u$6[rbp]
	mov	dl, 1
	lea	rcx, QWORD PTR nw$[rbp]
	call	AllocateNumber
	mov	DWORD PTR result$[rbp], eax
	cmp	DWORD PTR result$[rbp], 0
	je	SHORT $LN14@PMC_Add_UX

; 448  :             {
; 449  :                 ep_uint.Dispose(new_u);

	mov	rcx, QWORD PTR new_u$6[rbp]
	call	QWORD PTR ep_uint+32

; 450  :                 return (result);

	mov	eax, DWORD PTR result$[rbp]
	jmp	SHORT $LN1@PMC_Add_UX
$LN14@PMC_Add_UX:

; 451  :             }
; 452  :         }

	jmp	SHORT $LN12@PMC_Add_UX
$LN11@PMC_Add_UX:

; 453  :         else if (nv->SIGN > 0)

	mov	rax, QWORD PTR nv$[rbp]
	movsx	eax, BYTE PTR [rax+16]
	test	eax, eax
	jle	SHORT $LN15@PMC_Add_UX

; 454  :         {
; 455  :             // v > 0 ÇÃèÍçá
; 456  : 
; 457  :             // u + abs(v) Çï‘Ç∑
; 458  :             if ((result = AddU_X_X_Imp(1, u, nv->ABS, &nw)) != PMC_STATUS_OK)

	lea	r9, QWORD PTR nw$[rbp]
	mov	rax, QWORD PTR nv$[rbp]
	mov	r8, QWORD PTR [rax+8]
	mov	rdx, QWORD PTR u$[rbp]
	mov	cl, 1
	call	AddU_X_X_Imp
	mov	DWORD PTR result$[rbp], eax
	cmp	DWORD PTR result$[rbp], 0
	je	SHORT $LN17@PMC_Add_UX

; 459  :                 return (result);

	mov	eax, DWORD PTR result$[rbp]
	jmp	SHORT $LN1@PMC_Add_UX
$LN17@PMC_Add_UX:

; 460  :         }

	jmp	SHORT $LN16@PMC_Add_UX
$LN15@PMC_Add_UX:

; 461  :         else
; 462  :         {
; 463  :             // v < 0 ÇÃèÍçá
; 464  : 
; 465  :             // u - abs(v) ÇåvéZÇ∑ÇÈ
; 466  :             if ((result = SubtructU_X_X_Imp(1, u, nv->ABS, &nw)) != PMC_STATUS_OK)

	lea	r9, QWORD PTR nw$[rbp]
	mov	rax, QWORD PTR nv$[rbp]
	mov	r8, QWORD PTR [rax+8]
	mov	rdx, QWORD PTR u$[rbp]
	mov	cl, 1
	call	SubtructU_X_X_Imp
	mov	DWORD PTR result$[rbp], eax
	cmp	DWORD PTR result$[rbp], 0
	je	SHORT $LN18@PMC_Add_UX

; 467  :                 return (result);

	mov	eax, DWORD PTR result$[rbp]
	jmp	SHORT $LN1@PMC_Add_UX
$LN18@PMC_Add_UX:
$LN16@PMC_Add_UX:
$LN12@PMC_Add_UX:
$LN7@PMC_Add_UX:

; 468  :         }
; 469  :     }
; 470  :     *w = (PMC_HANDLE_SINT)nw;

	mov	rax, QWORD PTR w$[rbp]
	mov	rcx, QWORD PTR nw$[rbp]
	mov	QWORD PTR [rax], rcx

; 471  :     return (PMC_STATUS_OK);

	xor	eax, eax
$LN1@PMC_Add_UX:

; 472  : }

	mov	rdi, rax
	lea	rcx, QWORD PTR [rbp-32]
	lea	rdx, OFFSET FLAT:PMC_Add_UX_X$rtcFrameData
	call	_RTC_CheckStackVars
	mov	rax, rdi
	mov	rcx, QWORD PTR __$ArrayPad$[rbp]
	xor	rcx, rbp
	call	__security_check_cookie
	lea	rsp, QWORD PTR [rbp+360]
	pop	rdi
	pop	rbp
	ret	0
PMC_Add_UX_X ENDP
_TEXT	ENDS
; Function compile flags: /Odtp /RTCsu /ZI
; File z:\sources\lunor\repos\rougemeilland\palmtree.math.core.sint\palmtree.math.core.sint\pmc_add_sub.c
;	COMDAT PMC_Add_L_X
_TEXT	SEGMENT
result$ = 4
nv$ = 40
nw$ = 72
u_sign$ = 100
u_abs$ = 136
__$ArrayPad$ = 344
u$ = 384
v$ = 392
w$ = 400
PMC_Add_L_X PROC					; COMDAT

; 307  : {

$LN27:
	mov	QWORD PTR [rsp+24], r8
	mov	QWORD PTR [rsp+16], rdx
	mov	QWORD PTR [rsp+8], rcx
	push	rbp
	push	rdi
	sub	rsp, 392				; 00000188H
	lea	rbp, QWORD PTR [rsp+32]
	mov	rdi, rsp
	mov	ecx, 98					; 00000062H
	mov	eax, -858993460				; ccccccccH
	rep stosd
	mov	rcx, QWORD PTR [rsp+424]
	mov	rax, QWORD PTR __security_cookie
	xor	rax, rbp
	mov	QWORD PTR __$ArrayPad$[rbp], rax
	lea	rcx, OFFSET FLAT:__5A8189A9_pmc_add_sub@c
	call	__CheckForDebuggerJustMyCode

; 308  :     if (v == NULL)

	cmp	QWORD PTR v$[rbp], 0
	jne	SHORT $LN2@PMC_Add_L_

; 309  :         return (PMC_STATUS_ARGUMENT_ERROR);

	mov	eax, -1
	jmp	$LN1@PMC_Add_L_
$LN2@PMC_Add_L_:

; 310  :     if (w == NULL)

	cmp	QWORD PTR w$[rbp], 0
	jne	SHORT $LN3@PMC_Add_L_

; 311  :         return (PMC_STATUS_ARGUMENT_ERROR);

	mov	eax, -1
	jmp	$LN1@PMC_Add_L_
$LN3@PMC_Add_L_:

; 312  :     PMC_STATUS_CODE result;
; 313  :     NUMBER_HEADER* nv = (NUMBER_HEADER*)v;

	mov	rax, QWORD PTR v$[rbp]
	mov	QWORD PTR nv$[rbp], rax

; 314  :     NUMBER_HEADER* nw;
; 315  :     if ((result = CheckNumber(nv)) != PMC_STATUS_OK)

	mov	rcx, QWORD PTR nv$[rbp]
	call	CheckNumber
	mov	DWORD PTR result$[rbp], eax
	cmp	DWORD PTR result$[rbp], 0
	je	SHORT $LN4@PMC_Add_L_

; 316  :         return (result);

	mov	eax, DWORD PTR result$[rbp]
	jmp	$LN1@PMC_Add_L_
$LN4@PMC_Add_L_:

; 317  :     char u_sign;
; 318  :     _UINT64_T u_abs = GET_ABS_64(u, &u_sign);

	lea	rdx, QWORD PTR u_sign$[rbp]
	mov	rcx, QWORD PTR u$[rbp]
	call	GET_ABS_64
	mov	QWORD PTR u_abs$[rbp], rax

; 319  :     if (u_sign == 0)

	movsx	eax, BYTE PTR u_sign$[rbp]
	test	eax, eax
	jne	SHORT $LN5@PMC_Add_L_

; 320  :     {
; 321  :         // u == 0 ÇÃèÍçá
; 322  : 
; 323  :         if (nv->SIGN == 0)

	mov	rax, QWORD PTR nv$[rbp]
	movsx	eax, BYTE PTR [rax+16]
	test	eax, eax
	jne	SHORT $LN7@PMC_Add_L_

; 324  :         {
; 325  :             // v == 0 ÇÃèÍçá
; 326  : 
; 327  :             // 0 Çï‘Ç∑
; 328  :             nw = &number_zero;

	lea	rax, OFFSET FLAT:number_zero
	mov	QWORD PTR nw$[rbp], rax

; 329  :         }

	jmp	SHORT $LN8@PMC_Add_L_
$LN7@PMC_Add_L_:

; 330  :         else
; 331  :         {
; 332  :             // v != 0 ÇÃèÍçá
; 333  : 
; 334  :             // v Çï‘Ç∑
; 335  :             if ((result = DuplicateNumber(nv, &nw)) != PMC_STATUS_OK)

	lea	rdx, QWORD PTR nw$[rbp]
	mov	rcx, QWORD PTR nv$[rbp]
	call	DuplicateNumber
	mov	DWORD PTR result$[rbp], eax
	cmp	DWORD PTR result$[rbp], 0
	je	SHORT $LN9@PMC_Add_L_

; 336  :                 return (result);

	mov	eax, DWORD PTR result$[rbp]
	jmp	$LN1@PMC_Add_L_
$LN9@PMC_Add_L_:
$LN8@PMC_Add_L_:

; 337  :         }
; 338  :     }

	jmp	$LN6@PMC_Add_L_
$LN5@PMC_Add_L_:

; 339  :     else if (u_sign > 0)

	movsx	eax, BYTE PTR u_sign$[rbp]
	test	eax, eax
	jle	$LN10@PMC_Add_L_

; 340  :     {
; 341  :         // u > 0 ÇÃèÍçá
; 342  : 
; 343  :         if (nv->SIGN == 0)

	mov	rax, QWORD PTR nv$[rbp]
	movsx	eax, BYTE PTR [rax+16]
	test	eax, eax
	jne	SHORT $LN12@PMC_Add_L_

; 344  :         {
; 345  :             // v == 0 ÇÃèÍçá
; 346  : 
; 347  :             // u Çï‘Ç∑
; 348  :             if ((result = From_L_Imp(u_sign, u_abs, &nw)) != PMC_STATUS_OK)

	lea	r8, QWORD PTR nw$[rbp]
	mov	rdx, QWORD PTR u_abs$[rbp]
	movzx	ecx, BYTE PTR u_sign$[rbp]
	call	From_L_Imp
	mov	DWORD PTR result$[rbp], eax
	cmp	DWORD PTR result$[rbp], 0
	je	SHORT $LN14@PMC_Add_L_

; 349  :                 return (result);

	mov	eax, DWORD PTR result$[rbp]
	jmp	$LN1@PMC_Add_L_
$LN14@PMC_Add_L_:

; 350  :         }

	jmp	SHORT $LN13@PMC_Add_L_
$LN12@PMC_Add_L_:

; 351  :         else if (nv->SIGN > 0)

	mov	rax, QWORD PTR nv$[rbp]
	movsx	eax, BYTE PTR [rax+16]
	test	eax, eax
	jle	SHORT $LN15@PMC_Add_L_

; 352  :         {
; 353  :             // v > 0 ÇÃèÍçá
; 354  : 
; 355  :             // abs(u) + abs(v) Çï‘Ç∑
; 356  :             if ((result = AddU_X_L_Imp(1, nv->ABS, u_abs, &nw)) != PMC_STATUS_OK)

	lea	r9, QWORD PTR nw$[rbp]
	mov	r8, QWORD PTR u_abs$[rbp]
	mov	rax, QWORD PTR nv$[rbp]
	mov	rdx, QWORD PTR [rax+8]
	mov	cl, 1
	call	AddU_X_L_Imp
	mov	DWORD PTR result$[rbp], eax
	cmp	DWORD PTR result$[rbp], 0
	je	SHORT $LN17@PMC_Add_L_

; 357  :                 return (result);

	mov	eax, DWORD PTR result$[rbp]
	jmp	$LN1@PMC_Add_L_
$LN17@PMC_Add_L_:

; 358  :         }

	jmp	SHORT $LN16@PMC_Add_L_
$LN15@PMC_Add_L_:

; 359  :         else
; 360  :         {
; 361  :             // v < 0 ÇÃèÍçá
; 362  : 
; 363  :             // abs(u) - abs(v) ÇåvéZÇ∑ÇÈ
; 364  :             if ((result = SubtructU_X_L_Imp(-1, nv->ABS, u_abs, &nw)) != PMC_STATUS_OK)

	lea	r9, QWORD PTR nw$[rbp]
	mov	r8, QWORD PTR u_abs$[rbp]
	mov	rax, QWORD PTR nv$[rbp]
	mov	rdx, QWORD PTR [rax+8]
	mov	cl, -1
	call	SubtructU_X_L_Imp
	mov	DWORD PTR result$[rbp], eax
	cmp	DWORD PTR result$[rbp], 0
	je	SHORT $LN18@PMC_Add_L_

; 365  :                 return (result);

	mov	eax, DWORD PTR result$[rbp]
	jmp	$LN1@PMC_Add_L_
$LN18@PMC_Add_L_:
$LN16@PMC_Add_L_:
$LN13@PMC_Add_L_:

; 366  :         }
; 367  :     }

	jmp	$LN11@PMC_Add_L_
$LN10@PMC_Add_L_:

; 368  :     else
; 369  :     {
; 370  :         // u < 0 ÇÃèÍçá
; 371  : 
; 372  :         if (nv->SIGN == 0)

	mov	rax, QWORD PTR nv$[rbp]
	movsx	eax, BYTE PTR [rax+16]
	test	eax, eax
	jne	SHORT $LN19@PMC_Add_L_

; 373  :         {
; 374  :             // v == 0 ÇÃèÍçá
; 375  : 
; 376  :             // u Çï‘Ç∑
; 377  :             if ((result = From_L_Imp(u_sign, u_abs, &nw)) != PMC_STATUS_OK)

	lea	r8, QWORD PTR nw$[rbp]
	mov	rdx, QWORD PTR u_abs$[rbp]
	movzx	ecx, BYTE PTR u_sign$[rbp]
	call	From_L_Imp
	mov	DWORD PTR result$[rbp], eax
	cmp	DWORD PTR result$[rbp], 0
	je	SHORT $LN21@PMC_Add_L_

; 378  :                 return (result);

	mov	eax, DWORD PTR result$[rbp]
	jmp	SHORT $LN1@PMC_Add_L_
$LN21@PMC_Add_L_:

; 379  :         }

	jmp	SHORT $LN20@PMC_Add_L_
$LN19@PMC_Add_L_:

; 380  :         else if (nv->SIGN > 0)

	mov	rax, QWORD PTR nv$[rbp]
	movsx	eax, BYTE PTR [rax+16]
	test	eax, eax
	jle	SHORT $LN22@PMC_Add_L_

; 381  :         {
; 382  :             // v > 0 ÇÃèÍçá
; 383  : 
; 384  :             // - abs(u) + abs(v) ÇåvéZÇ∑ÇÈ
; 385  :             if ((result = SubtructU_X_L_Imp(1, nv->ABS, u_abs, &nw)) != PMC_STATUS_OK)

	lea	r9, QWORD PTR nw$[rbp]
	mov	r8, QWORD PTR u_abs$[rbp]
	mov	rax, QWORD PTR nv$[rbp]
	mov	rdx, QWORD PTR [rax+8]
	mov	cl, 1
	call	SubtructU_X_L_Imp
	mov	DWORD PTR result$[rbp], eax
	cmp	DWORD PTR result$[rbp], 0
	je	SHORT $LN24@PMC_Add_L_

; 386  :                 return (result);

	mov	eax, DWORD PTR result$[rbp]
	jmp	SHORT $LN1@PMC_Add_L_
$LN24@PMC_Add_L_:

; 387  :         }

	jmp	SHORT $LN23@PMC_Add_L_
$LN22@PMC_Add_L_:

; 388  :         else
; 389  :         {
; 390  :             // v < 0 ÇÃèÍçá
; 391  : 
; 392  :             // - abs(u) - abs(v) Çï‘Ç∑
; 393  :             if ((result = AddU_X_L_Imp(-1, nv->ABS, u_abs, &nw)) != PMC_STATUS_OK)

	lea	r9, QWORD PTR nw$[rbp]
	mov	r8, QWORD PTR u_abs$[rbp]
	mov	rax, QWORD PTR nv$[rbp]
	mov	rdx, QWORD PTR [rax+8]
	mov	cl, -1
	call	AddU_X_L_Imp
	mov	DWORD PTR result$[rbp], eax
	cmp	DWORD PTR result$[rbp], 0
	je	SHORT $LN25@PMC_Add_L_

; 394  :                 return (result);

	mov	eax, DWORD PTR result$[rbp]
	jmp	SHORT $LN1@PMC_Add_L_
$LN25@PMC_Add_L_:
$LN23@PMC_Add_L_:
$LN20@PMC_Add_L_:
$LN11@PMC_Add_L_:
$LN6@PMC_Add_L_:

; 395  :         }
; 396  :     }
; 397  :     *w = (PMC_HANDLE_SINT)nw;

	mov	rax, QWORD PTR w$[rbp]
	mov	rcx, QWORD PTR nw$[rbp]
	mov	QWORD PTR [rax], rcx

; 398  :     return (PMC_STATUS_OK);

	xor	eax, eax
$LN1@PMC_Add_L_:

; 399  : }

	mov	rdi, rax
	lea	rcx, QWORD PTR [rbp-32]
	lea	rdx, OFFSET FLAT:PMC_Add_L_X$rtcFrameData
	call	_RTC_CheckStackVars
	mov	rax, rdi
	mov	rcx, QWORD PTR __$ArrayPad$[rbp]
	xor	rcx, rbp
	call	__security_check_cookie
	lea	rsp, QWORD PTR [rbp+360]
	pop	rdi
	pop	rbp
	ret	0
PMC_Add_L_X ENDP
_TEXT	ENDS
; Function compile flags: /Odtp /RTCsu /ZI
; File z:\sources\lunor\repos\rougemeilland\palmtree.math.core.sint\palmtree.math.core.sint\pmc_add_sub.c
;	COMDAT PMC_Add_I_X
_TEXT	SEGMENT
result$ = 4
nv$ = 40
nw$ = 72
u_sign$ = 100
u_abs$ = 132
__$ArrayPad$ = 344
u$ = 384
v$ = 392
w$ = 400
PMC_Add_I_X PROC					; COMDAT

; 212  : {

$LN27:
	mov	QWORD PTR [rsp+24], r8
	mov	QWORD PTR [rsp+16], rdx
	mov	DWORD PTR [rsp+8], ecx
	push	rbp
	push	rdi
	sub	rsp, 392				; 00000188H
	lea	rbp, QWORD PTR [rsp+32]
	mov	rdi, rsp
	mov	ecx, 98					; 00000062H
	mov	eax, -858993460				; ccccccccH
	rep stosd
	mov	ecx, DWORD PTR [rsp+424]
	mov	rax, QWORD PTR __security_cookie
	xor	rax, rbp
	mov	QWORD PTR __$ArrayPad$[rbp], rax
	lea	rcx, OFFSET FLAT:__5A8189A9_pmc_add_sub@c
	call	__CheckForDebuggerJustMyCode

; 213  :     if (v == NULL)

	cmp	QWORD PTR v$[rbp], 0
	jne	SHORT $LN2@PMC_Add_I_

; 214  :         return (PMC_STATUS_ARGUMENT_ERROR);

	mov	eax, -1
	jmp	$LN1@PMC_Add_I_
$LN2@PMC_Add_I_:

; 215  :     if (w == NULL)

	cmp	QWORD PTR w$[rbp], 0
	jne	SHORT $LN3@PMC_Add_I_

; 216  :         return (PMC_STATUS_ARGUMENT_ERROR);

	mov	eax, -1
	jmp	$LN1@PMC_Add_I_
$LN3@PMC_Add_I_:

; 217  :     PMC_STATUS_CODE result;
; 218  :     NUMBER_HEADER* nv = (NUMBER_HEADER*)v;

	mov	rax, QWORD PTR v$[rbp]
	mov	QWORD PTR nv$[rbp], rax

; 219  :     NUMBER_HEADER* nw;
; 220  :     if ((result = CheckNumber(nv)) != PMC_STATUS_OK)

	mov	rcx, QWORD PTR nv$[rbp]
	call	CheckNumber
	mov	DWORD PTR result$[rbp], eax
	cmp	DWORD PTR result$[rbp], 0
	je	SHORT $LN4@PMC_Add_I_

; 221  :         return (result);

	mov	eax, DWORD PTR result$[rbp]
	jmp	$LN1@PMC_Add_I_
$LN4@PMC_Add_I_:

; 222  :     char u_sign;
; 223  :     _UINT32_T u_abs = GET_ABS_32(u, &u_sign);

	lea	rdx, QWORD PTR u_sign$[rbp]
	mov	ecx, DWORD PTR u$[rbp]
	call	GET_ABS_32
	mov	DWORD PTR u_abs$[rbp], eax

; 224  :     if (u_sign == 0)

	movsx	eax, BYTE PTR u_sign$[rbp]
	test	eax, eax
	jne	SHORT $LN5@PMC_Add_I_

; 225  :     {
; 226  :         // u == 0 ÇÃèÍçá
; 227  : 
; 228  :         if (nv->SIGN == 0)

	mov	rax, QWORD PTR nv$[rbp]
	movsx	eax, BYTE PTR [rax+16]
	test	eax, eax
	jne	SHORT $LN7@PMC_Add_I_

; 229  :         {
; 230  :             // v == 0 ÇÃèÍçá
; 231  : 
; 232  :             // 0 Çï‘Ç∑
; 233  :             nw = &number_zero;

	lea	rax, OFFSET FLAT:number_zero
	mov	QWORD PTR nw$[rbp], rax

; 234  :         }

	jmp	SHORT $LN8@PMC_Add_I_
$LN7@PMC_Add_I_:

; 235  :         else
; 236  :         {
; 237  :             // v != 0 ÇÃèÍçá
; 238  : 
; 239  :             // v Çï‘Ç∑
; 240  :             if ((result = DuplicateNumber(nv, &nw)) != PMC_STATUS_OK)

	lea	rdx, QWORD PTR nw$[rbp]
	mov	rcx, QWORD PTR nv$[rbp]
	call	DuplicateNumber
	mov	DWORD PTR result$[rbp], eax
	cmp	DWORD PTR result$[rbp], 0
	je	SHORT $LN9@PMC_Add_I_

; 241  :                 return (result);

	mov	eax, DWORD PTR result$[rbp]
	jmp	$LN1@PMC_Add_I_
$LN9@PMC_Add_I_:
$LN8@PMC_Add_I_:

; 242  :         }
; 243  :     }

	jmp	$LN6@PMC_Add_I_
$LN5@PMC_Add_I_:

; 244  :     else if (u_sign > 0)

	movsx	eax, BYTE PTR u_sign$[rbp]
	test	eax, eax
	jle	$LN10@PMC_Add_I_

; 245  :     {
; 246  :         // u > 0 ÇÃèÍçá
; 247  : 
; 248  :         if (nv->SIGN == 0)

	mov	rax, QWORD PTR nv$[rbp]
	movsx	eax, BYTE PTR [rax+16]
	test	eax, eax
	jne	SHORT $LN12@PMC_Add_I_

; 249  :         {
; 250  :             // v == 0 ÇÃèÍçá
; 251  : 
; 252  :             // u Çï‘Ç∑
; 253  :             if ((result = From_I_Imp(u_sign, u_abs, &nw)) != PMC_STATUS_OK)

	lea	r8, QWORD PTR nw$[rbp]
	mov	edx, DWORD PTR u_abs$[rbp]
	movzx	ecx, BYTE PTR u_sign$[rbp]
	call	From_I_Imp
	mov	DWORD PTR result$[rbp], eax
	cmp	DWORD PTR result$[rbp], 0
	je	SHORT $LN14@PMC_Add_I_

; 254  :                 return (result);

	mov	eax, DWORD PTR result$[rbp]
	jmp	$LN1@PMC_Add_I_
$LN14@PMC_Add_I_:

; 255  :         }

	jmp	SHORT $LN13@PMC_Add_I_
$LN12@PMC_Add_I_:

; 256  :         else if (nv->SIGN > 0)

	mov	rax, QWORD PTR nv$[rbp]
	movsx	eax, BYTE PTR [rax+16]
	test	eax, eax
	jle	SHORT $LN15@PMC_Add_I_

; 257  :         {
; 258  :             // v > 0 ÇÃèÍçá
; 259  : 
; 260  :             // abs(u) + abs(v) Çï‘Ç∑
; 261  :             if ((result = AddU_X_I_Imp(1, nv->ABS, u_abs, &nw)) != PMC_STATUS_OK)

	lea	r9, QWORD PTR nw$[rbp]
	mov	r8d, DWORD PTR u_abs$[rbp]
	mov	rax, QWORD PTR nv$[rbp]
	mov	rdx, QWORD PTR [rax+8]
	mov	cl, 1
	call	AddU_X_I_Imp
	mov	DWORD PTR result$[rbp], eax
	cmp	DWORD PTR result$[rbp], 0
	je	SHORT $LN17@PMC_Add_I_

; 262  :                 return (result);

	mov	eax, DWORD PTR result$[rbp]
	jmp	$LN1@PMC_Add_I_
$LN17@PMC_Add_I_:

; 263  :         }

	jmp	SHORT $LN16@PMC_Add_I_
$LN15@PMC_Add_I_:

; 264  :         else
; 265  :         {
; 266  :             // v < 0 ÇÃèÍçá
; 267  : 
; 268  :             // abs(u) - abs(v) ÇåvéZÇ∑ÇÈ
; 269  :             if ((result = SubtructU_X_I_Imp(-1, nv->ABS, u_abs, &nw)) != PMC_STATUS_OK)

	lea	r9, QWORD PTR nw$[rbp]
	mov	r8d, DWORD PTR u_abs$[rbp]
	mov	rax, QWORD PTR nv$[rbp]
	mov	rdx, QWORD PTR [rax+8]
	mov	cl, -1
	call	SubtructU_X_I_Imp
	mov	DWORD PTR result$[rbp], eax
	cmp	DWORD PTR result$[rbp], 0
	je	SHORT $LN18@PMC_Add_I_

; 270  :                 return (result);

	mov	eax, DWORD PTR result$[rbp]
	jmp	$LN1@PMC_Add_I_
$LN18@PMC_Add_I_:
$LN16@PMC_Add_I_:
$LN13@PMC_Add_I_:

; 271  :         }
; 272  :     }

	jmp	$LN11@PMC_Add_I_
$LN10@PMC_Add_I_:

; 273  :     else
; 274  :     {
; 275  :         // u < 0 ÇÃèÍçá
; 276  : 
; 277  :         if (nv->SIGN == 0)

	mov	rax, QWORD PTR nv$[rbp]
	movsx	eax, BYTE PTR [rax+16]
	test	eax, eax
	jne	SHORT $LN19@PMC_Add_I_

; 278  :         {
; 279  :             // v == 0 ÇÃèÍçá
; 280  : 
; 281  :             // u Çï‘Ç∑
; 282  :             if ((result = From_I_Imp(u_sign, u_abs, &nw)) != PMC_STATUS_OK)

	lea	r8, QWORD PTR nw$[rbp]
	mov	edx, DWORD PTR u_abs$[rbp]
	movzx	ecx, BYTE PTR u_sign$[rbp]
	call	From_I_Imp
	mov	DWORD PTR result$[rbp], eax
	cmp	DWORD PTR result$[rbp], 0
	je	SHORT $LN21@PMC_Add_I_

; 283  :                 return (result);

	mov	eax, DWORD PTR result$[rbp]
	jmp	SHORT $LN1@PMC_Add_I_
$LN21@PMC_Add_I_:

; 284  :         }

	jmp	SHORT $LN20@PMC_Add_I_
$LN19@PMC_Add_I_:

; 285  :         else if (nv->SIGN > 0)

	mov	rax, QWORD PTR nv$[rbp]
	movsx	eax, BYTE PTR [rax+16]
	test	eax, eax
	jle	SHORT $LN22@PMC_Add_I_

; 286  :         {
; 287  :             // v > 0 ÇÃèÍçá
; 288  : 
; 289  :             // - abs(u) + abs(v) ÇåvéZÇ∑ÇÈ
; 290  :             if ((result = SubtructU_X_I_Imp(1, nv->ABS, u_abs, &nw)) != PMC_STATUS_OK)

	lea	r9, QWORD PTR nw$[rbp]
	mov	r8d, DWORD PTR u_abs$[rbp]
	mov	rax, QWORD PTR nv$[rbp]
	mov	rdx, QWORD PTR [rax+8]
	mov	cl, 1
	call	SubtructU_X_I_Imp
	mov	DWORD PTR result$[rbp], eax
	cmp	DWORD PTR result$[rbp], 0
	je	SHORT $LN24@PMC_Add_I_

; 291  :                 return (result);

	mov	eax, DWORD PTR result$[rbp]
	jmp	SHORT $LN1@PMC_Add_I_
$LN24@PMC_Add_I_:

; 292  :         }

	jmp	SHORT $LN23@PMC_Add_I_
$LN22@PMC_Add_I_:

; 293  :         else
; 294  :         {
; 295  :             // v < 0 ÇÃèÍçá
; 296  : 
; 297  :             // - abs(u) - abs(v) Çï‘Ç∑
; 298  :             if ((result = AddU_X_I_Imp(-1, nv->ABS, u_abs, &nw)) != PMC_STATUS_OK)

	lea	r9, QWORD PTR nw$[rbp]
	mov	r8d, DWORD PTR u_abs$[rbp]
	mov	rax, QWORD PTR nv$[rbp]
	mov	rdx, QWORD PTR [rax+8]
	mov	cl, -1
	call	AddU_X_I_Imp
	mov	DWORD PTR result$[rbp], eax
	cmp	DWORD PTR result$[rbp], 0
	je	SHORT $LN25@PMC_Add_I_

; 299  :                 return (result);

	mov	eax, DWORD PTR result$[rbp]
	jmp	SHORT $LN1@PMC_Add_I_
$LN25@PMC_Add_I_:
$LN23@PMC_Add_I_:
$LN20@PMC_Add_I_:
$LN11@PMC_Add_I_:
$LN6@PMC_Add_I_:

; 300  :         }
; 301  :     }
; 302  :     *w = (PMC_HANDLE_SINT)nw;

	mov	rax, QWORD PTR w$[rbp]
	mov	rcx, QWORD PTR nw$[rbp]
	mov	QWORD PTR [rax], rcx

; 303  :     return (PMC_STATUS_OK);

	xor	eax, eax
$LN1@PMC_Add_I_:

; 304  : }

	mov	rdi, rax
	lea	rcx, QWORD PTR [rbp-32]
	lea	rdx, OFFSET FLAT:PMC_Add_I_X$rtcFrameData
	call	_RTC_CheckStackVars
	mov	rax, rdi
	mov	rcx, QWORD PTR __$ArrayPad$[rbp]
	xor	rcx, rbp
	call	__security_check_cookie
	lea	rsp, QWORD PTR [rbp+360]
	pop	rdi
	pop	rbp
	ret	0
PMC_Add_I_X ENDP
_TEXT	ENDS
END
