; Listing generated by Microsoft (R) Optimizing Compiler Version 19.16.27026.1 

include listing.inc

INCLUDELIB MSVCRTD
INCLUDELIB OLDNAMES

_DATA	SEGMENT
COMM	uint_number_zero:QWORD
COMM	uint_number_one:QWORD
_DATA	ENDS
msvcjmc	SEGMENT
__7B7A869E_ctype@h DB 01H
__457DD326_basetsd@h DB 01H
__4384A2D9_corecrt_memcpy_s@h DB 01H
__4E51A221_corecrt_wstring@h DB 01H
__2140C079_string@h DB 01H
__1887E595_winnt@h DB 01H
__9FC7C64B_processthreadsapi@h DB 01H
__FA470AEC_memoryapi@h DB 01H
__F37DAFF1_winerror@h DB 01H
__7A450CCC_winbase@h DB 01H
__B4B40122_winioctl@h DB 01H
__86261D59_stralign@h DB 01H
__8CA3E54E_pmc_inline_func@h DB 01H
__3666D5C6_pmc_greatestcommondivisor@c DB 01H
msvcjmc	ENDS
PUBLIC	PMC_GreatestCommonDivisor_I_X
PUBLIC	PMC_GreatestCommonDivisor_L_X
PUBLIC	PMC_GreatestCommonDivisor_UX_X
PUBLIC	PMC_GreatestCommonDivisor_X_I
PUBLIC	PMC_GreatestCommonDivisor_X_L
PUBLIC	PMC_GreatestCommonDivisor_X_UX
PUBLIC	PMC_GreatestCommonDivisor_X_X
PUBLIC	__JustMyCode_Default
EXTRN	CheckNumber:PROC
EXTRN	_RTC_CheckStackVars:PROC
EXTRN	_RTC_InitBase:PROC
EXTRN	_RTC_Shutdown:PROC
EXTRN	__CheckForDebuggerJustMyCode:PROC
EXTRN	__GSHandlerCheck:PROC
EXTRN	__security_check_cookie:PROC
EXTRN	ep_uint:BYTE
EXTRN	__security_cookie:QWORD
;	COMDAT pdata
pdata	SEGMENT
$pdata$PMC_GreatestCommonDivisor_I_X DD imagerel $LN7
	DD	imagerel $LN7+252
	DD	imagerel $unwind$PMC_GreatestCommonDivisor_I_X
pdata	ENDS
;	COMDAT pdata
pdata	SEGMENT
$pdata$PMC_GreatestCommonDivisor_L_X DD imagerel $LN7
	DD	imagerel $LN7+257
	DD	imagerel $unwind$PMC_GreatestCommonDivisor_L_X
pdata	ENDS
;	COMDAT pdata
pdata	SEGMENT
$pdata$PMC_GreatestCommonDivisor_UX_X DD imagerel $LN8
	DD	imagerel $LN8+203
	DD	imagerel $unwind$PMC_GreatestCommonDivisor_UX_X
pdata	ENDS
;	COMDAT pdata
pdata	SEGMENT
$pdata$PMC_GreatestCommonDivisor_X_I DD imagerel $LN7
	DD	imagerel $LN7+253
	DD	imagerel $unwind$PMC_GreatestCommonDivisor_X_I
pdata	ENDS
;	COMDAT pdata
pdata	SEGMENT
$pdata$PMC_GreatestCommonDivisor_X_L DD imagerel $LN7
	DD	imagerel $LN7+257
	DD	imagerel $unwind$PMC_GreatestCommonDivisor_X_L
pdata	ENDS
;	COMDAT pdata
pdata	SEGMENT
$pdata$PMC_GreatestCommonDivisor_X_UX DD imagerel $LN8
	DD	imagerel $LN8+203
	DD	imagerel $unwind$PMC_GreatestCommonDivisor_X_UX
pdata	ENDS
;	COMDAT pdata
pdata	SEGMENT
$pdata$PMC_GreatestCommonDivisor_X_X DD imagerel $LN9
	DD	imagerel $LN9+244
	DD	imagerel $unwind$PMC_GreatestCommonDivisor_X_X
pdata	ENDS
;	COMDAT pdata
pdata	SEGMENT
$pdata$GET_ABS_32 DD imagerel GET_ABS_32
	DD	imagerel GET_ABS_32+175
	DD	imagerel $unwind$GET_ABS_32
pdata	ENDS
;	COMDAT pdata
pdata	SEGMENT
$pdata$GET_ABS_64 DD imagerel GET_ABS_64
	DD	imagerel GET_ABS_64+198
	DD	imagerel $unwind$GET_ABS_64
pdata	ENDS
;	COMDAT rtc$TMZ
rtc$TMZ	SEGMENT
_RTC_Shutdown.rtc$TMZ DQ FLAT:_RTC_Shutdown
rtc$TMZ	ENDS
;	COMDAT rtc$IMZ
rtc$IMZ	SEGMENT
_RTC_InitBase.rtc$IMZ DQ FLAT:_RTC_InitBase
rtc$IMZ	ENDS
;	COMDAT xdata
xdata	SEGMENT
$unwind$GET_ABS_64 DD 025052f01H
	DD	01132318H
	DD	0700c001fH
	DD	0500bH
xdata	ENDS
;	COMDAT xdata
xdata	SEGMENT
$unwind$GET_ABS_32 DD 025052d01H
	DD	01122317H
	DD	0700b001fH
	DD	0500aH
xdata	ENDS
;	COMDAT xdata
xdata	SEGMENT
$unwind$PMC_GreatestCommonDivisor_X_X DD 025053401H
	DD	0118231dH
	DD	070110029H
	DD	05010H
xdata	ENDS
;	COMDAT xdata
xdata	SEGMENT
$unwind$PMC_GreatestCommonDivisor_X_UX DD 025053401H
	DD	0118231dH
	DD	070110025H
	DD	05010H
xdata	ENDS
;	COMDAT xdata
xdata	SEGMENT
$unwind$PMC_GreatestCommonDivisor_X_L DD 025054519H
	DD	0118231dH
	DD	07011002dH
	DD	05010H
	DD	imagerel __GSHandlerCheck
	DD	0158H
xdata	ENDS
;	COMDAT CONST
CONST	SEGMENT
PMC_GreatestCommonDivisor_X_L$rtcName$0 DB 076H
	DB	05fH
	DB	073H
	DB	069H
	DB	067H
	DB	06eH
	DB	00H
	ORG $+9
PMC_GreatestCommonDivisor_X_L$rtcVarDesc DD 064H
	DD	01H
	DQ	FLAT:PMC_GreatestCommonDivisor_X_L$rtcName$0
	ORG $+48
PMC_GreatestCommonDivisor_X_L$rtcFrameData DD 01H
	DD	00H
	DQ	FLAT:PMC_GreatestCommonDivisor_X_L$rtcVarDesc
CONST	ENDS
;	COMDAT xdata
xdata	SEGMENT
$unwind$PMC_GreatestCommonDivisor_X_I DD 025054419H
	DD	0117231cH
	DD	07010002dH
	DD	0500fH
	DD	imagerel __GSHandlerCheck
	DD	0158H
xdata	ENDS
;	COMDAT CONST
CONST	SEGMENT
PMC_GreatestCommonDivisor_X_I$rtcName$0 DB 076H
	DB	05fH
	DB	073H
	DB	069H
	DB	067H
	DB	06eH
	DB	00H
	ORG $+9
PMC_GreatestCommonDivisor_X_I$rtcVarDesc DD 064H
	DD	01H
	DQ	FLAT:PMC_GreatestCommonDivisor_X_I$rtcName$0
	ORG $+48
PMC_GreatestCommonDivisor_X_I$rtcFrameData DD 01H
	DD	00H
	DQ	FLAT:PMC_GreatestCommonDivisor_X_I$rtcVarDesc
CONST	ENDS
;	COMDAT xdata
xdata	SEGMENT
$unwind$PMC_GreatestCommonDivisor_UX_X DD 025053401H
	DD	0118231dH
	DD	070110025H
	DD	05010H
xdata	ENDS
;	COMDAT xdata
xdata	SEGMENT
$unwind$PMC_GreatestCommonDivisor_L_X DD 025054519H
	DD	0118231dH
	DD	07011002dH
	DD	05010H
	DD	imagerel __GSHandlerCheck
	DD	0158H
xdata	ENDS
;	COMDAT CONST
CONST	SEGMENT
PMC_GreatestCommonDivisor_L_X$rtcName$0 DB 075H
	DB	05fH
	DB	073H
	DB	069H
	DB	067H
	DB	06eH
	DB	00H
	ORG $+9
PMC_GreatestCommonDivisor_L_X$rtcVarDesc DD 064H
	DD	01H
	DQ	FLAT:PMC_GreatestCommonDivisor_L_X$rtcName$0
	ORG $+48
PMC_GreatestCommonDivisor_L_X$rtcFrameData DD 01H
	DD	00H
	DQ	FLAT:PMC_GreatestCommonDivisor_L_X$rtcVarDesc
CONST	ENDS
;	COMDAT xdata
xdata	SEGMENT
$unwind$PMC_GreatestCommonDivisor_I_X DD 025054319H
	DD	0117231cH
	DD	07010002dH
	DD	0500fH
	DD	imagerel __GSHandlerCheck
	DD	0158H
xdata	ENDS
;	COMDAT CONST
CONST	SEGMENT
PMC_GreatestCommonDivisor_I_X$rtcName$0 DB 075H
	DB	05fH
	DB	073H
	DB	069H
	DB	067H
	DB	06eH
	DB	00H
	ORG $+9
PMC_GreatestCommonDivisor_I_X$rtcVarDesc DD 064H
	DD	01H
	DQ	FLAT:PMC_GreatestCommonDivisor_I_X$rtcName$0
	ORG $+48
PMC_GreatestCommonDivisor_I_X$rtcFrameData DD 01H
	DD	00H
	DQ	FLAT:PMC_GreatestCommonDivisor_I_X$rtcVarDesc
CONST	ENDS
; Function compile flags: /Odt
;	COMDAT __JustMyCode_Default
_TEXT	SEGMENT
__JustMyCode_Default PROC				; COMDAT
	ret	0
__JustMyCode_Default ENDP
_TEXT	ENDS
; Function compile flags: /Odtp /RTCsu /ZI
; File z:\sources\lunor\repos\rougemeilland\palmtree.math.core.uint\palmtree.math.core.uint\pmc_inline_func.h
;	COMDAT GET_ABS_64
_TEXT	SEGMENT
tv68 = 192
u$ = 240
sign$ = 248
GET_ABS_64 PROC						; COMDAT

; 800  :     {

	mov	QWORD PTR [rsp+16], rdx
	mov	QWORD PTR [rsp+8], rcx
	push	rbp
	push	rdi
	sub	rsp, 248				; 000000f8H
	lea	rbp, QWORD PTR [rsp+32]
	mov	rdi, rsp
	mov	ecx, 62					; 0000003eH
	mov	eax, -858993460				; ccccccccH
	rep stosd
	mov	rcx, QWORD PTR [rsp+280]
	lea	rcx, OFFSET FLAT:__8CA3E54E_pmc_inline_func@h
	call	__CheckForDebuggerJustMyCode

; 801  :         if (u > 0)

	cmp	QWORD PTR u$[rbp], 0
	jle	SHORT $LN2@GET_ABS_64

; 802  :         {
; 803  :             *sign = 1;

	mov	rax, QWORD PTR sign$[rbp]
	mov	BYTE PTR [rax], 1

; 804  :             return ((_UINT64_T)u);

	mov	rax, QWORD PTR u$[rbp]
	jmp	SHORT $LN1@GET_ABS_64

; 805  :         }

	jmp	SHORT $LN3@GET_ABS_64
$LN2@GET_ABS_64:

; 806  :         else if (u == 0)

	cmp	QWORD PTR u$[rbp], 0
	jne	SHORT $LN4@GET_ABS_64

; 807  :         {
; 808  :             *sign = 0;

	mov	rax, QWORD PTR sign$[rbp]
	mov	BYTE PTR [rax], 0

; 809  :             return (0);

	xor	eax, eax
	jmp	SHORT $LN1@GET_ABS_64

; 810  :         }

	jmp	SHORT $LN5@GET_ABS_64
$LN4@GET_ABS_64:

; 811  :         else
; 812  :         {
; 813  :             *sign = -1;

	mov	rax, QWORD PTR sign$[rbp]
	mov	BYTE PTR [rax], -1

; 814  :             return ((_UINT64_T)u == 0x8000000000000000UL ? 0x8000000000000000UL : (_UINT64_T)-u);

	mov	rax, -9223372036854775808		; 8000000000000000H
	cmp	QWORD PTR u$[rbp], rax
	jne	SHORT $LN7@GET_ABS_64
	mov	rax, -9223372036854775808		; 8000000000000000H
	mov	QWORD PTR tv68[rbp], rax
	jmp	SHORT $LN8@GET_ABS_64
$LN7@GET_ABS_64:
	mov	rax, QWORD PTR u$[rbp]
	neg	rax
	mov	QWORD PTR tv68[rbp], rax
$LN8@GET_ABS_64:
	mov	rax, QWORD PTR tv68[rbp]
$LN5@GET_ABS_64:
$LN3@GET_ABS_64:
$LN1@GET_ABS_64:

; 815  :         }
; 816  :     }

	lea	rsp, QWORD PTR [rbp+216]
	pop	rdi
	pop	rbp
	ret	0
GET_ABS_64 ENDP
_TEXT	ENDS
; Function compile flags: /Odtp /RTCsu /ZI
; File z:\sources\lunor\repos\rougemeilland\palmtree.math.core.uint\palmtree.math.core.uint\pmc_inline_func.h
;	COMDAT GET_ABS_32
_TEXT	SEGMENT
tv68 = 192
u$ = 240
sign$ = 248
GET_ABS_32 PROC						; COMDAT

; 780  :     {

	mov	QWORD PTR [rsp+16], rdx
	mov	DWORD PTR [rsp+8], ecx
	push	rbp
	push	rdi
	sub	rsp, 248				; 000000f8H
	lea	rbp, QWORD PTR [rsp+32]
	mov	rdi, rsp
	mov	ecx, 62					; 0000003eH
	mov	eax, -858993460				; ccccccccH
	rep stosd
	mov	ecx, DWORD PTR [rsp+280]
	lea	rcx, OFFSET FLAT:__8CA3E54E_pmc_inline_func@h
	call	__CheckForDebuggerJustMyCode

; 781  :         if (u > 0)

	cmp	DWORD PTR u$[rbp], 0
	jle	SHORT $LN2@GET_ABS_32

; 782  :         {
; 783  :             *sign = 1;

	mov	rax, QWORD PTR sign$[rbp]
	mov	BYTE PTR [rax], 1

; 784  :             return ((_UINT32_T)u);

	mov	eax, DWORD PTR u$[rbp]
	jmp	SHORT $LN1@GET_ABS_32

; 785  :         }

	jmp	SHORT $LN3@GET_ABS_32
$LN2@GET_ABS_32:

; 786  :         else if (u == 0)

	cmp	DWORD PTR u$[rbp], 0
	jne	SHORT $LN4@GET_ABS_32

; 787  :         {
; 788  :             *sign = 0;

	mov	rax, QWORD PTR sign$[rbp]
	mov	BYTE PTR [rax], 0

; 789  :             return (0);

	xor	eax, eax
	jmp	SHORT $LN1@GET_ABS_32

; 790  :         }

	jmp	SHORT $LN5@GET_ABS_32
$LN4@GET_ABS_32:

; 791  :         else
; 792  :         {
; 793  :             *sign = -1;

	mov	rax, QWORD PTR sign$[rbp]
	mov	BYTE PTR [rax], -1

; 794  :             return ((_UINT32_T)u == 0x80000000U ? 0x80000000U : (_UINT32_T)-u);

	cmp	DWORD PTR u$[rbp], -2147483648		; 80000000H
	jne	SHORT $LN7@GET_ABS_32
	mov	DWORD PTR tv68[rbp], -2147483648	; 80000000H
	jmp	SHORT $LN8@GET_ABS_32
$LN7@GET_ABS_32:
	mov	eax, DWORD PTR u$[rbp]
	neg	eax
	mov	DWORD PTR tv68[rbp], eax
$LN8@GET_ABS_32:
	mov	eax, DWORD PTR tv68[rbp]
$LN5@GET_ABS_32:
$LN3@GET_ABS_32:
$LN1@GET_ABS_32:

; 795  :         }
; 796  : }

	lea	rsp, QWORD PTR [rbp+216]
	pop	rdi
	pop	rbp
	ret	0
GET_ABS_32 ENDP
_TEXT	ENDS
; Function compile flags: /Odtp /RTCsu /ZI
; File z:\sources\lunor\repos\rougemeilland\palmtree.math.core.sint\palmtree.math.core.sint\pmc_greatestcommondivisor.c
;	COMDAT PMC_GreatestCommonDivisor_X_X
_TEXT	SEGMENT
result$ = 4
nu$ = 40
nv$ = 72
u$ = 320
v$ = 328
w$ = 336
PMC_GreatestCommonDivisor_X_X PROC			; COMDAT

; 134  : {

$LN9:
	mov	QWORD PTR [rsp+24], r8
	mov	QWORD PTR [rsp+16], rdx
	mov	QWORD PTR [rsp+8], rcx
	push	rbp
	push	rdi
	sub	rsp, 328				; 00000148H
	lea	rbp, QWORD PTR [rsp+32]
	mov	rdi, rsp
	mov	ecx, 82					; 00000052H
	mov	eax, -858993460				; ccccccccH
	rep stosd
	mov	rcx, QWORD PTR [rsp+360]
	lea	rcx, OFFSET FLAT:__3666D5C6_pmc_greatestcommondivisor@c
	call	__CheckForDebuggerJustMyCode

; 135  :     if (u == NULL)

	cmp	QWORD PTR u$[rbp], 0
	jne	SHORT $LN2@PMC_Greate

; 136  :         return (PMC_STATUS_ARGUMENT_ERROR);

	mov	eax, -1
	jmp	$LN1@PMC_Greate
$LN2@PMC_Greate:

; 137  :     if (v == NULL)

	cmp	QWORD PTR v$[rbp], 0
	jne	SHORT $LN3@PMC_Greate

; 138  :         return (PMC_STATUS_ARGUMENT_ERROR);

	mov	eax, -1
	jmp	$LN1@PMC_Greate
$LN3@PMC_Greate:

; 139  :     if (w == NULL)

	cmp	QWORD PTR w$[rbp], 0
	jne	SHORT $LN4@PMC_Greate

; 140  :         return (PMC_STATUS_ARGUMENT_ERROR);

	mov	eax, -1
	jmp	SHORT $LN1@PMC_Greate
$LN4@PMC_Greate:

; 141  :     PMC_STATUS_CODE result;
; 142  :     NUMBER_HEADER* nu = (NUMBER_HEADER*)u;

	mov	rax, QWORD PTR u$[rbp]
	mov	QWORD PTR nu$[rbp], rax

; 143  :     NUMBER_HEADER* nv = (NUMBER_HEADER*)v;

	mov	rax, QWORD PTR v$[rbp]
	mov	QWORD PTR nv$[rbp], rax

; 144  :     if ((result = CheckNumber(nu)) != PMC_STATUS_OK)

	mov	rcx, QWORD PTR nu$[rbp]
	call	CheckNumber
	mov	DWORD PTR result$[rbp], eax
	cmp	DWORD PTR result$[rbp], 0
	je	SHORT $LN5@PMC_Greate

; 145  :         return (result);

	mov	eax, DWORD PTR result$[rbp]
	jmp	SHORT $LN1@PMC_Greate
$LN5@PMC_Greate:

; 146  :     if ((result = CheckNumber(nv)) != PMC_STATUS_OK)

	mov	rcx, QWORD PTR nv$[rbp]
	call	CheckNumber
	mov	DWORD PTR result$[rbp], eax
	cmp	DWORD PTR result$[rbp], 0
	je	SHORT $LN6@PMC_Greate

; 147  :         return (result);

	mov	eax, DWORD PTR result$[rbp]
	jmp	SHORT $LN1@PMC_Greate
$LN6@PMC_Greate:

; 148  :     if ((result = ep_uint.GreatestCommonDivisor_X_X(nu->ABS, nv->ABS, w)) != PMC_STATUS_OK)

	mov	r8, QWORD PTR w$[rbp]
	mov	rax, QWORD PTR nv$[rbp]
	mov	rdx, QWORD PTR [rax+16]
	mov	rax, QWORD PTR nu$[rbp]
	mov	rcx, QWORD PTR [rax+16]
	call	QWORD PTR ep_uint+520
	mov	DWORD PTR result$[rbp], eax
	cmp	DWORD PTR result$[rbp], 0
	je	SHORT $LN7@PMC_Greate

; 149  :         return (result);

	mov	eax, DWORD PTR result$[rbp]
	jmp	SHORT $LN1@PMC_Greate
$LN7@PMC_Greate:

; 150  :     return (PMC_STATUS_OK);

	xor	eax, eax
$LN1@PMC_Greate:

; 151  : }

	lea	rsp, QWORD PTR [rbp+296]
	pop	rdi
	pop	rbp
	ret	0
PMC_GreatestCommonDivisor_X_X ENDP
_TEXT	ENDS
; Function compile flags: /Odtp /RTCsu /ZI
; File z:\sources\lunor\repos\rougemeilland\palmtree.math.core.sint\palmtree.math.core.sint\pmc_greatestcommondivisor.c
;	COMDAT PMC_GreatestCommonDivisor_X_UX
_TEXT	SEGMENT
result$ = 4
nu$ = 40
u$ = 288
v$ = 296
w$ = 304
PMC_GreatestCommonDivisor_X_UX PROC			; COMDAT

; 117  : {

$LN8:
	mov	QWORD PTR [rsp+24], r8
	mov	QWORD PTR [rsp+16], rdx
	mov	QWORD PTR [rsp+8], rcx
	push	rbp
	push	rdi
	sub	rsp, 296				; 00000128H
	lea	rbp, QWORD PTR [rsp+32]
	mov	rdi, rsp
	mov	ecx, 74					; 0000004aH
	mov	eax, -858993460				; ccccccccH
	rep stosd
	mov	rcx, QWORD PTR [rsp+328]
	lea	rcx, OFFSET FLAT:__3666D5C6_pmc_greatestcommondivisor@c
	call	__CheckForDebuggerJustMyCode

; 118  :     if (u == NULL)

	cmp	QWORD PTR u$[rbp], 0
	jne	SHORT $LN2@PMC_Greate

; 119  :         return (PMC_STATUS_ARGUMENT_ERROR);

	mov	eax, -1
	jmp	SHORT $LN1@PMC_Greate
$LN2@PMC_Greate:

; 120  :     if (v == NULL)

	cmp	QWORD PTR v$[rbp], 0
	jne	SHORT $LN3@PMC_Greate

; 121  :         return (PMC_STATUS_ARGUMENT_ERROR);

	mov	eax, -1
	jmp	SHORT $LN1@PMC_Greate
$LN3@PMC_Greate:

; 122  :     if (w == NULL)

	cmp	QWORD PTR w$[rbp], 0
	jne	SHORT $LN4@PMC_Greate

; 123  :         return (PMC_STATUS_ARGUMENT_ERROR);

	mov	eax, -1
	jmp	SHORT $LN1@PMC_Greate
$LN4@PMC_Greate:

; 124  :     PMC_STATUS_CODE result;
; 125  :     NUMBER_HEADER* nu = (NUMBER_HEADER*)u;

	mov	rax, QWORD PTR u$[rbp]
	mov	QWORD PTR nu$[rbp], rax

; 126  :     if ((result = CheckNumber(nu)) != PMC_STATUS_OK)

	mov	rcx, QWORD PTR nu$[rbp]
	call	CheckNumber
	mov	DWORD PTR result$[rbp], eax
	cmp	DWORD PTR result$[rbp], 0
	je	SHORT $LN5@PMC_Greate

; 127  :         return (result);

	mov	eax, DWORD PTR result$[rbp]
	jmp	SHORT $LN1@PMC_Greate
$LN5@PMC_Greate:

; 128  :     if ((result = ep_uint.GreatestCommonDivisor_X_X(nu->ABS, v, w)) != PMC_STATUS_OK)

	mov	r8, QWORD PTR w$[rbp]
	mov	rdx, QWORD PTR v$[rbp]
	mov	rax, QWORD PTR nu$[rbp]
	mov	rcx, QWORD PTR [rax+16]
	call	QWORD PTR ep_uint+520
	mov	DWORD PTR result$[rbp], eax
	cmp	DWORD PTR result$[rbp], 0
	je	SHORT $LN6@PMC_Greate

; 129  :         return (result);

	mov	eax, DWORD PTR result$[rbp]
	jmp	SHORT $LN1@PMC_Greate
$LN6@PMC_Greate:

; 130  :     return (PMC_STATUS_OK);

	xor	eax, eax
$LN1@PMC_Greate:

; 131  : }

	lea	rsp, QWORD PTR [rbp+264]
	pop	rdi
	pop	rbp
	ret	0
PMC_GreatestCommonDivisor_X_UX ENDP
_TEXT	ENDS
; Function compile flags: /Odtp /RTCsu /ZI
; File z:\sources\lunor\repos\rougemeilland\palmtree.math.core.sint\palmtree.math.core.sint\pmc_greatestcommondivisor.c
;	COMDAT PMC_GreatestCommonDivisor_X_L
_TEXT	SEGMENT
result$ = 4
nu$ = 40
v_sign$ = 68
v_abs$ = 104
__$ArrayPad$ = 312
u$ = 352
v$ = 360
w$ = 368
PMC_GreatestCommonDivisor_X_L PROC			; COMDAT

; 100  : {

$LN7:
	mov	QWORD PTR [rsp+24], r8
	mov	QWORD PTR [rsp+16], rdx
	mov	QWORD PTR [rsp+8], rcx
	push	rbp
	push	rdi
	sub	rsp, 360				; 00000168H
	lea	rbp, QWORD PTR [rsp+32]
	mov	rdi, rsp
	mov	ecx, 90					; 0000005aH
	mov	eax, -858993460				; ccccccccH
	rep stosd
	mov	rcx, QWORD PTR [rsp+392]
	mov	rax, QWORD PTR __security_cookie
	xor	rax, rbp
	mov	QWORD PTR __$ArrayPad$[rbp], rax
	lea	rcx, OFFSET FLAT:__3666D5C6_pmc_greatestcommondivisor@c
	call	__CheckForDebuggerJustMyCode

; 101  :     if (u == NULL)

	cmp	QWORD PTR u$[rbp], 0
	jne	SHORT $LN2@PMC_Greate

; 102  :         return (PMC_STATUS_ARGUMENT_ERROR);

	mov	eax, -1
	jmp	SHORT $LN1@PMC_Greate
$LN2@PMC_Greate:

; 103  :     if (w == NULL)

	cmp	QWORD PTR w$[rbp], 0
	jne	SHORT $LN3@PMC_Greate

; 104  :         return (PMC_STATUS_ARGUMENT_ERROR);

	mov	eax, -1
	jmp	SHORT $LN1@PMC_Greate
$LN3@PMC_Greate:

; 105  :     PMC_STATUS_CODE result;
; 106  :     NUMBER_HEADER* nu = (NUMBER_HEADER*)u;

	mov	rax, QWORD PTR u$[rbp]
	mov	QWORD PTR nu$[rbp], rax

; 107  :     if ((result = CheckNumber(nu)) != PMC_STATUS_OK)

	mov	rcx, QWORD PTR nu$[rbp]
	call	CheckNumber
	mov	DWORD PTR result$[rbp], eax
	cmp	DWORD PTR result$[rbp], 0
	je	SHORT $LN4@PMC_Greate

; 108  :         return (result);

	mov	eax, DWORD PTR result$[rbp]
	jmp	SHORT $LN1@PMC_Greate
$LN4@PMC_Greate:

; 109  :     char v_sign;
; 110  :     _UINT64_T v_abs = GET_ABS_64(v, &v_sign);

	lea	rdx, QWORD PTR v_sign$[rbp]
	mov	rcx, QWORD PTR v$[rbp]
	call	GET_ABS_64
	mov	QWORD PTR v_abs$[rbp], rax

; 111  :     if ((result = ep_uint.GreatestCommonDivisor_X_L(nu->ABS, v_abs, w)) != PMC_STATUS_OK)

	mov	r8, QWORD PTR w$[rbp]
	mov	rdx, QWORD PTR v_abs$[rbp]
	mov	rax, QWORD PTR nu$[rbp]
	mov	rcx, QWORD PTR [rax+16]
	call	QWORD PTR ep_uint+512
	mov	DWORD PTR result$[rbp], eax
	cmp	DWORD PTR result$[rbp], 0
	je	SHORT $LN5@PMC_Greate

; 112  :         return (result);

	mov	eax, DWORD PTR result$[rbp]
	jmp	SHORT $LN1@PMC_Greate
$LN5@PMC_Greate:

; 113  :     return (PMC_STATUS_OK);

	xor	eax, eax
$LN1@PMC_Greate:

; 114  : }

	mov	rdi, rax
	lea	rcx, QWORD PTR [rbp-32]
	lea	rdx, OFFSET FLAT:PMC_GreatestCommonDivisor_X_L$rtcFrameData
	call	_RTC_CheckStackVars
	mov	rax, rdi
	mov	rcx, QWORD PTR __$ArrayPad$[rbp]
	xor	rcx, rbp
	call	__security_check_cookie
	lea	rsp, QWORD PTR [rbp+328]
	pop	rdi
	pop	rbp
	ret	0
PMC_GreatestCommonDivisor_X_L ENDP
_TEXT	ENDS
; Function compile flags: /Odtp /RTCsu /ZI
; File z:\sources\lunor\repos\rougemeilland\palmtree.math.core.sint\palmtree.math.core.sint\pmc_greatestcommondivisor.c
;	COMDAT PMC_GreatestCommonDivisor_X_I
_TEXT	SEGMENT
result$ = 4
nu$ = 40
v_sign$ = 68
v_abs$ = 100
__$ArrayPad$ = 312
u$ = 352
v$ = 360
w$ = 368
PMC_GreatestCommonDivisor_X_I PROC			; COMDAT

; 83   : {

$LN7:
	mov	QWORD PTR [rsp+24], r8
	mov	DWORD PTR [rsp+16], edx
	mov	QWORD PTR [rsp+8], rcx
	push	rbp
	push	rdi
	sub	rsp, 360				; 00000168H
	lea	rbp, QWORD PTR [rsp+32]
	mov	rdi, rsp
	mov	ecx, 90					; 0000005aH
	mov	eax, -858993460				; ccccccccH
	rep stosd
	mov	rcx, QWORD PTR [rsp+392]
	mov	rax, QWORD PTR __security_cookie
	xor	rax, rbp
	mov	QWORD PTR __$ArrayPad$[rbp], rax
	lea	rcx, OFFSET FLAT:__3666D5C6_pmc_greatestcommondivisor@c
	call	__CheckForDebuggerJustMyCode

; 84   :     if (u == NULL)

	cmp	QWORD PTR u$[rbp], 0
	jne	SHORT $LN2@PMC_Greate

; 85   :         return (PMC_STATUS_ARGUMENT_ERROR);

	mov	eax, -1
	jmp	SHORT $LN1@PMC_Greate
$LN2@PMC_Greate:

; 86   :     if (w == NULL)

	cmp	QWORD PTR w$[rbp], 0
	jne	SHORT $LN3@PMC_Greate

; 87   :         return (PMC_STATUS_ARGUMENT_ERROR);

	mov	eax, -1
	jmp	SHORT $LN1@PMC_Greate
$LN3@PMC_Greate:

; 88   :     PMC_STATUS_CODE result;
; 89   :     NUMBER_HEADER* nu = (NUMBER_HEADER*)u;

	mov	rax, QWORD PTR u$[rbp]
	mov	QWORD PTR nu$[rbp], rax

; 90   :     if ((result = CheckNumber(nu)) != PMC_STATUS_OK)

	mov	rcx, QWORD PTR nu$[rbp]
	call	CheckNumber
	mov	DWORD PTR result$[rbp], eax
	cmp	DWORD PTR result$[rbp], 0
	je	SHORT $LN4@PMC_Greate

; 91   :         return (result);

	mov	eax, DWORD PTR result$[rbp]
	jmp	SHORT $LN1@PMC_Greate
$LN4@PMC_Greate:

; 92   :     char v_sign;
; 93   :     _UINT32_T v_abs = GET_ABS_32(v, &v_sign);

	lea	rdx, QWORD PTR v_sign$[rbp]
	mov	ecx, DWORD PTR v$[rbp]
	call	GET_ABS_32
	mov	DWORD PTR v_abs$[rbp], eax

; 94   :     if ((result = ep_uint.GreatestCommonDivisor_X_I(nu->ABS, v_abs, w)) != PMC_STATUS_OK)

	mov	r8, QWORD PTR w$[rbp]
	mov	edx, DWORD PTR v_abs$[rbp]
	mov	rax, QWORD PTR nu$[rbp]
	mov	rcx, QWORD PTR [rax+16]
	call	QWORD PTR ep_uint+504
	mov	DWORD PTR result$[rbp], eax
	cmp	DWORD PTR result$[rbp], 0
	je	SHORT $LN5@PMC_Greate

; 95   :         return (result);

	mov	eax, DWORD PTR result$[rbp]
	jmp	SHORT $LN1@PMC_Greate
$LN5@PMC_Greate:

; 96   :     return (PMC_STATUS_OK);

	xor	eax, eax
$LN1@PMC_Greate:

; 97   : }

	mov	rdi, rax
	lea	rcx, QWORD PTR [rbp-32]
	lea	rdx, OFFSET FLAT:PMC_GreatestCommonDivisor_X_I$rtcFrameData
	call	_RTC_CheckStackVars
	mov	rax, rdi
	mov	rcx, QWORD PTR __$ArrayPad$[rbp]
	xor	rcx, rbp
	call	__security_check_cookie
	lea	rsp, QWORD PTR [rbp+328]
	pop	rdi
	pop	rbp
	ret	0
PMC_GreatestCommonDivisor_X_I ENDP
_TEXT	ENDS
; Function compile flags: /Odtp /RTCsu /ZI
; File z:\sources\lunor\repos\rougemeilland\palmtree.math.core.sint\palmtree.math.core.sint\pmc_greatestcommondivisor.c
;	COMDAT PMC_GreatestCommonDivisor_UX_X
_TEXT	SEGMENT
result$ = 4
nv$ = 40
u$ = 288
v$ = 296
w$ = 304
PMC_GreatestCommonDivisor_UX_X PROC			; COMDAT

; 66   : {

$LN8:
	mov	QWORD PTR [rsp+24], r8
	mov	QWORD PTR [rsp+16], rdx
	mov	QWORD PTR [rsp+8], rcx
	push	rbp
	push	rdi
	sub	rsp, 296				; 00000128H
	lea	rbp, QWORD PTR [rsp+32]
	mov	rdi, rsp
	mov	ecx, 74					; 0000004aH
	mov	eax, -858993460				; ccccccccH
	rep stosd
	mov	rcx, QWORD PTR [rsp+328]
	lea	rcx, OFFSET FLAT:__3666D5C6_pmc_greatestcommondivisor@c
	call	__CheckForDebuggerJustMyCode

; 67   :     if (u == NULL)

	cmp	QWORD PTR u$[rbp], 0
	jne	SHORT $LN2@PMC_Greate

; 68   :         return (PMC_STATUS_ARGUMENT_ERROR);

	mov	eax, -1
	jmp	SHORT $LN1@PMC_Greate
$LN2@PMC_Greate:

; 69   :     if (v == NULL)

	cmp	QWORD PTR v$[rbp], 0
	jne	SHORT $LN3@PMC_Greate

; 70   :         return (PMC_STATUS_ARGUMENT_ERROR);

	mov	eax, -1
	jmp	SHORT $LN1@PMC_Greate
$LN3@PMC_Greate:

; 71   :     if (w == NULL)

	cmp	QWORD PTR w$[rbp], 0
	jne	SHORT $LN4@PMC_Greate

; 72   :         return (PMC_STATUS_ARGUMENT_ERROR);

	mov	eax, -1
	jmp	SHORT $LN1@PMC_Greate
$LN4@PMC_Greate:

; 73   :     PMC_STATUS_CODE result;
; 74   :     NUMBER_HEADER* nv = (NUMBER_HEADER*)v;

	mov	rax, QWORD PTR v$[rbp]
	mov	QWORD PTR nv$[rbp], rax

; 75   :     if ((result = CheckNumber(nv)) != PMC_STATUS_OK)

	mov	rcx, QWORD PTR nv$[rbp]
	call	CheckNumber
	mov	DWORD PTR result$[rbp], eax
	cmp	DWORD PTR result$[rbp], 0
	je	SHORT $LN5@PMC_Greate

; 76   :         return (result);

	mov	eax, DWORD PTR result$[rbp]
	jmp	SHORT $LN1@PMC_Greate
$LN5@PMC_Greate:

; 77   :     if ((result = ep_uint.GreatestCommonDivisor_X_X(u, nv->ABS, w)) != PMC_STATUS_OK)

	mov	r8, QWORD PTR w$[rbp]
	mov	rax, QWORD PTR nv$[rbp]
	mov	rdx, QWORD PTR [rax+16]
	mov	rcx, QWORD PTR u$[rbp]
	call	QWORD PTR ep_uint+520
	mov	DWORD PTR result$[rbp], eax
	cmp	DWORD PTR result$[rbp], 0
	je	SHORT $LN6@PMC_Greate

; 78   :         return (result);

	mov	eax, DWORD PTR result$[rbp]
	jmp	SHORT $LN1@PMC_Greate
$LN6@PMC_Greate:

; 79   :     return (PMC_STATUS_OK);

	xor	eax, eax
$LN1@PMC_Greate:

; 80   : }

	lea	rsp, QWORD PTR [rbp+264]
	pop	rdi
	pop	rbp
	ret	0
PMC_GreatestCommonDivisor_UX_X ENDP
_TEXT	ENDS
; Function compile flags: /Odtp /RTCsu /ZI
; File z:\sources\lunor\repos\rougemeilland\palmtree.math.core.sint\palmtree.math.core.sint\pmc_greatestcommondivisor.c
;	COMDAT PMC_GreatestCommonDivisor_L_X
_TEXT	SEGMENT
result$ = 4
nv$ = 40
u_sign$ = 68
u_abs$ = 104
__$ArrayPad$ = 312
u$ = 352
v$ = 360
w$ = 368
PMC_GreatestCommonDivisor_L_X PROC			; COMDAT

; 49   : {

$LN7:
	mov	QWORD PTR [rsp+24], r8
	mov	QWORD PTR [rsp+16], rdx
	mov	QWORD PTR [rsp+8], rcx
	push	rbp
	push	rdi
	sub	rsp, 360				; 00000168H
	lea	rbp, QWORD PTR [rsp+32]
	mov	rdi, rsp
	mov	ecx, 90					; 0000005aH
	mov	eax, -858993460				; ccccccccH
	rep stosd
	mov	rcx, QWORD PTR [rsp+392]
	mov	rax, QWORD PTR __security_cookie
	xor	rax, rbp
	mov	QWORD PTR __$ArrayPad$[rbp], rax
	lea	rcx, OFFSET FLAT:__3666D5C6_pmc_greatestcommondivisor@c
	call	__CheckForDebuggerJustMyCode

; 50   :     if (v == NULL)

	cmp	QWORD PTR v$[rbp], 0
	jne	SHORT $LN2@PMC_Greate

; 51   :         return (PMC_STATUS_ARGUMENT_ERROR);

	mov	eax, -1
	jmp	SHORT $LN1@PMC_Greate
$LN2@PMC_Greate:

; 52   :     if (w == NULL)

	cmp	QWORD PTR w$[rbp], 0
	jne	SHORT $LN3@PMC_Greate

; 53   :         return (PMC_STATUS_ARGUMENT_ERROR);

	mov	eax, -1
	jmp	SHORT $LN1@PMC_Greate
$LN3@PMC_Greate:

; 54   :     PMC_STATUS_CODE result;
; 55   :     NUMBER_HEADER* nv = (NUMBER_HEADER*)v;

	mov	rax, QWORD PTR v$[rbp]
	mov	QWORD PTR nv$[rbp], rax

; 56   :     if ((result = CheckNumber(nv)) != PMC_STATUS_OK)

	mov	rcx, QWORD PTR nv$[rbp]
	call	CheckNumber
	mov	DWORD PTR result$[rbp], eax
	cmp	DWORD PTR result$[rbp], 0
	je	SHORT $LN4@PMC_Greate

; 57   :         return (result);

	mov	eax, DWORD PTR result$[rbp]
	jmp	SHORT $LN1@PMC_Greate
$LN4@PMC_Greate:

; 58   :     char u_sign;
; 59   :     _UINT64_T u_abs = GET_ABS_64(u, &u_sign);

	lea	rdx, QWORD PTR u_sign$[rbp]
	mov	rcx, QWORD PTR u$[rbp]
	call	GET_ABS_64
	mov	QWORD PTR u_abs$[rbp], rax

; 60   :     if ((result = ep_uint.GreatestCommonDivisor_L_X(u_abs, nv->ABS, w)) != PMC_STATUS_OK)

	mov	r8, QWORD PTR w$[rbp]
	mov	rax, QWORD PTR nv$[rbp]
	mov	rdx, QWORD PTR [rax+16]
	mov	rcx, QWORD PTR u_abs$[rbp]
	call	QWORD PTR ep_uint+496
	mov	DWORD PTR result$[rbp], eax
	cmp	DWORD PTR result$[rbp], 0
	je	SHORT $LN5@PMC_Greate

; 61   :         return (result);

	mov	eax, DWORD PTR result$[rbp]
	jmp	SHORT $LN1@PMC_Greate
$LN5@PMC_Greate:

; 62   :     return (PMC_STATUS_OK);

	xor	eax, eax
$LN1@PMC_Greate:

; 63   : }

	mov	rdi, rax
	lea	rcx, QWORD PTR [rbp-32]
	lea	rdx, OFFSET FLAT:PMC_GreatestCommonDivisor_L_X$rtcFrameData
	call	_RTC_CheckStackVars
	mov	rax, rdi
	mov	rcx, QWORD PTR __$ArrayPad$[rbp]
	xor	rcx, rbp
	call	__security_check_cookie
	lea	rsp, QWORD PTR [rbp+328]
	pop	rdi
	pop	rbp
	ret	0
PMC_GreatestCommonDivisor_L_X ENDP
_TEXT	ENDS
; Function compile flags: /Odtp /RTCsu /ZI
; File z:\sources\lunor\repos\rougemeilland\palmtree.math.core.sint\palmtree.math.core.sint\pmc_greatestcommondivisor.c
;	COMDAT PMC_GreatestCommonDivisor_I_X
_TEXT	SEGMENT
result$ = 4
nv$ = 40
u_sign$ = 68
u_abs$ = 100
__$ArrayPad$ = 312
u$ = 352
v$ = 360
w$ = 368
PMC_GreatestCommonDivisor_I_X PROC			; COMDAT

; 32   : {

$LN7:
	mov	QWORD PTR [rsp+24], r8
	mov	QWORD PTR [rsp+16], rdx
	mov	DWORD PTR [rsp+8], ecx
	push	rbp
	push	rdi
	sub	rsp, 360				; 00000168H
	lea	rbp, QWORD PTR [rsp+32]
	mov	rdi, rsp
	mov	ecx, 90					; 0000005aH
	mov	eax, -858993460				; ccccccccH
	rep stosd
	mov	ecx, DWORD PTR [rsp+392]
	mov	rax, QWORD PTR __security_cookie
	xor	rax, rbp
	mov	QWORD PTR __$ArrayPad$[rbp], rax
	lea	rcx, OFFSET FLAT:__3666D5C6_pmc_greatestcommondivisor@c
	call	__CheckForDebuggerJustMyCode

; 33   :     if (v == NULL)

	cmp	QWORD PTR v$[rbp], 0
	jne	SHORT $LN2@PMC_Greate

; 34   :         return (PMC_STATUS_ARGUMENT_ERROR);

	mov	eax, -1
	jmp	SHORT $LN1@PMC_Greate
$LN2@PMC_Greate:

; 35   :     if (w == NULL)

	cmp	QWORD PTR w$[rbp], 0
	jne	SHORT $LN3@PMC_Greate

; 36   :         return (PMC_STATUS_ARGUMENT_ERROR);

	mov	eax, -1
	jmp	SHORT $LN1@PMC_Greate
$LN3@PMC_Greate:

; 37   :     PMC_STATUS_CODE result;
; 38   :     NUMBER_HEADER* nv = (NUMBER_HEADER*)v;

	mov	rax, QWORD PTR v$[rbp]
	mov	QWORD PTR nv$[rbp], rax

; 39   :     if ((result = CheckNumber(nv)) != PMC_STATUS_OK)

	mov	rcx, QWORD PTR nv$[rbp]
	call	CheckNumber
	mov	DWORD PTR result$[rbp], eax
	cmp	DWORD PTR result$[rbp], 0
	je	SHORT $LN4@PMC_Greate

; 40   :         return (result);

	mov	eax, DWORD PTR result$[rbp]
	jmp	SHORT $LN1@PMC_Greate
$LN4@PMC_Greate:

; 41   :     char u_sign;
; 42   :     _UINT32_T u_abs = GET_ABS_32(u, &u_sign);

	lea	rdx, QWORD PTR u_sign$[rbp]
	mov	ecx, DWORD PTR u$[rbp]
	call	GET_ABS_32
	mov	DWORD PTR u_abs$[rbp], eax

; 43   :     if ((result = ep_uint.GreatestCommonDivisor_I_X(u_abs, nv->ABS, w)) != PMC_STATUS_OK)

	mov	r8, QWORD PTR w$[rbp]
	mov	rax, QWORD PTR nv$[rbp]
	mov	rdx, QWORD PTR [rax+16]
	mov	ecx, DWORD PTR u_abs$[rbp]
	call	QWORD PTR ep_uint+488
	mov	DWORD PTR result$[rbp], eax
	cmp	DWORD PTR result$[rbp], 0
	je	SHORT $LN5@PMC_Greate

; 44   :         return (result);

	mov	eax, DWORD PTR result$[rbp]
	jmp	SHORT $LN1@PMC_Greate
$LN5@PMC_Greate:

; 45   :     return (PMC_STATUS_OK);

	xor	eax, eax
$LN1@PMC_Greate:

; 46   : }

	mov	rdi, rax
	lea	rcx, QWORD PTR [rbp-32]
	lea	rdx, OFFSET FLAT:PMC_GreatestCommonDivisor_I_X$rtcFrameData
	call	_RTC_CheckStackVars
	mov	rax, rdi
	mov	rcx, QWORD PTR __$ArrayPad$[rbp]
	xor	rcx, rbp
	call	__security_check_cookie
	lea	rsp, QWORD PTR [rbp+328]
	pop	rdi
	pop	rbp
	ret	0
PMC_GreatestCommonDivisor_I_X ENDP
_TEXT	ENDS
END
