; Listing generated by Microsoft (R) Optimizing Compiler Version 19.16.27026.1 

include listing.inc

INCLUDELIB MSVCRTD
INCLUDELIB OLDNAMES

_DATA	SEGMENT
COMM	number_zero:BYTE:018H
COMM	number_one:BYTE:018H
COMM	number_minus_one:BYTE:018H
COMM	hLocalHeap:QWORD
_DATA	ENDS
msvcjmc	SEGMENT
__7B7A869E_ctype@h DB 01H
__457DD326_basetsd@h DB 01H
__4384A2D9_corecrt_memcpy_s@h DB 01H
__4E51A221_corecrt_wstring@h DB 01H
__2140C079_string@h DB 01H
__1887E595_winnt@h DB 01H
__9FC7C64B_processthreadsapi@h DB 01H
__FA470AEC_memoryapi@h DB 01H
__F37DAFF1_winerror@h DB 01H
__7A450CCC_winbase@h DB 01H
__B4B40122_winioctl@h DB 01H
__86261D59_stralign@h DB 01H
__8CA3E54E_pmc_inline_func@h DB 01H
__16A7E60D_pmc_memory@c DB 01H
msvcjmc	ENDS
PUBLIC	AllocateHeapArea
PUBLIC	DeallocateHeapArea
PUBLIC	AllocateNumber
PUBLIC	DeallocateNumber
PUBLIC	CheckNumber
PUBLIC	DuplicateNumber
PUBLIC	Negate_Imp
PUBLIC	Initialize_Memory
PUBLIC	PMC_Dispose
PUBLIC	PMC_GetConstantValue_I
PUBLIC	AttatchNumber
PUBLIC	DetatchNumber
PUBLIC	__JustMyCode_Default
EXTRN	__imp_HeapCreate:PROC
EXTRN	__imp_HeapDestroy:PROC
EXTRN	__imp_HeapAlloc:PROC
EXTRN	__imp_HeapFree:PROC
EXTRN	_RTC_CheckStackVars:PROC
EXTRN	_RTC_InitBase:PROC
EXTRN	_RTC_Shutdown:PROC
EXTRN	__CheckForDebuggerJustMyCode:PROC
EXTRN	__GSHandlerCheck:PROC
EXTRN	__security_check_cookie:PROC
EXTRN	ep_uint:BYTE
EXTRN	__security_cookie:QWORD
;	COMDAT pdata
pdata	SEGMENT
$pdata$AllocateHeapArea DD imagerel $LN4
	DD	imagerel $LN4+94
	DD	imagerel $unwind$AllocateHeapArea
pdata	ENDS
;	COMDAT pdata
pdata	SEGMENT
$pdata$DeallocateHeapArea DD imagerel $LN4
	DD	imagerel $LN4+86
	DD	imagerel $unwind$DeallocateHeapArea
pdata	ENDS
;	COMDAT pdata
pdata	SEGMENT
$pdata$AllocateNumber DD imagerel $LN5
	DD	imagerel $LN5+185
	DD	imagerel $unwind$AllocateNumber
pdata	ENDS
;	COMDAT pdata
pdata	SEGMENT
$pdata$DeallocateNumber DD imagerel $LN5
	DD	imagerel $LN5+139
	DD	imagerel $unwind$DeallocateNumber
pdata	ENDS
;	COMDAT pdata
pdata	SEGMENT
$pdata$CheckNumber DD imagerel $LN5
	DD	imagerel $LN5+104
	DD	imagerel $unwind$CheckNumber
pdata	ENDS
;	COMDAT pdata
pdata	SEGMENT
$pdata$DuplicateNumber DD imagerel $LN9
	DD	imagerel $LN9+391
	DD	imagerel $unwind$DuplicateNumber
pdata	ENDS
;	COMDAT pdata
pdata	SEGMENT
$pdata$Negate_Imp DD imagerel $LN8
	DD	imagerel $LN8+355
	DD	imagerel $unwind$Negate_Imp
pdata	ENDS
;	COMDAT pdata
pdata	SEGMENT
$pdata$Initialize_Memory DD imagerel $LN17
	DD	imagerel $LN17+458
	DD	imagerel $unwind$Initialize_Memory
pdata	ENDS
;	COMDAT pdata
pdata	SEGMENT
$pdata$PMC_Dispose DD imagerel $LN3
	DD	imagerel $LN3+84
	DD	imagerel $unwind$PMC_Dispose
pdata	ENDS
;	COMDAT pdata
pdata	SEGMENT
$pdata$PMC_GetConstantValue_I DD imagerel $LN9
	DD	imagerel $LN9+176
	DD	imagerel $unwind$PMC_GetConstantValue_I
pdata	ENDS
;	COMDAT pdata
pdata	SEGMENT
$pdata$_ZERO_MEMORY_BYTE DD imagerel _ZERO_MEMORY_BYTE
	DD	imagerel _ZERO_MEMORY_BYTE+87
	DD	imagerel $unwind$_ZERO_MEMORY_BYTE
pdata	ENDS
;	COMDAT pdata
pdata	SEGMENT
$pdata$_ZERO_MEMORY_16 DD imagerel _ZERO_MEMORY_16
	DD	imagerel _ZERO_MEMORY_16+88
	DD	imagerel $unwind$_ZERO_MEMORY_16
pdata	ENDS
;	COMDAT pdata
pdata	SEGMENT
$pdata$_ZERO_MEMORY_32 DD imagerel _ZERO_MEMORY_32
	DD	imagerel _ZERO_MEMORY_32+87
	DD	imagerel $unwind$_ZERO_MEMORY_32
pdata	ENDS
;	COMDAT pdata
pdata	SEGMENT
$pdata$_ZERO_MEMORY_64 DD imagerel _ZERO_MEMORY_64
	DD	imagerel _ZERO_MEMORY_64+88
	DD	imagerel $unwind$_ZERO_MEMORY_64
pdata	ENDS
;	COMDAT pdata
pdata	SEGMENT
$pdata$_FILL_MEMORY_BYTE DD imagerel _FILL_MEMORY_BYTE
	DD	imagerel _FILL_MEMORY_BYTE+96
	DD	imagerel $unwind$_FILL_MEMORY_BYTE
pdata	ENDS
;	COMDAT pdata
pdata	SEGMENT
$pdata$_FILL_MEMORY_16 DD imagerel _FILL_MEMORY_16
	DD	imagerel _FILL_MEMORY_16+98
	DD	imagerel $unwind$_FILL_MEMORY_16
pdata	ENDS
;	COMDAT pdata
pdata	SEGMENT
$pdata$_FILL_MEMORY_32 DD imagerel _FILL_MEMORY_32
	DD	imagerel _FILL_MEMORY_32+95
	DD	imagerel $unwind$_FILL_MEMORY_32
pdata	ENDS
;	COMDAT pdata
pdata	SEGMENT
$pdata$_FILL_MEMORY_64 DD imagerel _FILL_MEMORY_64
	DD	imagerel _FILL_MEMORY_64+98
	DD	imagerel $unwind$_FILL_MEMORY_64
pdata	ENDS
;	COMDAT pdata
pdata	SEGMENT
$pdata$ClearNumberHeader DD imagerel ClearNumberHeader
	DD	imagerel ClearNumberHeader+344
	DD	imagerel $unwind$ClearNumberHeader
pdata	ENDS
;	COMDAT pdata
pdata	SEGMENT
$pdata$FillNumberHeader DD imagerel FillNumberHeader
	DD	imagerel FillNumberHeader+387
	DD	imagerel $unwind$FillNumberHeader
pdata	ENDS
;	COMDAT pdata
pdata	SEGMENT
$pdata$InitializeNumber DD imagerel InitializeNumber
	DD	imagerel InitializeNumber+698
	DD	imagerel $unwind$InitializeNumber
pdata	ENDS
;	COMDAT pdata
pdata	SEGMENT
$pdata$CleanUpNumber DD imagerel CleanUpNumber
	DD	imagerel CleanUpNumber+81
	DD	imagerel $unwind$CleanUpNumber
pdata	ENDS
;	COMDAT pdata
pdata	SEGMENT
$pdata$AttatchNumber DD imagerel $LN4
	DD	imagerel $LN4+138
	DD	imagerel $unwind$AttatchNumber
pdata	ENDS
;	COMDAT pdata
pdata	SEGMENT
$pdata$DetatchNumber DD imagerel $LN5
	DD	imagerel $LN5+105
	DD	imagerel $unwind$DetatchNumber
pdata	ENDS
;	COMDAT rtc$TMZ
rtc$TMZ	SEGMENT
_RTC_Shutdown.rtc$TMZ DQ FLAT:_RTC_Shutdown
rtc$TMZ	ENDS
;	COMDAT rtc$IMZ
rtc$IMZ	SEGMENT
_RTC_InitBase.rtc$IMZ DQ FLAT:_RTC_InitBase
rtc$IMZ	ENDS
;	COMDAT xdata
xdata	SEGMENT
$unwind$DetatchNumber DD 025052a01H
	DD	010e2313H
	DD	07007001dH
	DD	05006H
xdata	ENDS
;	COMDAT xdata
xdata	SEGMENT
$unwind$AttatchNumber DD 025053301H
	DD	0117231cH
	DD	070100021H
	DD	0500fH
xdata	ENDS
;	COMDAT xdata
xdata	SEGMENT
$unwind$CleanUpNumber DD 025052a01H
	DD	010e2313H
	DD	07007001dH
	DD	05006H
xdata	ENDS
;	COMDAT xdata
xdata	SEGMENT
$unwind$InitializeNumber DD 025054419H
	DD	0117231cH
	DD	070100025H
	DD	0500fH
	DD	imagerel __GSHandlerCheck
	DD	0118H
xdata	ENDS
;	COMDAT CONST
CONST	SEGMENT
InitializeNumber$rtcName$0 DB 074H
	DB	079H
	DB	070H
	DB	065H
	DB	00H
	ORG $+11
InitializeNumber$rtcVarDesc DD 044H
	DD	04H
	DQ	FLAT:InitializeNumber$rtcName$0
	ORG $+48
InitializeNumber$rtcFrameData DD 01H
	DD	00H
	DQ	FLAT:InitializeNumber$rtcVarDesc
CONST	ENDS
;	COMDAT xdata
xdata	SEGMENT
$unwind$FillNumberHeader DD 025052a01H
	DD	010e2313H
	DD	070070025H
	DD	05006H
xdata	ENDS
;	COMDAT xdata
xdata	SEGMENT
$unwind$ClearNumberHeader DD 025052a01H
	DD	010e2313H
	DD	070070025H
	DD	05006H
xdata	ENDS
;	COMDAT xdata
xdata	SEGMENT
$unwind$_FILL_MEMORY_64 DD 025053401H
	DD	0118231dH
	DD	07011001dH
	DD	05010H
xdata	ENDS
;	COMDAT xdata
xdata	SEGMENT
$unwind$_FILL_MEMORY_32 DD 025053301H
	DD	0117231cH
	DD	07010001dH
	DD	0500fH
xdata	ENDS
;	COMDAT xdata
xdata	SEGMENT
$unwind$_FILL_MEMORY_16 DD 025053401H
	DD	0118231dH
	DD	07011001dH
	DD	05010H
xdata	ENDS
;	COMDAT xdata
xdata	SEGMENT
$unwind$_FILL_MEMORY_BYTE DD 025053301H
	DD	0117231cH
	DD	07010001dH
	DD	0500fH
xdata	ENDS
;	COMDAT xdata
xdata	SEGMENT
$unwind$_ZERO_MEMORY_64 DD 025052f01H
	DD	01132318H
	DD	0700c001dH
	DD	0500bH
xdata	ENDS
;	COMDAT xdata
xdata	SEGMENT
$unwind$_ZERO_MEMORY_32 DD 025052f01H
	DD	01132318H
	DD	0700c001dH
	DD	0500bH
xdata	ENDS
;	COMDAT xdata
xdata	SEGMENT
$unwind$_ZERO_MEMORY_16 DD 025052f01H
	DD	01132318H
	DD	0700c001dH
	DD	0500bH
xdata	ENDS
;	COMDAT xdata
xdata	SEGMENT
$unwind$_ZERO_MEMORY_BYTE DD 025052f01H
	DD	01132318H
	DD	0700c001dH
	DD	0500bH
xdata	ENDS
;	COMDAT xdata
xdata	SEGMENT
$unwind$PMC_GetConstantValue_I DD 025052d01H
	DD	01122317H
	DD	0700b001fH
	DD	0500aH
xdata	ENDS
;	COMDAT xdata
xdata	SEGMENT
$unwind$PMC_Dispose DD 025052a01H
	DD	010e2313H
	DD	070070021H
	DD	05006H
xdata	ENDS
;	COMDAT xdata
xdata	SEGMENT
$unwind$Initialize_Memory DD 025052f19H
	DD	010a230fH
	DD	07003003dH
	DD	05002H
	DD	imagerel __GSHandlerCheck
	DD	01d8H
xdata	ENDS
;	COMDAT CONST
CONST	SEGMENT
Initialize_Memory$rtcName$0 DB 075H
	DB	06eH
	DB	073H
	DB	069H
	DB	067H
	DB	06eH
	DB	065H
	DB	064H
	DB	05fH
	DB	07aH
	DB	065H
	DB	072H
	DB	06fH
	DB	00H
	ORG $+2
Initialize_Memory$rtcName$1 DB 075H
	DB	06eH
	DB	073H
	DB	069H
	DB	067H
	DB	06eH
	DB	065H
	DB	064H
	DB	05fH
	DB	06fH
	DB	06eH
	DB	065H
	DB	00H
	ORG $+3
Initialize_Memory$rtcVarDesc DD 0108H
	DD	08H
	DQ	FLAT:Initialize_Memory$rtcName$1
	DD	0e8H
	DD	08H
	DQ	FLAT:Initialize_Memory$rtcName$0
	ORG $+96
Initialize_Memory$rtcFrameData DD 02H
	DD	00H
	DQ	FLAT:Initialize_Memory$rtcVarDesc
CONST	ENDS
;	COMDAT xdata
xdata	SEGMENT
$unwind$Negate_Imp DD 025054019H
	DD	01132318H
	DD	0700c0029H
	DD	0500bH
	DD	imagerel __GSHandlerCheck
	DD	0138H
xdata	ENDS
;	COMDAT CONST
CONST	SEGMENT
Negate_Imp$rtcName$0 DB 06eH
	DB	065H
	DB	077H
	DB	05fH
	DB	061H
	DB	062H
	DB	073H
	DB	00H
Negate_Imp$rtcName$1 DB 06fH
	DB	00H
	ORG $+6
Negate_Imp$rtcVarDesc DD 068H
	DD	08H
	DQ	FLAT:Negate_Imp$rtcName$1
	DD	048H
	DD	08H
	DQ	FLAT:Negate_Imp$rtcName$0
	ORG $+96
Negate_Imp$rtcFrameData DD 02H
	DD	00H
	DQ	FLAT:Negate_Imp$rtcVarDesc
CONST	ENDS
;	COMDAT xdata
xdata	SEGMENT
$unwind$DuplicateNumber DD 025054019H
	DD	01132318H
	DD	0700c0029H
	DD	0500bH
	DD	imagerel __GSHandlerCheck
	DD	0138H
xdata	ENDS
;	COMDAT CONST
CONST	SEGMENT
DuplicateNumber$rtcName$0 DB 06eH
	DB	065H
	DB	077H
	DB	05fH
	DB	061H
	DB	062H
	DB	073H
	DB	00H
DuplicateNumber$rtcName$1 DB 06fH
	DB	00H
	ORG $+6
DuplicateNumber$rtcVarDesc DD 068H
	DD	08H
	DQ	FLAT:DuplicateNumber$rtcName$1
	DD	048H
	DD	08H
	DQ	FLAT:DuplicateNumber$rtcName$0
	ORG $+96
DuplicateNumber$rtcFrameData DD 02H
	DD	00H
	DQ	FLAT:DuplicateNumber$rtcVarDesc
CONST	ENDS
;	COMDAT xdata
xdata	SEGMENT
$unwind$CheckNumber DD 025052a01H
	DD	010e2313H
	DD	07007001dH
	DD	05006H
xdata	ENDS
;	COMDAT xdata
xdata	SEGMENT
$unwind$DeallocateNumber DD 025052a01H
	DD	010e2313H
	DD	07007001dH
	DD	05006H
xdata	ENDS
;	COMDAT xdata
xdata	SEGMENT
$unwind$AllocateNumber DD 025053301H
	DD	0117231cH
	DD	070100025H
	DD	0500fH
xdata	ENDS
;	COMDAT xdata
xdata	SEGMENT
$unwind$DeallocateHeapArea DD 025051e01H
	DD	010a230fH
	DD	07003001dH
	DD	05002H
xdata	ENDS
;	COMDAT xdata
xdata	SEGMENT
$unwind$AllocateHeapArea DD 025051e01H
	DD	010a230fH
	DD	07003001dH
	DD	05002H
xdata	ENDS
; Function compile flags: /Odt
;	COMDAT __JustMyCode_Default
_TEXT	SEGMENT
__JustMyCode_Default PROC				; COMDAT
	ret	0
__JustMyCode_Default ENDP
_TEXT	ENDS
; Function compile flags: /Odtp /RTCsu /ZI
; File z:\sources\lunor\repos\rougemeilland\palmtree.math.core.sint\palmtree.math.core.sint\pmc_memory.c
;	COMDAT DetatchNumber
_TEXT	SEGMENT
p$ = 224
DetatchNumber PROC					; COMDAT

; 177  : {

$LN5:
	mov	QWORD PTR [rsp+8], rcx
	push	rbp
	push	rdi
	sub	rsp, 232				; 000000e8H
	lea	rbp, QWORD PTR [rsp+32]
	mov	rdi, rsp
	mov	ecx, 58					; 0000003aH
	mov	eax, -858993460				; ccccccccH
	rep stosd
	mov	rcx, QWORD PTR [rsp+264]
	lea	rcx, OFFSET FLAT:__16A7E60D_pmc_memory@c
	call	__CheckForDebuggerJustMyCode

; 178  :     if (p == NULL || !p->IS_STATIC)

	cmp	QWORD PTR p$[rbp], 0
	je	SHORT $LN3@DetatchNum
	mov	rax, QWORD PTR p$[rbp]
	mov	eax, DWORD PTR [rax+20]
	and	eax, 1
	test	eax, eax
	jne	SHORT $LN2@DetatchNum
$LN3@DetatchNum:

; 179  :         return;

	jmp	SHORT $LN1@DetatchNum
$LN2@DetatchNum:

; 180  :     CleanUpNumber(p);

	mov	rcx, QWORD PTR p$[rbp]
	call	CleanUpNumber
$LN1@DetatchNum:

; 181  : }

	lea	rsp, QWORD PTR [rbp+200]
	pop	rdi
	pop	rbp
	ret	0
DetatchNumber ENDP
_TEXT	ENDS
; Function compile flags: /Odtp /RTCsu /ZI
; File z:\sources\lunor\repos\rougemeilland\palmtree.math.core.sint\palmtree.math.core.sint\pmc_memory.c
;	COMDAT AttatchNumber
_TEXT	SEGMENT
result$ = 4
p$ = 256
sign$ = 264
abs$ = 272
AttatchNumber PROC					; COMDAT

; 155  : {

$LN4:
	mov	QWORD PTR [rsp+24], r8
	mov	BYTE PTR [rsp+16], dl
	mov	QWORD PTR [rsp+8], rcx
	push	rbp
	push	rdi
	sub	rsp, 264				; 00000108H
	lea	rbp, QWORD PTR [rsp+32]
	mov	rdi, rsp
	mov	ecx, 66					; 00000042H
	mov	eax, -858993460				; ccccccccH
	rep stosd
	mov	rcx, QWORD PTR [rsp+296]
	lea	rcx, OFFSET FLAT:__16A7E60D_pmc_memory@c
	call	__CheckForDebuggerJustMyCode

; 156  :     PMC_STATUS_CODE result = InitializeNumber(p, sign, abs);

	mov	r8, QWORD PTR abs$[rbp]
	movzx	edx, BYTE PTR sign$[rbp]
	mov	rcx, QWORD PTR p$[rbp]
	call	InitializeNumber
	mov	DWORD PTR result$[rbp], eax

; 157  :     if (result != PMC_STATUS_OK)

	cmp	DWORD PTR result$[rbp], 0
	je	SHORT $LN2@AttatchNum

; 158  :         return (result);

	mov	eax, DWORD PTR result$[rbp]
	jmp	SHORT $LN1@AttatchNum
$LN2@AttatchNum:

; 159  :     p->IS_STATIC = TRUE;

	mov	rax, QWORD PTR p$[rbp]
	mov	eax, DWORD PTR [rax+20]
	or	eax, 1
	mov	rcx, QWORD PTR p$[rbp]
	mov	DWORD PTR [rcx+20], eax

; 160  :     return (PMC_STATUS_OK);

	xor	eax, eax
$LN1@AttatchNum:

; 161  : }

	lea	rsp, QWORD PTR [rbp+232]
	pop	rdi
	pop	rbp
	ret	0
AttatchNumber ENDP
_TEXT	ENDS
; Function compile flags: /Odtp /RTCsu /ZI
; File z:\sources\lunor\repos\rougemeilland\palmtree.math.core.sint\palmtree.math.core.sint\pmc_memory.c
;	COMDAT CleanUpNumber
_TEXT	SEGMENT
p$ = 224
CleanUpNumber PROC					; COMDAT

; 150  : {

	mov	QWORD PTR [rsp+8], rcx
	push	rbp
	push	rdi
	sub	rsp, 232				; 000000e8H
	lea	rbp, QWORD PTR [rsp+32]
	mov	rdi, rsp
	mov	ecx, 58					; 0000003aH
	mov	eax, -858993460				; ccccccccH
	rep stosd
	mov	rcx, QWORD PTR [rsp+264]
	lea	rcx, OFFSET FLAT:__16A7E60D_pmc_memory@c
	call	__CheckForDebuggerJustMyCode

; 151  :     ep_uint.Dispose(p->ABS);

	mov	rax, QWORD PTR p$[rbp]
	mov	rcx, QWORD PTR [rax+8]
	call	QWORD PTR ep_uint+32

; 152  : }

	lea	rsp, QWORD PTR [rbp+200]
	pop	rdi
	pop	rbp
	ret	0
CleanUpNumber ENDP
_TEXT	ENDS
; Function compile flags: /Odtp /RTCsu /ZI
; File z:\sources\lunor\repos\rougemeilland\palmtree.math.core.sint\palmtree.math.core.sint\pmc_memory.c
;	COMDAT InitializeNumber
_TEXT	SEGMENT
result$ = 4
type$ = 36
tv150 = 244
tv141 = 244
tv130 = 244
tv87 = 244
tv76 = 244
__$ArrayPad$ = 248
p$ = 288
sign$ = 296
abs$ = 304
InitializeNumber PROC					; COMDAT

; 123  : {

	mov	QWORD PTR [rsp+24], r8
	mov	BYTE PTR [rsp+16], dl
	mov	QWORD PTR [rsp+8], rcx
	push	rbp
	push	rdi
	sub	rsp, 296				; 00000128H
	lea	rbp, QWORD PTR [rsp+32]
	mov	rdi, rsp
	mov	ecx, 74					; 0000004aH
	mov	eax, -858993460				; ccccccccH
	rep stosd
	mov	rcx, QWORD PTR [rsp+328]
	mov	rax, QWORD PTR __security_cookie
	xor	rax, rbp
	mov	QWORD PTR __$ArrayPad$[rbp], rax
	lea	rcx, OFFSET FLAT:__16A7E60D_pmc_memory@c
	call	__CheckForDebuggerJustMyCode

; 124  :     PMC_STATUS_CODE result;
; 125  :     ClearNumberHeader(p);

	mov	rcx, QWORD PTR p$[rbp]
	call	ClearNumberHeader

; 126  :     p->SIGNATURE1 = PMC_SIGNATURE;

	mov	rax, QWORD PTR p$[rbp]
	mov	DWORD PTR [rax], 1231244656		; 49634d70H

; 127  :     p->SIGNATURE2 = PMC_SINT_SIGNATURE;

	mov	rax, QWORD PTR p$[rbp]
	mov	DWORD PTR [rax+4], 1951287667		; 744e4973H

; 128  :     p->SIGN = sign;

	mov	rax, QWORD PTR p$[rbp]
	movzx	ecx, BYTE PTR sign$[rbp]
	mov	BYTE PTR [rax+16], cl

; 129  :     p->ABS = abs;

	mov	rax, QWORD PTR p$[rbp]
	mov	rcx, QWORD PTR abs$[rbp]
	mov	QWORD PTR [rax+8], rcx

; 130  : 
; 131  :     PMC_NUMBER_TYPE_CODE type;
; 132  :     if ((result = ep_uint.GetNumberType_X(abs, &type)) != PMC_STATUS_OK)

	lea	rdx, QWORD PTR type$[rbp]
	mov	rcx, QWORD PTR abs$[rbp]
	call	QWORD PTR ep_uint+40
	mov	DWORD PTR result$[rbp], eax
	cmp	DWORD PTR result$[rbp], 0
	je	SHORT $LN2@Initialize

; 133  :         return (result);

	mov	eax, DWORD PTR result$[rbp]
	jmp	$LN1@Initialize
$LN2@Initialize:

; 134  :     p->IS_EVEN = (type & PMC_NUMBER_TYPE_IS_EVEN) != 0;

	mov	eax, DWORD PTR type$[rbp]
	and	eax, 8
	test	eax, eax
	je	SHORT $LN6@Initialize
	mov	DWORD PTR tv76[rbp], 1
	jmp	SHORT $LN7@Initialize
$LN6@Initialize:
	mov	DWORD PTR tv76[rbp], 0
$LN7@Initialize:
	mov	eax, DWORD PTR tv76[rbp]
	and	eax, 1
	shl	eax, 4
	mov	rcx, QWORD PTR p$[rbp]
	mov	ecx, DWORD PTR [rcx+20]
	and	ecx, -17				; ffffffefH
	or	ecx, eax
	mov	eax, ecx
	mov	rcx, QWORD PTR p$[rbp]
	mov	DWORD PTR [rcx+20], eax

; 135  :     p->IS_MINUS_ONE = sign < 0 && (type & PMC_NUMBER_TYPE_IS_ONE) != 0;

	movsx	eax, BYTE PTR sign$[rbp]
	test	eax, eax
	jge	SHORT $LN8@Initialize
	mov	eax, DWORD PTR type$[rbp]
	and	eax, 2
	test	eax, eax
	je	SHORT $LN8@Initialize
	mov	DWORD PTR tv87[rbp], 1
	jmp	SHORT $LN9@Initialize
$LN8@Initialize:
	mov	DWORD PTR tv87[rbp], 0
$LN9@Initialize:
	mov	eax, DWORD PTR tv87[rbp]
	and	eax, 1
	shl	eax, 3
	mov	rcx, QWORD PTR p$[rbp]
	mov	ecx, DWORD PTR [rcx+20]
	and	ecx, -9					; fffffff7H
	or	ecx, eax
	mov	eax, ecx
	mov	rcx, QWORD PTR p$[rbp]
	mov	DWORD PTR [rcx+20], eax

; 136  :     p->IS_ONE = sign > 0 && (type & PMC_NUMBER_TYPE_IS_ONE) != 0;

	movsx	eax, BYTE PTR sign$[rbp]
	test	eax, eax
	jle	SHORT $LN10@Initialize
	mov	eax, DWORD PTR type$[rbp]
	and	eax, 2
	test	eax, eax
	je	SHORT $LN10@Initialize
	mov	DWORD PTR tv130[rbp], 1
	jmp	SHORT $LN11@Initialize
$LN10@Initialize:
	mov	DWORD PTR tv130[rbp], 0
$LN11@Initialize:
	mov	eax, DWORD PTR tv130[rbp]
	and	eax, 1
	shl	eax, 2
	mov	rcx, QWORD PTR p$[rbp]
	mov	ecx, DWORD PTR [rcx+20]
	and	ecx, -5					; fffffffbH
	or	ecx, eax
	mov	eax, ecx
	mov	rcx, QWORD PTR p$[rbp]
	mov	DWORD PTR [rcx+20], eax

; 137  :     p->IS_POWER_OF_TWO = sign > 0 && (type & PMC_NUMBER_TYPE_IS_POWER_OF_TWO) != 0;

	movsx	eax, BYTE PTR sign$[rbp]
	test	eax, eax
	jle	SHORT $LN12@Initialize
	mov	eax, DWORD PTR type$[rbp]
	and	eax, 16
	test	eax, eax
	je	SHORT $LN12@Initialize
	mov	DWORD PTR tv141[rbp], 1
	jmp	SHORT $LN13@Initialize
$LN12@Initialize:
	mov	DWORD PTR tv141[rbp], 0
$LN13@Initialize:
	mov	eax, DWORD PTR tv141[rbp]
	and	eax, 1
	shl	eax, 5
	mov	rcx, QWORD PTR p$[rbp]
	mov	ecx, DWORD PTR [rcx+20]
	and	ecx, -33				; ffffffdfH
	or	ecx, eax
	mov	eax, ecx
	mov	rcx, QWORD PTR p$[rbp]
	mov	DWORD PTR [rcx+20], eax

; 138  :     p->IS_ZERO = (type & PMC_NUMBER_TYPE_IS_ZERO) != 0;

	mov	eax, DWORD PTR type$[rbp]
	and	eax, 1
	test	eax, eax
	je	SHORT $LN14@Initialize
	mov	DWORD PTR tv150[rbp], 1
	jmp	SHORT $LN15@Initialize
$LN14@Initialize:
	mov	DWORD PTR tv150[rbp], 0
$LN15@Initialize:
	mov	eax, DWORD PTR tv150[rbp]
	and	eax, 1
	shl	eax, 1
	mov	rcx, QWORD PTR p$[rbp]
	mov	ecx, DWORD PTR [rcx+20]
	and	ecx, -3					; fffffffdH
	or	ecx, eax
	mov	eax, ecx
	mov	rcx, QWORD PTR p$[rbp]
	mov	DWORD PTR [rcx+20], eax

; 139  : 
; 140  :     if (sign != 0 && p->IS_ZERO)

	movsx	eax, BYTE PTR sign$[rbp]
	test	eax, eax
	je	SHORT $LN3@Initialize
	mov	rax, QWORD PTR p$[rbp]
	mov	eax, DWORD PTR [rax+20]
	shr	eax, 1
	and	eax, 1
	test	eax, eax
	je	SHORT $LN3@Initialize

; 141  :         return (PMC_STATUS_INTERNAL_ERROR);

	mov	eax, -256				; ffffffffffffff00H
	jmp	SHORT $LN1@Initialize
$LN3@Initialize:

; 142  : 
; 143  :     if (sign == 0 && !p->IS_ZERO)

	movsx	eax, BYTE PTR sign$[rbp]
	test	eax, eax
	jne	SHORT $LN4@Initialize
	mov	rax, QWORD PTR p$[rbp]
	mov	eax, DWORD PTR [rax+20]
	shr	eax, 1
	and	eax, 1
	test	eax, eax
	jne	SHORT $LN4@Initialize

; 144  :         return (PMC_STATUS_INTERNAL_ERROR);

	mov	eax, -256				; ffffffffffffff00H
	jmp	SHORT $LN1@Initialize
$LN4@Initialize:

; 145  : 
; 146  :     return (PMC_STATUS_OK);

	xor	eax, eax
$LN1@Initialize:

; 147  : }

	mov	rdi, rax
	lea	rcx, QWORD PTR [rbp-32]
	lea	rdx, OFFSET FLAT:InitializeNumber$rtcFrameData
	call	_RTC_CheckStackVars
	mov	rax, rdi
	mov	rcx, QWORD PTR __$ArrayPad$[rbp]
	xor	rcx, rbp
	call	__security_check_cookie
	lea	rsp, QWORD PTR [rbp+264]
	pop	rdi
	pop	rbp
	ret	0
InitializeNumber ENDP
_TEXT	ENDS
; Function compile flags: /Odtp /RTCsu /ZI
; File z:\sources\lunor\repos\rougemeilland\palmtree.math.core.sint\palmtree.math.core.sint\pmc_memory.c
;	COMDAT FillNumberHeader
_TEXT	SEGMENT
__p$1 = 8
__p$2 = 40
p$ = 288
FillNumberHeader PROC					; COMDAT

; 87   : {

	mov	QWORD PTR [rsp+8], rcx
	push	rbp
	push	rdi
	sub	rsp, 296				; 00000128H
	lea	rbp, QWORD PTR [rsp+32]
	mov	rdi, rsp
	mov	ecx, 74					; 0000004aH
	mov	eax, -858993460				; ccccccccH
	rep stosd
	mov	rcx, QWORD PTR [rsp+328]
	lea	rcx, OFFSET FLAT:__16A7E60D_pmc_memory@c
	call	__CheckForDebuggerJustMyCode

; 88   : #ifdef _M_IX64
; 89   :     if (sizeof(*p) == sizeof(_UINT64_T) * 3)

	xor	eax, eax
	cmp	eax, 1
	je	SHORT $LN2@FillNumber

; 90   :     {
; 91   :         _UINT64_T* __p = (_UINT64_T*)p;

	mov	rax, QWORD PTR p$[rbp]
	mov	QWORD PTR __p$1[rbp], rax

; 92   :         __p[0] = DEFAULT_MEMORY_DATA;

	mov	eax, 8
	imul	rax, rax, 0
	mov	rcx, QWORD PTR __p$1[rbp]
	mov	rdx, -3689348814741910324		; ccccccccccccccccH
	mov	QWORD PTR [rcx+rax], rdx

; 93   :         __p[1] = DEFAULT_MEMORY_DATA;

	mov	eax, 8
	imul	rax, rax, 1
	mov	rcx, QWORD PTR __p$1[rbp]
	mov	rdx, -3689348814741910324		; ccccccccccccccccH
	mov	QWORD PTR [rcx+rax], rdx

; 94   :         __p[2] = DEFAULT_MEMORY_DATA;

	mov	eax, 8
	imul	rax, rax, 2
	mov	rcx, QWORD PTR __p$1[rbp]
	mov	rdx, -3689348814741910324		; ccccccccccccccccH
	mov	QWORD PTR [rcx+rax], rdx

; 95   :     }

	jmp	$LN3@FillNumber
$LN2@FillNumber:

; 96   :     else
; 97   :     {
; 98   : #endif
; 99   :         if (sizeof(*p) == sizeof(_UINT32_T) * 4)

	xor	eax, eax
	test	eax, eax
	je	SHORT $LN4@FillNumber

; 100  :         {
; 101  :             _UINT32_T* __p = (_UINT32_T*)p;

	mov	rax, QWORD PTR p$[rbp]
	mov	QWORD PTR __p$2[rbp], rax

; 102  :             __p[0] = (_UINT32_T)DEFAULT_MEMORY_DATA;

	mov	eax, 4
	imul	rax, rax, 0
	mov	rcx, QWORD PTR __p$2[rbp]
	mov	DWORD PTR [rcx+rax], -858993460		; ccccccccH

; 103  :             __p[1] = (_UINT32_T)DEFAULT_MEMORY_DATA;

	mov	eax, 4
	imul	rax, rax, 1
	mov	rcx, QWORD PTR __p$2[rbp]
	mov	DWORD PTR [rcx+rax], -858993460		; ccccccccH

; 104  :             __p[2] = (_UINT32_T)DEFAULT_MEMORY_DATA;

	mov	eax, 4
	imul	rax, rax, 2
	mov	rcx, QWORD PTR __p$2[rbp]
	mov	DWORD PTR [rcx+rax], -858993460		; ccccccccH

; 105  :             __p[3] = (_UINT32_T)DEFAULT_MEMORY_DATA;

	mov	eax, 4
	imul	rax, rax, 3
	mov	rcx, QWORD PTR __p$2[rbp]
	mov	DWORD PTR [rcx+rax], -858993460		; ccccccccH

; 106  :         }

	jmp	SHORT $LN5@FillNumber
$LN4@FillNumber:

; 107  : #ifdef _M_IX64
; 108  :         else if (sizeof(*p) % sizeof(_UINT64_T) == 0)

	xor	eax, eax
	cmp	eax, 1
	je	SHORT $LN6@FillNumber

; 109  :             _FILL_MEMORY_64((_UINT64_T*)p, DEFAULT_MEMORY_DATA, sizeof(*p) / sizeof(_UINT64_T));

	mov	r8d, 3
	mov	rdx, -3689348814741910324		; ccccccccccccccccH
	mov	rcx, QWORD PTR p$[rbp]
	call	_FILL_MEMORY_64
	jmp	SHORT $LN7@FillNumber
$LN6@FillNumber:

; 110  : #endif
; 111  :         else if (sizeof(*p) % sizeof(_UINT32_T) == 0)

	xor	eax, eax
	cmp	eax, 1
	je	SHORT $LN8@FillNumber

; 112  :             _FILL_MEMORY_32((_UINT32_T*)p, (_UINT32_T)DEFAULT_MEMORY_DATA, sizeof(*p) / sizeof(_UINT32_T));

	mov	r8d, 6
	mov	edx, -858993460				; ccccccccH
	mov	rcx, QWORD PTR p$[rbp]
	call	_FILL_MEMORY_32
	jmp	SHORT $LN9@FillNumber
$LN8@FillNumber:

; 113  :         else if (sizeof(*p) % sizeof(_UINT16_T) == 0)

	xor	eax, eax
	cmp	eax, 1
	je	SHORT $LN10@FillNumber

; 114  :             _FILL_MEMORY_16((_UINT16_T*)p, (_UINT16_T)DEFAULT_MEMORY_DATA, sizeof(*p) / sizeof(_UINT16_T));

	mov	r8d, 12
	mov	dx, 52428				; 0000ccccH
	mov	rcx, QWORD PTR p$[rbp]
	call	_FILL_MEMORY_16
	jmp	SHORT $LN11@FillNumber
$LN10@FillNumber:

; 115  :         else
; 116  :             _FILL_MEMORY_BYTE(p, (unsigned char)DEFAULT_MEMORY_DATA, sizeof(*p));

	mov	r8d, 24
	mov	dl, 204					; 000000ccH
	mov	rcx, QWORD PTR p$[rbp]
	call	_FILL_MEMORY_BYTE
$LN11@FillNumber:
$LN9@FillNumber:
$LN7@FillNumber:
$LN5@FillNumber:
$LN3@FillNumber:

; 117  : #ifdef _M_IX64
; 118  :     }
; 119  : #endif
; 120  : }

	lea	rsp, QWORD PTR [rbp+264]
	pop	rdi
	pop	rbp
	ret	0
FillNumberHeader ENDP
_TEXT	ENDS
; Function compile flags: /Odtp /RTCsu /ZI
; File z:\sources\lunor\repos\rougemeilland\palmtree.math.core.sint\palmtree.math.core.sint\pmc_memory.c
;	COMDAT ClearNumberHeader
_TEXT	SEGMENT
__p$1 = 8
__p$2 = 40
p$ = 288
ClearNumberHeader PROC					; COMDAT

; 51   : {

	mov	QWORD PTR [rsp+8], rcx
	push	rbp
	push	rdi
	sub	rsp, 296				; 00000128H
	lea	rbp, QWORD PTR [rsp+32]
	mov	rdi, rsp
	mov	ecx, 74					; 0000004aH
	mov	eax, -858993460				; ccccccccH
	rep stosd
	mov	rcx, QWORD PTR [rsp+328]
	lea	rcx, OFFSET FLAT:__16A7E60D_pmc_memory@c
	call	__CheckForDebuggerJustMyCode

; 52   : #ifdef _M_IX64
; 53   :     if (sizeof(*p) == sizeof(_UINT64_T) * 3)

	xor	eax, eax
	cmp	eax, 1
	je	SHORT $LN2@ClearNumbe

; 54   :     {
; 55   :         _UINT64_T* __p = (_UINT64_T*)p;

	mov	rax, QWORD PTR p$[rbp]
	mov	QWORD PTR __p$1[rbp], rax

; 56   :         __p[0] = 0;

	mov	eax, 8
	imul	rax, rax, 0
	mov	rcx, QWORD PTR __p$1[rbp]
	mov	QWORD PTR [rcx+rax], 0

; 57   :         __p[1] = 0;

	mov	eax, 8
	imul	rax, rax, 1
	mov	rcx, QWORD PTR __p$1[rbp]
	mov	QWORD PTR [rcx+rax], 0

; 58   :         __p[2] = 0;

	mov	eax, 8
	imul	rax, rax, 2
	mov	rcx, QWORD PTR __p$1[rbp]
	mov	QWORD PTR [rcx+rax], 0

; 59   :     }

	jmp	$LN3@ClearNumbe
$LN2@ClearNumbe:

; 60   :     else
; 61   :     {
; 62   : #endif
; 63   :         if (sizeof(*p) == sizeof(_UINT32_T) * 4)

	xor	eax, eax
	test	eax, eax
	je	SHORT $LN4@ClearNumbe

; 64   :         {
; 65   :             _UINT32_T* __p = (_UINT32_T*)p;

	mov	rax, QWORD PTR p$[rbp]
	mov	QWORD PTR __p$2[rbp], rax

; 66   :             __p[0] = 0;

	mov	eax, 4
	imul	rax, rax, 0
	mov	rcx, QWORD PTR __p$2[rbp]
	mov	DWORD PTR [rcx+rax], 0

; 67   :             __p[1] = 0;

	mov	eax, 4
	imul	rax, rax, 1
	mov	rcx, QWORD PTR __p$2[rbp]
	mov	DWORD PTR [rcx+rax], 0

; 68   :             __p[2] = 0;

	mov	eax, 4
	imul	rax, rax, 2
	mov	rcx, QWORD PTR __p$2[rbp]
	mov	DWORD PTR [rcx+rax], 0

; 69   :             __p[3] = 0;

	mov	eax, 4
	imul	rax, rax, 3
	mov	rcx, QWORD PTR __p$2[rbp]
	mov	DWORD PTR [rcx+rax], 0

; 70   :         }

	jmp	SHORT $LN5@ClearNumbe
$LN4@ClearNumbe:

; 71   : #ifdef _M_IX64
; 72   :         else if (sizeof(*p) % sizeof(_UINT64_T) == 0)

	xor	eax, eax
	cmp	eax, 1
	je	SHORT $LN6@ClearNumbe

; 73   :             _ZERO_MEMORY_64((_UINT64_T*)p, sizeof(*p) / sizeof(_UINT64_T));

	mov	edx, 3
	mov	rcx, QWORD PTR p$[rbp]
	call	_ZERO_MEMORY_64
	jmp	SHORT $LN7@ClearNumbe
$LN6@ClearNumbe:

; 74   : #endif
; 75   :         else if (sizeof(*p) % sizeof(_UINT32_T) == 0)

	xor	eax, eax
	cmp	eax, 1
	je	SHORT $LN8@ClearNumbe

; 76   :             _ZERO_MEMORY_32((_UINT32_T*)p, sizeof(*p) / sizeof(_UINT32_T));

	mov	edx, 6
	mov	rcx, QWORD PTR p$[rbp]
	call	_ZERO_MEMORY_32
	jmp	SHORT $LN9@ClearNumbe
$LN8@ClearNumbe:

; 77   :         else if (sizeof(*p) % sizeof(_UINT16_T) == 0)

	xor	eax, eax
	cmp	eax, 1
	je	SHORT $LN10@ClearNumbe

; 78   :             _ZERO_MEMORY_16((_UINT16_T*)p, sizeof(*p) / sizeof(_UINT16_T));

	mov	edx, 12
	mov	rcx, QWORD PTR p$[rbp]
	call	_ZERO_MEMORY_16
	jmp	SHORT $LN11@ClearNumbe
$LN10@ClearNumbe:

; 79   :         else
; 80   :             _ZERO_MEMORY_BYTE(p, sizeof(*p));

	mov	edx, 24
	mov	rcx, QWORD PTR p$[rbp]
	call	_ZERO_MEMORY_BYTE
$LN11@ClearNumbe:
$LN9@ClearNumbe:
$LN7@ClearNumbe:
$LN5@ClearNumbe:
$LN3@ClearNumbe:

; 81   : #ifdef _M_IX64
; 82   :     }
; 83   : #endif
; 84   : }

	lea	rsp, QWORD PTR [rbp+264]
	pop	rdi
	pop	rbp
	ret	0
ClearNumberHeader ENDP
_TEXT	ENDS
; Function compile flags: /Odtp /RTCsu /ZI
; File z:\sources\lunor\repos\rougemeilland\palmtree.math.core.uint\palmtree.math.core.uint\pmc_inline_func.h
;	COMDAT _FILL_MEMORY_64
_TEXT	SEGMENT
d$ = 224
x$ = 232
count$ = 240
_FILL_MEMORY_64 PROC					; COMDAT

; 154  :     {

	mov	QWORD PTR [rsp+24], r8
	mov	QWORD PTR [rsp+16], rdx
	mov	QWORD PTR [rsp+8], rcx
	push	rbp
	push	rdi
	sub	rsp, 232				; 000000e8H
	lea	rbp, QWORD PTR [rsp+32]
	mov	rdi, rsp
	mov	ecx, 58					; 0000003aH
	mov	eax, -858993460				; ccccccccH
	rep stosd
	mov	rcx, QWORD PTR [rsp+264]
	lea	rcx, OFFSET FLAT:__8CA3E54E_pmc_inline_func@h
	call	__CheckForDebuggerJustMyCode

; 155  :         __stosq(d, x, count);

	mov	rdi, QWORD PTR d$[rbp]
	mov	rax, QWORD PTR x$[rbp]
	mov	rcx, QWORD PTR count$[rbp]
	rep stosq

; 156  :     }

	lea	rsp, QWORD PTR [rbp+200]
	pop	rdi
	pop	rbp
	ret	0
_FILL_MEMORY_64 ENDP
_TEXT	ENDS
; Function compile flags: /Odtp /RTCsu /ZI
; File z:\sources\lunor\repos\rougemeilland\palmtree.math.core.uint\palmtree.math.core.uint\pmc_inline_func.h
;	COMDAT _FILL_MEMORY_32
_TEXT	SEGMENT
d$ = 224
x$ = 232
count$ = 240
_FILL_MEMORY_32 PROC					; COMDAT

; 148  :     {

	mov	QWORD PTR [rsp+24], r8
	mov	DWORD PTR [rsp+16], edx
	mov	QWORD PTR [rsp+8], rcx
	push	rbp
	push	rdi
	sub	rsp, 232				; 000000e8H
	lea	rbp, QWORD PTR [rsp+32]
	mov	rdi, rsp
	mov	ecx, 58					; 0000003aH
	mov	eax, -858993460				; ccccccccH
	rep stosd
	mov	rcx, QWORD PTR [rsp+264]
	lea	rcx, OFFSET FLAT:__8CA3E54E_pmc_inline_func@h
	call	__CheckForDebuggerJustMyCode

; 149  :         __stosd((unsigned long*)d, x, count);

	mov	rdi, QWORD PTR d$[rbp]
	mov	eax, DWORD PTR x$[rbp]
	mov	rcx, QWORD PTR count$[rbp]
	rep stosd

; 150  :     }

	lea	rsp, QWORD PTR [rbp+200]
	pop	rdi
	pop	rbp
	ret	0
_FILL_MEMORY_32 ENDP
_TEXT	ENDS
; Function compile flags: /Odtp /RTCsu /ZI
; File z:\sources\lunor\repos\rougemeilland\palmtree.math.core.uint\palmtree.math.core.uint\pmc_inline_func.h
;	COMDAT _FILL_MEMORY_16
_TEXT	SEGMENT
d$ = 224
x$ = 232
count$ = 240
_FILL_MEMORY_16 PROC					; COMDAT

; 143  :     {

	mov	QWORD PTR [rsp+24], r8
	mov	WORD PTR [rsp+16], dx
	mov	QWORD PTR [rsp+8], rcx
	push	rbp
	push	rdi
	sub	rsp, 232				; 000000e8H
	lea	rbp, QWORD PTR [rsp+32]
	mov	rdi, rsp
	mov	ecx, 58					; 0000003aH
	mov	eax, -858993460				; ccccccccH
	rep stosd
	mov	rcx, QWORD PTR [rsp+264]
	lea	rcx, OFFSET FLAT:__8CA3E54E_pmc_inline_func@h
	call	__CheckForDebuggerJustMyCode

; 144  :         __stosw(d, x, count);

	mov	rdi, QWORD PTR d$[rbp]
	movzx	eax, WORD PTR x$[rbp]
	mov	rcx, QWORD PTR count$[rbp]
	rep stosw

; 145  :     }

	lea	rsp, QWORD PTR [rbp+200]
	pop	rdi
	pop	rbp
	ret	0
_FILL_MEMORY_16 ENDP
_TEXT	ENDS
; Function compile flags: /Odtp /RTCsu /ZI
; File z:\sources\lunor\repos\rougemeilland\palmtree.math.core.uint\palmtree.math.core.uint\pmc_inline_func.h
;	COMDAT _FILL_MEMORY_BYTE
_TEXT	SEGMENT
d$ = 224
x$ = 232
count$ = 240
_FILL_MEMORY_BYTE PROC					; COMDAT

; 138  :     {

	mov	QWORD PTR [rsp+24], r8
	mov	BYTE PTR [rsp+16], dl
	mov	QWORD PTR [rsp+8], rcx
	push	rbp
	push	rdi
	sub	rsp, 232				; 000000e8H
	lea	rbp, QWORD PTR [rsp+32]
	mov	rdi, rsp
	mov	ecx, 58					; 0000003aH
	mov	eax, -858993460				; ccccccccH
	rep stosd
	mov	rcx, QWORD PTR [rsp+264]
	lea	rcx, OFFSET FLAT:__8CA3E54E_pmc_inline_func@h
	call	__CheckForDebuggerJustMyCode

; 139  :         __stosb(d, x, count);

	mov	rdi, QWORD PTR d$[rbp]
	movzx	eax, BYTE PTR x$[rbp]
	mov	rcx, QWORD PTR count$[rbp]
	rep stosb

; 140  :     }

	lea	rsp, QWORD PTR [rbp+200]
	pop	rdi
	pop	rbp
	ret	0
_FILL_MEMORY_BYTE ENDP
_TEXT	ENDS
; Function compile flags: /Odtp /RTCsu /ZI
; File z:\sources\lunor\repos\rougemeilland\palmtree.math.core.uint\palmtree.math.core.uint\pmc_inline_func.h
;	COMDAT _ZERO_MEMORY_64
_TEXT	SEGMENT
d$ = 224
count$ = 232
_ZERO_MEMORY_64 PROC					; COMDAT

; 104  :     {

	mov	QWORD PTR [rsp+16], rdx
	mov	QWORD PTR [rsp+8], rcx
	push	rbp
	push	rdi
	sub	rsp, 232				; 000000e8H
	lea	rbp, QWORD PTR [rsp+32]
	mov	rdi, rsp
	mov	ecx, 58					; 0000003aH
	mov	eax, -858993460				; ccccccccH
	rep stosd
	mov	rcx, QWORD PTR [rsp+264]
	lea	rcx, OFFSET FLAT:__8CA3E54E_pmc_inline_func@h
	call	__CheckForDebuggerJustMyCode

; 105  :         __stosq(d, 0, count);

	mov	rdi, QWORD PTR d$[rbp]
	xor	eax, eax
	mov	rcx, QWORD PTR count$[rbp]
	rep stosq

; 106  :     }

	lea	rsp, QWORD PTR [rbp+200]
	pop	rdi
	pop	rbp
	ret	0
_ZERO_MEMORY_64 ENDP
_TEXT	ENDS
; Function compile flags: /Odtp /RTCsu /ZI
; File z:\sources\lunor\repos\rougemeilland\palmtree.math.core.uint\palmtree.math.core.uint\pmc_inline_func.h
;	COMDAT _ZERO_MEMORY_32
_TEXT	SEGMENT
d$ = 224
count$ = 232
_ZERO_MEMORY_32 PROC					; COMDAT

; 98   :     {

	mov	QWORD PTR [rsp+16], rdx
	mov	QWORD PTR [rsp+8], rcx
	push	rbp
	push	rdi
	sub	rsp, 232				; 000000e8H
	lea	rbp, QWORD PTR [rsp+32]
	mov	rdi, rsp
	mov	ecx, 58					; 0000003aH
	mov	eax, -858993460				; ccccccccH
	rep stosd
	mov	rcx, QWORD PTR [rsp+264]
	lea	rcx, OFFSET FLAT:__8CA3E54E_pmc_inline_func@h
	call	__CheckForDebuggerJustMyCode

; 99   :         __stosd((unsigned long*)d, 0, count);

	mov	rdi, QWORD PTR d$[rbp]
	xor	eax, eax
	mov	rcx, QWORD PTR count$[rbp]
	rep stosd

; 100  :     }

	lea	rsp, QWORD PTR [rbp+200]
	pop	rdi
	pop	rbp
	ret	0
_ZERO_MEMORY_32 ENDP
_TEXT	ENDS
; Function compile flags: /Odtp /RTCsu /ZI
; File z:\sources\lunor\repos\rougemeilland\palmtree.math.core.uint\palmtree.math.core.uint\pmc_inline_func.h
;	COMDAT _ZERO_MEMORY_16
_TEXT	SEGMENT
d$ = 224
count$ = 232
_ZERO_MEMORY_16 PROC					; COMDAT

; 93   :     {

	mov	QWORD PTR [rsp+16], rdx
	mov	QWORD PTR [rsp+8], rcx
	push	rbp
	push	rdi
	sub	rsp, 232				; 000000e8H
	lea	rbp, QWORD PTR [rsp+32]
	mov	rdi, rsp
	mov	ecx, 58					; 0000003aH
	mov	eax, -858993460				; ccccccccH
	rep stosd
	mov	rcx, QWORD PTR [rsp+264]
	lea	rcx, OFFSET FLAT:__8CA3E54E_pmc_inline_func@h
	call	__CheckForDebuggerJustMyCode

; 94   :         __stosw(d, 0, count);

	mov	rdi, QWORD PTR d$[rbp]
	xor	eax, eax
	mov	rcx, QWORD PTR count$[rbp]
	rep stosw

; 95   :     }

	lea	rsp, QWORD PTR [rbp+200]
	pop	rdi
	pop	rbp
	ret	0
_ZERO_MEMORY_16 ENDP
_TEXT	ENDS
; Function compile flags: /Odtp /RTCsu /ZI
; File z:\sources\lunor\repos\rougemeilland\palmtree.math.core.uint\palmtree.math.core.uint\pmc_inline_func.h
;	COMDAT _ZERO_MEMORY_BYTE
_TEXT	SEGMENT
d$ = 224
count$ = 232
_ZERO_MEMORY_BYTE PROC					; COMDAT

; 88   :     {

	mov	QWORD PTR [rsp+16], rdx
	mov	QWORD PTR [rsp+8], rcx
	push	rbp
	push	rdi
	sub	rsp, 232				; 000000e8H
	lea	rbp, QWORD PTR [rsp+32]
	mov	rdi, rsp
	mov	ecx, 58					; 0000003aH
	mov	eax, -858993460				; ccccccccH
	rep stosd
	mov	rcx, QWORD PTR [rsp+264]
	lea	rcx, OFFSET FLAT:__8CA3E54E_pmc_inline_func@h
	call	__CheckForDebuggerJustMyCode

; 89   :         __stosb(d, 0, count);

	mov	rdi, QWORD PTR d$[rbp]
	xor	eax, eax
	mov	rcx, QWORD PTR count$[rbp]
	rep stosb

; 90   :     }

	lea	rsp, QWORD PTR [rbp+200]
	pop	rdi
	pop	rbp
	ret	0
_ZERO_MEMORY_BYTE ENDP
_TEXT	ENDS
; Function compile flags: /Odtp /RTCsu /ZI
; File z:\sources\lunor\repos\rougemeilland\palmtree.math.core.sint\palmtree.math.core.sint\pmc_memory.c
;	COMDAT PMC_GetConstantValue_I
_TEXT	SEGMENT
tv64 = 192
type$ = 240
o$ = 248
PMC_GetConstantValue_I PROC				; COMDAT

; 267  : {

$LN9:
	mov	QWORD PTR [rsp+16], rdx
	mov	DWORD PTR [rsp+8], ecx
	push	rbp
	push	rdi
	sub	rsp, 248				; 000000f8H
	lea	rbp, QWORD PTR [rsp+32]
	mov	rdi, rsp
	mov	ecx, 62					; 0000003eH
	mov	eax, -858993460				; ccccccccH
	rep stosd
	mov	ecx, DWORD PTR [rsp+280]
	lea	rcx, OFFSET FLAT:__16A7E60D_pmc_memory@c
	call	__CheckForDebuggerJustMyCode

; 268  :     switch (type)

	mov	eax, DWORD PTR type$[rbp]
	mov	DWORD PTR tv64[rbp], eax
	cmp	DWORD PTR tv64[rbp], 1
	je	SHORT $LN4@PMC_GetCon
	cmp	DWORD PTR tv64[rbp], 2
	je	SHORT $LN5@PMC_GetCon
	cmp	DWORD PTR tv64[rbp], 3
	je	SHORT $LN6@PMC_GetCon
	jmp	SHORT $LN7@PMC_GetCon
$LN4@PMC_GetCon:

; 269  :     {
; 270  :     case PMC_CONSTANT_ZERO:
; 271  :         *o = (PMC_HANDLE_SINT)&number_zero;

	mov	rax, QWORD PTR o$[rbp]
	lea	rcx, OFFSET FLAT:number_zero
	mov	QWORD PTR [rax], rcx

; 272  :         return (PMC_STATUS_OK);

	xor	eax, eax
	jmp	SHORT $LN1@PMC_GetCon
$LN5@PMC_GetCon:

; 273  :     case PMC_CONSTANT_ONE:
; 274  :         *o = (PMC_HANDLE_SINT)&number_one;

	mov	rax, QWORD PTR o$[rbp]
	lea	rcx, OFFSET FLAT:number_one
	mov	QWORD PTR [rax], rcx

; 275  :         return (PMC_STATUS_OK);

	xor	eax, eax
	jmp	SHORT $LN1@PMC_GetCon
$LN6@PMC_GetCon:

; 276  :     case PMC_CONSTANT_MINUS_ONE:
; 277  :         *o = (PMC_HANDLE_SINT)&number_minus_one;

	mov	rax, QWORD PTR o$[rbp]
	lea	rcx, OFFSET FLAT:number_minus_one
	mov	QWORD PTR [rax], rcx

; 278  :         return (PMC_STATUS_OK);

	xor	eax, eax
	jmp	SHORT $LN1@PMC_GetCon
$LN7@PMC_GetCon:

; 279  :     default:
; 280  :         return (PMC_STATUS_ARGUMENT_ERROR);

	mov	eax, -1
$LN1@PMC_GetCon:

; 281  :     }
; 282  : }

	lea	rsp, QWORD PTR [rbp+216]
	pop	rdi
	pop	rbp
	ret	0
PMC_GetConstantValue_I ENDP
_TEXT	ENDS
; Function compile flags: /Odtp /RTCsu /ZI
; File z:\sources\lunor\repos\rougemeilland\palmtree.math.core.sint\palmtree.math.core.sint\pmc_memory.c
;	COMDAT PMC_Dispose
_TEXT	SEGMENT
np$ = 8
p$ = 256
PMC_Dispose PROC					; COMDAT

; 285  : {

$LN3:
	mov	QWORD PTR [rsp+8], rcx
	push	rbp
	push	rdi
	sub	rsp, 264				; 00000108H
	lea	rbp, QWORD PTR [rsp+32]
	mov	rdi, rsp
	mov	ecx, 66					; 00000042H
	mov	eax, -858993460				; ccccccccH
	rep stosd
	mov	rcx, QWORD PTR [rsp+296]
	lea	rcx, OFFSET FLAT:__16A7E60D_pmc_memory@c
	call	__CheckForDebuggerJustMyCode

; 286  :     NUMBER_HEADER* np = (NUMBER_HEADER*)p;

	mov	rax, QWORD PTR p$[rbp]
	mov	QWORD PTR np$[rbp], rax

; 287  :     DeallocateNumber(np);

	mov	rcx, QWORD PTR np$[rbp]
	call	DeallocateNumber

; 288  :     return;
; 289  : }

	lea	rsp, QWORD PTR [rbp+232]
	pop	rdi
	pop	rbp
	ret	0
PMC_Dispose ENDP
_TEXT	ENDS
; Function compile flags: /Odtp /RTCsu /ZI
; File z:\sources\lunor\repos\rougemeilland\palmtree.math.core.sint\palmtree.math.core.sint\pmc_memory.c
;	COMDAT Initialize_Memory
_TEXT	SEGMENT
result$ = 4
number_unsigned_zero_ok$ = 36
number_unsigned_one_ok$ = 68
number_zero_ok$ = 100
number_one_ok$ = 132
number_minus_one_ok$ = 164
unsigned_zero$ = 200
unsigned_one$ = 232
__$ArrayPad$ = 440
Initialize_Memory PROC					; COMDAT

; 292  : {

$LN17:
	push	rbp
	push	rdi
	sub	rsp, 488				; 000001e8H
	lea	rbp, QWORD PTR [rsp+32]
	mov	rdi, rsp
	mov	ecx, 122				; 0000007aH
	mov	eax, -858993460				; ccccccccH
	rep stosd
	mov	rax, QWORD PTR __security_cookie
	xor	rax, rbp
	mov	QWORD PTR __$ArrayPad$[rbp], rax
	lea	rcx, OFFSET FLAT:__16A7E60D_pmc_memory@c
	call	__CheckForDebuggerJustMyCode

; 293  :     PMC_STATUS_CODE result = PMC_STATUS_OK;

	mov	DWORD PTR result$[rbp], 0

; 294  : 
; 295  :     BOOL number_unsigned_zero_ok = TRUE;

	mov	DWORD PTR number_unsigned_zero_ok$[rbp], 1

; 296  :     BOOL number_unsigned_one_ok = TRUE;

	mov	DWORD PTR number_unsigned_one_ok$[rbp], 1

; 297  :     BOOL number_zero_ok = TRUE;

	mov	DWORD PTR number_zero_ok$[rbp], 1

; 298  :     BOOL number_one_ok = TRUE;

	mov	DWORD PTR number_one_ok$[rbp], 1

; 299  :     BOOL number_minus_one_ok = TRUE;

	mov	DWORD PTR number_minus_one_ok$[rbp], 1

; 300  : 
; 301  :     PMC_HANDLE_UINT unsigned_zero = NULL;

	mov	QWORD PTR unsigned_zero$[rbp], 0

; 302  :     PMC_HANDLE_UINT unsigned_one = NULL;

	mov	QWORD PTR unsigned_one$[rbp], 0

; 303  : 
; 304  :     if (result == PMC_STATUS_OK)

	cmp	DWORD PTR result$[rbp], 0
	jne	SHORT $LN2@Initialize

; 305  :     {
; 306  :         if ((result = ep_uint.GetConstantValue_I(PMC_CONSTANT_ZERO, &unsigned_zero)) == PMC_STATUS_OK)

	lea	rdx, QWORD PTR unsigned_zero$[rbp]
	mov	ecx, 1
	call	QWORD PTR ep_uint+48
	mov	DWORD PTR result$[rbp], eax
	cmp	DWORD PTR result$[rbp], 0
	jne	SHORT $LN3@Initialize

; 307  :             number_unsigned_zero_ok = TRUE;

	mov	DWORD PTR number_unsigned_zero_ok$[rbp], 1
$LN3@Initialize:
$LN2@Initialize:

; 308  :     }
; 309  : 
; 310  :     if (result == PMC_STATUS_OK)

	cmp	DWORD PTR result$[rbp], 0
	jne	SHORT $LN4@Initialize

; 311  :     {
; 312  :         if ((result = ep_uint.GetConstantValue_I(PMC_CONSTANT_ONE, &unsigned_one)) == PMC_STATUS_OK)

	lea	rdx, QWORD PTR unsigned_one$[rbp]
	mov	ecx, 2
	call	QWORD PTR ep_uint+48
	mov	DWORD PTR result$[rbp], eax
	cmp	DWORD PTR result$[rbp], 0
	jne	SHORT $LN5@Initialize

; 313  :             number_unsigned_one_ok = TRUE;

	mov	DWORD PTR number_unsigned_one_ok$[rbp], 1
$LN5@Initialize:
$LN4@Initialize:

; 314  :     }
; 315  : 
; 316  :     if (result == PMC_STATUS_OK)

	cmp	DWORD PTR result$[rbp], 0
	jne	SHORT $LN6@Initialize

; 317  :     {
; 318  :         if ((result = AttatchNumber(&number_zero, 0, unsigned_zero)) == PMC_STATUS_OK)

	mov	r8, QWORD PTR unsigned_zero$[rbp]
	xor	edx, edx
	lea	rcx, OFFSET FLAT:number_zero
	call	AttatchNumber
	mov	DWORD PTR result$[rbp], eax
	cmp	DWORD PTR result$[rbp], 0
	jne	SHORT $LN7@Initialize

; 319  :             number_zero_ok = TRUE;

	mov	DWORD PTR number_zero_ok$[rbp], 1
$LN7@Initialize:
$LN6@Initialize:

; 320  :     }
; 321  : 
; 322  :     if (result == PMC_STATUS_OK)

	cmp	DWORD PTR result$[rbp], 0
	jne	SHORT $LN8@Initialize

; 323  :     {
; 324  :         if ((result = AttatchNumber(&number_one, 1, unsigned_one)) == PMC_STATUS_OK)

	mov	r8, QWORD PTR unsigned_one$[rbp]
	mov	dl, 1
	lea	rcx, OFFSET FLAT:number_one
	call	AttatchNumber
	mov	DWORD PTR result$[rbp], eax
	cmp	DWORD PTR result$[rbp], 0
	jne	SHORT $LN9@Initialize

; 325  :             number_one_ok = TRUE;

	mov	DWORD PTR number_one_ok$[rbp], 1
$LN9@Initialize:
$LN8@Initialize:

; 326  :     }
; 327  : 
; 328  :     if (result == PMC_STATUS_OK)

	cmp	DWORD PTR result$[rbp], 0
	jne	SHORT $LN10@Initialize

; 329  :     {
; 330  :         if ((result = AttatchNumber(&number_minus_one, -1, unsigned_one)) == PMC_STATUS_OK)

	mov	r8, QWORD PTR unsigned_one$[rbp]
	mov	dl, -1
	lea	rcx, OFFSET FLAT:number_minus_one
	call	AttatchNumber
	mov	DWORD PTR result$[rbp], eax
	cmp	DWORD PTR result$[rbp], 0
	jne	SHORT $LN11@Initialize

; 331  :             number_minus_one_ok = TRUE;

	mov	DWORD PTR number_minus_one_ok$[rbp], 1
$LN11@Initialize:
$LN10@Initialize:

; 332  :     }
; 333  : 
; 334  :     if (result != PMC_STATUS_OK)

	cmp	DWORD PTR result$[rbp], 0
	je	SHORT $LN12@Initialize

; 335  :     {
; 336  :         if (number_zero_ok)

	cmp	DWORD PTR number_zero_ok$[rbp], 0
	je	SHORT $LN13@Initialize

; 337  :             DetatchNumber(&number_zero);

	lea	rcx, OFFSET FLAT:number_zero
	call	DetatchNumber
$LN13@Initialize:

; 338  :         if (number_one_ok)

	cmp	DWORD PTR number_one_ok$[rbp], 0
	je	SHORT $LN14@Initialize

; 339  :             DetatchNumber(&number_one);

	lea	rcx, OFFSET FLAT:number_one
	call	DetatchNumber
$LN14@Initialize:

; 340  :         if (number_minus_one_ok)

	cmp	DWORD PTR number_minus_one_ok$[rbp], 0
	je	SHORT $LN15@Initialize

; 341  :             DetatchNumber(&number_minus_one);

	lea	rcx, OFFSET FLAT:number_minus_one
	call	DetatchNumber
$LN15@Initialize:
$LN12@Initialize:

; 342  :     }
; 343  : 
; 344  :     return (result);

	mov	eax, DWORD PTR result$[rbp]

; 345  : }

	mov	edi, eax
	lea	rcx, QWORD PTR [rbp-32]
	lea	rdx, OFFSET FLAT:Initialize_Memory$rtcFrameData
	call	_RTC_CheckStackVars
	mov	eax, edi
	mov	rcx, QWORD PTR __$ArrayPad$[rbp]
	xor	rcx, rbp
	call	__security_check_cookie
	lea	rsp, QWORD PTR [rbp+456]
	pop	rdi
	pop	rbp
	ret	0
Initialize_Memory ENDP
_TEXT	ENDS
; Function compile flags: /Odtp /RTCsu /ZI
; File z:\sources\lunor\repos\rougemeilland\palmtree.math.core.sint\palmtree.math.core.sint\pmc_memory.c
;	COMDAT Negate_Imp
_TEXT	SEGMENT
result$ = 4
new_abs$ = 40
o$ = 72
__$ArrayPad$ = 280
x$ = 320
op$ = 328
Negate_Imp PROC						; COMDAT

; 236  : {

$LN8:
	mov	QWORD PTR [rsp+16], rdx
	mov	QWORD PTR [rsp+8], rcx
	push	rbp
	push	rdi
	sub	rsp, 328				; 00000148H
	lea	rbp, QWORD PTR [rsp+32]
	mov	rdi, rsp
	mov	ecx, 82					; 00000052H
	mov	eax, -858993460				; ccccccccH
	rep stosd
	mov	rcx, QWORD PTR [rsp+360]
	mov	rax, QWORD PTR __security_cookie
	xor	rax, rbp
	mov	QWORD PTR __$ArrayPad$[rbp], rax
	lea	rcx, OFFSET FLAT:__16A7E60D_pmc_memory@c
	call	__CheckForDebuggerJustMyCode

; 237  :     if (x->IS_ZERO)

	mov	rax, QWORD PTR x$[rbp]
	mov	eax, DWORD PTR [rax+20]
	shr	eax, 1
	and	eax, 1
	test	eax, eax
	je	SHORT $LN2@Negate_Imp

; 238  :     {
; 239  :         *op = &number_zero;

	mov	rax, QWORD PTR op$[rbp]
	lea	rcx, OFFSET FLAT:number_zero
	mov	QWORD PTR [rax], rcx

; 240  :         return (PMC_STATUS_OK);

	xor	eax, eax
	jmp	$LN1@Negate_Imp
$LN2@Negate_Imp:

; 241  :     }
; 242  :     if (x->IS_ONE)

	mov	rax, QWORD PTR x$[rbp]
	mov	eax, DWORD PTR [rax+20]
	shr	eax, 2
	and	eax, 1
	test	eax, eax
	je	SHORT $LN3@Negate_Imp

; 243  :     {
; 244  :         *op = &number_minus_one;

	mov	rax, QWORD PTR op$[rbp]
	lea	rcx, OFFSET FLAT:number_minus_one
	mov	QWORD PTR [rax], rcx

; 245  :         return (PMC_STATUS_OK);

	xor	eax, eax
	jmp	$LN1@Negate_Imp
$LN3@Negate_Imp:

; 246  :     }
; 247  :     if (x->IS_MINUS_ONE)

	mov	rax, QWORD PTR x$[rbp]
	mov	eax, DWORD PTR [rax+20]
	shr	eax, 3
	and	eax, 1
	test	eax, eax
	je	SHORT $LN4@Negate_Imp

; 248  :     {
; 249  :         *op = &number_one;

	mov	rax, QWORD PTR op$[rbp]
	lea	rcx, OFFSET FLAT:number_one
	mov	QWORD PTR [rax], rcx

; 250  :         return (PMC_STATUS_OK);

	xor	eax, eax
	jmp	SHORT $LN1@Negate_Imp
$LN4@Negate_Imp:

; 251  :     }
; 252  :     PMC_STATUS_CODE result;
; 253  :     PMC_HANDLE_UINT new_abs;
; 254  :     if ((result = ep_uint.Clone_X(x->ABS, &new_abs)) != PMC_STATUS_OK)

	lea	rdx, QWORD PTR new_abs$[rbp]
	mov	rax, QWORD PTR x$[rbp]
	mov	rcx, QWORD PTR [rax+8]
	call	QWORD PTR ep_uint+88
	mov	DWORD PTR result$[rbp], eax
	cmp	DWORD PTR result$[rbp], 0
	je	SHORT $LN5@Negate_Imp

; 255  :         return (result);

	mov	eax, DWORD PTR result$[rbp]
	jmp	SHORT $LN1@Negate_Imp
$LN5@Negate_Imp:

; 256  :     NUMBER_HEADER* o;
; 257  :     if ((result = AllocateNumber(&o, -x->SIGN, new_abs)) != PMC_STATUS_OK)

	mov	rax, QWORD PTR x$[rbp]
	movsx	eax, BYTE PTR [rax+16]
	neg	eax
	mov	r8, QWORD PTR new_abs$[rbp]
	movzx	edx, al
	lea	rcx, QWORD PTR o$[rbp]
	call	AllocateNumber
	mov	DWORD PTR result$[rbp], eax
	cmp	DWORD PTR result$[rbp], 0
	je	SHORT $LN6@Negate_Imp

; 258  :     {
; 259  :         ep_uint.Dispose(new_abs);

	mov	rcx, QWORD PTR new_abs$[rbp]
	call	QWORD PTR ep_uint+32

; 260  :         return (result);

	mov	eax, DWORD PTR result$[rbp]
	jmp	SHORT $LN1@Negate_Imp
$LN6@Negate_Imp:

; 261  :     }
; 262  :     *op = o;

	mov	rax, QWORD PTR op$[rbp]
	mov	rcx, QWORD PTR o$[rbp]
	mov	QWORD PTR [rax], rcx

; 263  :     return (PMC_STATUS_OK);

	xor	eax, eax
$LN1@Negate_Imp:

; 264  : }

	mov	rdi, rax
	lea	rcx, QWORD PTR [rbp-32]
	lea	rdx, OFFSET FLAT:Negate_Imp$rtcFrameData
	call	_RTC_CheckStackVars
	mov	rax, rdi
	mov	rcx, QWORD PTR __$ArrayPad$[rbp]
	xor	rcx, rbp
	call	__security_check_cookie
	lea	rsp, QWORD PTR [rbp+296]
	pop	rdi
	pop	rbp
	ret	0
Negate_Imp ENDP
_TEXT	ENDS
; Function compile flags: /Odtp /RTCsu /ZI
; File z:\sources\lunor\repos\rougemeilland\palmtree.math.core.sint\palmtree.math.core.sint\pmc_memory.c
;	COMDAT DuplicateNumber
_TEXT	SEGMENT
result$ = 4
new_abs$ = 40
o$ = 72
__$ArrayPad$ = 280
x$ = 320
op$ = 328
DuplicateNumber PROC					; COMDAT

; 200  : {

$LN9:
	mov	QWORD PTR [rsp+16], rdx
	mov	QWORD PTR [rsp+8], rcx
	push	rbp
	push	rdi
	sub	rsp, 328				; 00000148H
	lea	rbp, QWORD PTR [rsp+32]
	mov	rdi, rsp
	mov	ecx, 82					; 00000052H
	mov	eax, -858993460				; ccccccccH
	rep stosd
	mov	rcx, QWORD PTR [rsp+360]
	mov	rax, QWORD PTR __security_cookie
	xor	rax, rbp
	mov	QWORD PTR __$ArrayPad$[rbp], rax
	lea	rcx, OFFSET FLAT:__16A7E60D_pmc_memory@c
	call	__CheckForDebuggerJustMyCode

; 201  :     if (x->IS_STATIC)

	mov	rax, QWORD PTR x$[rbp]
	mov	eax, DWORD PTR [rax+20]
	and	eax, 1
	test	eax, eax
	je	SHORT $LN2@DuplicateN

; 202  :     {
; 203  :         *op = x;

	mov	rax, QWORD PTR op$[rbp]
	mov	rcx, QWORD PTR x$[rbp]
	mov	QWORD PTR [rax], rcx

; 204  :         return (PMC_STATUS_OK);

	xor	eax, eax
	jmp	$LN1@DuplicateN
$LN2@DuplicateN:

; 205  :     }
; 206  :     if (x->IS_ZERO)

	mov	rax, QWORD PTR x$[rbp]
	mov	eax, DWORD PTR [rax+20]
	shr	eax, 1
	and	eax, 1
	test	eax, eax
	je	SHORT $LN3@DuplicateN

; 207  :     {
; 208  :         *op = &number_zero;

	mov	rax, QWORD PTR op$[rbp]
	lea	rcx, OFFSET FLAT:number_zero
	mov	QWORD PTR [rax], rcx

; 209  :         return (PMC_STATUS_OK);

	xor	eax, eax
	jmp	$LN1@DuplicateN
$LN3@DuplicateN:

; 210  :     }
; 211  :     if (x->IS_ONE)

	mov	rax, QWORD PTR x$[rbp]
	mov	eax, DWORD PTR [rax+20]
	shr	eax, 2
	and	eax, 1
	test	eax, eax
	je	SHORT $LN4@DuplicateN

; 212  :     {
; 213  :         *op = &number_one;

	mov	rax, QWORD PTR op$[rbp]
	lea	rcx, OFFSET FLAT:number_one
	mov	QWORD PTR [rax], rcx

; 214  :         return (PMC_STATUS_OK);

	xor	eax, eax
	jmp	$LN1@DuplicateN
$LN4@DuplicateN:

; 215  :     }
; 216  :     if (x->IS_MINUS_ONE)

	mov	rax, QWORD PTR x$[rbp]
	mov	eax, DWORD PTR [rax+20]
	shr	eax, 3
	and	eax, 1
	test	eax, eax
	je	SHORT $LN5@DuplicateN

; 217  :     {
; 218  :         *op = &number_minus_one;

	mov	rax, QWORD PTR op$[rbp]
	lea	rcx, OFFSET FLAT:number_minus_one
	mov	QWORD PTR [rax], rcx

; 219  :         return (PMC_STATUS_OK);

	xor	eax, eax
	jmp	SHORT $LN1@DuplicateN
$LN5@DuplicateN:

; 220  :     }
; 221  :     PMC_STATUS_CODE result;
; 222  :     PMC_HANDLE_UINT new_abs;
; 223  :     if ((result = ep_uint.Clone_X(x->ABS, &new_abs)) != PMC_STATUS_OK)

	lea	rdx, QWORD PTR new_abs$[rbp]
	mov	rax, QWORD PTR x$[rbp]
	mov	rcx, QWORD PTR [rax+8]
	call	QWORD PTR ep_uint+88
	mov	DWORD PTR result$[rbp], eax
	cmp	DWORD PTR result$[rbp], 0
	je	SHORT $LN6@DuplicateN

; 224  :         return (result);

	mov	eax, DWORD PTR result$[rbp]
	jmp	SHORT $LN1@DuplicateN
$LN6@DuplicateN:

; 225  :     NUMBER_HEADER* o;
; 226  :     if ((result = AllocateNumber(&o, x->SIGN, new_abs)) != PMC_STATUS_OK)

	mov	r8, QWORD PTR new_abs$[rbp]
	mov	rax, QWORD PTR x$[rbp]
	movzx	edx, BYTE PTR [rax+16]
	lea	rcx, QWORD PTR o$[rbp]
	call	AllocateNumber
	mov	DWORD PTR result$[rbp], eax
	cmp	DWORD PTR result$[rbp], 0
	je	SHORT $LN7@DuplicateN

; 227  :     {
; 228  :         ep_uint.Dispose(new_abs);

	mov	rcx, QWORD PTR new_abs$[rbp]
	call	QWORD PTR ep_uint+32

; 229  :         return (result);

	mov	eax, DWORD PTR result$[rbp]
	jmp	SHORT $LN1@DuplicateN
$LN7@DuplicateN:

; 230  :     }
; 231  :     *op = o;

	mov	rax, QWORD PTR op$[rbp]
	mov	rcx, QWORD PTR o$[rbp]
	mov	QWORD PTR [rax], rcx

; 232  :     return (PMC_STATUS_OK);

	xor	eax, eax
$LN1@DuplicateN:

; 233  : }

	mov	rdi, rax
	lea	rcx, QWORD PTR [rbp-32]
	lea	rdx, OFFSET FLAT:DuplicateNumber$rtcFrameData
	call	_RTC_CheckStackVars
	mov	rax, rdi
	mov	rcx, QWORD PTR __$ArrayPad$[rbp]
	xor	rcx, rbp
	call	__security_check_cookie
	lea	rsp, QWORD PTR [rbp+296]
	pop	rdi
	pop	rbp
	ret	0
DuplicateNumber ENDP
_TEXT	ENDS
; Function compile flags: /Odtp /RTCsu /ZI
; File z:\sources\lunor\repos\rougemeilland\palmtree.math.core.sint\palmtree.math.core.sint\pmc_memory.c
;	COMDAT CheckNumber
_TEXT	SEGMENT
p$ = 224
CheckNumber PROC					; COMDAT

; 193  : {

$LN5:
	mov	QWORD PTR [rsp+8], rcx
	push	rbp
	push	rdi
	sub	rsp, 232				; 000000e8H
	lea	rbp, QWORD PTR [rsp+32]
	mov	rdi, rsp
	mov	ecx, 58					; 0000003aH
	mov	eax, -858993460				; ccccccccH
	rep stosd
	mov	rcx, QWORD PTR [rsp+264]
	lea	rcx, OFFSET FLAT:__16A7E60D_pmc_memory@c
	call	__CheckForDebuggerJustMyCode

; 194  :     if (p->SIGNATURE1 != PMC_SIGNATURE || p->SIGNATURE2 != PMC_SINT_SIGNATURE)

	mov	rax, QWORD PTR p$[rbp]
	cmp	DWORD PTR [rax], 1231244656		; 49634d70H
	jne	SHORT $LN3@CheckNumbe
	mov	rax, QWORD PTR p$[rbp]
	cmp	DWORD PTR [rax+4], 1951287667		; 744e4973H
	je	SHORT $LN2@CheckNumbe
$LN3@CheckNumbe:

; 195  :         return (PMC_STATUS_BAD_BUFFER);

	mov	eax, -257				; fffffffffffffeffH
	jmp	SHORT $LN1@CheckNumbe
$LN2@CheckNumbe:

; 196  :     return (PMC_STATUS_OK);

	xor	eax, eax
$LN1@CheckNumbe:

; 197  : }

	lea	rsp, QWORD PTR [rbp+200]
	pop	rdi
	pop	rbp
	ret	0
CheckNumber ENDP
_TEXT	ENDS
; Function compile flags: /Odtp /RTCsu /ZI
; File z:\sources\lunor\repos\rougemeilland\palmtree.math.core.sint\palmtree.math.core.sint\pmc_memory.c
;	COMDAT DeallocateNumber
_TEXT	SEGMENT
p$ = 224
DeallocateNumber PROC					; COMDAT

; 184  : {

$LN5:
	mov	QWORD PTR [rsp+8], rcx
	push	rbp
	push	rdi
	sub	rsp, 232				; 000000e8H
	lea	rbp, QWORD PTR [rsp+32]
	mov	rdi, rsp
	mov	ecx, 58					; 0000003aH
	mov	eax, -858993460				; ccccccccH
	rep stosd
	mov	rcx, QWORD PTR [rsp+264]
	lea	rcx, OFFSET FLAT:__16A7E60D_pmc_memory@c
	call	__CheckForDebuggerJustMyCode

; 185  :     if (p == NULL || p->IS_STATIC)

	cmp	QWORD PTR p$[rbp], 0
	je	SHORT $LN3@Deallocate
	mov	rax, QWORD PTR p$[rbp]
	mov	eax, DWORD PTR [rax+20]
	and	eax, 1
	test	eax, eax
	je	SHORT $LN2@Deallocate
$LN3@Deallocate:

; 186  :         return;

	jmp	SHORT $LN1@Deallocate
$LN2@Deallocate:

; 187  :     CleanUpNumber(p);

	mov	rcx, QWORD PTR p$[rbp]
	call	CleanUpNumber

; 188  :     FillNumberHeader(p);

	mov	rcx, QWORD PTR p$[rbp]
	call	FillNumberHeader

; 189  :     HeapFree(hLocalHeap, 0, p);

	mov	r8, QWORD PTR p$[rbp]
	xor	edx, edx
	mov	rcx, QWORD PTR hLocalHeap
	call	QWORD PTR __imp_HeapFree
$LN1@Deallocate:

; 190  : }

	lea	rsp, QWORD PTR [rbp+200]
	pop	rdi
	pop	rbp
	ret	0
DeallocateNumber ENDP
_TEXT	ENDS
; Function compile flags: /Odtp /RTCsu /ZI
; File z:\sources\lunor\repos\rougemeilland\palmtree.math.core.sint\palmtree.math.core.sint\pmc_memory.c
;	COMDAT AllocateNumber
_TEXT	SEGMENT
p$ = 8
result$ = 36
pp$ = 288
sign$ = 296
abs$ = 304
AllocateNumber PROC					; COMDAT

; 164  : {

$LN5:
	mov	QWORD PTR [rsp+24], r8
	mov	BYTE PTR [rsp+16], dl
	mov	QWORD PTR [rsp+8], rcx
	push	rbp
	push	rdi
	sub	rsp, 296				; 00000128H
	lea	rbp, QWORD PTR [rsp+32]
	mov	rdi, rsp
	mov	ecx, 74					; 0000004aH
	mov	eax, -858993460				; ccccccccH
	rep stosd
	mov	rcx, QWORD PTR [rsp+328]
	lea	rcx, OFFSET FLAT:__16A7E60D_pmc_memory@c
	call	__CheckForDebuggerJustMyCode

; 165  :     NUMBER_HEADER* p = (NUMBER_HEADER*)HeapAlloc(hLocalHeap, HEAP_ZERO_MEMORY, sizeof(NUMBER_HEADER));

	mov	r8d, 24
	mov	edx, 8
	mov	rcx, QWORD PTR hLocalHeap
	call	QWORD PTR __imp_HeapAlloc
	mov	QWORD PTR p$[rbp], rax

; 166  :     if (p == NULL)

	cmp	QWORD PTR p$[rbp], 0
	jne	SHORT $LN2@AllocateNu

; 167  :         return (PMC_STATUS_NOT_ENOUGH_MEMORY);

	mov	eax, -5
	jmp	SHORT $LN1@AllocateNu
$LN2@AllocateNu:

; 168  :     PMC_STATUS_CODE result = InitializeNumber(p, sign, abs);

	mov	r8, QWORD PTR abs$[rbp]
	movzx	edx, BYTE PTR sign$[rbp]
	mov	rcx, QWORD PTR p$[rbp]
	call	InitializeNumber
	mov	DWORD PTR result$[rbp], eax

; 169  :     if (result != PMC_STATUS_OK)

	cmp	DWORD PTR result$[rbp], 0
	je	SHORT $LN3@AllocateNu

; 170  :         return (result);

	mov	eax, DWORD PTR result$[rbp]
	jmp	SHORT $LN1@AllocateNu
$LN3@AllocateNu:

; 171  :     p->IS_STATIC = FALSE;

	mov	rax, QWORD PTR p$[rbp]
	mov	eax, DWORD PTR [rax+20]
	and	eax, -2					; fffffffeH
	mov	rcx, QWORD PTR p$[rbp]
	mov	DWORD PTR [rcx+20], eax

; 172  :     *pp = p;

	mov	rax, QWORD PTR pp$[rbp]
	mov	rcx, QWORD PTR p$[rbp]
	mov	QWORD PTR [rax], rcx

; 173  :     return (PMC_STATUS_OK);

	xor	eax, eax
$LN1@AllocateNu:

; 174  : }

	lea	rsp, QWORD PTR [rbp+264]
	pop	rdi
	pop	rbp
	ret	0
AllocateNumber ENDP
_TEXT	ENDS
; Function compile flags: /Odtp /RTCsu /ZI
; File z:\sources\lunor\repos\rougemeilland\palmtree.math.core.sint\palmtree.math.core.sint\pmc_memory.c
;	COMDAT DeallocateHeapArea
_TEXT	SEGMENT
DeallocateHeapArea PROC					; COMDAT

; 356  : {

$LN4:
	push	rbp
	push	rdi
	sub	rsp, 232				; 000000e8H
	lea	rbp, QWORD PTR [rsp+32]
	mov	rdi, rsp
	mov	ecx, 58					; 0000003aH
	mov	eax, -858993460				; ccccccccH
	rep stosd
	lea	rcx, OFFSET FLAT:__16A7E60D_pmc_memory@c
	call	__CheckForDebuggerJustMyCode

; 357  :     if (hLocalHeap != NULL)

	cmp	QWORD PTR hLocalHeap, 0
	je	SHORT $LN2@Deallocate

; 358  :     {
; 359  :         HeapDestroy(hLocalHeap);

	mov	rcx, QWORD PTR hLocalHeap
	call	QWORD PTR __imp_HeapDestroy

; 360  :         hLocalHeap = NULL;

	mov	QWORD PTR hLocalHeap, 0
$LN2@Deallocate:

; 361  :     }
; 362  : }

	lea	rsp, QWORD PTR [rbp+200]
	pop	rdi
	pop	rbp
	ret	0
DeallocateHeapArea ENDP
_TEXT	ENDS
; Function compile flags: /Odtp /RTCsu /ZI
; File z:\sources\lunor\repos\rougemeilland\palmtree.math.core.sint\palmtree.math.core.sint\pmc_memory.c
;	COMDAT AllocateHeapArea
_TEXT	SEGMENT
AllocateHeapArea PROC					; COMDAT

; 348  : {

$LN4:
	push	rbp
	push	rdi
	sub	rsp, 232				; 000000e8H
	lea	rbp, QWORD PTR [rsp+32]
	mov	rdi, rsp
	mov	ecx, 58					; 0000003aH
	mov	eax, -858993460				; ccccccccH
	rep stosd
	lea	rcx, OFFSET FLAT:__16A7E60D_pmc_memory@c
	call	__CheckForDebuggerJustMyCode

; 349  :     hLocalHeap = HeapCreate(0, 0x1000, 0);

	xor	r8d, r8d
	mov	edx, 4096				; 00001000H
	xor	ecx, ecx
	call	QWORD PTR __imp_HeapCreate
	mov	QWORD PTR hLocalHeap, rax

; 350  :     if (hLocalHeap == NULL)

	cmp	QWORD PTR hLocalHeap, 0
	jne	SHORT $LN2@AllocateHe

; 351  :         return (FALSE);

	xor	eax, eax
	jmp	SHORT $LN1@AllocateHe
$LN2@AllocateHe:

; 352  :     return (TRUE);

	mov	eax, 1
$LN1@AllocateHe:

; 353  : }

	lea	rsp, QWORD PTR [rbp+200]
	pop	rdi
	pop	rbp
	ret	0
AllocateHeapArea ENDP
_TEXT	ENDS
END
