; Listing generated by Microsoft (R) Optimizing Compiler Version 19.16.27026.1 

include listing.inc

INCLUDELIB MSVCRTD
INCLUDELIB OLDNAMES

msvcjmc	SEGMENT
__7B7A869E_ctype@h DB 01H
__457DD326_basetsd@h DB 01H
__4384A2D9_corecrt_memcpy_s@h DB 01H
__4E51A221_corecrt_wstring@h DB 01H
__2140C079_string@h DB 01H
__1887E595_winnt@h DB 01H
__9FC7C64B_processthreadsapi@h DB 01H
__FA470AEC_memoryapi@h DB 01H
__F37DAFF1_winerror@h DB 01H
__7A450CCC_winbase@h DB 01H
__B4B40122_winioctl@h DB 01H
__86261D59_stralign@h DB 01H
__630249ED_pmc_uint_debug@h DB 01H
__76EA6F59_test_op_divrem@c DB 01H
msvcjmc	ENDS
PUBLIC	TEST_DivRem_I_X
PUBLIC	TEST_DivRem_L_X
PUBLIC	TEST_DivRem_UX_X
PUBLIC	TEST_DivRem_X_I
PUBLIC	TEST_DivRem_X_L
PUBLIC	TEST_DivRem_X_UX
PUBLIC	TEST_DivRem_X_X
PUBLIC	__JustMyCode_Default
PUBLIC	??_C@_1EC@NPMCAPKO@?$AAF?$AAr?$AAo?$AAm?$AAB?$AAy?$AAt?$AAe?$AAA?$AAr?$AAr?$AAa?$AAy?$AAn?$PP?$KJ@ ; `string'
PUBLIC	??_C@_1CG@MKNPGAIC@?$AAD?$AAi?$AAv?$AAR?$AAe?$AAm?$AA_?$AAI?$AA_?$AAX?$AA?5?$AA?$CI?$AA?$CF?$AAd?$AA?4@ ; `string'
PUBLIC	??_C@_1DM@FPONPMLK@?$AAD?$AAi?$AAv?$AAR?$AAe?$AAm?$AA_?$AAI?$AA_?$AAX?$AAn?$PP?$KJ?$AA0?$PP?$LD?$PP?$PM@ ; `string'
PUBLIC	??_C@_1DO@DOHJEMND@?$AAT?$AAo?$AAB?$AAy?$AAt?$AAe?$AAA?$AAr?$AAr?$AAa?$AAy?$AAn?$PP?$KJ?$AA0?$PP?$LD@ ; `string'
PUBLIC	??_C@_1BE@OEODMBIH@?$AAF?$AAn?$AA$?$AAL?$AA?$AA?$PP?t?$AAW?$AAj?$AAD@ ; `string'
PUBLIC	??_C@_1BG@BPGLFLF@?$AAp?$AAY?$AAn?$AA$?$AAL?$AA?$AA?$PP?t?$AAW?$AAj?$AAD@ ; `string'
PUBLIC	??_C@_1CG@CCPMJLPK@?$AAD?$AAi?$AAv?$AAR?$AAe?$AAm?$AA_?$AAL?$AA_?$AAX?$AA?5?$AA?$CI?$AA?$CF?$AAd?$AA?4@ ; `string'
PUBLIC	??_C@_1DM@EHDAPCE@?$AAD?$AAi?$AAv?$AAR?$AAe?$AAm?$AA_?$AAL?$AA_?$AAX?$AAn?$PP?$KJ?$AA0?$PP?$LD?$PP?$PM@ ; `string'
PUBLIC	??_C@_1CI@PMOCFACI@?$AAD?$AAi?$AAv?$AAR?$AAe?$AAm?$AA_?$AAU?$AAX?$AA_?$AAX?$AA?5?$AA?$CI?$AA?$CF?$AAd@ ; `string'
PUBLIC	??_C@_1DO@DHNBEMIM@?$AAD?$AAi?$AAv?$AAR?$AAe?$AAm?$AA_?$AAU?$AAX?$AA_?$AAX?$AAn?$PP?$KJ?$AA0?$PP?$LD@ ; `string'
PUBLIC	??_C@_1CG@LBDAOKPL@?$AAD?$AAi?$AAv?$AAR?$AAe?$AAm?$AA_?$AAX?$AA_?$AAI?$AA?5?$AA?$CI?$AA?$CF?$AAd?$AA?4@ ; `string'
PUBLIC	??_C@_1DM@DHGCKJN@?$AAD?$AAi?$AAv?$AAR?$AAe?$AAm?$AA_?$AAX?$AA_?$AAI?$AAn?$PP?$KJ?$AA0?$PP?$LD?$PP?$PM@ ; `string'
PUBLIC	??_C@_1CG@JKLKDKOE@?$AAD?$AAi?$AAv?$AAR?$AAe?$AAm?$AA_?$AAX?$AA_?$AAL?$AA?5?$AA?$CI?$AA?$CF?$AAd?$AA?4@ ; `string'
PUBLIC	??_C@_1DM@ELDKLHAI@?$AAD?$AAi?$AAv?$AAR?$AAe?$AAm?$AA_?$AAX?$AA_?$AAL?$AAn?$PP?$KJ?$AA0?$PP?$LD?$PP?$PM@ ; `string'
PUBLIC	??_C@_1CI@MCEJJFCK@?$AAD?$AAi?$AAv?$AAR?$AAe?$AAm?$AA_?$AAX?$AA_?$AAU?$AAX?$AA?5?$AA?$CI?$AA?$CF?$AAd@ ; `string'
PUBLIC	??_C@_1DO@LADEACKM@?$AAD?$AAi?$AAv?$AAR?$AAe?$AAm?$AA_?$AAX?$AA_?$AAU?$AAX?$AAn?$PP?$KJ?$AA0?$PP?$LD@ ; `string'
PUBLIC	??_C@_1CG@DEJBHKJI@?$AAD?$AAi?$AAv?$AAR?$AAe?$AAm?$AA_?$AAX?$AA_?$AAX?$AA?5?$AA?$CI?$AA?$CF?$AAd?$AA?4@ ; `string'
PUBLIC	??_C@_1DM@LBHJMHBN@?$AAD?$AAi?$AAv?$AAR?$AAe?$AAm?$AA_?$AAX?$AA_?$AAX?$AAn?$PP?$KJ?$AA0?$PP?$LD?$PP?$PM@ ; `string'
EXTRN	TEST_Assert:PROC
EXTRN	FormatTestLabel:PROC
EXTRN	FormatTestMesssage:PROC
EXTRN	_RTC_CheckStackVars:PROC
EXTRN	_RTC_InitBase:PROC
EXTRN	_RTC_Shutdown:PROC
EXTRN	__CheckForDebuggerJustMyCode:PROC
EXTRN	__GSHandlerCheck:PROC
EXTRN	__security_check_cookie:PROC
EXTRN	__security_cookie:QWORD
;	COMDAT pdata
pdata	SEGMENT
$pdata$_EQUALS_MEMORY DD imagerel _EQUALS_MEMORY
	DD	imagerel _EQUALS_MEMORY+198
	DD	imagerel $unwind$_EQUALS_MEMORY
pdata	ENDS
;	COMDAT pdata
pdata	SEGMENT
$pdata$TEST_DivRem_I_X DD imagerel $LN18
	DD	imagerel $LN18+1040
	DD	imagerel $unwind$TEST_DivRem_I_X
pdata	ENDS
;	COMDAT pdata
pdata	SEGMENT
$pdata$TEST_DivRem_L_X DD imagerel $LN18
	DD	imagerel $LN18+1041
	DD	imagerel $unwind$TEST_DivRem_L_X
pdata	ENDS
;	COMDAT pdata
pdata	SEGMENT
$pdata$TEST_DivRem_UX_X DD imagerel $LN21
	DD	imagerel $LN21+1207
	DD	imagerel $unwind$TEST_DivRem_UX_X
pdata	ENDS
;	COMDAT pdata
pdata	SEGMENT
$pdata$TEST_DivRem_X_I DD imagerel $LN16
	DD	imagerel $LN16+848
	DD	imagerel $unwind$TEST_DivRem_X_I
pdata	ENDS
;	COMDAT pdata
pdata	SEGMENT
$pdata$TEST_DivRem_X_L DD imagerel $LN16
	DD	imagerel $LN16+851
	DD	imagerel $unwind$TEST_DivRem_X_L
pdata	ENDS
;	COMDAT pdata
pdata	SEGMENT
$pdata$TEST_DivRem_X_UX DD imagerel $LN21
	DD	imagerel $LN21+1213
	DD	imagerel $unwind$TEST_DivRem_X_UX
pdata	ENDS
;	COMDAT pdata
pdata	SEGMENT
$pdata$TEST_DivRem_X_X DD imagerel $LN21
	DD	imagerel $LN21+1219
	DD	imagerel $unwind$TEST_DivRem_X_X
pdata	ENDS
;	COMDAT rtc$TMZ
rtc$TMZ	SEGMENT
_RTC_Shutdown.rtc$TMZ DQ FLAT:_RTC_Shutdown
rtc$TMZ	ENDS
;	COMDAT rtc$IMZ
rtc$IMZ	SEGMENT
_RTC_InitBase.rtc$IMZ DQ FLAT:_RTC_InitBase
rtc$IMZ	ENDS
;	COMDAT ??_C@_1DM@LBHJMHBN@?$AAD?$AAi?$AAv?$AAR?$AAe?$AAm?$AA_?$AAX?$AA_?$AAX?$AAn?$PP?$KJ?$AA0?$PP?$LD?$PP?$PM@
CONST	SEGMENT
??_C@_1DM@LBHJMHBN@?$AAD?$AAi?$AAv?$AAR?$AAe?$AAm?$AA_?$AAX?$AA_?$AAX?$AAn?$PP?$KJ?$AA0?$PP?$LD?$PP?$PM@ DB 'D'
	DB	00H, 'i', 00H, 'v', 00H, 'R', 00H, 'e', 00H, 'm', 00H, '_', 00H
	DB	'X', 00H, '_', 00H, 'X', 00H, 'n0', 0a9H, '_0^', 0b3H, '0', 0fcH
	DB	'0', 0c9H, '0L0', 01fH, 'g', 085H, '_', 01aH, 090H, 08aH, '0g0'
	DB	'o0j0D0(', 00H, '%', 00H, 'd', 00H, ')', 00H, 00H, 00H ; `string'
CONST	ENDS
;	COMDAT ??_C@_1CG@DEJBHKJI@?$AAD?$AAi?$AAv?$AAR?$AAe?$AAm?$AA_?$AAX?$AA_?$AAX?$AA?5?$AA?$CI?$AA?$CF?$AAd?$AA?4@
CONST	SEGMENT
??_C@_1CG@DEJBHKJI@?$AAD?$AAi?$AAv?$AAR?$AAe?$AAm?$AA_?$AAX?$AA_?$AAX?$AA?5?$AA?$CI?$AA?$CF?$AAd?$AA?4@ DB 'D'
	DB	00H, 'i', 00H, 'v', 00H, 'R', 00H, 'e', 00H, 'm', 00H, '_', 00H
	DB	'X', 00H, '_', 00H, 'X', 00H, ' ', 00H, '(', 00H, '%', 00H, 'd'
	DB	00H, '.', 00H, '%', 00H, 'd', 00H, ')', 00H, 00H, 00H ; `string'
CONST	ENDS
;	COMDAT ??_C@_1DO@LADEACKM@?$AAD?$AAi?$AAv?$AAR?$AAe?$AAm?$AA_?$AAX?$AA_?$AAU?$AAX?$AAn?$PP?$KJ?$AA0?$PP?$LD@
CONST	SEGMENT
??_C@_1DO@LADEACKM@?$AAD?$AAi?$AAv?$AAR?$AAe?$AAm?$AA_?$AAX?$AA_?$AAU?$AAX?$AAn?$PP?$KJ?$AA0?$PP?$LD@ DB 'D'
	DB	00H, 'i', 00H, 'v', 00H, 'R', 00H, 'e', 00H, 'm', 00H, '_', 00H
	DB	'X', 00H, '_', 00H, 'U', 00H, 'X', 00H, 'n0', 0a9H, '_0^', 0b3H
	DB	'0', 0fcH, '0', 0c9H, '0L0', 01fH, 'g', 085H, '_', 01aH, 090H, 08aH
	DB	'0g0o0j0D0(', 00H, '%', 00H, 'd', 00H, ')', 00H, 00H, 00H ; `string'
CONST	ENDS
;	COMDAT ??_C@_1CI@MCEJJFCK@?$AAD?$AAi?$AAv?$AAR?$AAe?$AAm?$AA_?$AAX?$AA_?$AAU?$AAX?$AA?5?$AA?$CI?$AA?$CF?$AAd@
CONST	SEGMENT
??_C@_1CI@MCEJJFCK@?$AAD?$AAi?$AAv?$AAR?$AAe?$AAm?$AA_?$AAX?$AA_?$AAU?$AAX?$AA?5?$AA?$CI?$AA?$CF?$AAd@ DB 'D'
	DB	00H, 'i', 00H, 'v', 00H, 'R', 00H, 'e', 00H, 'm', 00H, '_', 00H
	DB	'X', 00H, '_', 00H, 'U', 00H, 'X', 00H, ' ', 00H, '(', 00H, '%'
	DB	00H, 'd', 00H, '.', 00H, '%', 00H, 'd', 00H, ')', 00H, 00H, 00H ; `string'
CONST	ENDS
;	COMDAT ??_C@_1DM@ELDKLHAI@?$AAD?$AAi?$AAv?$AAR?$AAe?$AAm?$AA_?$AAX?$AA_?$AAL?$AAn?$PP?$KJ?$AA0?$PP?$LD?$PP?$PM@
CONST	SEGMENT
??_C@_1DM@ELDKLHAI@?$AAD?$AAi?$AAv?$AAR?$AAe?$AAm?$AA_?$AAX?$AA_?$AAL?$AAn?$PP?$KJ?$AA0?$PP?$LD?$PP?$PM@ DB 'D'
	DB	00H, 'i', 00H, 'v', 00H, 'R', 00H, 'e', 00H, 'm', 00H, '_', 00H
	DB	'X', 00H, '_', 00H, 'L', 00H, 'n0', 0a9H, '_0^', 0b3H, '0', 0fcH
	DB	'0', 0c9H, '0L0', 01fH, 'g', 085H, '_', 01aH, 090H, 08aH, '0g0'
	DB	'o0j0D0(', 00H, '%', 00H, 'd', 00H, ')', 00H, 00H, 00H ; `string'
CONST	ENDS
;	COMDAT ??_C@_1CG@JKLKDKOE@?$AAD?$AAi?$AAv?$AAR?$AAe?$AAm?$AA_?$AAX?$AA_?$AAL?$AA?5?$AA?$CI?$AA?$CF?$AAd?$AA?4@
CONST	SEGMENT
??_C@_1CG@JKLKDKOE@?$AAD?$AAi?$AAv?$AAR?$AAe?$AAm?$AA_?$AAX?$AA_?$AAL?$AA?5?$AA?$CI?$AA?$CF?$AAd?$AA?4@ DB 'D'
	DB	00H, 'i', 00H, 'v', 00H, 'R', 00H, 'e', 00H, 'm', 00H, '_', 00H
	DB	'X', 00H, '_', 00H, 'L', 00H, ' ', 00H, '(', 00H, '%', 00H, 'd'
	DB	00H, '.', 00H, '%', 00H, 'd', 00H, ')', 00H, 00H, 00H ; `string'
CONST	ENDS
;	COMDAT ??_C@_1DM@DHGCKJN@?$AAD?$AAi?$AAv?$AAR?$AAe?$AAm?$AA_?$AAX?$AA_?$AAI?$AAn?$PP?$KJ?$AA0?$PP?$LD?$PP?$PM@
CONST	SEGMENT
??_C@_1DM@DHGCKJN@?$AAD?$AAi?$AAv?$AAR?$AAe?$AAm?$AA_?$AAX?$AA_?$AAI?$AAn?$PP?$KJ?$AA0?$PP?$LD?$PP?$PM@ DB 'D'
	DB	00H, 'i', 00H, 'v', 00H, 'R', 00H, 'e', 00H, 'm', 00H, '_', 00H
	DB	'X', 00H, '_', 00H, 'I', 00H, 'n0', 0a9H, '_0^', 0b3H, '0', 0fcH
	DB	'0', 0c9H, '0L0', 01fH, 'g', 085H, '_', 01aH, 090H, 08aH, '0g0'
	DB	'o0j0D0(', 00H, '%', 00H, 'd', 00H, ')', 00H, 00H, 00H ; `string'
CONST	ENDS
;	COMDAT ??_C@_1CG@LBDAOKPL@?$AAD?$AAi?$AAv?$AAR?$AAe?$AAm?$AA_?$AAX?$AA_?$AAI?$AA?5?$AA?$CI?$AA?$CF?$AAd?$AA?4@
CONST	SEGMENT
??_C@_1CG@LBDAOKPL@?$AAD?$AAi?$AAv?$AAR?$AAe?$AAm?$AA_?$AAX?$AA_?$AAI?$AA?5?$AA?$CI?$AA?$CF?$AAd?$AA?4@ DB 'D'
	DB	00H, 'i', 00H, 'v', 00H, 'R', 00H, 'e', 00H, 'm', 00H, '_', 00H
	DB	'X', 00H, '_', 00H, 'I', 00H, ' ', 00H, '(', 00H, '%', 00H, 'd'
	DB	00H, '.', 00H, '%', 00H, 'd', 00H, ')', 00H, 00H, 00H ; `string'
CONST	ENDS
;	COMDAT ??_C@_1DO@DHNBEMIM@?$AAD?$AAi?$AAv?$AAR?$AAe?$AAm?$AA_?$AAU?$AAX?$AA_?$AAX?$AAn?$PP?$KJ?$AA0?$PP?$LD@
CONST	SEGMENT
??_C@_1DO@DHNBEMIM@?$AAD?$AAi?$AAv?$AAR?$AAe?$AAm?$AA_?$AAU?$AAX?$AA_?$AAX?$AAn?$PP?$KJ?$AA0?$PP?$LD@ DB 'D'
	DB	00H, 'i', 00H, 'v', 00H, 'R', 00H, 'e', 00H, 'm', 00H, '_', 00H
	DB	'U', 00H, 'X', 00H, '_', 00H, 'X', 00H, 'n0', 0a9H, '_0^', 0b3H
	DB	'0', 0fcH, '0', 0c9H, '0L0', 01fH, 'g', 085H, '_', 01aH, 090H, 08aH
	DB	'0g0o0j0D0(', 00H, '%', 00H, 'd', 00H, ')', 00H, 00H, 00H ; `string'
CONST	ENDS
;	COMDAT ??_C@_1CI@PMOCFACI@?$AAD?$AAi?$AAv?$AAR?$AAe?$AAm?$AA_?$AAU?$AAX?$AA_?$AAX?$AA?5?$AA?$CI?$AA?$CF?$AAd@
CONST	SEGMENT
??_C@_1CI@PMOCFACI@?$AAD?$AAi?$AAv?$AAR?$AAe?$AAm?$AA_?$AAU?$AAX?$AA_?$AAX?$AA?5?$AA?$CI?$AA?$CF?$AAd@ DB 'D'
	DB	00H, 'i', 00H, 'v', 00H, 'R', 00H, 'e', 00H, 'm', 00H, '_', 00H
	DB	'U', 00H, 'X', 00H, '_', 00H, 'X', 00H, ' ', 00H, '(', 00H, '%'
	DB	00H, 'd', 00H, '.', 00H, '%', 00H, 'd', 00H, ')', 00H, 00H, 00H ; `string'
CONST	ENDS
;	COMDAT ??_C@_1DM@EHDAPCE@?$AAD?$AAi?$AAv?$AAR?$AAe?$AAm?$AA_?$AAL?$AA_?$AAX?$AAn?$PP?$KJ?$AA0?$PP?$LD?$PP?$PM@
CONST	SEGMENT
??_C@_1DM@EHDAPCE@?$AAD?$AAi?$AAv?$AAR?$AAe?$AAm?$AA_?$AAL?$AA_?$AAX?$AAn?$PP?$KJ?$AA0?$PP?$LD?$PP?$PM@ DB 'D'
	DB	00H, 'i', 00H, 'v', 00H, 'R', 00H, 'e', 00H, 'm', 00H, '_', 00H
	DB	'L', 00H, '_', 00H, 'X', 00H, 'n0', 0a9H, '_0^', 0b3H, '0', 0fcH
	DB	'0', 0c9H, '0L0', 01fH, 'g', 085H, '_', 01aH, 090H, 08aH, '0g0'
	DB	'o0j0D0(', 00H, '%', 00H, 'd', 00H, ')', 00H, 00H, 00H ; `string'
CONST	ENDS
;	COMDAT ??_C@_1CG@CCPMJLPK@?$AAD?$AAi?$AAv?$AAR?$AAe?$AAm?$AA_?$AAL?$AA_?$AAX?$AA?5?$AA?$CI?$AA?$CF?$AAd?$AA?4@
CONST	SEGMENT
??_C@_1CG@CCPMJLPK@?$AAD?$AAi?$AAv?$AAR?$AAe?$AAm?$AA_?$AAL?$AA_?$AAX?$AA?5?$AA?$CI?$AA?$CF?$AAd?$AA?4@ DB 'D'
	DB	00H, 'i', 00H, 'v', 00H, 'R', 00H, 'e', 00H, 'm', 00H, '_', 00H
	DB	'L', 00H, '_', 00H, 'X', 00H, ' ', 00H, '(', 00H, '%', 00H, 'd'
	DB	00H, '.', 00H, '%', 00H, 'd', 00H, ')', 00H, 00H, 00H ; `string'
CONST	ENDS
;	COMDAT ??_C@_1BG@BPGLFLF@?$AAp?$AAY?$AAn?$AA$?$AAL?$AA?$AA?$PP?t?$AAW?$AAj?$AAD@
CONST	SEGMENT
??_C@_1BG@BPGLFLF@?$AAp?$AAY?$AAn?$AA$?$AAL?$AA?$AA?$PP?t?$AAW?$AAj?$AAD@ DB 'p'
	DB	'RYOn0$PL0', 00H, 'N', 0f4H, 081H, 'W0j0D0', 00H, 00H ; `string'
CONST	ENDS
;	COMDAT ??_C@_1BE@OEODMBIH@?$AAF?$AAn?$AA$?$AAL?$AA?$AA?$PP?t?$AAW?$AAj?$AAD@
CONST	SEGMENT
??_C@_1BE@OEODMBIH@?$AAF?$AAn?$AA$?$AAL?$AA?$AA?$PP?t?$AAW?$AAj?$AAD@ DB 'F'
	DB	'Un0$PL0', 00H, 'N', 0f4H, 081H, 'W0j0D0', 00H, 00H ; `string'
CONST	ENDS
;	COMDAT ??_C@_1DO@DOHJEMND@?$AAT?$AAo?$AAB?$AAy?$AAt?$AAe?$AAA?$AAr?$AAr?$AAa?$AAy?$AAn?$PP?$KJ?$AA0?$PP?$LD@
CONST	SEGMENT
??_C@_1DO@DOHJEMND@?$AAT?$AAo?$AAB?$AAy?$AAt?$AAe?$AAA?$AAr?$AAr?$AAa?$AAy?$AAn?$PP?$KJ?$AA0?$PP?$LD@ DB 'T'
	DB	00H, 'o', 00H, 'B', 00H, 'y', 00H, 't', 00H, 'e', 00H, 'A', 00H
	DB	'r', 00H, 'r', 00H, 'a', 00H, 'y', 00H, 'n0', 0a9H, '_0^', 0b3H
	DB	'0', 0fcH, '0', 0c9H, '0L0', 01fH, 'g', 085H, '_', 01aH, 090H, 08aH
	DB	'0g0o0j0D0(', 00H, '%', 00H, 'd', 00H, ')', 00H, 00H, 00H ; `string'
CONST	ENDS
;	COMDAT ??_C@_1DM@FPONPMLK@?$AAD?$AAi?$AAv?$AAR?$AAe?$AAm?$AA_?$AAI?$AA_?$AAX?$AAn?$PP?$KJ?$AA0?$PP?$LD?$PP?$PM@
CONST	SEGMENT
??_C@_1DM@FPONPMLK@?$AAD?$AAi?$AAv?$AAR?$AAe?$AAm?$AA_?$AAI?$AA_?$AAX?$AAn?$PP?$KJ?$AA0?$PP?$LD?$PP?$PM@ DB 'D'
	DB	00H, 'i', 00H, 'v', 00H, 'R', 00H, 'e', 00H, 'm', 00H, '_', 00H
	DB	'I', 00H, '_', 00H, 'X', 00H, 'n0', 0a9H, '_0^', 0b3H, '0', 0fcH
	DB	'0', 0c9H, '0L0', 01fH, 'g', 085H, '_', 01aH, 090H, 08aH, '0g0'
	DB	'o0j0D0(', 00H, '%', 00H, 'd', 00H, ')', 00H, 00H, 00H ; `string'
CONST	ENDS
;	COMDAT ??_C@_1CG@MKNPGAIC@?$AAD?$AAi?$AAv?$AAR?$AAe?$AAm?$AA_?$AAI?$AA_?$AAX?$AA?5?$AA?$CI?$AA?$CF?$AAd?$AA?4@
CONST	SEGMENT
??_C@_1CG@MKNPGAIC@?$AAD?$AAi?$AAv?$AAR?$AAe?$AAm?$AA_?$AAI?$AA_?$AAX?$AA?5?$AA?$CI?$AA?$CF?$AAd?$AA?4@ DB 'D'
	DB	00H, 'i', 00H, 'v', 00H, 'R', 00H, 'e', 00H, 'm', 00H, '_', 00H
	DB	'I', 00H, '_', 00H, 'X', 00H, ' ', 00H, '(', 00H, '%', 00H, 'd'
	DB	00H, '.', 00H, '%', 00H, 'd', 00H, ')', 00H, 00H, 00H ; `string'
CONST	ENDS
;	COMDAT ??_C@_1EC@NPMCAPKO@?$AAF?$AAr?$AAo?$AAm?$AAB?$AAy?$AAt?$AAe?$AAA?$AAr?$AAr?$AAa?$AAy?$AAn?$PP?$KJ@
CONST	SEGMENT
??_C@_1EC@NPMCAPKO@?$AAF?$AAr?$AAo?$AAm?$AAB?$AAy?$AAt?$AAe?$AAA?$AAr?$AAr?$AAa?$AAy?$AAn?$PP?$KJ@ DB 'F'
	DB	00H, 'r', 00H, 'o', 00H, 'm', 00H, 'B', 00H, 'y', 00H, 't', 00H
	DB	'e', 00H, 'A', 00H, 'r', 00H, 'r', 00H, 'a', 00H, 'y', 00H, 'n'
	DB	'0', 0a9H, '_0^', 0b3H, '0', 0fcH, '0', 0c9H, '0L0', 01fH, 'g', 085H
	DB	'_', 01aH, 090H, 08aH, '0g0o0j0D0(', 00H, '%', 00H, 'd', 00H, ')'
	DB	00H, 00H, 00H				; `string'
CONST	ENDS
;	COMDAT xdata
xdata	SEGMENT
$unwind$TEST_DivRem_X_X DD 025054a19H
	DD	011d2322H
	DD	0701600a7H
	DD	05015H
	DD	imagerel __GSHandlerCheck
	DD	0520H
xdata	ENDS
;	COMDAT CONST
CONST	SEGMENT
TEST_DivRem_X_X$rtcName$0 DB 075H
	DB	00H
	ORG $+2
TEST_DivRem_X_X$rtcName$1 DB 076H
	DB	00H
	ORG $+2
TEST_DivRem_X_X$rtcName$2 DB 071H
	DB	00H
	ORG $+2
TEST_DivRem_X_X$rtcName$3 DB 072H
	DB	00H
	ORG $+2
TEST_DivRem_X_X$rtcName$4 DB 061H
	DB	063H
	DB	074H
	DB	075H
	DB	061H
	DB	06cH
	DB	05fH
	DB	071H
	DB	05fH
	DB	062H
	DB	075H
	DB	066H
	DB	00H
	ORG $+3
TEST_DivRem_X_X$rtcName$5 DB 061H
	DB	063H
	DB	074H
	DB	075H
	DB	061H
	DB	06cH
	DB	05fH
	DB	071H
	DB	05fH
	DB	062H
	DB	075H
	DB	066H
	DB	05fH
	DB	073H
	DB	069H
	DB	07aH
	DB	065H
	DB	00H
	ORG $+6
TEST_DivRem_X_X$rtcName$6 DB 061H
	DB	063H
	DB	074H
	DB	075H
	DB	061H
	DB	06cH
	DB	05fH
	DB	072H
	DB	05fH
	DB	062H
	DB	075H
	DB	066H
	DB	00H
	ORG $+3
TEST_DivRem_X_X$rtcName$7 DB 061H
	DB	063H
	DB	074H
	DB	075H
	DB	061H
	DB	06cH
	DB	05fH
	DB	072H
	DB	05fH
	DB	062H
	DB	075H
	DB	066H
	DB	05fH
	DB	073H
	DB	069H
	DB	07aH
	DB	065H
	DB	00H
	ORG $+6
TEST_DivRem_X_X$rtcVarDesc DD 0308H
	DD	08H
	DQ	FLAT:TEST_DivRem_X_X$rtcName$7
	DD	01f0H
	DD	0100H
	DQ	FLAT:TEST_DivRem_X_X$rtcName$6
	DD	01c8H
	DD	08H
	DQ	FLAT:TEST_DivRem_X_X$rtcName$5
	DD	0b0H
	DD	0100H
	DQ	FLAT:TEST_DivRem_X_X$rtcName$4
	DD	088H
	DD	08H
	DQ	FLAT:TEST_DivRem_X_X$rtcName$3
	DD	068H
	DD	08H
	DQ	FLAT:TEST_DivRem_X_X$rtcName$2
	DD	048H
	DD	08H
	DQ	FLAT:TEST_DivRem_X_X$rtcName$1
	DD	028H
	DD	08H
	DQ	FLAT:TEST_DivRem_X_X$rtcName$0
	ORG $+384
TEST_DivRem_X_X$rtcFrameData DD 08H
	DD	00H
	DQ	FLAT:TEST_DivRem_X_X$rtcVarDesc
CONST	ENDS
;	COMDAT xdata
xdata	SEGMENT
$unwind$TEST_DivRem_X_UX DD 025054a19H
	DD	011d2322H
	DD	0701600a7H
	DD	05015H
	DD	imagerel __GSHandlerCheck
	DD	0520H
xdata	ENDS
;	COMDAT CONST
CONST	SEGMENT
TEST_DivRem_X_UX$rtcName$0 DB 075H
	DB	00H
	ORG $+2
TEST_DivRem_X_UX$rtcName$1 DB 076H
	DB	00H
	ORG $+2
TEST_DivRem_X_UX$rtcName$2 DB 071H
	DB	00H
	ORG $+2
TEST_DivRem_X_UX$rtcName$3 DB 072H
	DB	00H
	ORG $+2
TEST_DivRem_X_UX$rtcName$4 DB 061H
	DB	063H
	DB	074H
	DB	075H
	DB	061H
	DB	06cH
	DB	05fH
	DB	071H
	DB	05fH
	DB	062H
	DB	075H
	DB	066H
	DB	00H
	ORG $+3
TEST_DivRem_X_UX$rtcName$5 DB 061H
	DB	063H
	DB	074H
	DB	075H
	DB	061H
	DB	06cH
	DB	05fH
	DB	071H
	DB	05fH
	DB	062H
	DB	075H
	DB	066H
	DB	05fH
	DB	073H
	DB	069H
	DB	07aH
	DB	065H
	DB	00H
	ORG $+6
TEST_DivRem_X_UX$rtcName$6 DB 061H
	DB	063H
	DB	074H
	DB	075H
	DB	061H
	DB	06cH
	DB	05fH
	DB	072H
	DB	05fH
	DB	062H
	DB	075H
	DB	066H
	DB	00H
	ORG $+3
TEST_DivRem_X_UX$rtcName$7 DB 061H
	DB	063H
	DB	074H
	DB	075H
	DB	061H
	DB	06cH
	DB	05fH
	DB	072H
	DB	05fH
	DB	062H
	DB	075H
	DB	066H
	DB	05fH
	DB	073H
	DB	069H
	DB	07aH
	DB	065H
	DB	00H
	ORG $+6
TEST_DivRem_X_UX$rtcVarDesc DD 0308H
	DD	08H
	DQ	FLAT:TEST_DivRem_X_UX$rtcName$7
	DD	01f0H
	DD	0100H
	DQ	FLAT:TEST_DivRem_X_UX$rtcName$6
	DD	01c8H
	DD	08H
	DQ	FLAT:TEST_DivRem_X_UX$rtcName$5
	DD	0b0H
	DD	0100H
	DQ	FLAT:TEST_DivRem_X_UX$rtcName$4
	DD	088H
	DD	08H
	DQ	FLAT:TEST_DivRem_X_UX$rtcName$3
	DD	068H
	DD	08H
	DQ	FLAT:TEST_DivRem_X_UX$rtcName$2
	DD	048H
	DD	08H
	DQ	FLAT:TEST_DivRem_X_UX$rtcName$1
	DD	028H
	DD	08H
	DQ	FLAT:TEST_DivRem_X_UX$rtcName$0
	ORG $+384
TEST_DivRem_X_UX$rtcFrameData DD 08H
	DD	00H
	DQ	FLAT:TEST_DivRem_X_UX$rtcVarDesc
CONST	ENDS
;	COMDAT xdata
xdata	SEGMENT
$unwind$TEST_DivRem_X_L DD 025054a19H
	DD	011d2322H
	DD	070160077H
	DD	05015H
	DD	imagerel __GSHandlerCheck
	DD	03a0H
xdata	ENDS
;	COMDAT CONST
CONST	SEGMENT
TEST_DivRem_X_L$rtcName$0 DB 075H
	DB	00H
	ORG $+2
TEST_DivRem_X_L$rtcName$1 DB 071H
	DB	00H
	ORG $+2
TEST_DivRem_X_L$rtcName$2 DB 061H
	DB	063H
	DB	074H
	DB	075H
	DB	061H
	DB	06cH
	DB	05fH
	DB	071H
	DB	05fH
	DB	062H
	DB	075H
	DB	066H
	DB	00H
	ORG $+3
TEST_DivRem_X_L$rtcName$3 DB 061H
	DB	063H
	DB	074H
	DB	075H
	DB	061H
	DB	06cH
	DB	05fH
	DB	071H
	DB	05fH
	DB	062H
	DB	075H
	DB	066H
	DB	05fH
	DB	073H
	DB	069H
	DB	07aH
	DB	065H
	DB	00H
	ORG $+6
TEST_DivRem_X_L$rtcName$4 DB 061H
	DB	063H
	DB	074H
	DB	075H
	DB	061H
	DB	06cH
	DB	05fH
	DB	072H
	DB	00H
	ORG $+7
TEST_DivRem_X_L$rtcVarDesc DD 01a8H
	DD	08H
	DQ	FLAT:TEST_DivRem_X_L$rtcName$4
	DD	0188H
	DD	08H
	DQ	FLAT:TEST_DivRem_X_L$rtcName$3
	DD	070H
	DD	0100H
	DQ	FLAT:TEST_DivRem_X_L$rtcName$2
	DD	048H
	DD	08H
	DQ	FLAT:TEST_DivRem_X_L$rtcName$1
	DD	028H
	DD	08H
	DQ	FLAT:TEST_DivRem_X_L$rtcName$0
	ORG $+240
TEST_DivRem_X_L$rtcFrameData DD 05H
	DD	00H
	DQ	FLAT:TEST_DivRem_X_L$rtcVarDesc
CONST	ENDS
;	COMDAT xdata
xdata	SEGMENT
$unwind$TEST_DivRem_X_I DD 025054a19H
	DD	011d2322H
	DD	070160077H
	DD	05015H
	DD	imagerel __GSHandlerCheck
	DD	03a0H
xdata	ENDS
;	COMDAT CONST
CONST	SEGMENT
TEST_DivRem_X_I$rtcName$0 DB 075H
	DB	00H
	ORG $+2
TEST_DivRem_X_I$rtcName$1 DB 071H
	DB	00H
	ORG $+2
TEST_DivRem_X_I$rtcName$2 DB 061H
	DB	063H
	DB	074H
	DB	075H
	DB	061H
	DB	06cH
	DB	05fH
	DB	071H
	DB	05fH
	DB	062H
	DB	075H
	DB	066H
	DB	00H
	ORG $+3
TEST_DivRem_X_I$rtcName$3 DB 061H
	DB	063H
	DB	074H
	DB	075H
	DB	061H
	DB	06cH
	DB	05fH
	DB	071H
	DB	05fH
	DB	062H
	DB	075H
	DB	066H
	DB	05fH
	DB	073H
	DB	069H
	DB	07aH
	DB	065H
	DB	00H
	ORG $+6
TEST_DivRem_X_I$rtcName$4 DB 061H
	DB	063H
	DB	074H
	DB	075H
	DB	061H
	DB	06cH
	DB	05fH
	DB	072H
	DB	00H
	ORG $+7
TEST_DivRem_X_I$rtcVarDesc DD 01a4H
	DD	04H
	DQ	FLAT:TEST_DivRem_X_I$rtcName$4
	DD	0188H
	DD	08H
	DQ	FLAT:TEST_DivRem_X_I$rtcName$3
	DD	070H
	DD	0100H
	DQ	FLAT:TEST_DivRem_X_I$rtcName$2
	DD	048H
	DD	08H
	DQ	FLAT:TEST_DivRem_X_I$rtcName$1
	DD	028H
	DD	08H
	DQ	FLAT:TEST_DivRem_X_I$rtcName$0
	ORG $+240
TEST_DivRem_X_I$rtcFrameData DD 05H
	DD	00H
	DQ	FLAT:TEST_DivRem_X_I$rtcVarDesc
CONST	ENDS
;	COMDAT xdata
xdata	SEGMENT
$unwind$TEST_DivRem_UX_X DD 025054a19H
	DD	011d2322H
	DD	0701600a7H
	DD	05015H
	DD	imagerel __GSHandlerCheck
	DD	0520H
xdata	ENDS
;	COMDAT CONST
CONST	SEGMENT
TEST_DivRem_UX_X$rtcName$0 DB 075H
	DB	00H
	ORG $+2
TEST_DivRem_UX_X$rtcName$1 DB 076H
	DB	00H
	ORG $+2
TEST_DivRem_UX_X$rtcName$2 DB 071H
	DB	00H
	ORG $+2
TEST_DivRem_UX_X$rtcName$3 DB 072H
	DB	00H
	ORG $+2
TEST_DivRem_UX_X$rtcName$4 DB 061H
	DB	063H
	DB	074H
	DB	075H
	DB	061H
	DB	06cH
	DB	05fH
	DB	071H
	DB	05fH
	DB	062H
	DB	075H
	DB	066H
	DB	00H
	ORG $+3
TEST_DivRem_UX_X$rtcName$5 DB 061H
	DB	063H
	DB	074H
	DB	075H
	DB	061H
	DB	06cH
	DB	05fH
	DB	071H
	DB	05fH
	DB	062H
	DB	075H
	DB	066H
	DB	05fH
	DB	073H
	DB	069H
	DB	07aH
	DB	065H
	DB	00H
	ORG $+6
TEST_DivRem_UX_X$rtcName$6 DB 061H
	DB	063H
	DB	074H
	DB	075H
	DB	061H
	DB	06cH
	DB	05fH
	DB	072H
	DB	05fH
	DB	062H
	DB	075H
	DB	066H
	DB	00H
	ORG $+3
TEST_DivRem_UX_X$rtcName$7 DB 061H
	DB	063H
	DB	074H
	DB	075H
	DB	061H
	DB	06cH
	DB	05fH
	DB	072H
	DB	05fH
	DB	062H
	DB	075H
	DB	066H
	DB	05fH
	DB	073H
	DB	069H
	DB	07aH
	DB	065H
	DB	00H
	ORG $+6
TEST_DivRem_UX_X$rtcVarDesc DD 0308H
	DD	08H
	DQ	FLAT:TEST_DivRem_UX_X$rtcName$7
	DD	01f0H
	DD	0100H
	DQ	FLAT:TEST_DivRem_UX_X$rtcName$6
	DD	01c8H
	DD	08H
	DQ	FLAT:TEST_DivRem_UX_X$rtcName$5
	DD	0b0H
	DD	0100H
	DQ	FLAT:TEST_DivRem_UX_X$rtcName$4
	DD	088H
	DD	08H
	DQ	FLAT:TEST_DivRem_UX_X$rtcName$3
	DD	068H
	DD	08H
	DQ	FLAT:TEST_DivRem_UX_X$rtcName$2
	DD	048H
	DD	08H
	DQ	FLAT:TEST_DivRem_UX_X$rtcName$1
	DD	028H
	DD	08H
	DQ	FLAT:TEST_DivRem_UX_X$rtcName$0
	ORG $+384
TEST_DivRem_UX_X$rtcFrameData DD 08H
	DD	00H
	DQ	FLAT:TEST_DivRem_UX_X$rtcVarDesc
CONST	ENDS
;	COMDAT xdata
xdata	SEGMENT
$unwind$TEST_DivRem_L_X DD 025054a19H
	DD	011d2322H
	DD	07016009fH
	DD	05015H
	DD	imagerel __GSHandlerCheck
	DD	04e0H
xdata	ENDS
;	COMDAT CONST
CONST	SEGMENT
TEST_DivRem_L_X$rtcName$0 DB 076H
	DB	00H
	ORG $+2
TEST_DivRem_L_X$rtcName$1 DB 071H
	DB	00H
	ORG $+2
TEST_DivRem_L_X$rtcName$2 DB 072H
	DB	00H
	ORG $+6
TEST_DivRem_L_X$rtcName$3 DB 061H
	DB	063H
	DB	074H
	DB	075H
	DB	061H
	DB	06cH
	DB	05fH
	DB	071H
	DB	05fH
	DB	062H
	DB	075H
	DB	066H
	DB	00H
	ORG $+3
TEST_DivRem_L_X$rtcName$4 DB 061H
	DB	063H
	DB	074H
	DB	075H
	DB	061H
	DB	06cH
	DB	05fH
	DB	071H
	DB	05fH
	DB	062H
	DB	075H
	DB	066H
	DB	05fH
	DB	073H
	DB	069H
	DB	07aH
	DB	065H
	DB	00H
	ORG $+6
TEST_DivRem_L_X$rtcName$5 DB 061H
	DB	063H
	DB	074H
	DB	075H
	DB	061H
	DB	06cH
	DB	05fH
	DB	072H
	DB	05fH
	DB	062H
	DB	075H
	DB	066H
	DB	00H
	ORG $+3
TEST_DivRem_L_X$rtcName$6 DB 061H
	DB	063H
	DB	074H
	DB	075H
	DB	061H
	DB	06cH
	DB	05fH
	DB	072H
	DB	05fH
	DB	062H
	DB	075H
	DB	066H
	DB	05fH
	DB	073H
	DB	069H
	DB	07aH
	DB	065H
	DB	00H
	ORG $+6
TEST_DivRem_L_X$rtcVarDesc DD 02e8H
	DD	08H
	DQ	FLAT:TEST_DivRem_L_X$rtcName$6
	DD	01d0H
	DD	0100H
	DQ	FLAT:TEST_DivRem_L_X$rtcName$5
	DD	01a8H
	DD	08H
	DQ	FLAT:TEST_DivRem_L_X$rtcName$4
	DD	090H
	DD	0100H
	DQ	FLAT:TEST_DivRem_L_X$rtcName$3
	DD	068H
	DD	08H
	DQ	FLAT:TEST_DivRem_L_X$rtcName$2
	DD	048H
	DD	08H
	DQ	FLAT:TEST_DivRem_L_X$rtcName$1
	DD	028H
	DD	08H
	DQ	FLAT:TEST_DivRem_L_X$rtcName$0
	ORG $+336
TEST_DivRem_L_X$rtcFrameData DD 07H
	DD	00H
	DQ	FLAT:TEST_DivRem_L_X$rtcVarDesc
CONST	ENDS
;	COMDAT xdata
xdata	SEGMENT
$unwind$TEST_DivRem_I_X DD 025054a19H
	DD	011d2322H
	DD	07016009fH
	DD	05015H
	DD	imagerel __GSHandlerCheck
	DD	04e0H
xdata	ENDS
;	COMDAT CONST
CONST	SEGMENT
TEST_DivRem_I_X$rtcName$0 DB 076H
	DB	00H
	ORG $+2
TEST_DivRem_I_X$rtcName$1 DB 071H
	DB	00H
	ORG $+2
TEST_DivRem_I_X$rtcName$2 DB 072H
	DB	00H
	ORG $+6
TEST_DivRem_I_X$rtcName$3 DB 061H
	DB	063H
	DB	074H
	DB	075H
	DB	061H
	DB	06cH
	DB	05fH
	DB	071H
	DB	05fH
	DB	062H
	DB	075H
	DB	066H
	DB	00H
	ORG $+3
TEST_DivRem_I_X$rtcName$4 DB 061H
	DB	063H
	DB	074H
	DB	075H
	DB	061H
	DB	06cH
	DB	05fH
	DB	071H
	DB	05fH
	DB	062H
	DB	075H
	DB	066H
	DB	05fH
	DB	073H
	DB	069H
	DB	07aH
	DB	065H
	DB	00H
	ORG $+6
TEST_DivRem_I_X$rtcName$5 DB 061H
	DB	063H
	DB	074H
	DB	075H
	DB	061H
	DB	06cH
	DB	05fH
	DB	072H
	DB	05fH
	DB	062H
	DB	075H
	DB	066H
	DB	00H
	ORG $+3
TEST_DivRem_I_X$rtcName$6 DB 061H
	DB	063H
	DB	074H
	DB	075H
	DB	061H
	DB	06cH
	DB	05fH
	DB	072H
	DB	05fH
	DB	062H
	DB	075H
	DB	066H
	DB	05fH
	DB	073H
	DB	069H
	DB	07aH
	DB	065H
	DB	00H
	ORG $+6
TEST_DivRem_I_X$rtcVarDesc DD 02e8H
	DD	08H
	DQ	FLAT:TEST_DivRem_I_X$rtcName$6
	DD	01d0H
	DD	0100H
	DQ	FLAT:TEST_DivRem_I_X$rtcName$5
	DD	01a8H
	DD	08H
	DQ	FLAT:TEST_DivRem_I_X$rtcName$4
	DD	090H
	DD	0100H
	DQ	FLAT:TEST_DivRem_I_X$rtcName$3
	DD	068H
	DD	08H
	DQ	FLAT:TEST_DivRem_I_X$rtcName$2
	DD	048H
	DD	08H
	DQ	FLAT:TEST_DivRem_I_X$rtcName$1
	DD	028H
	DD	08H
	DQ	FLAT:TEST_DivRem_I_X$rtcName$0
	ORG $+336
TEST_DivRem_I_X$rtcFrameData DD 07H
	DD	00H
	DQ	FLAT:TEST_DivRem_I_X$rtcVarDesc
CONST	ENDS
;	COMDAT xdata
xdata	SEGMENT
$unwind$_EQUALS_MEMORY DD 025053901H
	DD	011d2322H
	DD	07016001dH
	DD	05015H
xdata	ENDS
; Function compile flags: /Odt
;	COMDAT __JustMyCode_Default
_TEXT	SEGMENT
__JustMyCode_Default PROC				; COMDAT
	ret	0
__JustMyCode_Default ENDP
_TEXT	ENDS
; Function compile flags: /Odtp /RTCsu /ZI
; File z:\sources\lunor\repos\rougemeilland\palmtree.math.core.sint\palmtree.math.core.sint\test_op_divrem.c
;	COMDAT TEST_DivRem_X_X
_TEXT	SEGMENT
u$ = 8
v$ = 40
q$ = 72
r$ = 104
actual_q_buf$ = 144
actual_q_buf_size$ = 424
actual_r_buf$ = 464
actual_r_buf_size$ = 744
result$ = 772
u_result$ = 804
v_result$ = 836
q_r_result$ = 868
tv212 = 1268
tv197 = 1268
tv182 = 1268
tv163 = 1268
tv143 = 1268
tv92 = 1268
tv74 = 1268
tv171 = 1272
tv152 = 1272
tv132 = 1272
tv82 = 1272
tv64 = 1272
__$ArrayPad$ = 1280
env$ = 1328
ep$ = 1336
no$ = 1344
u_buf$ = 1352
u_buf_size$ = 1360
v_buf$ = 1368
v_buf_size$ = 1376
desired_return_code$ = 1384
desired_q_buf$ = 1392
desired_q_buf_size$ = 1400
desired_r_buf$ = 1408
desired_r_buf_size$ = 1416
TEST_DivRem_X_X PROC					; COMDAT

; 211  : {

$LN21:
	mov	QWORD PTR [rsp+32], r9
	mov	DWORD PTR [rsp+24], r8d
	mov	QWORD PTR [rsp+16], rdx
	mov	QWORD PTR [rsp+8], rcx
	push	rbp
	push	rdi
	sub	rsp, 1336				; 00000538H
	lea	rbp, QWORD PTR [rsp+32]
	mov	rdi, rsp
	mov	ecx, 334				; 0000014eH
	mov	eax, -858993460				; ccccccccH
	rep stosd
	mov	rcx, QWORD PTR [rsp+1368]
	mov	rax, QWORD PTR __security_cookie
	xor	rax, rbp
	mov	QWORD PTR __$ArrayPad$[rbp], rax
	lea	rcx, OFFSET FLAT:__76EA6F59_test_op_divrem@c
	call	__CheckForDebuggerJustMyCode

; 212  :     PMC_HANDLE_SINT u;
; 213  :     PMC_HANDLE_SINT v;
; 214  :     PMC_HANDLE_SINT q;
; 215  :     PMC_HANDLE_SINT r;
; 216  :     unsigned char actual_q_buf[256];
; 217  :     size_t actual_q_buf_size;
; 218  :     unsigned char actual_r_buf[256];
; 219  :     size_t actual_r_buf_size;
; 220  :     PMC_STATUS_CODE result;
; 221  :     PMC_STATUS_CODE u_result;
; 222  :     PMC_STATUS_CODE v_result;
; 223  :     PMC_STATUS_CODE q_r_result;
; 224  :     TEST_Assert(env, FormatTestLabel(L"DivRem_X_X (%d.%d)", no, 1), (u_result = ep->FromByteArray(u_buf, u_buf_size, &u)) == PMC_STATUS_OK, FormatTestMesssage(L"FromByteArrayの復帰コードが期待通りではない(%d)", u_result));

	lea	r8, QWORD PTR u$[rbp]
	mov	rdx, QWORD PTR u_buf_size$[rbp]
	mov	rcx, QWORD PTR u_buf$[rbp]
	mov	rax, QWORD PTR ep$[rbp]
	call	QWORD PTR [rax+592]
	mov	DWORD PTR u_result$[rbp], eax
	cmp	DWORD PTR u_result$[rbp], 0
	jne	SHORT $LN7@TEST_DivRe
	mov	DWORD PTR tv74[rbp], 1
	jmp	SHORT $LN8@TEST_DivRe
$LN7@TEST_DivRe:
	mov	DWORD PTR tv74[rbp], 0
$LN8@TEST_DivRe:
	mov	edx, DWORD PTR u_result$[rbp]
	lea	rcx, OFFSET FLAT:??_C@_1EC@NPMCAPKO@?$AAF?$AAr?$AAo?$AAm?$AAB?$AAy?$AAt?$AAe?$AAA?$AAr?$AAr?$AAa?$AAy?$AAn?$PP?$KJ@
	call	FormatTestMesssage
	mov	QWORD PTR tv64[rbp], rax
	mov	r8d, 1
	mov	edx, DWORD PTR no$[rbp]
	lea	rcx, OFFSET FLAT:??_C@_1CG@DEJBHKJI@?$AAD?$AAi?$AAv?$AAR?$AAe?$AAm?$AA_?$AAX?$AA_?$AAX?$AA?5?$AA?$CI?$AA?$CF?$AAd?$AA?4@
	call	FormatTestLabel
	mov	rcx, QWORD PTR tv64[rbp]
	mov	r9, rcx
	mov	r8d, DWORD PTR tv74[rbp]
	mov	rdx, rax
	mov	rcx, QWORD PTR env$[rbp]
	call	TEST_Assert

; 225  :     TEST_Assert(env, FormatTestLabel(L"DivRem_X_X (%d.%d)", no, 2), (v_result = ep->FromByteArray(v_buf, v_buf_size, &v)) == PMC_STATUS_OK, FormatTestMesssage(L"FromByteArrayの復帰コードが期待通りではない(%d)", v_result));

	lea	r8, QWORD PTR v$[rbp]
	mov	rdx, QWORD PTR v_buf_size$[rbp]
	mov	rcx, QWORD PTR v_buf$[rbp]
	mov	rax, QWORD PTR ep$[rbp]
	call	QWORD PTR [rax+592]
	mov	DWORD PTR v_result$[rbp], eax
	cmp	DWORD PTR v_result$[rbp], 0
	jne	SHORT $LN9@TEST_DivRe
	mov	DWORD PTR tv92[rbp], 1
	jmp	SHORT $LN10@TEST_DivRe
$LN9@TEST_DivRe:
	mov	DWORD PTR tv92[rbp], 0
$LN10@TEST_DivRe:
	mov	edx, DWORD PTR v_result$[rbp]
	lea	rcx, OFFSET FLAT:??_C@_1EC@NPMCAPKO@?$AAF?$AAr?$AAo?$AAm?$AAB?$AAy?$AAt?$AAe?$AAA?$AAr?$AAr?$AAa?$AAy?$AAn?$PP?$KJ@
	call	FormatTestMesssage
	mov	QWORD PTR tv82[rbp], rax
	mov	r8d, 2
	mov	edx, DWORD PTR no$[rbp]
	lea	rcx, OFFSET FLAT:??_C@_1CG@DEJBHKJI@?$AAD?$AAi?$AAv?$AAR?$AAe?$AAm?$AA_?$AAX?$AA_?$AAX?$AA?5?$AA?$CI?$AA?$CF?$AAd?$AA?4@
	call	FormatTestLabel
	mov	rcx, QWORD PTR tv82[rbp]
	mov	r9, rcx
	mov	r8d, DWORD PTR tv92[rbp]
	mov	rdx, rax
	mov	rcx, QWORD PTR env$[rbp]
	call	TEST_Assert

; 226  :     TEST_Assert(env, FormatTestLabel(L"DivRem_X_X (%d.%d)", no, 3), (q_r_result = ep->DivRem_X_X(u, v, &q, &r)) == desired_return_code, FormatTestMesssage(L"DivRem_X_Xの復帰コードが期待通りではない(%d)", q_r_result));

	lea	r9, QWORD PTR r$[rbp]
	lea	r8, QWORD PTR q$[rbp]
	mov	rdx, QWORD PTR v$[rbp]
	mov	rcx, QWORD PTR u$[rbp]
	mov	rax, QWORD PTR ep$[rbp]
	call	QWORD PTR [rax+856]
	mov	DWORD PTR q_r_result$[rbp], eax
	mov	eax, DWORD PTR desired_return_code$[rbp]
	cmp	DWORD PTR q_r_result$[rbp], eax
	jne	SHORT $LN11@TEST_DivRe
	mov	DWORD PTR tv143[rbp], 1
	jmp	SHORT $LN12@TEST_DivRe
$LN11@TEST_DivRe:
	mov	DWORD PTR tv143[rbp], 0
$LN12@TEST_DivRe:
	mov	edx, DWORD PTR q_r_result$[rbp]
	lea	rcx, OFFSET FLAT:??_C@_1DM@LBHJMHBN@?$AAD?$AAi?$AAv?$AAR?$AAe?$AAm?$AA_?$AAX?$AA_?$AAX?$AAn?$PP?$KJ?$AA0?$PP?$LD?$PP?$PM@
	call	FormatTestMesssage
	mov	QWORD PTR tv132[rbp], rax
	mov	r8d, 3
	mov	edx, DWORD PTR no$[rbp]
	lea	rcx, OFFSET FLAT:??_C@_1CG@DEJBHKJI@?$AAD?$AAi?$AAv?$AAR?$AAe?$AAm?$AA_?$AAX?$AA_?$AAX?$AA?5?$AA?$CI?$AA?$CF?$AAd?$AA?4@
	call	FormatTestLabel
	mov	rcx, QWORD PTR tv132[rbp]
	mov	r9, rcx
	mov	r8d, DWORD PTR tv143[rbp]
	mov	rdx, rax
	mov	rcx, QWORD PTR env$[rbp]
	call	TEST_Assert

; 227  :     if (desired_return_code == PMC_STATUS_OK)

	cmp	DWORD PTR desired_return_code$[rbp], 0
	jne	$LN2@TEST_DivRe

; 228  :     {
; 229  :         TEST_Assert(env, FormatTestLabel(L"DivRem_X_X (%d.%d)", no, 4), (result = ep->ToByteArray(q, actual_q_buf, sizeof(actual_q_buf), &actual_q_buf_size)) == PMC_STATUS_OK, FormatTestMesssage(L"ToByteArrayの復帰コードが期待通りではない(%d)", result));

	lea	r9, QWORD PTR actual_q_buf_size$[rbp]
	mov	r8d, 256				; 00000100H
	lea	rdx, QWORD PTR actual_q_buf$[rbp]
	mov	rcx, QWORD PTR q$[rbp]
	mov	rax, QWORD PTR ep$[rbp]
	call	QWORD PTR [rax+600]
	mov	DWORD PTR result$[rbp], eax
	cmp	DWORD PTR result$[rbp], 0
	jne	SHORT $LN13@TEST_DivRe
	mov	DWORD PTR tv163[rbp], 1
	jmp	SHORT $LN14@TEST_DivRe
$LN13@TEST_DivRe:
	mov	DWORD PTR tv163[rbp], 0
$LN14@TEST_DivRe:
	mov	edx, DWORD PTR result$[rbp]
	lea	rcx, OFFSET FLAT:??_C@_1DO@DOHJEMND@?$AAT?$AAo?$AAB?$AAy?$AAt?$AAe?$AAA?$AAr?$AAr?$AAa?$AAy?$AAn?$PP?$KJ?$AA0?$PP?$LD@
	call	FormatTestMesssage
	mov	QWORD PTR tv152[rbp], rax
	mov	r8d, 4
	mov	edx, DWORD PTR no$[rbp]
	lea	rcx, OFFSET FLAT:??_C@_1CG@DEJBHKJI@?$AAD?$AAi?$AAv?$AAR?$AAe?$AAm?$AA_?$AAX?$AA_?$AAX?$AA?5?$AA?$CI?$AA?$CF?$AAd?$AA?4@
	call	FormatTestLabel
	mov	rcx, QWORD PTR tv152[rbp]
	mov	r9, rcx
	mov	r8d, DWORD PTR tv163[rbp]
	mov	rdx, rax
	mov	rcx, QWORD PTR env$[rbp]
	call	TEST_Assert

; 230  :         TEST_Assert(env, FormatTestLabel(L"DivRem_X_X (%d.%d)", no, 5), (result = ep->ToByteArray(r, actual_r_buf, sizeof(actual_r_buf), &actual_r_buf_size)) == PMC_STATUS_OK, FormatTestMesssage(L"ToByteArrayの復帰コードが期待通りではない(%d)", result));

	lea	r9, QWORD PTR actual_r_buf_size$[rbp]
	mov	r8d, 256				; 00000100H
	lea	rdx, QWORD PTR actual_r_buf$[rbp]
	mov	rcx, QWORD PTR r$[rbp]
	mov	rax, QWORD PTR ep$[rbp]
	call	QWORD PTR [rax+600]
	mov	DWORD PTR result$[rbp], eax
	cmp	DWORD PTR result$[rbp], 0
	jne	SHORT $LN15@TEST_DivRe
	mov	DWORD PTR tv182[rbp], 1
	jmp	SHORT $LN16@TEST_DivRe
$LN15@TEST_DivRe:
	mov	DWORD PTR tv182[rbp], 0
$LN16@TEST_DivRe:
	mov	edx, DWORD PTR result$[rbp]
	lea	rcx, OFFSET FLAT:??_C@_1DO@DOHJEMND@?$AAT?$AAo?$AAB?$AAy?$AAt?$AAe?$AAA?$AAr?$AAr?$AAa?$AAy?$AAn?$PP?$KJ?$AA0?$PP?$LD@
	call	FormatTestMesssage
	mov	QWORD PTR tv171[rbp], rax
	mov	r8d, 5
	mov	edx, DWORD PTR no$[rbp]
	lea	rcx, OFFSET FLAT:??_C@_1CG@DEJBHKJI@?$AAD?$AAi?$AAv?$AAR?$AAe?$AAm?$AA_?$AAX?$AA_?$AAX?$AA?5?$AA?$CI?$AA?$CF?$AAd?$AA?4@
	call	FormatTestLabel
	mov	rcx, QWORD PTR tv171[rbp]
	mov	r9, rcx
	mov	r8d, DWORD PTR tv182[rbp]
	mov	rdx, rax
	mov	rcx, QWORD PTR env$[rbp]
	call	TEST_Assert

; 231  :         TEST_Assert(env, FormatTestLabel(L"DivRem_X_X (%d.%d)", no, 6), _EQUALS_MEMORY(actual_q_buf, actual_q_buf_size, desired_q_buf, desired_q_buf_size) == 0, L"商の値が一致しない");

	mov	r9, QWORD PTR desired_q_buf_size$[rbp]
	mov	r8, QWORD PTR desired_q_buf$[rbp]
	mov	rdx, QWORD PTR actual_q_buf_size$[rbp]
	lea	rcx, QWORD PTR actual_q_buf$[rbp]
	call	_EQUALS_MEMORY
	test	eax, eax
	jne	SHORT $LN17@TEST_DivRe
	mov	DWORD PTR tv197[rbp], 1
	jmp	SHORT $LN18@TEST_DivRe
$LN17@TEST_DivRe:
	mov	DWORD PTR tv197[rbp], 0
$LN18@TEST_DivRe:
	mov	r8d, 6
	mov	edx, DWORD PTR no$[rbp]
	lea	rcx, OFFSET FLAT:??_C@_1CG@DEJBHKJI@?$AAD?$AAi?$AAv?$AAR?$AAe?$AAm?$AA_?$AAX?$AA_?$AAX?$AA?5?$AA?$CI?$AA?$CF?$AAd?$AA?4@
	call	FormatTestLabel
	lea	r9, OFFSET FLAT:??_C@_1BE@OEODMBIH@?$AAF?$AAn?$AA$?$AAL?$AA?$AA?$PP?t?$AAW?$AAj?$AAD@
	mov	r8d, DWORD PTR tv197[rbp]
	mov	rdx, rax
	mov	rcx, QWORD PTR env$[rbp]
	call	TEST_Assert

; 232  :         TEST_Assert(env, FormatTestLabel(L"DivRem_X_X (%d.%d)", no, 7), _EQUALS_MEMORY(actual_r_buf, actual_r_buf_size, desired_r_buf, desired_r_buf_size) == 0, L"剰余の値が一致しない");

	mov	r9, QWORD PTR desired_r_buf_size$[rbp]
	mov	r8, QWORD PTR desired_r_buf$[rbp]
	mov	rdx, QWORD PTR actual_r_buf_size$[rbp]
	lea	rcx, QWORD PTR actual_r_buf$[rbp]
	call	_EQUALS_MEMORY
	test	eax, eax
	jne	SHORT $LN19@TEST_DivRe
	mov	DWORD PTR tv212[rbp], 1
	jmp	SHORT $LN20@TEST_DivRe
$LN19@TEST_DivRe:
	mov	DWORD PTR tv212[rbp], 0
$LN20@TEST_DivRe:
	mov	r8d, 7
	mov	edx, DWORD PTR no$[rbp]
	lea	rcx, OFFSET FLAT:??_C@_1CG@DEJBHKJI@?$AAD?$AAi?$AAv?$AAR?$AAe?$AAm?$AA_?$AAX?$AA_?$AAX?$AA?5?$AA?$CI?$AA?$CF?$AAd?$AA?4@
	call	FormatTestLabel
	lea	r9, OFFSET FLAT:??_C@_1BG@BPGLFLF@?$AAp?$AAY?$AAn?$AA$?$AAL?$AA?$AA?$PP?t?$AAW?$AAj?$AAD@
	mov	r8d, DWORD PTR tv212[rbp]
	mov	rdx, rax
	mov	rcx, QWORD PTR env$[rbp]
	call	TEST_Assert
$LN2@TEST_DivRe:

; 233  :     }
; 234  :     if (q_r_result == PMC_STATUS_OK)

	cmp	DWORD PTR q_r_result$[rbp], 0
	jne	SHORT $LN3@TEST_DivRe

; 235  :     {
; 236  :         ep->Dispose(q);

	mov	rcx, QWORD PTR q$[rbp]
	mov	rax, QWORD PTR ep$[rbp]
	call	QWORD PTR [rax+576]

; 237  :         ep->Dispose(r);

	mov	rcx, QWORD PTR r$[rbp]
	mov	rax, QWORD PTR ep$[rbp]
	call	QWORD PTR [rax+576]
$LN3@TEST_DivRe:

; 238  :     }
; 239  :     if (v_result == PMC_STATUS_OK)

	cmp	DWORD PTR v_result$[rbp], 0
	jne	SHORT $LN4@TEST_DivRe

; 240  :         ep->Dispose(v);

	mov	rcx, QWORD PTR v$[rbp]
	mov	rax, QWORD PTR ep$[rbp]
	call	QWORD PTR [rax+576]
$LN4@TEST_DivRe:

; 241  :     if (u_result == PMC_STATUS_OK)

	cmp	DWORD PTR u_result$[rbp], 0
	jne	SHORT $LN5@TEST_DivRe

; 242  :         ep->Dispose(u);

	mov	rcx, QWORD PTR u$[rbp]
	mov	rax, QWORD PTR ep$[rbp]
	call	QWORD PTR [rax+576]
$LN5@TEST_DivRe:

; 243  : }

	lea	rcx, QWORD PTR [rbp-32]
	lea	rdx, OFFSET FLAT:TEST_DivRem_X_X$rtcFrameData
	call	_RTC_CheckStackVars
	mov	rcx, QWORD PTR __$ArrayPad$[rbp]
	xor	rcx, rbp
	call	__security_check_cookie
	lea	rsp, QWORD PTR [rbp+1304]
	pop	rdi
	pop	rbp
	ret	0
TEST_DivRem_X_X ENDP
_TEXT	ENDS
; Function compile flags: /Odtp /RTCsu /ZI
; File z:\sources\lunor\repos\rougemeilland\palmtree.math.core.sint\palmtree.math.core.sint\test_op_divrem.c
;	COMDAT TEST_DivRem_X_UX
_TEXT	SEGMENT
u$ = 8
v$ = 40
q$ = 72
r$ = 104
actual_q_buf$ = 144
actual_q_buf_size$ = 424
actual_r_buf$ = 464
actual_r_buf_size$ = 744
result$ = 772
u_result$ = 804
v_result$ = 836
q_r_result$ = 868
tv212 = 1268
tv197 = 1268
tv182 = 1268
tv163 = 1268
tv143 = 1268
tv92 = 1268
tv74 = 1268
tv171 = 1272
tv152 = 1272
tv132 = 1272
tv82 = 1272
tv64 = 1272
__$ArrayPad$ = 1280
env$ = 1328
ep$ = 1336
no$ = 1344
u_buf$ = 1352
u_buf_size$ = 1360
v_buf$ = 1368
v_buf_size$ = 1376
desired_return_code$ = 1384
desired_q_buf$ = 1392
desired_q_buf_size$ = 1400
desired_r_buf$ = 1408
desired_r_buf_size$ = 1416
TEST_DivRem_X_UX PROC					; COMDAT

; 176  : {

$LN21:
	mov	QWORD PTR [rsp+32], r9
	mov	DWORD PTR [rsp+24], r8d
	mov	QWORD PTR [rsp+16], rdx
	mov	QWORD PTR [rsp+8], rcx
	push	rbp
	push	rdi
	sub	rsp, 1336				; 00000538H
	lea	rbp, QWORD PTR [rsp+32]
	mov	rdi, rsp
	mov	ecx, 334				; 0000014eH
	mov	eax, -858993460				; ccccccccH
	rep stosd
	mov	rcx, QWORD PTR [rsp+1368]
	mov	rax, QWORD PTR __security_cookie
	xor	rax, rbp
	mov	QWORD PTR __$ArrayPad$[rbp], rax
	lea	rcx, OFFSET FLAT:__76EA6F59_test_op_divrem@c
	call	__CheckForDebuggerJustMyCode

; 177  :     PMC_HANDLE_SINT u;
; 178  :     PMC_HANDLE_UINT v;
; 179  :     PMC_HANDLE_SINT q;
; 180  :     PMC_HANDLE_SINT r;
; 181  :     unsigned char actual_q_buf[256];
; 182  :     size_t actual_q_buf_size;
; 183  :     unsigned char actual_r_buf[256];
; 184  :     size_t actual_r_buf_size;
; 185  :     PMC_STATUS_CODE result;
; 186  :     PMC_STATUS_CODE u_result;
; 187  :     PMC_STATUS_CODE v_result;
; 188  :     PMC_STATUS_CODE q_r_result;
; 189  :     TEST_Assert(env, FormatTestLabel(L"DivRem_X_UX (%d.%d)", no, 1), (u_result = ep->FromByteArray(u_buf, u_buf_size, &u)) == PMC_STATUS_OK, FormatTestMesssage(L"FromByteArrayの復帰コードが期待通りではない(%d)", u_result));

	lea	r8, QWORD PTR u$[rbp]
	mov	rdx, QWORD PTR u_buf_size$[rbp]
	mov	rcx, QWORD PTR u_buf$[rbp]
	mov	rax, QWORD PTR ep$[rbp]
	call	QWORD PTR [rax+592]
	mov	DWORD PTR u_result$[rbp], eax
	cmp	DWORD PTR u_result$[rbp], 0
	jne	SHORT $LN7@TEST_DivRe
	mov	DWORD PTR tv74[rbp], 1
	jmp	SHORT $LN8@TEST_DivRe
$LN7@TEST_DivRe:
	mov	DWORD PTR tv74[rbp], 0
$LN8@TEST_DivRe:
	mov	edx, DWORD PTR u_result$[rbp]
	lea	rcx, OFFSET FLAT:??_C@_1EC@NPMCAPKO@?$AAF?$AAr?$AAo?$AAm?$AAB?$AAy?$AAt?$AAe?$AAA?$AAr?$AAr?$AAa?$AAy?$AAn?$PP?$KJ@
	call	FormatTestMesssage
	mov	QWORD PTR tv64[rbp], rax
	mov	r8d, 1
	mov	edx, DWORD PTR no$[rbp]
	lea	rcx, OFFSET FLAT:??_C@_1CI@MCEJJFCK@?$AAD?$AAi?$AAv?$AAR?$AAe?$AAm?$AA_?$AAX?$AA_?$AAU?$AAX?$AA?5?$AA?$CI?$AA?$CF?$AAd@
	call	FormatTestLabel
	mov	rcx, QWORD PTR tv64[rbp]
	mov	r9, rcx
	mov	r8d, DWORD PTR tv74[rbp]
	mov	rdx, rax
	mov	rcx, QWORD PTR env$[rbp]
	call	TEST_Assert

; 190  :     TEST_Assert(env, FormatTestLabel(L"DivRem_X_UX (%d.%d)", no, 2), (v_result = ep->UINT_ENTRY_POINTS.FromByteArray(v_buf, v_buf_size, &v)) == PMC_STATUS_OK, FormatTestMesssage(L"FromByteArrayの復帰コードが期待通りではない(%d)", v_result));

	lea	r8, QWORD PTR v$[rbp]
	mov	rdx, QWORD PTR v_buf_size$[rbp]
	mov	rcx, QWORD PTR v_buf$[rbp]
	mov	rax, QWORD PTR ep$[rbp]
	call	QWORD PTR [rax+48]
	mov	DWORD PTR v_result$[rbp], eax
	cmp	DWORD PTR v_result$[rbp], 0
	jne	SHORT $LN9@TEST_DivRe
	mov	DWORD PTR tv92[rbp], 1
	jmp	SHORT $LN10@TEST_DivRe
$LN9@TEST_DivRe:
	mov	DWORD PTR tv92[rbp], 0
$LN10@TEST_DivRe:
	mov	edx, DWORD PTR v_result$[rbp]
	lea	rcx, OFFSET FLAT:??_C@_1EC@NPMCAPKO@?$AAF?$AAr?$AAo?$AAm?$AAB?$AAy?$AAt?$AAe?$AAA?$AAr?$AAr?$AAa?$AAy?$AAn?$PP?$KJ@
	call	FormatTestMesssage
	mov	QWORD PTR tv82[rbp], rax
	mov	r8d, 2
	mov	edx, DWORD PTR no$[rbp]
	lea	rcx, OFFSET FLAT:??_C@_1CI@MCEJJFCK@?$AAD?$AAi?$AAv?$AAR?$AAe?$AAm?$AA_?$AAX?$AA_?$AAU?$AAX?$AA?5?$AA?$CI?$AA?$CF?$AAd@
	call	FormatTestLabel
	mov	rcx, QWORD PTR tv82[rbp]
	mov	r9, rcx
	mov	r8d, DWORD PTR tv92[rbp]
	mov	rdx, rax
	mov	rcx, QWORD PTR env$[rbp]
	call	TEST_Assert

; 191  :     TEST_Assert(env, FormatTestLabel(L"DivRem_X_UX (%d.%d)", no, 3), (q_r_result = ep->DivRem_X_UX(u, v, &q, &r)) == desired_return_code, FormatTestMesssage(L"DivRem_X_UXの復帰コードが期待通りではない(%d)", q_r_result));

	lea	r9, QWORD PTR r$[rbp]
	lea	r8, QWORD PTR q$[rbp]
	mov	rdx, QWORD PTR v$[rbp]
	mov	rcx, QWORD PTR u$[rbp]
	mov	rax, QWORD PTR ep$[rbp]
	call	QWORD PTR [rax+848]
	mov	DWORD PTR q_r_result$[rbp], eax
	mov	eax, DWORD PTR desired_return_code$[rbp]
	cmp	DWORD PTR q_r_result$[rbp], eax
	jne	SHORT $LN11@TEST_DivRe
	mov	DWORD PTR tv143[rbp], 1
	jmp	SHORT $LN12@TEST_DivRe
$LN11@TEST_DivRe:
	mov	DWORD PTR tv143[rbp], 0
$LN12@TEST_DivRe:
	mov	edx, DWORD PTR q_r_result$[rbp]
	lea	rcx, OFFSET FLAT:??_C@_1DO@LADEACKM@?$AAD?$AAi?$AAv?$AAR?$AAe?$AAm?$AA_?$AAX?$AA_?$AAU?$AAX?$AAn?$PP?$KJ?$AA0?$PP?$LD@
	call	FormatTestMesssage
	mov	QWORD PTR tv132[rbp], rax
	mov	r8d, 3
	mov	edx, DWORD PTR no$[rbp]
	lea	rcx, OFFSET FLAT:??_C@_1CI@MCEJJFCK@?$AAD?$AAi?$AAv?$AAR?$AAe?$AAm?$AA_?$AAX?$AA_?$AAU?$AAX?$AA?5?$AA?$CI?$AA?$CF?$AAd@
	call	FormatTestLabel
	mov	rcx, QWORD PTR tv132[rbp]
	mov	r9, rcx
	mov	r8d, DWORD PTR tv143[rbp]
	mov	rdx, rax
	mov	rcx, QWORD PTR env$[rbp]
	call	TEST_Assert

; 192  :     if (desired_return_code == PMC_STATUS_OK)

	cmp	DWORD PTR desired_return_code$[rbp], 0
	jne	$LN2@TEST_DivRe

; 193  :     {
; 194  :         TEST_Assert(env, FormatTestLabel(L"DivRem_X_UX (%d.%d)", no, 4), (result = ep->ToByteArray(q, actual_q_buf, sizeof(actual_q_buf), &actual_q_buf_size)) == PMC_STATUS_OK, FormatTestMesssage(L"ToByteArrayの復帰コードが期待通りではない(%d)", result));

	lea	r9, QWORD PTR actual_q_buf_size$[rbp]
	mov	r8d, 256				; 00000100H
	lea	rdx, QWORD PTR actual_q_buf$[rbp]
	mov	rcx, QWORD PTR q$[rbp]
	mov	rax, QWORD PTR ep$[rbp]
	call	QWORD PTR [rax+600]
	mov	DWORD PTR result$[rbp], eax
	cmp	DWORD PTR result$[rbp], 0
	jne	SHORT $LN13@TEST_DivRe
	mov	DWORD PTR tv163[rbp], 1
	jmp	SHORT $LN14@TEST_DivRe
$LN13@TEST_DivRe:
	mov	DWORD PTR tv163[rbp], 0
$LN14@TEST_DivRe:
	mov	edx, DWORD PTR result$[rbp]
	lea	rcx, OFFSET FLAT:??_C@_1DO@DOHJEMND@?$AAT?$AAo?$AAB?$AAy?$AAt?$AAe?$AAA?$AAr?$AAr?$AAa?$AAy?$AAn?$PP?$KJ?$AA0?$PP?$LD@
	call	FormatTestMesssage
	mov	QWORD PTR tv152[rbp], rax
	mov	r8d, 4
	mov	edx, DWORD PTR no$[rbp]
	lea	rcx, OFFSET FLAT:??_C@_1CI@MCEJJFCK@?$AAD?$AAi?$AAv?$AAR?$AAe?$AAm?$AA_?$AAX?$AA_?$AAU?$AAX?$AA?5?$AA?$CI?$AA?$CF?$AAd@
	call	FormatTestLabel
	mov	rcx, QWORD PTR tv152[rbp]
	mov	r9, rcx
	mov	r8d, DWORD PTR tv163[rbp]
	mov	rdx, rax
	mov	rcx, QWORD PTR env$[rbp]
	call	TEST_Assert

; 195  :         TEST_Assert(env, FormatTestLabel(L"DivRem_X_UX (%d.%d)", no, 5), (result = ep->ToByteArray(r, actual_r_buf, sizeof(actual_r_buf), &actual_r_buf_size)) == PMC_STATUS_OK, FormatTestMesssage(L"ToByteArrayの復帰コードが期待通りではない(%d)", result));

	lea	r9, QWORD PTR actual_r_buf_size$[rbp]
	mov	r8d, 256				; 00000100H
	lea	rdx, QWORD PTR actual_r_buf$[rbp]
	mov	rcx, QWORD PTR r$[rbp]
	mov	rax, QWORD PTR ep$[rbp]
	call	QWORD PTR [rax+600]
	mov	DWORD PTR result$[rbp], eax
	cmp	DWORD PTR result$[rbp], 0
	jne	SHORT $LN15@TEST_DivRe
	mov	DWORD PTR tv182[rbp], 1
	jmp	SHORT $LN16@TEST_DivRe
$LN15@TEST_DivRe:
	mov	DWORD PTR tv182[rbp], 0
$LN16@TEST_DivRe:
	mov	edx, DWORD PTR result$[rbp]
	lea	rcx, OFFSET FLAT:??_C@_1DO@DOHJEMND@?$AAT?$AAo?$AAB?$AAy?$AAt?$AAe?$AAA?$AAr?$AAr?$AAa?$AAy?$AAn?$PP?$KJ?$AA0?$PP?$LD@
	call	FormatTestMesssage
	mov	QWORD PTR tv171[rbp], rax
	mov	r8d, 5
	mov	edx, DWORD PTR no$[rbp]
	lea	rcx, OFFSET FLAT:??_C@_1CI@MCEJJFCK@?$AAD?$AAi?$AAv?$AAR?$AAe?$AAm?$AA_?$AAX?$AA_?$AAU?$AAX?$AA?5?$AA?$CI?$AA?$CF?$AAd@
	call	FormatTestLabel
	mov	rcx, QWORD PTR tv171[rbp]
	mov	r9, rcx
	mov	r8d, DWORD PTR tv182[rbp]
	mov	rdx, rax
	mov	rcx, QWORD PTR env$[rbp]
	call	TEST_Assert

; 196  :         TEST_Assert(env, FormatTestLabel(L"DivRem_X_UX (%d.%d)", no, 6), _EQUALS_MEMORY(actual_q_buf, actual_q_buf_size, desired_q_buf, desired_q_buf_size) == 0, L"商の値が一致しない");

	mov	r9, QWORD PTR desired_q_buf_size$[rbp]
	mov	r8, QWORD PTR desired_q_buf$[rbp]
	mov	rdx, QWORD PTR actual_q_buf_size$[rbp]
	lea	rcx, QWORD PTR actual_q_buf$[rbp]
	call	_EQUALS_MEMORY
	test	eax, eax
	jne	SHORT $LN17@TEST_DivRe
	mov	DWORD PTR tv197[rbp], 1
	jmp	SHORT $LN18@TEST_DivRe
$LN17@TEST_DivRe:
	mov	DWORD PTR tv197[rbp], 0
$LN18@TEST_DivRe:
	mov	r8d, 6
	mov	edx, DWORD PTR no$[rbp]
	lea	rcx, OFFSET FLAT:??_C@_1CI@MCEJJFCK@?$AAD?$AAi?$AAv?$AAR?$AAe?$AAm?$AA_?$AAX?$AA_?$AAU?$AAX?$AA?5?$AA?$CI?$AA?$CF?$AAd@
	call	FormatTestLabel
	lea	r9, OFFSET FLAT:??_C@_1BE@OEODMBIH@?$AAF?$AAn?$AA$?$AAL?$AA?$AA?$PP?t?$AAW?$AAj?$AAD@
	mov	r8d, DWORD PTR tv197[rbp]
	mov	rdx, rax
	mov	rcx, QWORD PTR env$[rbp]
	call	TEST_Assert

; 197  :         TEST_Assert(env, FormatTestLabel(L"DivRem_X_UX (%d.%d)", no, 7), _EQUALS_MEMORY(actual_r_buf, actual_r_buf_size, desired_r_buf, desired_r_buf_size) == 0, L"剰余の値が一致しない");

	mov	r9, QWORD PTR desired_r_buf_size$[rbp]
	mov	r8, QWORD PTR desired_r_buf$[rbp]
	mov	rdx, QWORD PTR actual_r_buf_size$[rbp]
	lea	rcx, QWORD PTR actual_r_buf$[rbp]
	call	_EQUALS_MEMORY
	test	eax, eax
	jne	SHORT $LN19@TEST_DivRe
	mov	DWORD PTR tv212[rbp], 1
	jmp	SHORT $LN20@TEST_DivRe
$LN19@TEST_DivRe:
	mov	DWORD PTR tv212[rbp], 0
$LN20@TEST_DivRe:
	mov	r8d, 7
	mov	edx, DWORD PTR no$[rbp]
	lea	rcx, OFFSET FLAT:??_C@_1CI@MCEJJFCK@?$AAD?$AAi?$AAv?$AAR?$AAe?$AAm?$AA_?$AAX?$AA_?$AAU?$AAX?$AA?5?$AA?$CI?$AA?$CF?$AAd@
	call	FormatTestLabel
	lea	r9, OFFSET FLAT:??_C@_1BG@BPGLFLF@?$AAp?$AAY?$AAn?$AA$?$AAL?$AA?$AA?$PP?t?$AAW?$AAj?$AAD@
	mov	r8d, DWORD PTR tv212[rbp]
	mov	rdx, rax
	mov	rcx, QWORD PTR env$[rbp]
	call	TEST_Assert
$LN2@TEST_DivRe:

; 198  :     }
; 199  :     if (q_r_result == PMC_STATUS_OK)

	cmp	DWORD PTR q_r_result$[rbp], 0
	jne	SHORT $LN3@TEST_DivRe

; 200  :     {
; 201  :         ep->Dispose(q);

	mov	rcx, QWORD PTR q$[rbp]
	mov	rax, QWORD PTR ep$[rbp]
	call	QWORD PTR [rax+576]

; 202  :         ep->Dispose(r);

	mov	rcx, QWORD PTR r$[rbp]
	mov	rax, QWORD PTR ep$[rbp]
	call	QWORD PTR [rax+576]
$LN3@TEST_DivRe:

; 203  :     }
; 204  :     if (v_result == PMC_STATUS_OK)

	cmp	DWORD PTR v_result$[rbp], 0
	jne	SHORT $LN4@TEST_DivRe

; 205  :         ep->UINT_ENTRY_POINTS.Dispose(v);

	mov	rcx, QWORD PTR v$[rbp]
	mov	rax, QWORD PTR ep$[rbp]
	call	QWORD PTR [rax+32]
$LN4@TEST_DivRe:

; 206  :     if (u_result == PMC_STATUS_OK)

	cmp	DWORD PTR u_result$[rbp], 0
	jne	SHORT $LN5@TEST_DivRe

; 207  :         ep->Dispose(u);

	mov	rcx, QWORD PTR u$[rbp]
	mov	rax, QWORD PTR ep$[rbp]
	call	QWORD PTR [rax+576]
$LN5@TEST_DivRe:

; 208  : }

	lea	rcx, QWORD PTR [rbp-32]
	lea	rdx, OFFSET FLAT:TEST_DivRem_X_UX$rtcFrameData
	call	_RTC_CheckStackVars
	mov	rcx, QWORD PTR __$ArrayPad$[rbp]
	xor	rcx, rbp
	call	__security_check_cookie
	lea	rsp, QWORD PTR [rbp+1304]
	pop	rdi
	pop	rbp
	ret	0
TEST_DivRem_X_UX ENDP
_TEXT	ENDS
; Function compile flags: /Odtp /RTCsu /ZI
; File z:\sources\lunor\repos\rougemeilland\palmtree.math.core.sint\palmtree.math.core.sint\test_op_divrem.c
;	COMDAT TEST_DivRem_X_L
_TEXT	SEGMENT
u$ = 8
q$ = 40
actual_q_buf$ = 80
actual_q_buf_size$ = 360
actual_r$ = 392
result$ = 420
u_result$ = 452
q_result$ = 484
tv170 = 884
tv160 = 884
tv145 = 884
tv93 = 884
tv74 = 884
tv134 = 888
tv82 = 888
tv64 = 888
__$ArrayPad$ = 896
env$ = 944
ep$ = 952
no$ = 960
u_buf$ = 968
u_buf_size$ = 976
v$ = 984
desired_return_code$ = 992
desired_q_buf$ = 1000
desired_q_buf_size$ = 1008
desired_r$ = 1016
TEST_DivRem_X_L PROC					; COMDAT

; 152  : {

$LN16:
	mov	QWORD PTR [rsp+32], r9
	mov	DWORD PTR [rsp+24], r8d
	mov	QWORD PTR [rsp+16], rdx
	mov	QWORD PTR [rsp+8], rcx
	push	rbp
	push	rdi
	sub	rsp, 952				; 000003b8H
	lea	rbp, QWORD PTR [rsp+32]
	mov	rdi, rsp
	mov	ecx, 238				; 000000eeH
	mov	eax, -858993460				; ccccccccH
	rep stosd
	mov	rcx, QWORD PTR [rsp+984]
	mov	rax, QWORD PTR __security_cookie
	xor	rax, rbp
	mov	QWORD PTR __$ArrayPad$[rbp], rax
	lea	rcx, OFFSET FLAT:__76EA6F59_test_op_divrem@c
	call	__CheckForDebuggerJustMyCode

; 153  :     PMC_HANDLE_SINT u;
; 154  :     PMC_HANDLE_SINT q;
; 155  :     unsigned char actual_q_buf[256];
; 156  :     size_t actual_q_buf_size;
; 157  :     __int64 actual_r;
; 158  :     PMC_STATUS_CODE result;
; 159  :     PMC_STATUS_CODE u_result;
; 160  :     PMC_STATUS_CODE q_result;
; 161  :     TEST_Assert(env, FormatTestLabel(L"DivRem_X_L (%d.%d)", no, 1), (u_result = ep->FromByteArray(u_buf, u_buf_size, &u)) == PMC_STATUS_OK, FormatTestMesssage(L"FromByteArrayの復帰コードが期待通りではない(%d)", u_result));

	lea	r8, QWORD PTR u$[rbp]
	mov	rdx, QWORD PTR u_buf_size$[rbp]
	mov	rcx, QWORD PTR u_buf$[rbp]
	mov	rax, QWORD PTR ep$[rbp]
	call	QWORD PTR [rax+592]
	mov	DWORD PTR u_result$[rbp], eax
	cmp	DWORD PTR u_result$[rbp], 0
	jne	SHORT $LN6@TEST_DivRe
	mov	DWORD PTR tv74[rbp], 1
	jmp	SHORT $LN7@TEST_DivRe
$LN6@TEST_DivRe:
	mov	DWORD PTR tv74[rbp], 0
$LN7@TEST_DivRe:
	mov	edx, DWORD PTR u_result$[rbp]
	lea	rcx, OFFSET FLAT:??_C@_1EC@NPMCAPKO@?$AAF?$AAr?$AAo?$AAm?$AAB?$AAy?$AAt?$AAe?$AAA?$AAr?$AAr?$AAa?$AAy?$AAn?$PP?$KJ@
	call	FormatTestMesssage
	mov	QWORD PTR tv64[rbp], rax
	mov	r8d, 1
	mov	edx, DWORD PTR no$[rbp]
	lea	rcx, OFFSET FLAT:??_C@_1CG@JKLKDKOE@?$AAD?$AAi?$AAv?$AAR?$AAe?$AAm?$AA_?$AAX?$AA_?$AAL?$AA?5?$AA?$CI?$AA?$CF?$AAd?$AA?4@
	call	FormatTestLabel
	mov	rcx, QWORD PTR tv64[rbp]
	mov	r9, rcx
	mov	r8d, DWORD PTR tv74[rbp]
	mov	rdx, rax
	mov	rcx, QWORD PTR env$[rbp]
	call	TEST_Assert

; 162  :     TEST_Assert(env, FormatTestLabel(L"DivRem_X_L (%d.%d)", no, 2), (q_result = ep->DivRem_X_L(u, v, &q, &actual_r)) == desired_return_code, FormatTestMesssage(L"DivRem_X_Lの復帰コードが期待通りではない(%d)", q_result));

	lea	r9, QWORD PTR actual_r$[rbp]
	lea	r8, QWORD PTR q$[rbp]
	mov	rdx, QWORD PTR v$[rbp]
	mov	rcx, QWORD PTR u$[rbp]
	mov	rax, QWORD PTR ep$[rbp]
	call	QWORD PTR [rax+840]
	mov	DWORD PTR q_result$[rbp], eax
	mov	eax, DWORD PTR desired_return_code$[rbp]
	cmp	DWORD PTR q_result$[rbp], eax
	jne	SHORT $LN8@TEST_DivRe
	mov	DWORD PTR tv93[rbp], 1
	jmp	SHORT $LN9@TEST_DivRe
$LN8@TEST_DivRe:
	mov	DWORD PTR tv93[rbp], 0
$LN9@TEST_DivRe:
	mov	edx, DWORD PTR q_result$[rbp]
	lea	rcx, OFFSET FLAT:??_C@_1DM@ELDKLHAI@?$AAD?$AAi?$AAv?$AAR?$AAe?$AAm?$AA_?$AAX?$AA_?$AAL?$AAn?$PP?$KJ?$AA0?$PP?$LD?$PP?$PM@
	call	FormatTestMesssage
	mov	QWORD PTR tv82[rbp], rax
	mov	r8d, 2
	mov	edx, DWORD PTR no$[rbp]
	lea	rcx, OFFSET FLAT:??_C@_1CG@JKLKDKOE@?$AAD?$AAi?$AAv?$AAR?$AAe?$AAm?$AA_?$AAX?$AA_?$AAL?$AA?5?$AA?$CI?$AA?$CF?$AAd?$AA?4@
	call	FormatTestLabel
	mov	rcx, QWORD PTR tv82[rbp]
	mov	r9, rcx
	mov	r8d, DWORD PTR tv93[rbp]
	mov	rdx, rax
	mov	rcx, QWORD PTR env$[rbp]
	call	TEST_Assert

; 163  :     if (desired_return_code == PMC_STATUS_OK)

	cmp	DWORD PTR desired_return_code$[rbp], 0
	jne	$LN2@TEST_DivRe

; 164  :     {
; 165  :         TEST_Assert(env, FormatTestLabel(L"DivRem_X_L (%d.%d)", no, 3), (result = ep->ToByteArray(q, actual_q_buf, sizeof(actual_q_buf), &actual_q_buf_size)) == PMC_STATUS_OK, FormatTestMesssage(L"ToByteArrayの復帰コードが期待通りではない(%d)", result));

	lea	r9, QWORD PTR actual_q_buf_size$[rbp]
	mov	r8d, 256				; 00000100H
	lea	rdx, QWORD PTR actual_q_buf$[rbp]
	mov	rcx, QWORD PTR q$[rbp]
	mov	rax, QWORD PTR ep$[rbp]
	call	QWORD PTR [rax+600]
	mov	DWORD PTR result$[rbp], eax
	cmp	DWORD PTR result$[rbp], 0
	jne	SHORT $LN10@TEST_DivRe
	mov	DWORD PTR tv145[rbp], 1
	jmp	SHORT $LN11@TEST_DivRe
$LN10@TEST_DivRe:
	mov	DWORD PTR tv145[rbp], 0
$LN11@TEST_DivRe:
	mov	edx, DWORD PTR result$[rbp]
	lea	rcx, OFFSET FLAT:??_C@_1DO@DOHJEMND@?$AAT?$AAo?$AAB?$AAy?$AAt?$AAe?$AAA?$AAr?$AAr?$AAa?$AAy?$AAn?$PP?$KJ?$AA0?$PP?$LD@
	call	FormatTestMesssage
	mov	QWORD PTR tv134[rbp], rax
	mov	r8d, 3
	mov	edx, DWORD PTR no$[rbp]
	lea	rcx, OFFSET FLAT:??_C@_1CG@JKLKDKOE@?$AAD?$AAi?$AAv?$AAR?$AAe?$AAm?$AA_?$AAX?$AA_?$AAL?$AA?5?$AA?$CI?$AA?$CF?$AAd?$AA?4@
	call	FormatTestLabel
	mov	rcx, QWORD PTR tv134[rbp]
	mov	r9, rcx
	mov	r8d, DWORD PTR tv145[rbp]
	mov	rdx, rax
	mov	rcx, QWORD PTR env$[rbp]
	call	TEST_Assert

; 166  :         TEST_Assert(env, FormatTestLabel(L"DivRem_X_L (%d.%d)", no, 4), _EQUALS_MEMORY(actual_q_buf, actual_q_buf_size, desired_q_buf, desired_q_buf_size) == 0, L"商の値が一致しない");

	mov	r9, QWORD PTR desired_q_buf_size$[rbp]
	mov	r8, QWORD PTR desired_q_buf$[rbp]
	mov	rdx, QWORD PTR actual_q_buf_size$[rbp]
	lea	rcx, QWORD PTR actual_q_buf$[rbp]
	call	_EQUALS_MEMORY
	test	eax, eax
	jne	SHORT $LN12@TEST_DivRe
	mov	DWORD PTR tv160[rbp], 1
	jmp	SHORT $LN13@TEST_DivRe
$LN12@TEST_DivRe:
	mov	DWORD PTR tv160[rbp], 0
$LN13@TEST_DivRe:
	mov	r8d, 4
	mov	edx, DWORD PTR no$[rbp]
	lea	rcx, OFFSET FLAT:??_C@_1CG@JKLKDKOE@?$AAD?$AAi?$AAv?$AAR?$AAe?$AAm?$AA_?$AAX?$AA_?$AAL?$AA?5?$AA?$CI?$AA?$CF?$AAd?$AA?4@
	call	FormatTestLabel
	lea	r9, OFFSET FLAT:??_C@_1BE@OEODMBIH@?$AAF?$AAn?$AA$?$AAL?$AA?$AA?$PP?t?$AAW?$AAj?$AAD@
	mov	r8d, DWORD PTR tv160[rbp]
	mov	rdx, rax
	mov	rcx, QWORD PTR env$[rbp]
	call	TEST_Assert

; 167  :         TEST_Assert(env, FormatTestLabel(L"DivRem_X_L (%d.%d)", no, 5), actual_r == desired_r, L"剰余の値が一致しない");

	mov	rax, QWORD PTR desired_r$[rbp]
	cmp	QWORD PTR actual_r$[rbp], rax
	jne	SHORT $LN14@TEST_DivRe
	mov	DWORD PTR tv170[rbp], 1
	jmp	SHORT $LN15@TEST_DivRe
$LN14@TEST_DivRe:
	mov	DWORD PTR tv170[rbp], 0
$LN15@TEST_DivRe:
	mov	r8d, 5
	mov	edx, DWORD PTR no$[rbp]
	lea	rcx, OFFSET FLAT:??_C@_1CG@JKLKDKOE@?$AAD?$AAi?$AAv?$AAR?$AAe?$AAm?$AA_?$AAX?$AA_?$AAL?$AA?5?$AA?$CI?$AA?$CF?$AAd?$AA?4@
	call	FormatTestLabel
	lea	r9, OFFSET FLAT:??_C@_1BG@BPGLFLF@?$AAp?$AAY?$AAn?$AA$?$AAL?$AA?$AA?$PP?t?$AAW?$AAj?$AAD@
	mov	r8d, DWORD PTR tv170[rbp]
	mov	rdx, rax
	mov	rcx, QWORD PTR env$[rbp]
	call	TEST_Assert
$LN2@TEST_DivRe:

; 168  :     }
; 169  :     if (q_result == PMC_STATUS_OK)

	cmp	DWORD PTR q_result$[rbp], 0
	jne	SHORT $LN3@TEST_DivRe

; 170  :         ep->Dispose(q);

	mov	rcx, QWORD PTR q$[rbp]
	mov	rax, QWORD PTR ep$[rbp]
	call	QWORD PTR [rax+576]
$LN3@TEST_DivRe:

; 171  :     if (u_result == PMC_STATUS_OK)

	cmp	DWORD PTR u_result$[rbp], 0
	jne	SHORT $LN4@TEST_DivRe

; 172  :         ep->Dispose(u);

	mov	rcx, QWORD PTR u$[rbp]
	mov	rax, QWORD PTR ep$[rbp]
	call	QWORD PTR [rax+576]
$LN4@TEST_DivRe:

; 173  : }

	lea	rcx, QWORD PTR [rbp-32]
	lea	rdx, OFFSET FLAT:TEST_DivRem_X_L$rtcFrameData
	call	_RTC_CheckStackVars
	mov	rcx, QWORD PTR __$ArrayPad$[rbp]
	xor	rcx, rbp
	call	__security_check_cookie
	lea	rsp, QWORD PTR [rbp+920]
	pop	rdi
	pop	rbp
	ret	0
TEST_DivRem_X_L ENDP
_TEXT	ENDS
; Function compile flags: /Odtp /RTCsu /ZI
; File z:\sources\lunor\repos\rougemeilland\palmtree.math.core.sint\palmtree.math.core.sint\test_op_divrem.c
;	COMDAT TEST_DivRem_X_I
_TEXT	SEGMENT
u$ = 8
q$ = 40
actual_q_buf$ = 80
actual_q_buf_size$ = 360
actual_r$ = 388
result$ = 420
u_result$ = 452
q_result$ = 484
tv170 = 884
tv160 = 884
tv145 = 884
tv93 = 884
tv74 = 884
tv134 = 888
tv82 = 888
tv64 = 888
__$ArrayPad$ = 896
env$ = 944
ep$ = 952
no$ = 960
u_buf$ = 968
u_buf_size$ = 976
v$ = 984
desired_return_code$ = 992
desired_q_buf$ = 1000
desired_q_buf_size$ = 1008
desired_r$ = 1016
TEST_DivRem_X_I PROC					; COMDAT

; 128  : {

$LN16:
	mov	QWORD PTR [rsp+32], r9
	mov	DWORD PTR [rsp+24], r8d
	mov	QWORD PTR [rsp+16], rdx
	mov	QWORD PTR [rsp+8], rcx
	push	rbp
	push	rdi
	sub	rsp, 952				; 000003b8H
	lea	rbp, QWORD PTR [rsp+32]
	mov	rdi, rsp
	mov	ecx, 238				; 000000eeH
	mov	eax, -858993460				; ccccccccH
	rep stosd
	mov	rcx, QWORD PTR [rsp+984]
	mov	rax, QWORD PTR __security_cookie
	xor	rax, rbp
	mov	QWORD PTR __$ArrayPad$[rbp], rax
	lea	rcx, OFFSET FLAT:__76EA6F59_test_op_divrem@c
	call	__CheckForDebuggerJustMyCode

; 129  :     PMC_HANDLE_SINT u;
; 130  :     PMC_HANDLE_SINT q;
; 131  :     unsigned char actual_q_buf[256];
; 132  :     size_t actual_q_buf_size;
; 133  :     __int32 actual_r;
; 134  :     PMC_STATUS_CODE result;
; 135  :     PMC_STATUS_CODE u_result;
; 136  :     PMC_STATUS_CODE q_result;
; 137  :     TEST_Assert(env, FormatTestLabel(L"DivRem_X_I (%d.%d)", no, 1), (u_result = ep->FromByteArray(u_buf, u_buf_size, &u)) == PMC_STATUS_OK, FormatTestMesssage(L"FromByteArrayの復帰コードが期待通りではない(%d)", u_result));

	lea	r8, QWORD PTR u$[rbp]
	mov	rdx, QWORD PTR u_buf_size$[rbp]
	mov	rcx, QWORD PTR u_buf$[rbp]
	mov	rax, QWORD PTR ep$[rbp]
	call	QWORD PTR [rax+592]
	mov	DWORD PTR u_result$[rbp], eax
	cmp	DWORD PTR u_result$[rbp], 0
	jne	SHORT $LN6@TEST_DivRe
	mov	DWORD PTR tv74[rbp], 1
	jmp	SHORT $LN7@TEST_DivRe
$LN6@TEST_DivRe:
	mov	DWORD PTR tv74[rbp], 0
$LN7@TEST_DivRe:
	mov	edx, DWORD PTR u_result$[rbp]
	lea	rcx, OFFSET FLAT:??_C@_1EC@NPMCAPKO@?$AAF?$AAr?$AAo?$AAm?$AAB?$AAy?$AAt?$AAe?$AAA?$AAr?$AAr?$AAa?$AAy?$AAn?$PP?$KJ@
	call	FormatTestMesssage
	mov	QWORD PTR tv64[rbp], rax
	mov	r8d, 1
	mov	edx, DWORD PTR no$[rbp]
	lea	rcx, OFFSET FLAT:??_C@_1CG@LBDAOKPL@?$AAD?$AAi?$AAv?$AAR?$AAe?$AAm?$AA_?$AAX?$AA_?$AAI?$AA?5?$AA?$CI?$AA?$CF?$AAd?$AA?4@
	call	FormatTestLabel
	mov	rcx, QWORD PTR tv64[rbp]
	mov	r9, rcx
	mov	r8d, DWORD PTR tv74[rbp]
	mov	rdx, rax
	mov	rcx, QWORD PTR env$[rbp]
	call	TEST_Assert

; 138  :     TEST_Assert(env, FormatTestLabel(L"DivRem_X_I (%d.%d)", no, 2), (q_result = ep->DivRem_X_I(u, v, &q, &actual_r)) == desired_return_code, FormatTestMesssage(L"DivRem_X_Iの復帰コードが期待通りではない(%d)", q_result));

	lea	r9, QWORD PTR actual_r$[rbp]
	lea	r8, QWORD PTR q$[rbp]
	mov	edx, DWORD PTR v$[rbp]
	mov	rcx, QWORD PTR u$[rbp]
	mov	rax, QWORD PTR ep$[rbp]
	call	QWORD PTR [rax+832]
	mov	DWORD PTR q_result$[rbp], eax
	mov	eax, DWORD PTR desired_return_code$[rbp]
	cmp	DWORD PTR q_result$[rbp], eax
	jne	SHORT $LN8@TEST_DivRe
	mov	DWORD PTR tv93[rbp], 1
	jmp	SHORT $LN9@TEST_DivRe
$LN8@TEST_DivRe:
	mov	DWORD PTR tv93[rbp], 0
$LN9@TEST_DivRe:
	mov	edx, DWORD PTR q_result$[rbp]
	lea	rcx, OFFSET FLAT:??_C@_1DM@DHGCKJN@?$AAD?$AAi?$AAv?$AAR?$AAe?$AAm?$AA_?$AAX?$AA_?$AAI?$AAn?$PP?$KJ?$AA0?$PP?$LD?$PP?$PM@
	call	FormatTestMesssage
	mov	QWORD PTR tv82[rbp], rax
	mov	r8d, 2
	mov	edx, DWORD PTR no$[rbp]
	lea	rcx, OFFSET FLAT:??_C@_1CG@LBDAOKPL@?$AAD?$AAi?$AAv?$AAR?$AAe?$AAm?$AA_?$AAX?$AA_?$AAI?$AA?5?$AA?$CI?$AA?$CF?$AAd?$AA?4@
	call	FormatTestLabel
	mov	rcx, QWORD PTR tv82[rbp]
	mov	r9, rcx
	mov	r8d, DWORD PTR tv93[rbp]
	mov	rdx, rax
	mov	rcx, QWORD PTR env$[rbp]
	call	TEST_Assert

; 139  :     if (desired_return_code == PMC_STATUS_OK)

	cmp	DWORD PTR desired_return_code$[rbp], 0
	jne	$LN2@TEST_DivRe

; 140  :     {
; 141  :         TEST_Assert(env, FormatTestLabel(L"DivRem_X_I (%d.%d)", no, 3), (result = ep->ToByteArray(q, actual_q_buf, sizeof(actual_q_buf), &actual_q_buf_size)) == PMC_STATUS_OK, FormatTestMesssage(L"ToByteArrayの復帰コードが期待通りではない(%d)", result));

	lea	r9, QWORD PTR actual_q_buf_size$[rbp]
	mov	r8d, 256				; 00000100H
	lea	rdx, QWORD PTR actual_q_buf$[rbp]
	mov	rcx, QWORD PTR q$[rbp]
	mov	rax, QWORD PTR ep$[rbp]
	call	QWORD PTR [rax+600]
	mov	DWORD PTR result$[rbp], eax
	cmp	DWORD PTR result$[rbp], 0
	jne	SHORT $LN10@TEST_DivRe
	mov	DWORD PTR tv145[rbp], 1
	jmp	SHORT $LN11@TEST_DivRe
$LN10@TEST_DivRe:
	mov	DWORD PTR tv145[rbp], 0
$LN11@TEST_DivRe:
	mov	edx, DWORD PTR result$[rbp]
	lea	rcx, OFFSET FLAT:??_C@_1DO@DOHJEMND@?$AAT?$AAo?$AAB?$AAy?$AAt?$AAe?$AAA?$AAr?$AAr?$AAa?$AAy?$AAn?$PP?$KJ?$AA0?$PP?$LD@
	call	FormatTestMesssage
	mov	QWORD PTR tv134[rbp], rax
	mov	r8d, 3
	mov	edx, DWORD PTR no$[rbp]
	lea	rcx, OFFSET FLAT:??_C@_1CG@LBDAOKPL@?$AAD?$AAi?$AAv?$AAR?$AAe?$AAm?$AA_?$AAX?$AA_?$AAI?$AA?5?$AA?$CI?$AA?$CF?$AAd?$AA?4@
	call	FormatTestLabel
	mov	rcx, QWORD PTR tv134[rbp]
	mov	r9, rcx
	mov	r8d, DWORD PTR tv145[rbp]
	mov	rdx, rax
	mov	rcx, QWORD PTR env$[rbp]
	call	TEST_Assert

; 142  :         TEST_Assert(env, FormatTestLabel(L"DivRem_X_I (%d.%d)", no, 4), _EQUALS_MEMORY(actual_q_buf, actual_q_buf_size, desired_q_buf, desired_q_buf_size) == 0, L"商の値が一致しない");

	mov	r9, QWORD PTR desired_q_buf_size$[rbp]
	mov	r8, QWORD PTR desired_q_buf$[rbp]
	mov	rdx, QWORD PTR actual_q_buf_size$[rbp]
	lea	rcx, QWORD PTR actual_q_buf$[rbp]
	call	_EQUALS_MEMORY
	test	eax, eax
	jne	SHORT $LN12@TEST_DivRe
	mov	DWORD PTR tv160[rbp], 1
	jmp	SHORT $LN13@TEST_DivRe
$LN12@TEST_DivRe:
	mov	DWORD PTR tv160[rbp], 0
$LN13@TEST_DivRe:
	mov	r8d, 4
	mov	edx, DWORD PTR no$[rbp]
	lea	rcx, OFFSET FLAT:??_C@_1CG@LBDAOKPL@?$AAD?$AAi?$AAv?$AAR?$AAe?$AAm?$AA_?$AAX?$AA_?$AAI?$AA?5?$AA?$CI?$AA?$CF?$AAd?$AA?4@
	call	FormatTestLabel
	lea	r9, OFFSET FLAT:??_C@_1BE@OEODMBIH@?$AAF?$AAn?$AA$?$AAL?$AA?$AA?$PP?t?$AAW?$AAj?$AAD@
	mov	r8d, DWORD PTR tv160[rbp]
	mov	rdx, rax
	mov	rcx, QWORD PTR env$[rbp]
	call	TEST_Assert

; 143  :         TEST_Assert(env, FormatTestLabel(L"DivRem_X_I (%d.%d)", no, 5), actual_r == desired_r, L"剰余の値が一致しない");

	mov	eax, DWORD PTR desired_r$[rbp]
	cmp	DWORD PTR actual_r$[rbp], eax
	jne	SHORT $LN14@TEST_DivRe
	mov	DWORD PTR tv170[rbp], 1
	jmp	SHORT $LN15@TEST_DivRe
$LN14@TEST_DivRe:
	mov	DWORD PTR tv170[rbp], 0
$LN15@TEST_DivRe:
	mov	r8d, 5
	mov	edx, DWORD PTR no$[rbp]
	lea	rcx, OFFSET FLAT:??_C@_1CG@LBDAOKPL@?$AAD?$AAi?$AAv?$AAR?$AAe?$AAm?$AA_?$AAX?$AA_?$AAI?$AA?5?$AA?$CI?$AA?$CF?$AAd?$AA?4@
	call	FormatTestLabel
	lea	r9, OFFSET FLAT:??_C@_1BG@BPGLFLF@?$AAp?$AAY?$AAn?$AA$?$AAL?$AA?$AA?$PP?t?$AAW?$AAj?$AAD@
	mov	r8d, DWORD PTR tv170[rbp]
	mov	rdx, rax
	mov	rcx, QWORD PTR env$[rbp]
	call	TEST_Assert
$LN2@TEST_DivRe:

; 144  :     }
; 145  :     if (q_result == PMC_STATUS_OK)

	cmp	DWORD PTR q_result$[rbp], 0
	jne	SHORT $LN3@TEST_DivRe

; 146  :         ep->Dispose(q);

	mov	rcx, QWORD PTR q$[rbp]
	mov	rax, QWORD PTR ep$[rbp]
	call	QWORD PTR [rax+576]
$LN3@TEST_DivRe:

; 147  :     if (u_result == PMC_STATUS_OK)

	cmp	DWORD PTR u_result$[rbp], 0
	jne	SHORT $LN4@TEST_DivRe

; 148  :         ep->Dispose(u);

	mov	rcx, QWORD PTR u$[rbp]
	mov	rax, QWORD PTR ep$[rbp]
	call	QWORD PTR [rax+576]
$LN4@TEST_DivRe:

; 149  : }

	lea	rcx, QWORD PTR [rbp-32]
	lea	rdx, OFFSET FLAT:TEST_DivRem_X_I$rtcFrameData
	call	_RTC_CheckStackVars
	mov	rcx, QWORD PTR __$ArrayPad$[rbp]
	xor	rcx, rbp
	call	__security_check_cookie
	lea	rsp, QWORD PTR [rbp+920]
	pop	rdi
	pop	rbp
	ret	0
TEST_DivRem_X_I ENDP
_TEXT	ENDS
; Function compile flags: /Odtp /RTCsu /ZI
; File z:\sources\lunor\repos\rougemeilland\palmtree.math.core.sint\palmtree.math.core.sint\test_op_divrem.c
;	COMDAT TEST_DivRem_UX_X
_TEXT	SEGMENT
u$ = 8
v$ = 40
q$ = 72
r$ = 104
actual_q_buf$ = 144
actual_q_buf_size$ = 424
actual_r_buf$ = 464
actual_r_buf_size$ = 744
result$ = 772
u_result$ = 804
v_result$ = 836
q_r_result$ = 868
tv212 = 1268
tv197 = 1268
tv182 = 1268
tv163 = 1268
tv143 = 1268
tv92 = 1268
tv74 = 1268
tv171 = 1272
tv152 = 1272
tv132 = 1272
tv82 = 1272
tv64 = 1272
__$ArrayPad$ = 1280
env$ = 1328
ep$ = 1336
no$ = 1344
u_buf$ = 1352
u_buf_size$ = 1360
v_buf$ = 1368
v_buf_size$ = 1376
desired_return_code$ = 1384
desired_q_buf$ = 1392
desired_q_buf_size$ = 1400
desired_r_buf$ = 1408
desired_r_buf_size$ = 1416
TEST_DivRem_UX_X PROC					; COMDAT

; 93   : {

$LN21:
	mov	QWORD PTR [rsp+32], r9
	mov	DWORD PTR [rsp+24], r8d
	mov	QWORD PTR [rsp+16], rdx
	mov	QWORD PTR [rsp+8], rcx
	push	rbp
	push	rdi
	sub	rsp, 1336				; 00000538H
	lea	rbp, QWORD PTR [rsp+32]
	mov	rdi, rsp
	mov	ecx, 334				; 0000014eH
	mov	eax, -858993460				; ccccccccH
	rep stosd
	mov	rcx, QWORD PTR [rsp+1368]
	mov	rax, QWORD PTR __security_cookie
	xor	rax, rbp
	mov	QWORD PTR __$ArrayPad$[rbp], rax
	lea	rcx, OFFSET FLAT:__76EA6F59_test_op_divrem@c
	call	__CheckForDebuggerJustMyCode

; 94   :     PMC_HANDLE_UINT u;
; 95   :     PMC_HANDLE_SINT v;
; 96   :     PMC_HANDLE_SINT q;
; 97   :     PMC_HANDLE_UINT r;
; 98   :     unsigned char actual_q_buf[256];
; 99   :     size_t actual_q_buf_size;
; 100  :     unsigned char actual_r_buf[256];
; 101  :     size_t actual_r_buf_size;
; 102  :     PMC_STATUS_CODE result;
; 103  :     PMC_STATUS_CODE u_result;
; 104  :     PMC_STATUS_CODE v_result;
; 105  :     PMC_STATUS_CODE q_r_result;
; 106  :     TEST_Assert(env, FormatTestLabel(L"DivRem_UX_X (%d.%d)", no, 1), (u_result = ep->UINT_ENTRY_POINTS.FromByteArray(u_buf, u_buf_size, &u)) == PMC_STATUS_OK, FormatTestMesssage(L"FromByteArrayの復帰コードが期待通りではない(%d)", u_result));

	lea	r8, QWORD PTR u$[rbp]
	mov	rdx, QWORD PTR u_buf_size$[rbp]
	mov	rcx, QWORD PTR u_buf$[rbp]
	mov	rax, QWORD PTR ep$[rbp]
	call	QWORD PTR [rax+48]
	mov	DWORD PTR u_result$[rbp], eax
	cmp	DWORD PTR u_result$[rbp], 0
	jne	SHORT $LN7@TEST_DivRe
	mov	DWORD PTR tv74[rbp], 1
	jmp	SHORT $LN8@TEST_DivRe
$LN7@TEST_DivRe:
	mov	DWORD PTR tv74[rbp], 0
$LN8@TEST_DivRe:
	mov	edx, DWORD PTR u_result$[rbp]
	lea	rcx, OFFSET FLAT:??_C@_1EC@NPMCAPKO@?$AAF?$AAr?$AAo?$AAm?$AAB?$AAy?$AAt?$AAe?$AAA?$AAr?$AAr?$AAa?$AAy?$AAn?$PP?$KJ@
	call	FormatTestMesssage
	mov	QWORD PTR tv64[rbp], rax
	mov	r8d, 1
	mov	edx, DWORD PTR no$[rbp]
	lea	rcx, OFFSET FLAT:??_C@_1CI@PMOCFACI@?$AAD?$AAi?$AAv?$AAR?$AAe?$AAm?$AA_?$AAU?$AAX?$AA_?$AAX?$AA?5?$AA?$CI?$AA?$CF?$AAd@
	call	FormatTestLabel
	mov	rcx, QWORD PTR tv64[rbp]
	mov	r9, rcx
	mov	r8d, DWORD PTR tv74[rbp]
	mov	rdx, rax
	mov	rcx, QWORD PTR env$[rbp]
	call	TEST_Assert

; 107  :     TEST_Assert(env, FormatTestLabel(L"DivRem_UX_X (%d.%d)", no, 2), (v_result = ep->FromByteArray(v_buf, v_buf_size, &v)) == PMC_STATUS_OK, FormatTestMesssage(L"FromByteArrayの復帰コードが期待通りではない(%d)", v_result));

	lea	r8, QWORD PTR v$[rbp]
	mov	rdx, QWORD PTR v_buf_size$[rbp]
	mov	rcx, QWORD PTR v_buf$[rbp]
	mov	rax, QWORD PTR ep$[rbp]
	call	QWORD PTR [rax+592]
	mov	DWORD PTR v_result$[rbp], eax
	cmp	DWORD PTR v_result$[rbp], 0
	jne	SHORT $LN9@TEST_DivRe
	mov	DWORD PTR tv92[rbp], 1
	jmp	SHORT $LN10@TEST_DivRe
$LN9@TEST_DivRe:
	mov	DWORD PTR tv92[rbp], 0
$LN10@TEST_DivRe:
	mov	edx, DWORD PTR v_result$[rbp]
	lea	rcx, OFFSET FLAT:??_C@_1EC@NPMCAPKO@?$AAF?$AAr?$AAo?$AAm?$AAB?$AAy?$AAt?$AAe?$AAA?$AAr?$AAr?$AAa?$AAy?$AAn?$PP?$KJ@
	call	FormatTestMesssage
	mov	QWORD PTR tv82[rbp], rax
	mov	r8d, 2
	mov	edx, DWORD PTR no$[rbp]
	lea	rcx, OFFSET FLAT:??_C@_1CI@PMOCFACI@?$AAD?$AAi?$AAv?$AAR?$AAe?$AAm?$AA_?$AAU?$AAX?$AA_?$AAX?$AA?5?$AA?$CI?$AA?$CF?$AAd@
	call	FormatTestLabel
	mov	rcx, QWORD PTR tv82[rbp]
	mov	r9, rcx
	mov	r8d, DWORD PTR tv92[rbp]
	mov	rdx, rax
	mov	rcx, QWORD PTR env$[rbp]
	call	TEST_Assert

; 108  :     TEST_Assert(env, FormatTestLabel(L"DivRem_UX_X (%d.%d)", no, 3), (q_r_result = ep->DivRem_UX_X(u, v, &q, &r)) == desired_return_code, FormatTestMesssage(L"DivRem_UX_Xの復帰コードが期待通りではない(%d)", q_r_result));

	lea	r9, QWORD PTR r$[rbp]
	lea	r8, QWORD PTR q$[rbp]
	mov	rdx, QWORD PTR v$[rbp]
	mov	rcx, QWORD PTR u$[rbp]
	mov	rax, QWORD PTR ep$[rbp]
	call	QWORD PTR [rax+824]
	mov	DWORD PTR q_r_result$[rbp], eax
	mov	eax, DWORD PTR desired_return_code$[rbp]
	cmp	DWORD PTR q_r_result$[rbp], eax
	jne	SHORT $LN11@TEST_DivRe
	mov	DWORD PTR tv143[rbp], 1
	jmp	SHORT $LN12@TEST_DivRe
$LN11@TEST_DivRe:
	mov	DWORD PTR tv143[rbp], 0
$LN12@TEST_DivRe:
	mov	edx, DWORD PTR q_r_result$[rbp]
	lea	rcx, OFFSET FLAT:??_C@_1DO@DHNBEMIM@?$AAD?$AAi?$AAv?$AAR?$AAe?$AAm?$AA_?$AAU?$AAX?$AA_?$AAX?$AAn?$PP?$KJ?$AA0?$PP?$LD@
	call	FormatTestMesssage
	mov	QWORD PTR tv132[rbp], rax
	mov	r8d, 3
	mov	edx, DWORD PTR no$[rbp]
	lea	rcx, OFFSET FLAT:??_C@_1CI@PMOCFACI@?$AAD?$AAi?$AAv?$AAR?$AAe?$AAm?$AA_?$AAU?$AAX?$AA_?$AAX?$AA?5?$AA?$CI?$AA?$CF?$AAd@
	call	FormatTestLabel
	mov	rcx, QWORD PTR tv132[rbp]
	mov	r9, rcx
	mov	r8d, DWORD PTR tv143[rbp]
	mov	rdx, rax
	mov	rcx, QWORD PTR env$[rbp]
	call	TEST_Assert

; 109  :     if (desired_return_code == PMC_STATUS_OK)

	cmp	DWORD PTR desired_return_code$[rbp], 0
	jne	$LN2@TEST_DivRe

; 110  :     {
; 111  :         TEST_Assert(env, FormatTestLabel(L"DivRem_UX_X (%d.%d)", no, 4), (result = ep->ToByteArray(q, actual_q_buf, sizeof(actual_q_buf), &actual_q_buf_size)) == PMC_STATUS_OK, FormatTestMesssage(L"ToByteArrayの復帰コードが期待通りではない(%d)", result));

	lea	r9, QWORD PTR actual_q_buf_size$[rbp]
	mov	r8d, 256				; 00000100H
	lea	rdx, QWORD PTR actual_q_buf$[rbp]
	mov	rcx, QWORD PTR q$[rbp]
	mov	rax, QWORD PTR ep$[rbp]
	call	QWORD PTR [rax+600]
	mov	DWORD PTR result$[rbp], eax
	cmp	DWORD PTR result$[rbp], 0
	jne	SHORT $LN13@TEST_DivRe
	mov	DWORD PTR tv163[rbp], 1
	jmp	SHORT $LN14@TEST_DivRe
$LN13@TEST_DivRe:
	mov	DWORD PTR tv163[rbp], 0
$LN14@TEST_DivRe:
	mov	edx, DWORD PTR result$[rbp]
	lea	rcx, OFFSET FLAT:??_C@_1DO@DOHJEMND@?$AAT?$AAo?$AAB?$AAy?$AAt?$AAe?$AAA?$AAr?$AAr?$AAa?$AAy?$AAn?$PP?$KJ?$AA0?$PP?$LD@
	call	FormatTestMesssage
	mov	QWORD PTR tv152[rbp], rax
	mov	r8d, 4
	mov	edx, DWORD PTR no$[rbp]
	lea	rcx, OFFSET FLAT:??_C@_1CI@PMOCFACI@?$AAD?$AAi?$AAv?$AAR?$AAe?$AAm?$AA_?$AAU?$AAX?$AA_?$AAX?$AA?5?$AA?$CI?$AA?$CF?$AAd@
	call	FormatTestLabel
	mov	rcx, QWORD PTR tv152[rbp]
	mov	r9, rcx
	mov	r8d, DWORD PTR tv163[rbp]
	mov	rdx, rax
	mov	rcx, QWORD PTR env$[rbp]
	call	TEST_Assert

; 112  :         TEST_Assert(env, FormatTestLabel(L"DivRem_UX_X (%d.%d)", no, 5), (result = ep->UINT_ENTRY_POINTS.ToByteArray(r, actual_r_buf, sizeof(actual_r_buf), &actual_r_buf_size)) == PMC_STATUS_OK, FormatTestMesssage(L"ToByteArrayの復帰コードが期待通りではない(%d)", result));

	lea	r9, QWORD PTR actual_r_buf_size$[rbp]
	mov	r8d, 256				; 00000100H
	lea	rdx, QWORD PTR actual_r_buf$[rbp]
	mov	rcx, QWORD PTR r$[rbp]
	mov	rax, QWORD PTR ep$[rbp]
	call	QWORD PTR [rax+56]
	mov	DWORD PTR result$[rbp], eax
	cmp	DWORD PTR result$[rbp], 0
	jne	SHORT $LN15@TEST_DivRe
	mov	DWORD PTR tv182[rbp], 1
	jmp	SHORT $LN16@TEST_DivRe
$LN15@TEST_DivRe:
	mov	DWORD PTR tv182[rbp], 0
$LN16@TEST_DivRe:
	mov	edx, DWORD PTR result$[rbp]
	lea	rcx, OFFSET FLAT:??_C@_1DO@DOHJEMND@?$AAT?$AAo?$AAB?$AAy?$AAt?$AAe?$AAA?$AAr?$AAr?$AAa?$AAy?$AAn?$PP?$KJ?$AA0?$PP?$LD@
	call	FormatTestMesssage
	mov	QWORD PTR tv171[rbp], rax
	mov	r8d, 5
	mov	edx, DWORD PTR no$[rbp]
	lea	rcx, OFFSET FLAT:??_C@_1CI@PMOCFACI@?$AAD?$AAi?$AAv?$AAR?$AAe?$AAm?$AA_?$AAU?$AAX?$AA_?$AAX?$AA?5?$AA?$CI?$AA?$CF?$AAd@
	call	FormatTestLabel
	mov	rcx, QWORD PTR tv171[rbp]
	mov	r9, rcx
	mov	r8d, DWORD PTR tv182[rbp]
	mov	rdx, rax
	mov	rcx, QWORD PTR env$[rbp]
	call	TEST_Assert

; 113  :         TEST_Assert(env, FormatTestLabel(L"DivRem_UX_X (%d.%d)", no, 6), _EQUALS_MEMORY(actual_q_buf, actual_q_buf_size, desired_q_buf, desired_q_buf_size) == 0, L"商の値が一致しない");

	mov	r9, QWORD PTR desired_q_buf_size$[rbp]
	mov	r8, QWORD PTR desired_q_buf$[rbp]
	mov	rdx, QWORD PTR actual_q_buf_size$[rbp]
	lea	rcx, QWORD PTR actual_q_buf$[rbp]
	call	_EQUALS_MEMORY
	test	eax, eax
	jne	SHORT $LN17@TEST_DivRe
	mov	DWORD PTR tv197[rbp], 1
	jmp	SHORT $LN18@TEST_DivRe
$LN17@TEST_DivRe:
	mov	DWORD PTR tv197[rbp], 0
$LN18@TEST_DivRe:
	mov	r8d, 6
	mov	edx, DWORD PTR no$[rbp]
	lea	rcx, OFFSET FLAT:??_C@_1CI@PMOCFACI@?$AAD?$AAi?$AAv?$AAR?$AAe?$AAm?$AA_?$AAU?$AAX?$AA_?$AAX?$AA?5?$AA?$CI?$AA?$CF?$AAd@
	call	FormatTestLabel
	lea	r9, OFFSET FLAT:??_C@_1BE@OEODMBIH@?$AAF?$AAn?$AA$?$AAL?$AA?$AA?$PP?t?$AAW?$AAj?$AAD@
	mov	r8d, DWORD PTR tv197[rbp]
	mov	rdx, rax
	mov	rcx, QWORD PTR env$[rbp]
	call	TEST_Assert

; 114  :         TEST_Assert(env, FormatTestLabel(L"DivRem_UX_X (%d.%d)", no, 7), _EQUALS_MEMORY(actual_r_buf, actual_r_buf_size, desired_r_buf, desired_r_buf_size) == 0, L"剰余の値が一致しない");

	mov	r9, QWORD PTR desired_r_buf_size$[rbp]
	mov	r8, QWORD PTR desired_r_buf$[rbp]
	mov	rdx, QWORD PTR actual_r_buf_size$[rbp]
	lea	rcx, QWORD PTR actual_r_buf$[rbp]
	call	_EQUALS_MEMORY
	test	eax, eax
	jne	SHORT $LN19@TEST_DivRe
	mov	DWORD PTR tv212[rbp], 1
	jmp	SHORT $LN20@TEST_DivRe
$LN19@TEST_DivRe:
	mov	DWORD PTR tv212[rbp], 0
$LN20@TEST_DivRe:
	mov	r8d, 7
	mov	edx, DWORD PTR no$[rbp]
	lea	rcx, OFFSET FLAT:??_C@_1CI@PMOCFACI@?$AAD?$AAi?$AAv?$AAR?$AAe?$AAm?$AA_?$AAU?$AAX?$AA_?$AAX?$AA?5?$AA?$CI?$AA?$CF?$AAd@
	call	FormatTestLabel
	lea	r9, OFFSET FLAT:??_C@_1BG@BPGLFLF@?$AAp?$AAY?$AAn?$AA$?$AAL?$AA?$AA?$PP?t?$AAW?$AAj?$AAD@
	mov	r8d, DWORD PTR tv212[rbp]
	mov	rdx, rax
	mov	rcx, QWORD PTR env$[rbp]
	call	TEST_Assert
$LN2@TEST_DivRe:

; 115  :     }
; 116  :     if (q_r_result == PMC_STATUS_OK)

	cmp	DWORD PTR q_r_result$[rbp], 0
	jne	SHORT $LN3@TEST_DivRe

; 117  :     {
; 118  :         ep->Dispose(q);

	mov	rcx, QWORD PTR q$[rbp]
	mov	rax, QWORD PTR ep$[rbp]
	call	QWORD PTR [rax+576]

; 119  :         ep->UINT_ENTRY_POINTS.Dispose(r);

	mov	rcx, QWORD PTR r$[rbp]
	mov	rax, QWORD PTR ep$[rbp]
	call	QWORD PTR [rax+32]
$LN3@TEST_DivRe:

; 120  :     }
; 121  :     if (v_result == PMC_STATUS_OK)

	cmp	DWORD PTR v_result$[rbp], 0
	jne	SHORT $LN4@TEST_DivRe

; 122  :         ep->Dispose(v);

	mov	rcx, QWORD PTR v$[rbp]
	mov	rax, QWORD PTR ep$[rbp]
	call	QWORD PTR [rax+576]
$LN4@TEST_DivRe:

; 123  :     if (u_result == PMC_STATUS_OK)

	cmp	DWORD PTR u_result$[rbp], 0
	jne	SHORT $LN5@TEST_DivRe

; 124  :         ep->UINT_ENTRY_POINTS.Dispose(u);

	mov	rcx, QWORD PTR u$[rbp]
	mov	rax, QWORD PTR ep$[rbp]
	call	QWORD PTR [rax+32]
$LN5@TEST_DivRe:

; 125  : }

	lea	rcx, QWORD PTR [rbp-32]
	lea	rdx, OFFSET FLAT:TEST_DivRem_UX_X$rtcFrameData
	call	_RTC_CheckStackVars
	mov	rcx, QWORD PTR __$ArrayPad$[rbp]
	xor	rcx, rbp
	call	__security_check_cookie
	lea	rsp, QWORD PTR [rbp+1304]
	pop	rdi
	pop	rbp
	ret	0
TEST_DivRem_UX_X ENDP
_TEXT	ENDS
; Function compile flags: /Odtp /RTCsu /ZI
; File z:\sources\lunor\repos\rougemeilland\palmtree.math.core.sint\palmtree.math.core.sint\test_op_divrem.c
;	COMDAT TEST_DivRem_L_X
_TEXT	SEGMENT
v$ = 8
q$ = 40
r$ = 72
actual_q_buf$ = 112
actual_q_buf_size$ = 392
actual_r_buf$ = 432
actual_r_buf_size$ = 712
result$ = 740
v_result$ = 772
q_r_result$ = 804
tv194 = 1204
tv179 = 1204
tv164 = 1204
tv145 = 1204
tv93 = 1204
tv74 = 1204
tv153 = 1208
tv134 = 1208
tv82 = 1208
tv64 = 1208
__$ArrayPad$ = 1216
env$ = 1264
ep$ = 1272
no$ = 1280
u$ = 1288
v_buf$ = 1296
v_buf_size$ = 1304
desired_return_code$ = 1312
desired_q_buf$ = 1320
desired_q_buf_size$ = 1328
desired_r_buf$ = 1336
desired_r_buf_size$ = 1344
TEST_DivRem_L_X PROC					; COMDAT

; 63   : {

$LN18:
	mov	QWORD PTR [rsp+32], r9
	mov	DWORD PTR [rsp+24], r8d
	mov	QWORD PTR [rsp+16], rdx
	mov	QWORD PTR [rsp+8], rcx
	push	rbp
	push	rdi
	sub	rsp, 1272				; 000004f8H
	lea	rbp, QWORD PTR [rsp+32]
	mov	rdi, rsp
	mov	ecx, 318				; 0000013eH
	mov	eax, -858993460				; ccccccccH
	rep stosd
	mov	rcx, QWORD PTR [rsp+1304]
	mov	rax, QWORD PTR __security_cookie
	xor	rax, rbp
	mov	QWORD PTR __$ArrayPad$[rbp], rax
	lea	rcx, OFFSET FLAT:__76EA6F59_test_op_divrem@c
	call	__CheckForDebuggerJustMyCode

; 64   :     PMC_HANDLE_SINT v;
; 65   :     PMC_HANDLE_SINT q;
; 66   :     PMC_HANDLE_SINT r;
; 67   :     unsigned char actual_q_buf[256];
; 68   :     size_t actual_q_buf_size;
; 69   :     unsigned char actual_r_buf[256];
; 70   :     size_t actual_r_buf_size;
; 71   :     PMC_STATUS_CODE result;
; 72   :     PMC_STATUS_CODE v_result;
; 73   :     PMC_STATUS_CODE q_r_result;
; 74   :     TEST_Assert(env, FormatTestLabel(L"DivRem_L_X (%d.%d)", no, 1), (v_result = ep->FromByteArray(v_buf, v_buf_size, &v)) == PMC_STATUS_OK, FormatTestMesssage(L"FromByteArrayの復帰コードが期待通りではない(%d)", v_result));

	lea	r8, QWORD PTR v$[rbp]
	mov	rdx, QWORD PTR v_buf_size$[rbp]
	mov	rcx, QWORD PTR v_buf$[rbp]
	mov	rax, QWORD PTR ep$[rbp]
	call	QWORD PTR [rax+592]
	mov	DWORD PTR v_result$[rbp], eax
	cmp	DWORD PTR v_result$[rbp], 0
	jne	SHORT $LN6@TEST_DivRe
	mov	DWORD PTR tv74[rbp], 1
	jmp	SHORT $LN7@TEST_DivRe
$LN6@TEST_DivRe:
	mov	DWORD PTR tv74[rbp], 0
$LN7@TEST_DivRe:
	mov	edx, DWORD PTR v_result$[rbp]
	lea	rcx, OFFSET FLAT:??_C@_1EC@NPMCAPKO@?$AAF?$AAr?$AAo?$AAm?$AAB?$AAy?$AAt?$AAe?$AAA?$AAr?$AAr?$AAa?$AAy?$AAn?$PP?$KJ@
	call	FormatTestMesssage
	mov	QWORD PTR tv64[rbp], rax
	mov	r8d, 1
	mov	edx, DWORD PTR no$[rbp]
	lea	rcx, OFFSET FLAT:??_C@_1CG@CCPMJLPK@?$AAD?$AAi?$AAv?$AAR?$AAe?$AAm?$AA_?$AAL?$AA_?$AAX?$AA?5?$AA?$CI?$AA?$CF?$AAd?$AA?4@
	call	FormatTestLabel
	mov	rcx, QWORD PTR tv64[rbp]
	mov	r9, rcx
	mov	r8d, DWORD PTR tv74[rbp]
	mov	rdx, rax
	mov	rcx, QWORD PTR env$[rbp]
	call	TEST_Assert

; 75   :     TEST_Assert(env, FormatTestLabel(L"DivRem_L_X (%d.%d)", no, 2), (q_r_result = ep->DivRem_L_X(u, v, &q, &r)) == desired_return_code, FormatTestMesssage(L"DivRem_L_Xの復帰コードが期待通りではない(%d)", q_r_result));

	lea	r9, QWORD PTR r$[rbp]
	lea	r8, QWORD PTR q$[rbp]
	mov	rdx, QWORD PTR v$[rbp]
	mov	rcx, QWORD PTR u$[rbp]
	mov	rax, QWORD PTR ep$[rbp]
	call	QWORD PTR [rax+816]
	mov	DWORD PTR q_r_result$[rbp], eax
	mov	eax, DWORD PTR desired_return_code$[rbp]
	cmp	DWORD PTR q_r_result$[rbp], eax
	jne	SHORT $LN8@TEST_DivRe
	mov	DWORD PTR tv93[rbp], 1
	jmp	SHORT $LN9@TEST_DivRe
$LN8@TEST_DivRe:
	mov	DWORD PTR tv93[rbp], 0
$LN9@TEST_DivRe:
	mov	edx, DWORD PTR q_r_result$[rbp]
	lea	rcx, OFFSET FLAT:??_C@_1DM@EHDAPCE@?$AAD?$AAi?$AAv?$AAR?$AAe?$AAm?$AA_?$AAL?$AA_?$AAX?$AAn?$PP?$KJ?$AA0?$PP?$LD?$PP?$PM@
	call	FormatTestMesssage
	mov	QWORD PTR tv82[rbp], rax
	mov	r8d, 2
	mov	edx, DWORD PTR no$[rbp]
	lea	rcx, OFFSET FLAT:??_C@_1CG@CCPMJLPK@?$AAD?$AAi?$AAv?$AAR?$AAe?$AAm?$AA_?$AAL?$AA_?$AAX?$AA?5?$AA?$CI?$AA?$CF?$AAd?$AA?4@
	call	FormatTestLabel
	mov	rcx, QWORD PTR tv82[rbp]
	mov	r9, rcx
	mov	r8d, DWORD PTR tv93[rbp]
	mov	rdx, rax
	mov	rcx, QWORD PTR env$[rbp]
	call	TEST_Assert

; 76   :     if (desired_return_code == PMC_STATUS_OK)

	cmp	DWORD PTR desired_return_code$[rbp], 0
	jne	$LN2@TEST_DivRe

; 77   :     {
; 78   :         TEST_Assert(env, FormatTestLabel(L"DivRem_L_X (%d.%d)", no, 3), (result = ep->ToByteArray(q, actual_q_buf, sizeof(actual_q_buf), &actual_q_buf_size)) == PMC_STATUS_OK, FormatTestMesssage(L"ToByteArrayの復帰コードが期待通りではない(%d)", result));

	lea	r9, QWORD PTR actual_q_buf_size$[rbp]
	mov	r8d, 256				; 00000100H
	lea	rdx, QWORD PTR actual_q_buf$[rbp]
	mov	rcx, QWORD PTR q$[rbp]
	mov	rax, QWORD PTR ep$[rbp]
	call	QWORD PTR [rax+600]
	mov	DWORD PTR result$[rbp], eax
	cmp	DWORD PTR result$[rbp], 0
	jne	SHORT $LN10@TEST_DivRe
	mov	DWORD PTR tv145[rbp], 1
	jmp	SHORT $LN11@TEST_DivRe
$LN10@TEST_DivRe:
	mov	DWORD PTR tv145[rbp], 0
$LN11@TEST_DivRe:
	mov	edx, DWORD PTR result$[rbp]
	lea	rcx, OFFSET FLAT:??_C@_1DO@DOHJEMND@?$AAT?$AAo?$AAB?$AAy?$AAt?$AAe?$AAA?$AAr?$AAr?$AAa?$AAy?$AAn?$PP?$KJ?$AA0?$PP?$LD@
	call	FormatTestMesssage
	mov	QWORD PTR tv134[rbp], rax
	mov	r8d, 3
	mov	edx, DWORD PTR no$[rbp]
	lea	rcx, OFFSET FLAT:??_C@_1CG@CCPMJLPK@?$AAD?$AAi?$AAv?$AAR?$AAe?$AAm?$AA_?$AAL?$AA_?$AAX?$AA?5?$AA?$CI?$AA?$CF?$AAd?$AA?4@
	call	FormatTestLabel
	mov	rcx, QWORD PTR tv134[rbp]
	mov	r9, rcx
	mov	r8d, DWORD PTR tv145[rbp]
	mov	rdx, rax
	mov	rcx, QWORD PTR env$[rbp]
	call	TEST_Assert

; 79   :         TEST_Assert(env, FormatTestLabel(L"DivRem_L_X (%d.%d)", no, 4), (result = ep->ToByteArray(r, actual_r_buf, sizeof(actual_r_buf), &actual_r_buf_size)) == PMC_STATUS_OK, FormatTestMesssage(L"ToByteArrayの復帰コードが期待通りではない(%d)", result));

	lea	r9, QWORD PTR actual_r_buf_size$[rbp]
	mov	r8d, 256				; 00000100H
	lea	rdx, QWORD PTR actual_r_buf$[rbp]
	mov	rcx, QWORD PTR r$[rbp]
	mov	rax, QWORD PTR ep$[rbp]
	call	QWORD PTR [rax+600]
	mov	DWORD PTR result$[rbp], eax
	cmp	DWORD PTR result$[rbp], 0
	jne	SHORT $LN12@TEST_DivRe
	mov	DWORD PTR tv164[rbp], 1
	jmp	SHORT $LN13@TEST_DivRe
$LN12@TEST_DivRe:
	mov	DWORD PTR tv164[rbp], 0
$LN13@TEST_DivRe:
	mov	edx, DWORD PTR result$[rbp]
	lea	rcx, OFFSET FLAT:??_C@_1DO@DOHJEMND@?$AAT?$AAo?$AAB?$AAy?$AAt?$AAe?$AAA?$AAr?$AAr?$AAa?$AAy?$AAn?$PP?$KJ?$AA0?$PP?$LD@
	call	FormatTestMesssage
	mov	QWORD PTR tv153[rbp], rax
	mov	r8d, 4
	mov	edx, DWORD PTR no$[rbp]
	lea	rcx, OFFSET FLAT:??_C@_1CG@CCPMJLPK@?$AAD?$AAi?$AAv?$AAR?$AAe?$AAm?$AA_?$AAL?$AA_?$AAX?$AA?5?$AA?$CI?$AA?$CF?$AAd?$AA?4@
	call	FormatTestLabel
	mov	rcx, QWORD PTR tv153[rbp]
	mov	r9, rcx
	mov	r8d, DWORD PTR tv164[rbp]
	mov	rdx, rax
	mov	rcx, QWORD PTR env$[rbp]
	call	TEST_Assert

; 80   :         TEST_Assert(env, FormatTestLabel(L"DivRem_L_X (%d.%d)", no, 5), _EQUALS_MEMORY(actual_q_buf, actual_q_buf_size, desired_q_buf, desired_q_buf_size) == 0, L"商の値が一致しない");

	mov	r9, QWORD PTR desired_q_buf_size$[rbp]
	mov	r8, QWORD PTR desired_q_buf$[rbp]
	mov	rdx, QWORD PTR actual_q_buf_size$[rbp]
	lea	rcx, QWORD PTR actual_q_buf$[rbp]
	call	_EQUALS_MEMORY
	test	eax, eax
	jne	SHORT $LN14@TEST_DivRe
	mov	DWORD PTR tv179[rbp], 1
	jmp	SHORT $LN15@TEST_DivRe
$LN14@TEST_DivRe:
	mov	DWORD PTR tv179[rbp], 0
$LN15@TEST_DivRe:
	mov	r8d, 5
	mov	edx, DWORD PTR no$[rbp]
	lea	rcx, OFFSET FLAT:??_C@_1CG@CCPMJLPK@?$AAD?$AAi?$AAv?$AAR?$AAe?$AAm?$AA_?$AAL?$AA_?$AAX?$AA?5?$AA?$CI?$AA?$CF?$AAd?$AA?4@
	call	FormatTestLabel
	lea	r9, OFFSET FLAT:??_C@_1BE@OEODMBIH@?$AAF?$AAn?$AA$?$AAL?$AA?$AA?$PP?t?$AAW?$AAj?$AAD@
	mov	r8d, DWORD PTR tv179[rbp]
	mov	rdx, rax
	mov	rcx, QWORD PTR env$[rbp]
	call	TEST_Assert

; 81   :         TEST_Assert(env, FormatTestLabel(L"DivRem_L_X (%d.%d)", no, 6), _EQUALS_MEMORY(actual_r_buf, actual_r_buf_size, desired_r_buf, desired_r_buf_size) == 0, L"剰余の値が一致しない");

	mov	r9, QWORD PTR desired_r_buf_size$[rbp]
	mov	r8, QWORD PTR desired_r_buf$[rbp]
	mov	rdx, QWORD PTR actual_r_buf_size$[rbp]
	lea	rcx, QWORD PTR actual_r_buf$[rbp]
	call	_EQUALS_MEMORY
	test	eax, eax
	jne	SHORT $LN16@TEST_DivRe
	mov	DWORD PTR tv194[rbp], 1
	jmp	SHORT $LN17@TEST_DivRe
$LN16@TEST_DivRe:
	mov	DWORD PTR tv194[rbp], 0
$LN17@TEST_DivRe:
	mov	r8d, 6
	mov	edx, DWORD PTR no$[rbp]
	lea	rcx, OFFSET FLAT:??_C@_1CG@CCPMJLPK@?$AAD?$AAi?$AAv?$AAR?$AAe?$AAm?$AA_?$AAL?$AA_?$AAX?$AA?5?$AA?$CI?$AA?$CF?$AAd?$AA?4@
	call	FormatTestLabel
	lea	r9, OFFSET FLAT:??_C@_1BG@BPGLFLF@?$AAp?$AAY?$AAn?$AA$?$AAL?$AA?$AA?$PP?t?$AAW?$AAj?$AAD@
	mov	r8d, DWORD PTR tv194[rbp]
	mov	rdx, rax
	mov	rcx, QWORD PTR env$[rbp]
	call	TEST_Assert
$LN2@TEST_DivRe:

; 82   :     }
; 83   :     if (q_r_result == PMC_STATUS_OK)

	cmp	DWORD PTR q_r_result$[rbp], 0
	jne	SHORT $LN3@TEST_DivRe

; 84   :     {
; 85   :         ep->Dispose(r);

	mov	rcx, QWORD PTR r$[rbp]
	mov	rax, QWORD PTR ep$[rbp]
	call	QWORD PTR [rax+576]

; 86   :         ep->Dispose(q);

	mov	rcx, QWORD PTR q$[rbp]
	mov	rax, QWORD PTR ep$[rbp]
	call	QWORD PTR [rax+576]
$LN3@TEST_DivRe:

; 87   :     }
; 88   :     if (v_result == PMC_STATUS_OK)

	cmp	DWORD PTR v_result$[rbp], 0
	jne	SHORT $LN4@TEST_DivRe

; 89   :         ep->Dispose(v);

	mov	rcx, QWORD PTR v$[rbp]
	mov	rax, QWORD PTR ep$[rbp]
	call	QWORD PTR [rax+576]
$LN4@TEST_DivRe:

; 90   : }

	lea	rcx, QWORD PTR [rbp-32]
	lea	rdx, OFFSET FLAT:TEST_DivRem_L_X$rtcFrameData
	call	_RTC_CheckStackVars
	mov	rcx, QWORD PTR __$ArrayPad$[rbp]
	xor	rcx, rbp
	call	__security_check_cookie
	lea	rsp, QWORD PTR [rbp+1240]
	pop	rdi
	pop	rbp
	ret	0
TEST_DivRem_L_X ENDP
_TEXT	ENDS
; Function compile flags: /Odtp /RTCsu /ZI
; File z:\sources\lunor\repos\rougemeilland\palmtree.math.core.sint\palmtree.math.core.sint\test_op_divrem.c
;	COMDAT TEST_DivRem_I_X
_TEXT	SEGMENT
v$ = 8
q$ = 40
r$ = 72
actual_q_buf$ = 112
actual_q_buf_size$ = 392
actual_r_buf$ = 432
actual_r_buf_size$ = 712
result$ = 740
v_result$ = 772
q_r_result$ = 804
tv194 = 1204
tv179 = 1204
tv164 = 1204
tv145 = 1204
tv93 = 1204
tv74 = 1204
tv153 = 1208
tv134 = 1208
tv82 = 1208
tv64 = 1208
__$ArrayPad$ = 1216
env$ = 1264
ep$ = 1272
no$ = 1280
u$ = 1288
v_buf$ = 1296
v_buf_size$ = 1304
desired_return_code$ = 1312
desired_q_buf$ = 1320
desired_q_buf_size$ = 1328
desired_r_buf$ = 1336
desired_r_buf_size$ = 1344
TEST_DivRem_I_X PROC					; COMDAT

; 33   : {

$LN18:
	mov	DWORD PTR [rsp+32], r9d
	mov	DWORD PTR [rsp+24], r8d
	mov	QWORD PTR [rsp+16], rdx
	mov	QWORD PTR [rsp+8], rcx
	push	rbp
	push	rdi
	sub	rsp, 1272				; 000004f8H
	lea	rbp, QWORD PTR [rsp+32]
	mov	rdi, rsp
	mov	ecx, 318				; 0000013eH
	mov	eax, -858993460				; ccccccccH
	rep stosd
	mov	rcx, QWORD PTR [rsp+1304]
	mov	rax, QWORD PTR __security_cookie
	xor	rax, rbp
	mov	QWORD PTR __$ArrayPad$[rbp], rax
	lea	rcx, OFFSET FLAT:__76EA6F59_test_op_divrem@c
	call	__CheckForDebuggerJustMyCode

; 34   :     PMC_HANDLE_SINT v;
; 35   :     PMC_HANDLE_SINT q;
; 36   :     PMC_HANDLE_SINT r;
; 37   :     unsigned char actual_q_buf[256];
; 38   :     size_t actual_q_buf_size;
; 39   :     unsigned char actual_r_buf[256];
; 40   :     size_t actual_r_buf_size;
; 41   :     PMC_STATUS_CODE result;
; 42   :     PMC_STATUS_CODE v_result;
; 43   :     PMC_STATUS_CODE q_r_result;
; 44   :     TEST_Assert(env, FormatTestLabel(L"DivRem_I_X (%d.%d)", no, 1), (v_result = ep->FromByteArray(v_buf, v_buf_size, &v)) == PMC_STATUS_OK, FormatTestMesssage(L"FromByteArrayの復帰コードが期待通りではない(%d)", v_result));

	lea	r8, QWORD PTR v$[rbp]
	mov	rdx, QWORD PTR v_buf_size$[rbp]
	mov	rcx, QWORD PTR v_buf$[rbp]
	mov	rax, QWORD PTR ep$[rbp]
	call	QWORD PTR [rax+592]
	mov	DWORD PTR v_result$[rbp], eax
	cmp	DWORD PTR v_result$[rbp], 0
	jne	SHORT $LN6@TEST_DivRe
	mov	DWORD PTR tv74[rbp], 1
	jmp	SHORT $LN7@TEST_DivRe
$LN6@TEST_DivRe:
	mov	DWORD PTR tv74[rbp], 0
$LN7@TEST_DivRe:
	mov	edx, DWORD PTR v_result$[rbp]
	lea	rcx, OFFSET FLAT:??_C@_1EC@NPMCAPKO@?$AAF?$AAr?$AAo?$AAm?$AAB?$AAy?$AAt?$AAe?$AAA?$AAr?$AAr?$AAa?$AAy?$AAn?$PP?$KJ@
	call	FormatTestMesssage
	mov	QWORD PTR tv64[rbp], rax
	mov	r8d, 1
	mov	edx, DWORD PTR no$[rbp]
	lea	rcx, OFFSET FLAT:??_C@_1CG@MKNPGAIC@?$AAD?$AAi?$AAv?$AAR?$AAe?$AAm?$AA_?$AAI?$AA_?$AAX?$AA?5?$AA?$CI?$AA?$CF?$AAd?$AA?4@
	call	FormatTestLabel
	mov	rcx, QWORD PTR tv64[rbp]
	mov	r9, rcx
	mov	r8d, DWORD PTR tv74[rbp]
	mov	rdx, rax
	mov	rcx, QWORD PTR env$[rbp]
	call	TEST_Assert

; 45   :     TEST_Assert(env, FormatTestLabel(L"DivRem_I_X (%d.%d)", no, 2), (q_r_result = ep->DivRem_I_X(u, v, &q, &r)) == desired_return_code, FormatTestMesssage(L"DivRem_I_Xの復帰コードが期待通りではない(%d)", q_r_result));

	lea	r9, QWORD PTR r$[rbp]
	lea	r8, QWORD PTR q$[rbp]
	mov	rdx, QWORD PTR v$[rbp]
	mov	ecx, DWORD PTR u$[rbp]
	mov	rax, QWORD PTR ep$[rbp]
	call	QWORD PTR [rax+808]
	mov	DWORD PTR q_r_result$[rbp], eax
	mov	eax, DWORD PTR desired_return_code$[rbp]
	cmp	DWORD PTR q_r_result$[rbp], eax
	jne	SHORT $LN8@TEST_DivRe
	mov	DWORD PTR tv93[rbp], 1
	jmp	SHORT $LN9@TEST_DivRe
$LN8@TEST_DivRe:
	mov	DWORD PTR tv93[rbp], 0
$LN9@TEST_DivRe:
	mov	edx, DWORD PTR q_r_result$[rbp]
	lea	rcx, OFFSET FLAT:??_C@_1DM@FPONPMLK@?$AAD?$AAi?$AAv?$AAR?$AAe?$AAm?$AA_?$AAI?$AA_?$AAX?$AAn?$PP?$KJ?$AA0?$PP?$LD?$PP?$PM@
	call	FormatTestMesssage
	mov	QWORD PTR tv82[rbp], rax
	mov	r8d, 2
	mov	edx, DWORD PTR no$[rbp]
	lea	rcx, OFFSET FLAT:??_C@_1CG@MKNPGAIC@?$AAD?$AAi?$AAv?$AAR?$AAe?$AAm?$AA_?$AAI?$AA_?$AAX?$AA?5?$AA?$CI?$AA?$CF?$AAd?$AA?4@
	call	FormatTestLabel
	mov	rcx, QWORD PTR tv82[rbp]
	mov	r9, rcx
	mov	r8d, DWORD PTR tv93[rbp]
	mov	rdx, rax
	mov	rcx, QWORD PTR env$[rbp]
	call	TEST_Assert

; 46   :     if (desired_return_code == PMC_STATUS_OK)

	cmp	DWORD PTR desired_return_code$[rbp], 0
	jne	$LN2@TEST_DivRe

; 47   :     {
; 48   :         TEST_Assert(env, FormatTestLabel(L"DivRem_I_X (%d.%d)", no, 3), (result = ep->ToByteArray(q, actual_q_buf, sizeof(actual_q_buf), &actual_q_buf_size)) == PMC_STATUS_OK, FormatTestMesssage(L"ToByteArrayの復帰コードが期待通りではない(%d)", result));

	lea	r9, QWORD PTR actual_q_buf_size$[rbp]
	mov	r8d, 256				; 00000100H
	lea	rdx, QWORD PTR actual_q_buf$[rbp]
	mov	rcx, QWORD PTR q$[rbp]
	mov	rax, QWORD PTR ep$[rbp]
	call	QWORD PTR [rax+600]
	mov	DWORD PTR result$[rbp], eax
	cmp	DWORD PTR result$[rbp], 0
	jne	SHORT $LN10@TEST_DivRe
	mov	DWORD PTR tv145[rbp], 1
	jmp	SHORT $LN11@TEST_DivRe
$LN10@TEST_DivRe:
	mov	DWORD PTR tv145[rbp], 0
$LN11@TEST_DivRe:
	mov	edx, DWORD PTR result$[rbp]
	lea	rcx, OFFSET FLAT:??_C@_1DO@DOHJEMND@?$AAT?$AAo?$AAB?$AAy?$AAt?$AAe?$AAA?$AAr?$AAr?$AAa?$AAy?$AAn?$PP?$KJ?$AA0?$PP?$LD@
	call	FormatTestMesssage
	mov	QWORD PTR tv134[rbp], rax
	mov	r8d, 3
	mov	edx, DWORD PTR no$[rbp]
	lea	rcx, OFFSET FLAT:??_C@_1CG@MKNPGAIC@?$AAD?$AAi?$AAv?$AAR?$AAe?$AAm?$AA_?$AAI?$AA_?$AAX?$AA?5?$AA?$CI?$AA?$CF?$AAd?$AA?4@
	call	FormatTestLabel
	mov	rcx, QWORD PTR tv134[rbp]
	mov	r9, rcx
	mov	r8d, DWORD PTR tv145[rbp]
	mov	rdx, rax
	mov	rcx, QWORD PTR env$[rbp]
	call	TEST_Assert

; 49   :         TEST_Assert(env, FormatTestLabel(L"DivRem_I_X (%d.%d)", no, 4), (result = ep->ToByteArray(r, actual_r_buf, sizeof(actual_r_buf), &actual_r_buf_size)) == PMC_STATUS_OK, FormatTestMesssage(L"ToByteArrayの復帰コードが期待通りではない(%d)", result));

	lea	r9, QWORD PTR actual_r_buf_size$[rbp]
	mov	r8d, 256				; 00000100H
	lea	rdx, QWORD PTR actual_r_buf$[rbp]
	mov	rcx, QWORD PTR r$[rbp]
	mov	rax, QWORD PTR ep$[rbp]
	call	QWORD PTR [rax+600]
	mov	DWORD PTR result$[rbp], eax
	cmp	DWORD PTR result$[rbp], 0
	jne	SHORT $LN12@TEST_DivRe
	mov	DWORD PTR tv164[rbp], 1
	jmp	SHORT $LN13@TEST_DivRe
$LN12@TEST_DivRe:
	mov	DWORD PTR tv164[rbp], 0
$LN13@TEST_DivRe:
	mov	edx, DWORD PTR result$[rbp]
	lea	rcx, OFFSET FLAT:??_C@_1DO@DOHJEMND@?$AAT?$AAo?$AAB?$AAy?$AAt?$AAe?$AAA?$AAr?$AAr?$AAa?$AAy?$AAn?$PP?$KJ?$AA0?$PP?$LD@
	call	FormatTestMesssage
	mov	QWORD PTR tv153[rbp], rax
	mov	r8d, 4
	mov	edx, DWORD PTR no$[rbp]
	lea	rcx, OFFSET FLAT:??_C@_1CG@MKNPGAIC@?$AAD?$AAi?$AAv?$AAR?$AAe?$AAm?$AA_?$AAI?$AA_?$AAX?$AA?5?$AA?$CI?$AA?$CF?$AAd?$AA?4@
	call	FormatTestLabel
	mov	rcx, QWORD PTR tv153[rbp]
	mov	r9, rcx
	mov	r8d, DWORD PTR tv164[rbp]
	mov	rdx, rax
	mov	rcx, QWORD PTR env$[rbp]
	call	TEST_Assert

; 50   :         TEST_Assert(env, FormatTestLabel(L"DivRem_I_X (%d.%d)", no, 5), _EQUALS_MEMORY(actual_q_buf, actual_q_buf_size, desired_q_buf, desired_q_buf_size) == 0, L"商の値が一致しない");

	mov	r9, QWORD PTR desired_q_buf_size$[rbp]
	mov	r8, QWORD PTR desired_q_buf$[rbp]
	mov	rdx, QWORD PTR actual_q_buf_size$[rbp]
	lea	rcx, QWORD PTR actual_q_buf$[rbp]
	call	_EQUALS_MEMORY
	test	eax, eax
	jne	SHORT $LN14@TEST_DivRe
	mov	DWORD PTR tv179[rbp], 1
	jmp	SHORT $LN15@TEST_DivRe
$LN14@TEST_DivRe:
	mov	DWORD PTR tv179[rbp], 0
$LN15@TEST_DivRe:
	mov	r8d, 5
	mov	edx, DWORD PTR no$[rbp]
	lea	rcx, OFFSET FLAT:??_C@_1CG@MKNPGAIC@?$AAD?$AAi?$AAv?$AAR?$AAe?$AAm?$AA_?$AAI?$AA_?$AAX?$AA?5?$AA?$CI?$AA?$CF?$AAd?$AA?4@
	call	FormatTestLabel
	lea	r9, OFFSET FLAT:??_C@_1BE@OEODMBIH@?$AAF?$AAn?$AA$?$AAL?$AA?$AA?$PP?t?$AAW?$AAj?$AAD@
	mov	r8d, DWORD PTR tv179[rbp]
	mov	rdx, rax
	mov	rcx, QWORD PTR env$[rbp]
	call	TEST_Assert

; 51   :         TEST_Assert(env, FormatTestLabel(L"DivRem_I_X (%d.%d)", no, 6), _EQUALS_MEMORY(actual_r_buf, actual_r_buf_size, desired_r_buf, desired_r_buf_size) == 0, L"剰余の値が一致しない");

	mov	r9, QWORD PTR desired_r_buf_size$[rbp]
	mov	r8, QWORD PTR desired_r_buf$[rbp]
	mov	rdx, QWORD PTR actual_r_buf_size$[rbp]
	lea	rcx, QWORD PTR actual_r_buf$[rbp]
	call	_EQUALS_MEMORY
	test	eax, eax
	jne	SHORT $LN16@TEST_DivRe
	mov	DWORD PTR tv194[rbp], 1
	jmp	SHORT $LN17@TEST_DivRe
$LN16@TEST_DivRe:
	mov	DWORD PTR tv194[rbp], 0
$LN17@TEST_DivRe:
	mov	r8d, 6
	mov	edx, DWORD PTR no$[rbp]
	lea	rcx, OFFSET FLAT:??_C@_1CG@MKNPGAIC@?$AAD?$AAi?$AAv?$AAR?$AAe?$AAm?$AA_?$AAI?$AA_?$AAX?$AA?5?$AA?$CI?$AA?$CF?$AAd?$AA?4@
	call	FormatTestLabel
	lea	r9, OFFSET FLAT:??_C@_1BG@BPGLFLF@?$AAp?$AAY?$AAn?$AA$?$AAL?$AA?$AA?$PP?t?$AAW?$AAj?$AAD@
	mov	r8d, DWORD PTR tv194[rbp]
	mov	rdx, rax
	mov	rcx, QWORD PTR env$[rbp]
	call	TEST_Assert
$LN2@TEST_DivRe:

; 52   :     }
; 53   :     if (q_r_result == PMC_STATUS_OK)

	cmp	DWORD PTR q_r_result$[rbp], 0
	jne	SHORT $LN3@TEST_DivRe

; 54   :     {
; 55   :         ep->Dispose(r);

	mov	rcx, QWORD PTR r$[rbp]
	mov	rax, QWORD PTR ep$[rbp]
	call	QWORD PTR [rax+576]

; 56   :         ep->Dispose(q);

	mov	rcx, QWORD PTR q$[rbp]
	mov	rax, QWORD PTR ep$[rbp]
	call	QWORD PTR [rax+576]
$LN3@TEST_DivRe:

; 57   :     }
; 58   :     if (v_result == PMC_STATUS_OK)

	cmp	DWORD PTR v_result$[rbp], 0
	jne	SHORT $LN4@TEST_DivRe

; 59   :         ep->Dispose(v);

	mov	rcx, QWORD PTR v$[rbp]
	mov	rax, QWORD PTR ep$[rbp]
	call	QWORD PTR [rax+576]
$LN4@TEST_DivRe:

; 60   : }

	lea	rcx, QWORD PTR [rbp-32]
	lea	rdx, OFFSET FLAT:TEST_DivRem_I_X$rtcFrameData
	call	_RTC_CheckStackVars
	mov	rcx, QWORD PTR __$ArrayPad$[rbp]
	xor	rcx, rbp
	call	__security_check_cookie
	lea	rsp, QWORD PTR [rbp+1240]
	pop	rdi
	pop	rbp
	ret	0
TEST_DivRem_I_X ENDP
_TEXT	ENDS
; Function compile flags: /Odtp /RTCsu /ZI
; File z:\sources\lunor\repos\rougemeilland\palmtree.math.core.uint\palmtree.math.core.uint\pmc_uint_debug.h
;	COMDAT _EQUALS_MEMORY
_TEXT	SEGMENT
buffer1$ = 224
count1$ = 232
buffer2$ = 240
count2$ = 248
_EQUALS_MEMORY PROC					; COMDAT

; 151  : {

	mov	QWORD PTR [rsp+32], r9
	mov	QWORD PTR [rsp+24], r8
	mov	QWORD PTR [rsp+16], rdx
	mov	QWORD PTR [rsp+8], rcx
	push	rbp
	push	rdi
	sub	rsp, 232				; 000000e8H
	lea	rbp, QWORD PTR [rsp+32]
	mov	rdi, rsp
	mov	ecx, 58					; 0000003aH
	mov	eax, -858993460				; ccccccccH
	rep stosd
	mov	rcx, QWORD PTR [rsp+264]
	lea	rcx, OFFSET FLAT:__630249ED_pmc_uint_debug@h
	call	__CheckForDebuggerJustMyCode

; 152  :     if (count1 != count2)

	mov	rax, QWORD PTR count2$[rbp]
	cmp	QWORD PTR count1$[rbp], rax
	je	SHORT $LN4@EQUALS_MEM

; 153  :         return (-1);

	mov	eax, -1
	jmp	SHORT $LN1@EQUALS_MEM
$LN4@EQUALS_MEM:
$LN2@EQUALS_MEM:

; 154  :     while (count1 > 0)

	cmp	QWORD PTR count1$[rbp], 0
	jbe	SHORT $LN3@EQUALS_MEM

; 155  :     {
; 156  :         if (*buffer1 != *buffer2)

	mov	rax, QWORD PTR buffer1$[rbp]
	movzx	eax, BYTE PTR [rax]
	mov	rcx, QWORD PTR buffer2$[rbp]
	movzx	ecx, BYTE PTR [rcx]
	cmp	eax, ecx
	je	SHORT $LN5@EQUALS_MEM

; 157  :             return (-1);

	mov	eax, -1
	jmp	SHORT $LN1@EQUALS_MEM
$LN5@EQUALS_MEM:

; 158  :         ++buffer1;

	mov	rax, QWORD PTR buffer1$[rbp]
	inc	rax
	mov	QWORD PTR buffer1$[rbp], rax

; 159  :         ++buffer2;

	mov	rax, QWORD PTR buffer2$[rbp]
	inc	rax
	mov	QWORD PTR buffer2$[rbp], rax

; 160  :         --count1;

	mov	rax, QWORD PTR count1$[rbp]
	dec	rax
	mov	QWORD PTR count1$[rbp], rax

; 161  :     }

	jmp	SHORT $LN2@EQUALS_MEM
$LN3@EQUALS_MEM:

; 162  :     return (0);

	xor	eax, eax
$LN1@EQUALS_MEM:

; 163  : }

	lea	rsp, QWORD PTR [rbp+200]
	pop	rdi
	pop	rbp
	ret	0
_EQUALS_MEMORY ENDP
_TEXT	ENDS
END
