; Listing generated by Microsoft (R) Optimizing Compiler Version 19.16.27026.1 

include listing.inc

INCLUDELIB MSVCRTD
INCLUDELIB OLDNAMES

_DATA	SEGMENT
COMM	uint_number_zero:QWORD
COMM	uint_number_one:QWORD
_DATA	ENDS
msvcjmc	SEGMENT
__7B7A869E_ctype@h DB 01H
__457DD326_basetsd@h DB 01H
__4384A2D9_corecrt_memcpy_s@h DB 01H
__4E51A221_corecrt_wstring@h DB 01H
__2140C079_string@h DB 01H
__1887E595_winnt@h DB 01H
__9FC7C64B_processthreadsapi@h DB 01H
__FA470AEC_memoryapi@h DB 01H
__F37DAFF1_winerror@h DB 01H
__7A450CCC_winbase@h DB 01H
__B4B40122_winioctl@h DB 01H
__86261D59_stralign@h DB 01H
__059414E1_pmc_sint_debug@h DB 01H
__433B2F9A_test_op_subtruct@c DB 01H
msvcjmc	ENDS
PUBLIC	TEST_Subtruct_I_X
PUBLIC	TEST_Subtruct_L_X
PUBLIC	TEST_Subtruct_UX_X
PUBLIC	TEST_Subtruct_X_I
PUBLIC	TEST_Subtruct_X_L
PUBLIC	TEST_Subtruct_X_UX
PUBLIC	TEST_Subtruct_X_X
PUBLIC	__JustMyCode_Default
PUBLIC	??_C@_1EC@NPMCAPKO@?$AAF?$AAr?$AAo?$AAm?$AAB?$AAy?$AAt?$AAe?$AAA?$AAr?$AAr?$AAa?$AAy?$AAn?$PP?$KJ@ ; `string'
PUBLIC	??_C@_1CK@JEFCPOGB@?$AAS?$AAu?$AAb?$AAt?$AAr?$AAu?$AAc?$AAt?$AA_?$AAI?$AA_?$AAX?$AA?5?$AA?$CI?$AA?$CF@ ; `string'
PUBLIC	??_C@_1EA@NGKGKFPL@?$AAS?$AAu?$AAb?$AAt?$AAr?$AAu?$AAc?$AAt?$AA_?$AAI?$AA_?$AAX?$AAn?$PP?$KJ?$AA0@ ; `string'
PUBLIC	??_C@_1DO@DOHJEMND@?$AAT?$AAo?$AAB?$AAy?$AAt?$AAe?$AAA?$AAr?$AAr?$AAa?$AAy?$AAn?$PP?$KJ?$AA0?$PP?$LD@ ; `string'
PUBLIC	??_C@_1BK@CBDJCOBM@?$PP?G?$PP?$PM?$PP?$LP?$AAn?$PP?$IF?$PP?$LJ?$AAL?$AA?$AA?$PP?t?$AAW?$AAj?$AAD@ ; `string'
PUBLIC	??_C@_1CK@HMHBAFBJ@?$AAS?$AAu?$AAb?$AAt?$AAr?$AAu?$AAc?$AAt?$AA_?$AAL?$AA_?$AAX?$AA?5?$AA?$CI?$AA?$CF@ ; `string'
PUBLIC	??_C@_1EA@INDIFGGF@?$AAS?$AAu?$AAb?$AAt?$AAr?$AAu?$AAc?$AAt?$AA_?$AAL?$AA_?$AAX?$AAn?$PP?$KJ?$AA0@ ; `string'
PUBLIC	??_C@_1CM@JOAGBAMJ@?$AAS?$AAu?$AAb?$AAt?$AAr?$AAu?$AAc?$AAt?$AA_?$AAU?$AAX?$AA_?$AAX?$AA?5?$AA?$CI@ ; `string'
PUBLIC	??_C@_1EC@MMAEFCND@?$AAS?$AAu?$AAb?$AAt?$AAr?$AAu?$AAc?$AAt?$AA_?$AAU?$AAX?$AA_?$AAX?$AAn?$PP?$KJ@ ; `string'
PUBLIC	??_C@_1CK@OPLNHEBI@?$AAS?$AAu?$AAb?$AAt?$AAr?$AAu?$AAc?$AAt?$AA_?$AAX?$AA_?$AAI?$AA?5?$AA?$CI?$AA?$CF@ ; `string'
PUBLIC	??_C@_1EA@IKDNHDNM@?$AAS?$AAu?$AAb?$AAt?$AAr?$AAu?$AAc?$AAt?$AA_?$AAX?$AA_?$AAI?$AAn?$PP?$KJ?$AA0@ ; `string'
PUBLIC	??_C@_1CK@MEDHKEAH@?$AAS?$AAu?$AAb?$AAt?$AAr?$AAu?$AAc?$AAt?$AA_?$AAX?$AA_?$AAL?$AA?5?$AA?$CI?$AA?$CF@ ; `string'
PUBLIC	??_C@_1EA@MCHBOOEJ@?$AAS?$AAu?$AAb?$AAt?$AAr?$AAu?$AAc?$AAt?$AA_?$AAX?$AA_?$AAL?$AAn?$PP?$KJ?$AA0@ ; `string'
PUBLIC	??_C@_1CM@KAKNNFML@?$AAS?$AAu?$AAb?$AAt?$AAr?$AAu?$AAc?$AAt?$AA_?$AAX?$AA_?$AAU?$AAX?$AA?5?$AA?$CI@ ; `string'
PUBLIC	??_C@_1EC@ELOBBMPD@?$AAS?$AAu?$AAb?$AAt?$AAr?$AAu?$AAc?$AAt?$AA_?$AAX?$AA_?$AAU?$AAX?$AAn?$PP?$KJ@ ; `string'
PUBLIC	??_C@_1CK@GKBMOEHL@?$AAS?$AAu?$AAb?$AAt?$AAr?$AAu?$AAc?$AAt?$AA_?$AAX?$AA_?$AAX?$AA?5?$AA?$CI?$AA?$CF@ ; `string'
PUBLIC	??_C@_1EA@DIDCJOFM@?$AAS?$AAu?$AAb?$AAt?$AAr?$AAu?$AAc?$AAt?$AA_?$AAX?$AA_?$AAX?$AAn?$PP?$KJ?$AA0@ ; `string'
EXTRN	TEST_Assert:PROC
EXTRN	FormatTestLabel:PROC
EXTRN	FormatTestMesssage:PROC
EXTRN	_RTC_CheckStackVars:PROC
EXTRN	_RTC_InitBase:PROC
EXTRN	_RTC_Shutdown:PROC
EXTRN	__CheckForDebuggerJustMyCode:PROC
EXTRN	__GSHandlerCheck:PROC
EXTRN	__security_check_cookie:PROC
EXTRN	__security_cookie:QWORD
;	COMDAT pdata
pdata	SEGMENT
$pdata$TEST_Subtruct_I_X DD imagerel $LN13
	DD	imagerel $LN13+734
	DD	imagerel $unwind$TEST_Subtruct_I_X
pdata	ENDS
;	COMDAT pdata
pdata	SEGMENT
$pdata$TEST_Subtruct_L_X DD imagerel $LN13
	DD	imagerel $LN13+735
	DD	imagerel $unwind$TEST_Subtruct_L_X
pdata	ENDS
;	COMDAT pdata
pdata	SEGMENT
$pdata$TEST_Subtruct_UX_X DD imagerel $LN16
	DD	imagerel $LN16+901
	DD	imagerel $unwind$TEST_Subtruct_UX_X
pdata	ENDS
;	COMDAT pdata
pdata	SEGMENT
$pdata$TEST_Subtruct_X_I DD imagerel $LN13
	DD	imagerel $LN13+734
	DD	imagerel $unwind$TEST_Subtruct_X_I
pdata	ENDS
;	COMDAT pdata
pdata	SEGMENT
$pdata$TEST_Subtruct_X_L DD imagerel $LN13
	DD	imagerel $LN13+735
	DD	imagerel $unwind$TEST_Subtruct_X_L
pdata	ENDS
;	COMDAT pdata
pdata	SEGMENT
$pdata$TEST_Subtruct_X_UX DD imagerel $LN16
	DD	imagerel $LN16+901
	DD	imagerel $unwind$TEST_Subtruct_X_UX
pdata	ENDS
;	COMDAT pdata
pdata	SEGMENT
$pdata$TEST_Subtruct_X_X DD imagerel $LN16
	DD	imagerel $LN16+907
	DD	imagerel $unwind$TEST_Subtruct_X_X
pdata	ENDS
;	COMDAT pdata
pdata	SEGMENT
$pdata$_EQUALS_MEMORY DD imagerel _EQUALS_MEMORY
	DD	imagerel _EQUALS_MEMORY+198
	DD	imagerel $unwind$_EQUALS_MEMORY
pdata	ENDS
;	COMDAT rtc$TMZ
rtc$TMZ	SEGMENT
_RTC_Shutdown.rtc$TMZ DQ FLAT:_RTC_Shutdown
rtc$TMZ	ENDS
;	COMDAT rtc$IMZ
rtc$IMZ	SEGMENT
_RTC_InitBase.rtc$IMZ DQ FLAT:_RTC_InitBase
rtc$IMZ	ENDS
;	COMDAT ??_C@_1EA@DIDCJOFM@?$AAS?$AAu?$AAb?$AAt?$AAr?$AAu?$AAc?$AAt?$AA_?$AAX?$AA_?$AAX?$AAn?$PP?$KJ?$AA0@
CONST	SEGMENT
??_C@_1EA@DIDCJOFM@?$AAS?$AAu?$AAb?$AAt?$AAr?$AAu?$AAc?$AAt?$AA_?$AAX?$AA_?$AAX?$AAn?$PP?$KJ?$AA0@ DB 'S'
	DB	00H, 'u', 00H, 'b', 00H, 't', 00H, 'r', 00H, 'u', 00H, 'c', 00H
	DB	't', 00H, '_', 00H, 'X', 00H, '_', 00H, 'X', 00H, 'n0', 0a9H, '_'
	DB	'0^', 0b3H, '0', 0fcH, '0', 0c9H, '0L0', 01fH, 'g', 085H, '_', 01aH
	DB	090H, 08aH, '0g0o0j0D0(', 00H, '%', 00H, 'd', 00H, ')', 00H, 00H
	DB	00H						; `string'
CONST	ENDS
;	COMDAT ??_C@_1CK@GKBMOEHL@?$AAS?$AAu?$AAb?$AAt?$AAr?$AAu?$AAc?$AAt?$AA_?$AAX?$AA_?$AAX?$AA?5?$AA?$CI?$AA?$CF@
CONST	SEGMENT
??_C@_1CK@GKBMOEHL@?$AAS?$AAu?$AAb?$AAt?$AAr?$AAu?$AAc?$AAt?$AA_?$AAX?$AA_?$AAX?$AA?5?$AA?$CI?$AA?$CF@ DB 'S'
	DB	00H, 'u', 00H, 'b', 00H, 't', 00H, 'r', 00H, 'u', 00H, 'c', 00H
	DB	't', 00H, '_', 00H, 'X', 00H, '_', 00H, 'X', 00H, ' ', 00H, '('
	DB	00H, '%', 00H, 'd', 00H, '.', 00H, '%', 00H, 'd', 00H, ')', 00H
	DB	00H, 00H					; `string'
CONST	ENDS
;	COMDAT ??_C@_1EC@ELOBBMPD@?$AAS?$AAu?$AAb?$AAt?$AAr?$AAu?$AAc?$AAt?$AA_?$AAX?$AA_?$AAU?$AAX?$AAn?$PP?$KJ@
CONST	SEGMENT
??_C@_1EC@ELOBBMPD@?$AAS?$AAu?$AAb?$AAt?$AAr?$AAu?$AAc?$AAt?$AA_?$AAX?$AA_?$AAU?$AAX?$AAn?$PP?$KJ@ DB 'S'
	DB	00H, 'u', 00H, 'b', 00H, 't', 00H, 'r', 00H, 'u', 00H, 'c', 00H
	DB	't', 00H, '_', 00H, 'X', 00H, '_', 00H, 'U', 00H, 'X', 00H, 'n'
	DB	'0', 0a9H, '_0^', 0b3H, '0', 0fcH, '0', 0c9H, '0L0', 01fH, 'g', 085H
	DB	'_', 01aH, 090H, 08aH, '0g0o0j0D0(', 00H, '%', 00H, 'd', 00H, ')'
	DB	00H, 00H, 00H				; `string'
CONST	ENDS
;	COMDAT ??_C@_1CM@KAKNNFML@?$AAS?$AAu?$AAb?$AAt?$AAr?$AAu?$AAc?$AAt?$AA_?$AAX?$AA_?$AAU?$AAX?$AA?5?$AA?$CI@
CONST	SEGMENT
??_C@_1CM@KAKNNFML@?$AAS?$AAu?$AAb?$AAt?$AAr?$AAu?$AAc?$AAt?$AA_?$AAX?$AA_?$AAU?$AAX?$AA?5?$AA?$CI@ DB 'S'
	DB	00H, 'u', 00H, 'b', 00H, 't', 00H, 'r', 00H, 'u', 00H, 'c', 00H
	DB	't', 00H, '_', 00H, 'X', 00H, '_', 00H, 'U', 00H, 'X', 00H, ' '
	DB	00H, '(', 00H, '%', 00H, 'd', 00H, '.', 00H, '%', 00H, 'd', 00H
	DB	')', 00H, 00H, 00H				; `string'
CONST	ENDS
;	COMDAT ??_C@_1EA@MCHBOOEJ@?$AAS?$AAu?$AAb?$AAt?$AAr?$AAu?$AAc?$AAt?$AA_?$AAX?$AA_?$AAL?$AAn?$PP?$KJ?$AA0@
CONST	SEGMENT
??_C@_1EA@MCHBOOEJ@?$AAS?$AAu?$AAb?$AAt?$AAr?$AAu?$AAc?$AAt?$AA_?$AAX?$AA_?$AAL?$AAn?$PP?$KJ?$AA0@ DB 'S'
	DB	00H, 'u', 00H, 'b', 00H, 't', 00H, 'r', 00H, 'u', 00H, 'c', 00H
	DB	't', 00H, '_', 00H, 'X', 00H, '_', 00H, 'L', 00H, 'n0', 0a9H, '_'
	DB	'0^', 0b3H, '0', 0fcH, '0', 0c9H, '0L0', 01fH, 'g', 085H, '_', 01aH
	DB	090H, 08aH, '0g0o0j0D0(', 00H, '%', 00H, 'd', 00H, ')', 00H, 00H
	DB	00H						; `string'
CONST	ENDS
;	COMDAT ??_C@_1CK@MEDHKEAH@?$AAS?$AAu?$AAb?$AAt?$AAr?$AAu?$AAc?$AAt?$AA_?$AAX?$AA_?$AAL?$AA?5?$AA?$CI?$AA?$CF@
CONST	SEGMENT
??_C@_1CK@MEDHKEAH@?$AAS?$AAu?$AAb?$AAt?$AAr?$AAu?$AAc?$AAt?$AA_?$AAX?$AA_?$AAL?$AA?5?$AA?$CI?$AA?$CF@ DB 'S'
	DB	00H, 'u', 00H, 'b', 00H, 't', 00H, 'r', 00H, 'u', 00H, 'c', 00H
	DB	't', 00H, '_', 00H, 'X', 00H, '_', 00H, 'L', 00H, ' ', 00H, '('
	DB	00H, '%', 00H, 'd', 00H, '.', 00H, '%', 00H, 'd', 00H, ')', 00H
	DB	00H, 00H					; `string'
CONST	ENDS
;	COMDAT ??_C@_1EA@IKDNHDNM@?$AAS?$AAu?$AAb?$AAt?$AAr?$AAu?$AAc?$AAt?$AA_?$AAX?$AA_?$AAI?$AAn?$PP?$KJ?$AA0@
CONST	SEGMENT
??_C@_1EA@IKDNHDNM@?$AAS?$AAu?$AAb?$AAt?$AAr?$AAu?$AAc?$AAt?$AA_?$AAX?$AA_?$AAI?$AAn?$PP?$KJ?$AA0@ DB 'S'
	DB	00H, 'u', 00H, 'b', 00H, 't', 00H, 'r', 00H, 'u', 00H, 'c', 00H
	DB	't', 00H, '_', 00H, 'X', 00H, '_', 00H, 'I', 00H, 'n0', 0a9H, '_'
	DB	'0^', 0b3H, '0', 0fcH, '0', 0c9H, '0L0', 01fH, 'g', 085H, '_', 01aH
	DB	090H, 08aH, '0g0o0j0D0(', 00H, '%', 00H, 'd', 00H, ')', 00H, 00H
	DB	00H						; `string'
CONST	ENDS
;	COMDAT ??_C@_1CK@OPLNHEBI@?$AAS?$AAu?$AAb?$AAt?$AAr?$AAu?$AAc?$AAt?$AA_?$AAX?$AA_?$AAI?$AA?5?$AA?$CI?$AA?$CF@
CONST	SEGMENT
??_C@_1CK@OPLNHEBI@?$AAS?$AAu?$AAb?$AAt?$AAr?$AAu?$AAc?$AAt?$AA_?$AAX?$AA_?$AAI?$AA?5?$AA?$CI?$AA?$CF@ DB 'S'
	DB	00H, 'u', 00H, 'b', 00H, 't', 00H, 'r', 00H, 'u', 00H, 'c', 00H
	DB	't', 00H, '_', 00H, 'X', 00H, '_', 00H, 'I', 00H, ' ', 00H, '('
	DB	00H, '%', 00H, 'd', 00H, '.', 00H, '%', 00H, 'd', 00H, ')', 00H
	DB	00H, 00H					; `string'
CONST	ENDS
;	COMDAT ??_C@_1EC@MMAEFCND@?$AAS?$AAu?$AAb?$AAt?$AAr?$AAu?$AAc?$AAt?$AA_?$AAU?$AAX?$AA_?$AAX?$AAn?$PP?$KJ@
CONST	SEGMENT
??_C@_1EC@MMAEFCND@?$AAS?$AAu?$AAb?$AAt?$AAr?$AAu?$AAc?$AAt?$AA_?$AAU?$AAX?$AA_?$AAX?$AAn?$PP?$KJ@ DB 'S'
	DB	00H, 'u', 00H, 'b', 00H, 't', 00H, 'r', 00H, 'u', 00H, 'c', 00H
	DB	't', 00H, '_', 00H, 'U', 00H, 'X', 00H, '_', 00H, 'X', 00H, 'n'
	DB	'0', 0a9H, '_0^', 0b3H, '0', 0fcH, '0', 0c9H, '0L0', 01fH, 'g', 085H
	DB	'_', 01aH, 090H, 08aH, '0g0o0j0D0(', 00H, '%', 00H, 'd', 00H, ')'
	DB	00H, 00H, 00H				; `string'
CONST	ENDS
;	COMDAT ??_C@_1CM@JOAGBAMJ@?$AAS?$AAu?$AAb?$AAt?$AAr?$AAu?$AAc?$AAt?$AA_?$AAU?$AAX?$AA_?$AAX?$AA?5?$AA?$CI@
CONST	SEGMENT
??_C@_1CM@JOAGBAMJ@?$AAS?$AAu?$AAb?$AAt?$AAr?$AAu?$AAc?$AAt?$AA_?$AAU?$AAX?$AA_?$AAX?$AA?5?$AA?$CI@ DB 'S'
	DB	00H, 'u', 00H, 'b', 00H, 't', 00H, 'r', 00H, 'u', 00H, 'c', 00H
	DB	't', 00H, '_', 00H, 'U', 00H, 'X', 00H, '_', 00H, 'X', 00H, ' '
	DB	00H, '(', 00H, '%', 00H, 'd', 00H, '.', 00H, '%', 00H, 'd', 00H
	DB	')', 00H, 00H, 00H				; `string'
CONST	ENDS
;	COMDAT ??_C@_1EA@INDIFGGF@?$AAS?$AAu?$AAb?$AAt?$AAr?$AAu?$AAc?$AAt?$AA_?$AAL?$AA_?$AAX?$AAn?$PP?$KJ?$AA0@
CONST	SEGMENT
??_C@_1EA@INDIFGGF@?$AAS?$AAu?$AAb?$AAt?$AAr?$AAu?$AAc?$AAt?$AA_?$AAL?$AA_?$AAX?$AAn?$PP?$KJ?$AA0@ DB 'S'
	DB	00H, 'u', 00H, 'b', 00H, 't', 00H, 'r', 00H, 'u', 00H, 'c', 00H
	DB	't', 00H, '_', 00H, 'L', 00H, '_', 00H, 'X', 00H, 'n0', 0a9H, '_'
	DB	'0^', 0b3H, '0', 0fcH, '0', 0c9H, '0L0', 01fH, 'g', 085H, '_', 01aH
	DB	090H, 08aH, '0g0o0j0D0(', 00H, '%', 00H, 'd', 00H, ')', 00H, 00H
	DB	00H						; `string'
CONST	ENDS
;	COMDAT ??_C@_1CK@HMHBAFBJ@?$AAS?$AAu?$AAb?$AAt?$AAr?$AAu?$AAc?$AAt?$AA_?$AAL?$AA_?$AAX?$AA?5?$AA?$CI?$AA?$CF@
CONST	SEGMENT
??_C@_1CK@HMHBAFBJ@?$AAS?$AAu?$AAb?$AAt?$AAr?$AAu?$AAc?$AAt?$AA_?$AAL?$AA_?$AAX?$AA?5?$AA?$CI?$AA?$CF@ DB 'S'
	DB	00H, 'u', 00H, 'b', 00H, 't', 00H, 'r', 00H, 'u', 00H, 'c', 00H
	DB	't', 00H, '_', 00H, 'L', 00H, '_', 00H, 'X', 00H, ' ', 00H, '('
	DB	00H, '%', 00H, 'd', 00H, '.', 00H, '%', 00H, 'd', 00H, ')', 00H
	DB	00H, 00H					; `string'
CONST	ENDS
;	COMDAT ??_C@_1BK@CBDJCOBM@?$PP?G?$PP?$PM?$PP?$LP?$AAn?$PP?$IF?$PP?$LJ?$AAL?$AA?$AA?$PP?t?$AAW?$AAj?$AAD@
CONST	SEGMENT
??_C@_1BK@CBDJCOBM@?$PP?G?$PP?$PM?$PP?$LP?$AAn?$PP?$IF?$PP?$LJ?$AAL?$AA?$AA?$PP?t?$AAW?$AAj?$AAD@ DB 0c7H
	DB	'0', 0fcH, '0', 0bfH, '0n0', 085H, 'Q', 0b9H, '[L0', 00H, 'N', 0f4H
	DB	081H, 'W0j0D0', 00H, 00H			; `string'
CONST	ENDS
;	COMDAT ??_C@_1DO@DOHJEMND@?$AAT?$AAo?$AAB?$AAy?$AAt?$AAe?$AAA?$AAr?$AAr?$AAa?$AAy?$AAn?$PP?$KJ?$AA0?$PP?$LD@
CONST	SEGMENT
??_C@_1DO@DOHJEMND@?$AAT?$AAo?$AAB?$AAy?$AAt?$AAe?$AAA?$AAr?$AAr?$AAa?$AAy?$AAn?$PP?$KJ?$AA0?$PP?$LD@ DB 'T'
	DB	00H, 'o', 00H, 'B', 00H, 'y', 00H, 't', 00H, 'e', 00H, 'A', 00H
	DB	'r', 00H, 'r', 00H, 'a', 00H, 'y', 00H, 'n0', 0a9H, '_0^', 0b3H
	DB	'0', 0fcH, '0', 0c9H, '0L0', 01fH, 'g', 085H, '_', 01aH, 090H, 08aH
	DB	'0g0o0j0D0(', 00H, '%', 00H, 'd', 00H, ')', 00H, 00H, 00H ; `string'
CONST	ENDS
;	COMDAT ??_C@_1EA@NGKGKFPL@?$AAS?$AAu?$AAb?$AAt?$AAr?$AAu?$AAc?$AAt?$AA_?$AAI?$AA_?$AAX?$AAn?$PP?$KJ?$AA0@
CONST	SEGMENT
??_C@_1EA@NGKGKFPL@?$AAS?$AAu?$AAb?$AAt?$AAr?$AAu?$AAc?$AAt?$AA_?$AAI?$AA_?$AAX?$AAn?$PP?$KJ?$AA0@ DB 'S'
	DB	00H, 'u', 00H, 'b', 00H, 't', 00H, 'r', 00H, 'u', 00H, 'c', 00H
	DB	't', 00H, '_', 00H, 'I', 00H, '_', 00H, 'X', 00H, 'n0', 0a9H, '_'
	DB	'0^', 0b3H, '0', 0fcH, '0', 0c9H, '0L0', 01fH, 'g', 085H, '_', 01aH
	DB	090H, 08aH, '0g0o0j0D0(', 00H, '%', 00H, 'd', 00H, ')', 00H, 00H
	DB	00H						; `string'
CONST	ENDS
;	COMDAT ??_C@_1CK@JEFCPOGB@?$AAS?$AAu?$AAb?$AAt?$AAr?$AAu?$AAc?$AAt?$AA_?$AAI?$AA_?$AAX?$AA?5?$AA?$CI?$AA?$CF@
CONST	SEGMENT
??_C@_1CK@JEFCPOGB@?$AAS?$AAu?$AAb?$AAt?$AAr?$AAu?$AAc?$AAt?$AA_?$AAI?$AA_?$AAX?$AA?5?$AA?$CI?$AA?$CF@ DB 'S'
	DB	00H, 'u', 00H, 'b', 00H, 't', 00H, 'r', 00H, 'u', 00H, 'c', 00H
	DB	't', 00H, '_', 00H, 'I', 00H, '_', 00H, 'X', 00H, ' ', 00H, '('
	DB	00H, '%', 00H, 'd', 00H, '.', 00H, '%', 00H, 'd', 00H, ')', 00H
	DB	00H, 00H					; `string'
CONST	ENDS
;	COMDAT ??_C@_1EC@NPMCAPKO@?$AAF?$AAr?$AAo?$AAm?$AAB?$AAy?$AAt?$AAe?$AAA?$AAr?$AAr?$AAa?$AAy?$AAn?$PP?$KJ@
CONST	SEGMENT
??_C@_1EC@NPMCAPKO@?$AAF?$AAr?$AAo?$AAm?$AAB?$AAy?$AAt?$AAe?$AAA?$AAr?$AAr?$AAa?$AAy?$AAn?$PP?$KJ@ DB 'F'
	DB	00H, 'r', 00H, 'o', 00H, 'm', 00H, 'B', 00H, 'y', 00H, 't', 00H
	DB	'e', 00H, 'A', 00H, 'r', 00H, 'r', 00H, 'a', 00H, 'y', 00H, 'n'
	DB	'0', 0a9H, '_0^', 0b3H, '0', 0fcH, '0', 0c9H, '0L0', 01fH, 'g', 085H
	DB	'_', 01aH, 090H, 08aH, '0g0o0j0D0(', 00H, '%', 00H, 'd', 00H, ')'
	DB	00H, 00H, 00H				; `string'
CONST	ENDS
;	COMDAT xdata
xdata	SEGMENT
$unwind$_EQUALS_MEMORY DD 025053901H
	DD	011d2322H
	DD	07016001dH
	DD	05015H
xdata	ENDS
;	COMDAT xdata
xdata	SEGMENT
$unwind$TEST_Subtruct_X_X DD 025054a19H
	DD	011d2322H
	DD	07016007bH
	DD	05015H
	DD	imagerel __GSHandlerCheck
	DD	03c0H
xdata	ENDS
;	COMDAT CONST
CONST	SEGMENT
TEST_Subtruct_X_X$rtcName$0 DB 075H
	DB	00H
	ORG $+2
TEST_Subtruct_X_X$rtcName$1 DB 076H
	DB	00H
	ORG $+2
TEST_Subtruct_X_X$rtcName$2 DB 077H
	DB	00H
	ORG $+6
TEST_Subtruct_X_X$rtcName$3 DB 061H
	DB	063H
	DB	074H
	DB	075H
	DB	061H
	DB	06cH
	DB	05fH
	DB	07aH
	DB	05fH
	DB	062H
	DB	075H
	DB	066H
	DB	00H
	ORG $+3
TEST_Subtruct_X_X$rtcName$4 DB 061H
	DB	063H
	DB	074H
	DB	075H
	DB	061H
	DB	06cH
	DB	05fH
	DB	07aH
	DB	05fH
	DB	062H
	DB	075H
	DB	066H
	DB	05fH
	DB	073H
	DB	069H
	DB	07aH
	DB	065H
	DB	00H
	ORG $+14
TEST_Subtruct_X_X$rtcVarDesc DD 01a8H
	DD	08H
	DQ	FLAT:TEST_Subtruct_X_X$rtcName$4
	DD	090H
	DD	0100H
	DQ	FLAT:TEST_Subtruct_X_X$rtcName$3
	DD	068H
	DD	08H
	DQ	FLAT:TEST_Subtruct_X_X$rtcName$2
	DD	048H
	DD	08H
	DQ	FLAT:TEST_Subtruct_X_X$rtcName$1
	DD	028H
	DD	08H
	DQ	FLAT:TEST_Subtruct_X_X$rtcName$0
	ORG $+240
TEST_Subtruct_X_X$rtcFrameData DD 05H
	DD	00H
	DQ	FLAT:TEST_Subtruct_X_X$rtcVarDesc
CONST	ENDS
;	COMDAT xdata
xdata	SEGMENT
$unwind$TEST_Subtruct_X_UX DD 025054a19H
	DD	011d2322H
	DD	07016007bH
	DD	05015H
	DD	imagerel __GSHandlerCheck
	DD	03c0H
xdata	ENDS
;	COMDAT CONST
CONST	SEGMENT
TEST_Subtruct_X_UX$rtcName$0 DB 075H
	DB	00H
	ORG $+2
TEST_Subtruct_X_UX$rtcName$1 DB 076H
	DB	00H
	ORG $+2
TEST_Subtruct_X_UX$rtcName$2 DB 077H
	DB	00H
	ORG $+6
TEST_Subtruct_X_UX$rtcName$3 DB 061H
	DB	063H
	DB	074H
	DB	075H
	DB	061H
	DB	06cH
	DB	05fH
	DB	07aH
	DB	05fH
	DB	062H
	DB	075H
	DB	066H
	DB	00H
	ORG $+3
TEST_Subtruct_X_UX$rtcName$4 DB 061H
	DB	063H
	DB	074H
	DB	075H
	DB	061H
	DB	06cH
	DB	05fH
	DB	07aH
	DB	05fH
	DB	062H
	DB	075H
	DB	066H
	DB	05fH
	DB	073H
	DB	069H
	DB	07aH
	DB	065H
	DB	00H
	ORG $+14
TEST_Subtruct_X_UX$rtcVarDesc DD 01a8H
	DD	08H
	DQ	FLAT:TEST_Subtruct_X_UX$rtcName$4
	DD	090H
	DD	0100H
	DQ	FLAT:TEST_Subtruct_X_UX$rtcName$3
	DD	068H
	DD	08H
	DQ	FLAT:TEST_Subtruct_X_UX$rtcName$2
	DD	048H
	DD	08H
	DQ	FLAT:TEST_Subtruct_X_UX$rtcName$1
	DD	028H
	DD	08H
	DQ	FLAT:TEST_Subtruct_X_UX$rtcName$0
	ORG $+240
TEST_Subtruct_X_UX$rtcFrameData DD 05H
	DD	00H
	DQ	FLAT:TEST_Subtruct_X_UX$rtcVarDesc
CONST	ENDS
;	COMDAT xdata
xdata	SEGMENT
$unwind$TEST_Subtruct_X_L DD 025054a19H
	DD	011d2322H
	DD	07016005bH
	DD	05015H
	DD	imagerel __GSHandlerCheck
	DD	02c0H
xdata	ENDS
;	COMDAT CONST
CONST	SEGMENT
TEST_Subtruct_X_L$rtcName$0 DB 075H
	DB	00H
	ORG $+2
TEST_Subtruct_X_L$rtcName$1 DB 077H
	DB	00H
	ORG $+2
TEST_Subtruct_X_L$rtcName$2 DB 061H
	DB	063H
	DB	074H
	DB	075H
	DB	061H
	DB	06cH
	DB	05fH
	DB	077H
	DB	05fH
	DB	062H
	DB	075H
	DB	066H
	DB	00H
	ORG $+3
TEST_Subtruct_X_L$rtcName$3 DB 061H
	DB	063H
	DB	074H
	DB	075H
	DB	061H
	DB	06cH
	DB	05fH
	DB	077H
	DB	05fH
	DB	062H
	DB	075H
	DB	066H
	DB	05fH
	DB	073H
	DB	069H
	DB	07aH
	DB	065H
	DB	00H
	ORG $+6
TEST_Subtruct_X_L$rtcVarDesc DD 0188H
	DD	08H
	DQ	FLAT:TEST_Subtruct_X_L$rtcName$3
	DD	070H
	DD	0100H
	DQ	FLAT:TEST_Subtruct_X_L$rtcName$2
	DD	048H
	DD	08H
	DQ	FLAT:TEST_Subtruct_X_L$rtcName$1
	DD	028H
	DD	08H
	DQ	FLAT:TEST_Subtruct_X_L$rtcName$0
	ORG $+192
TEST_Subtruct_X_L$rtcFrameData DD 04H
	DD	00H
	DQ	FLAT:TEST_Subtruct_X_L$rtcVarDesc
CONST	ENDS
;	COMDAT xdata
xdata	SEGMENT
$unwind$TEST_Subtruct_X_I DD 025054a19H
	DD	011d2322H
	DD	07016005bH
	DD	05015H
	DD	imagerel __GSHandlerCheck
	DD	02c0H
xdata	ENDS
;	COMDAT CONST
CONST	SEGMENT
TEST_Subtruct_X_I$rtcName$0 DB 075H
	DB	00H
	ORG $+2
TEST_Subtruct_X_I$rtcName$1 DB 077H
	DB	00H
	ORG $+2
TEST_Subtruct_X_I$rtcName$2 DB 061H
	DB	063H
	DB	074H
	DB	075H
	DB	061H
	DB	06cH
	DB	05fH
	DB	077H
	DB	05fH
	DB	062H
	DB	075H
	DB	066H
	DB	00H
	ORG $+3
TEST_Subtruct_X_I$rtcName$3 DB 061H
	DB	063H
	DB	074H
	DB	075H
	DB	061H
	DB	06cH
	DB	05fH
	DB	077H
	DB	05fH
	DB	062H
	DB	075H
	DB	066H
	DB	05fH
	DB	073H
	DB	069H
	DB	07aH
	DB	065H
	DB	00H
	ORG $+6
TEST_Subtruct_X_I$rtcVarDesc DD 0188H
	DD	08H
	DQ	FLAT:TEST_Subtruct_X_I$rtcName$3
	DD	070H
	DD	0100H
	DQ	FLAT:TEST_Subtruct_X_I$rtcName$2
	DD	048H
	DD	08H
	DQ	FLAT:TEST_Subtruct_X_I$rtcName$1
	DD	028H
	DD	08H
	DQ	FLAT:TEST_Subtruct_X_I$rtcName$0
	ORG $+192
TEST_Subtruct_X_I$rtcFrameData DD 04H
	DD	00H
	DQ	FLAT:TEST_Subtruct_X_I$rtcVarDesc
CONST	ENDS
;	COMDAT xdata
xdata	SEGMENT
$unwind$TEST_Subtruct_UX_X DD 025054a19H
	DD	011d2322H
	DD	07016007bH
	DD	05015H
	DD	imagerel __GSHandlerCheck
	DD	03c0H
xdata	ENDS
;	COMDAT CONST
CONST	SEGMENT
TEST_Subtruct_UX_X$rtcName$0 DB 075H
	DB	00H
	ORG $+2
TEST_Subtruct_UX_X$rtcName$1 DB 076H
	DB	00H
	ORG $+2
TEST_Subtruct_UX_X$rtcName$2 DB 077H
	DB	00H
	ORG $+6
TEST_Subtruct_UX_X$rtcName$3 DB 061H
	DB	063H
	DB	074H
	DB	075H
	DB	061H
	DB	06cH
	DB	05fH
	DB	077H
	DB	05fH
	DB	062H
	DB	075H
	DB	066H
	DB	00H
	ORG $+3
TEST_Subtruct_UX_X$rtcName$4 DB 061H
	DB	063H
	DB	074H
	DB	075H
	DB	061H
	DB	06cH
	DB	05fH
	DB	077H
	DB	05fH
	DB	062H
	DB	075H
	DB	066H
	DB	05fH
	DB	073H
	DB	069H
	DB	07aH
	DB	065H
	DB	00H
	ORG $+14
TEST_Subtruct_UX_X$rtcVarDesc DD 01a8H
	DD	08H
	DQ	FLAT:TEST_Subtruct_UX_X$rtcName$4
	DD	090H
	DD	0100H
	DQ	FLAT:TEST_Subtruct_UX_X$rtcName$3
	DD	068H
	DD	08H
	DQ	FLAT:TEST_Subtruct_UX_X$rtcName$2
	DD	048H
	DD	08H
	DQ	FLAT:TEST_Subtruct_UX_X$rtcName$1
	DD	028H
	DD	08H
	DQ	FLAT:TEST_Subtruct_UX_X$rtcName$0
	ORG $+240
TEST_Subtruct_UX_X$rtcFrameData DD 05H
	DD	00H
	DQ	FLAT:TEST_Subtruct_UX_X$rtcVarDesc
CONST	ENDS
;	COMDAT xdata
xdata	SEGMENT
$unwind$TEST_Subtruct_L_X DD 025054a19H
	DD	011d2322H
	DD	07016005bH
	DD	05015H
	DD	imagerel __GSHandlerCheck
	DD	02c0H
xdata	ENDS
;	COMDAT CONST
CONST	SEGMENT
TEST_Subtruct_L_X$rtcName$0 DB 076H
	DB	00H
	ORG $+2
TEST_Subtruct_L_X$rtcName$1 DB 077H
	DB	00H
	ORG $+2
TEST_Subtruct_L_X$rtcName$2 DB 061H
	DB	063H
	DB	074H
	DB	075H
	DB	061H
	DB	06cH
	DB	05fH
	DB	077H
	DB	05fH
	DB	062H
	DB	075H
	DB	066H
	DB	00H
	ORG $+3
TEST_Subtruct_L_X$rtcName$3 DB 061H
	DB	063H
	DB	074H
	DB	075H
	DB	061H
	DB	06cH
	DB	05fH
	DB	077H
	DB	05fH
	DB	062H
	DB	075H
	DB	066H
	DB	05fH
	DB	073H
	DB	069H
	DB	07aH
	DB	065H
	DB	00H
	ORG $+6
TEST_Subtruct_L_X$rtcVarDesc DD 0188H
	DD	08H
	DQ	FLAT:TEST_Subtruct_L_X$rtcName$3
	DD	070H
	DD	0100H
	DQ	FLAT:TEST_Subtruct_L_X$rtcName$2
	DD	048H
	DD	08H
	DQ	FLAT:TEST_Subtruct_L_X$rtcName$1
	DD	028H
	DD	08H
	DQ	FLAT:TEST_Subtruct_L_X$rtcName$0
	ORG $+192
TEST_Subtruct_L_X$rtcFrameData DD 04H
	DD	00H
	DQ	FLAT:TEST_Subtruct_L_X$rtcVarDesc
CONST	ENDS
;	COMDAT xdata
xdata	SEGMENT
$unwind$TEST_Subtruct_I_X DD 025054a19H
	DD	011d2322H
	DD	07016005bH
	DD	05015H
	DD	imagerel __GSHandlerCheck
	DD	02c0H
xdata	ENDS
;	COMDAT CONST
CONST	SEGMENT
TEST_Subtruct_I_X$rtcName$0 DB 076H
	DB	00H
	ORG $+2
TEST_Subtruct_I_X$rtcName$1 DB 077H
	DB	00H
	ORG $+2
TEST_Subtruct_I_X$rtcName$2 DB 061H
	DB	063H
	DB	074H
	DB	075H
	DB	061H
	DB	06cH
	DB	05fH
	DB	077H
	DB	05fH
	DB	062H
	DB	075H
	DB	066H
	DB	00H
	ORG $+3
TEST_Subtruct_I_X$rtcName$3 DB 061H
	DB	063H
	DB	074H
	DB	075H
	DB	061H
	DB	06cH
	DB	05fH
	DB	077H
	DB	05fH
	DB	062H
	DB	075H
	DB	066H
	DB	05fH
	DB	073H
	DB	069H
	DB	07aH
	DB	065H
	DB	00H
	ORG $+6
TEST_Subtruct_I_X$rtcVarDesc DD 0188H
	DD	08H
	DQ	FLAT:TEST_Subtruct_I_X$rtcName$3
	DD	070H
	DD	0100H
	DQ	FLAT:TEST_Subtruct_I_X$rtcName$2
	DD	048H
	DD	08H
	DQ	FLAT:TEST_Subtruct_I_X$rtcName$1
	DD	028H
	DD	08H
	DQ	FLAT:TEST_Subtruct_I_X$rtcName$0
	ORG $+192
TEST_Subtruct_I_X$rtcFrameData DD 04H
	DD	00H
	DQ	FLAT:TEST_Subtruct_I_X$rtcVarDesc
CONST	ENDS
; Function compile flags: /Odt
;	COMDAT __JustMyCode_Default
_TEXT	SEGMENT
__JustMyCode_Default PROC				; COMDAT
	ret	0
__JustMyCode_Default ENDP
_TEXT	ENDS
; Function compile flags: /Odtp /RTCsu /ZI
; File z:\sources\lunor\repos\rougemeilland\palmtree.math.core.sint\palmtree.math.core.sint\pmc_sint_debug.h
;	COMDAT _EQUALS_MEMORY
_TEXT	SEGMENT
buffer1$ = 224
count1$ = 232
buffer2$ = 240
count2$ = 248
_EQUALS_MEMORY PROC					; COMDAT

; 138  : {

	mov	QWORD PTR [rsp+32], r9
	mov	QWORD PTR [rsp+24], r8
	mov	QWORD PTR [rsp+16], rdx
	mov	QWORD PTR [rsp+8], rcx
	push	rbp
	push	rdi
	sub	rsp, 232				; 000000e8H
	lea	rbp, QWORD PTR [rsp+32]
	mov	rdi, rsp
	mov	ecx, 58					; 0000003aH
	mov	eax, -858993460				; ccccccccH
	rep stosd
	mov	rcx, QWORD PTR [rsp+264]
	lea	rcx, OFFSET FLAT:__059414E1_pmc_sint_debug@h
	call	__CheckForDebuggerJustMyCode

; 139  :     if (count1 != count2)

	mov	rax, QWORD PTR count2$[rbp]
	cmp	QWORD PTR count1$[rbp], rax
	je	SHORT $LN4@EQUALS_MEM

; 140  :         return (-1);

	mov	eax, -1
	jmp	SHORT $LN1@EQUALS_MEM
$LN4@EQUALS_MEM:
$LN2@EQUALS_MEM:

; 141  :     while (count1 > 0)

	cmp	QWORD PTR count1$[rbp], 0
	jbe	SHORT $LN3@EQUALS_MEM

; 142  :     {
; 143  :         if (*buffer1 != *buffer2)

	mov	rax, QWORD PTR buffer1$[rbp]
	movzx	eax, BYTE PTR [rax]
	mov	rcx, QWORD PTR buffer2$[rbp]
	movzx	ecx, BYTE PTR [rcx]
	cmp	eax, ecx
	je	SHORT $LN5@EQUALS_MEM

; 144  :             return (-1);

	mov	eax, -1
	jmp	SHORT $LN1@EQUALS_MEM
$LN5@EQUALS_MEM:

; 145  :         ++buffer1;

	mov	rax, QWORD PTR buffer1$[rbp]
	inc	rax
	mov	QWORD PTR buffer1$[rbp], rax

; 146  :         ++buffer2;

	mov	rax, QWORD PTR buffer2$[rbp]
	inc	rax
	mov	QWORD PTR buffer2$[rbp], rax

; 147  :         --count1;

	mov	rax, QWORD PTR count1$[rbp]
	dec	rax
	mov	QWORD PTR count1$[rbp], rax

; 148  :     }

	jmp	SHORT $LN2@EQUALS_MEM
$LN3@EQUALS_MEM:

; 149  :     return (0);

	xor	eax, eax
$LN1@EQUALS_MEM:

; 150  : }

	lea	rsp, QWORD PTR [rbp+200]
	pop	rdi
	pop	rbp
	ret	0
_EQUALS_MEMORY ENDP
_TEXT	ENDS
; Function compile flags: /Odtp /RTCsu /ZI
; File z:\sources\lunor\repos\rougemeilland\palmtree.math.core.sint\palmtree.math.core.sint\test_op_subtruct.c
;	COMDAT TEST_Subtruct_X_X
_TEXT	SEGMENT
u$ = 8
v$ = 40
w$ = 72
actual_z_buf$ = 112
actual_z_buf_size$ = 392
result$ = 420
u_result$ = 452
v_result$ = 484
w_result$ = 516
tv176 = 916
tv161 = 916
tv142 = 916
tv92 = 916
tv74 = 916
tv150 = 920
tv132 = 920
tv82 = 920
tv64 = 920
__$ArrayPad$ = 928
env$ = 976
ep$ = 984
no$ = 992
u_buf$ = 1000
u_buf_size$ = 1008
v_buf$ = 1016
v_buf_size$ = 1024
desired_w_buf$ = 1032
desired_w_buf_size$ = 1040
TEST_Subtruct_X_X PROC					; COMDAT

; 155  : {

$LN16:
	mov	QWORD PTR [rsp+32], r9
	mov	DWORD PTR [rsp+24], r8d
	mov	QWORD PTR [rsp+16], rdx
	mov	QWORD PTR [rsp+8], rcx
	push	rbp
	push	rdi
	sub	rsp, 984				; 000003d8H
	lea	rbp, QWORD PTR [rsp+32]
	mov	rdi, rsp
	mov	ecx, 246				; 000000f6H
	mov	eax, -858993460				; ccccccccH
	rep stosd
	mov	rcx, QWORD PTR [rsp+1016]
	mov	rax, QWORD PTR __security_cookie
	xor	rax, rbp
	mov	QWORD PTR __$ArrayPad$[rbp], rax
	lea	rcx, OFFSET FLAT:__433B2F9A_test_op_subtruct@c
	call	__CheckForDebuggerJustMyCode

; 156  :     PMC_HANDLE_SINT u;
; 157  :     PMC_HANDLE_SINT v;
; 158  :     PMC_HANDLE_SINT w;
; 159  :     unsigned char actual_z_buf[256];
; 160  :     size_t actual_z_buf_size;
; 161  :     PMC_STATUS_CODE result;
; 162  :     PMC_STATUS_CODE u_result;
; 163  :     PMC_STATUS_CODE v_result;
; 164  :     PMC_STATUS_CODE w_result;
; 165  :     TEST_Assert(env, FormatTestLabel(L"Subtruct_X_X (%d.%d)", no, 1), (u_result = ep->FromByteArray(u_buf, u_buf_size, &u)) == PMC_STATUS_OK, FormatTestMesssage(L"FromByteArrayの復帰コードが期待通りではない(%d)", u_result));

	lea	r8, QWORD PTR u$[rbp]
	mov	rdx, QWORD PTR u_buf_size$[rbp]
	mov	rcx, QWORD PTR u_buf$[rbp]
	mov	rax, QWORD PTR ep$[rbp]
	call	QWORD PTR [rax+600]
	mov	DWORD PTR u_result$[rbp], eax
	cmp	DWORD PTR u_result$[rbp], 0
	jne	SHORT $LN6@TEST_Subtr
	mov	DWORD PTR tv74[rbp], 1
	jmp	SHORT $LN7@TEST_Subtr
$LN6@TEST_Subtr:
	mov	DWORD PTR tv74[rbp], 0
$LN7@TEST_Subtr:
	mov	edx, DWORD PTR u_result$[rbp]
	lea	rcx, OFFSET FLAT:??_C@_1EC@NPMCAPKO@?$AAF?$AAr?$AAo?$AAm?$AAB?$AAy?$AAt?$AAe?$AAA?$AAr?$AAr?$AAa?$AAy?$AAn?$PP?$KJ@
	call	FormatTestMesssage
	mov	QWORD PTR tv64[rbp], rax
	mov	r8d, 1
	mov	edx, DWORD PTR no$[rbp]
	lea	rcx, OFFSET FLAT:??_C@_1CK@GKBMOEHL@?$AAS?$AAu?$AAb?$AAt?$AAr?$AAu?$AAc?$AAt?$AA_?$AAX?$AA_?$AAX?$AA?5?$AA?$CI?$AA?$CF@
	call	FormatTestLabel
	mov	rcx, QWORD PTR tv64[rbp]
	mov	r9, rcx
	mov	r8d, DWORD PTR tv74[rbp]
	mov	rdx, rax
	mov	rcx, QWORD PTR env$[rbp]
	call	TEST_Assert

; 166  :     TEST_Assert(env, FormatTestLabel(L"Subtruct_X_X (%d.%d)", no, 2), (v_result = ep->FromByteArray(v_buf, v_buf_size, &v)) == PMC_STATUS_OK, FormatTestMesssage(L"FromByteArrayの復帰コードが期待通りではない(%d)", v_result));

	lea	r8, QWORD PTR v$[rbp]
	mov	rdx, QWORD PTR v_buf_size$[rbp]
	mov	rcx, QWORD PTR v_buf$[rbp]
	mov	rax, QWORD PTR ep$[rbp]
	call	QWORD PTR [rax+600]
	mov	DWORD PTR v_result$[rbp], eax
	cmp	DWORD PTR v_result$[rbp], 0
	jne	SHORT $LN8@TEST_Subtr
	mov	DWORD PTR tv92[rbp], 1
	jmp	SHORT $LN9@TEST_Subtr
$LN8@TEST_Subtr:
	mov	DWORD PTR tv92[rbp], 0
$LN9@TEST_Subtr:
	mov	edx, DWORD PTR v_result$[rbp]
	lea	rcx, OFFSET FLAT:??_C@_1EC@NPMCAPKO@?$AAF?$AAr?$AAo?$AAm?$AAB?$AAy?$AAt?$AAe?$AAA?$AAr?$AAr?$AAa?$AAy?$AAn?$PP?$KJ@
	call	FormatTestMesssage
	mov	QWORD PTR tv82[rbp], rax
	mov	r8d, 2
	mov	edx, DWORD PTR no$[rbp]
	lea	rcx, OFFSET FLAT:??_C@_1CK@GKBMOEHL@?$AAS?$AAu?$AAb?$AAt?$AAr?$AAu?$AAc?$AAt?$AA_?$AAX?$AA_?$AAX?$AA?5?$AA?$CI?$AA?$CF@
	call	FormatTestLabel
	mov	rcx, QWORD PTR tv82[rbp]
	mov	r9, rcx
	mov	r8d, DWORD PTR tv92[rbp]
	mov	rdx, rax
	mov	rcx, QWORD PTR env$[rbp]
	call	TEST_Assert

; 167  :     TEST_Assert(env, FormatTestLabel(L"Subtruct_X_X (%d.%d)", no, 3), (w_result = ep->Subtruct_X_X(u, v, &w)) == PMC_STATUS_OK, FormatTestMesssage(L"Subtruct_X_Xの復帰コードが期待通りではない(%d)", w_result));

	lea	r8, QWORD PTR w$[rbp]
	mov	rdx, QWORD PTR v$[rbp]
	mov	rcx, QWORD PTR u$[rbp]
	mov	rax, QWORD PTR ep$[rbp]
	call	QWORD PTR [rax+760]
	mov	DWORD PTR w_result$[rbp], eax
	cmp	DWORD PTR w_result$[rbp], 0
	jne	SHORT $LN10@TEST_Subtr
	mov	DWORD PTR tv142[rbp], 1
	jmp	SHORT $LN11@TEST_Subtr
$LN10@TEST_Subtr:
	mov	DWORD PTR tv142[rbp], 0
$LN11@TEST_Subtr:
	mov	edx, DWORD PTR w_result$[rbp]
	lea	rcx, OFFSET FLAT:??_C@_1EA@DIDCJOFM@?$AAS?$AAu?$AAb?$AAt?$AAr?$AAu?$AAc?$AAt?$AA_?$AAX?$AA_?$AAX?$AAn?$PP?$KJ?$AA0@
	call	FormatTestMesssage
	mov	QWORD PTR tv132[rbp], rax
	mov	r8d, 3
	mov	edx, DWORD PTR no$[rbp]
	lea	rcx, OFFSET FLAT:??_C@_1CK@GKBMOEHL@?$AAS?$AAu?$AAb?$AAt?$AAr?$AAu?$AAc?$AAt?$AA_?$AAX?$AA_?$AAX?$AA?5?$AA?$CI?$AA?$CF@
	call	FormatTestLabel
	mov	rcx, QWORD PTR tv132[rbp]
	mov	r9, rcx
	mov	r8d, DWORD PTR tv142[rbp]
	mov	rdx, rax
	mov	rcx, QWORD PTR env$[rbp]
	call	TEST_Assert

; 168  :     TEST_Assert(env, FormatTestLabel(L"Subtruct_X_X (%d.%d)", no, 4), (result = ep->ToByteArray(w, actual_z_buf, sizeof(actual_z_buf), &actual_z_buf_size)) == PMC_STATUS_OK, FormatTestMesssage(L"ToByteArrayの復帰コードが期待通りではない(%d)", result));

	lea	r9, QWORD PTR actual_z_buf_size$[rbp]
	mov	r8d, 256				; 00000100H
	lea	rdx, QWORD PTR actual_z_buf$[rbp]
	mov	rcx, QWORD PTR w$[rbp]
	mov	rax, QWORD PTR ep$[rbp]
	call	QWORD PTR [rax+608]
	mov	DWORD PTR result$[rbp], eax
	cmp	DWORD PTR result$[rbp], 0
	jne	SHORT $LN12@TEST_Subtr
	mov	DWORD PTR tv161[rbp], 1
	jmp	SHORT $LN13@TEST_Subtr
$LN12@TEST_Subtr:
	mov	DWORD PTR tv161[rbp], 0
$LN13@TEST_Subtr:
	mov	edx, DWORD PTR result$[rbp]
	lea	rcx, OFFSET FLAT:??_C@_1DO@DOHJEMND@?$AAT?$AAo?$AAB?$AAy?$AAt?$AAe?$AAA?$AAr?$AAr?$AAa?$AAy?$AAn?$PP?$KJ?$AA0?$PP?$LD@
	call	FormatTestMesssage
	mov	QWORD PTR tv150[rbp], rax
	mov	r8d, 4
	mov	edx, DWORD PTR no$[rbp]
	lea	rcx, OFFSET FLAT:??_C@_1CK@GKBMOEHL@?$AAS?$AAu?$AAb?$AAt?$AAr?$AAu?$AAc?$AAt?$AA_?$AAX?$AA_?$AAX?$AA?5?$AA?$CI?$AA?$CF@
	call	FormatTestLabel
	mov	rcx, QWORD PTR tv150[rbp]
	mov	r9, rcx
	mov	r8d, DWORD PTR tv161[rbp]
	mov	rdx, rax
	mov	rcx, QWORD PTR env$[rbp]
	call	TEST_Assert

; 169  :     TEST_Assert(env, FormatTestLabel(L"Subtruct_X_X (%d.%d)", no, 5), _EQUALS_MEMORY(actual_z_buf, actual_z_buf_size, desired_w_buf, desired_w_buf_size) == 0, L"データの内容が一致しない");

	mov	r9, QWORD PTR desired_w_buf_size$[rbp]
	mov	r8, QWORD PTR desired_w_buf$[rbp]
	mov	rdx, QWORD PTR actual_z_buf_size$[rbp]
	lea	rcx, QWORD PTR actual_z_buf$[rbp]
	call	_EQUALS_MEMORY
	test	eax, eax
	jne	SHORT $LN14@TEST_Subtr
	mov	DWORD PTR tv176[rbp], 1
	jmp	SHORT $LN15@TEST_Subtr
$LN14@TEST_Subtr:
	mov	DWORD PTR tv176[rbp], 0
$LN15@TEST_Subtr:
	mov	r8d, 5
	mov	edx, DWORD PTR no$[rbp]
	lea	rcx, OFFSET FLAT:??_C@_1CK@GKBMOEHL@?$AAS?$AAu?$AAb?$AAt?$AAr?$AAu?$AAc?$AAt?$AA_?$AAX?$AA_?$AAX?$AA?5?$AA?$CI?$AA?$CF@
	call	FormatTestLabel
	lea	r9, OFFSET FLAT:??_C@_1BK@CBDJCOBM@?$PP?G?$PP?$PM?$PP?$LP?$AAn?$PP?$IF?$PP?$LJ?$AAL?$AA?$AA?$PP?t?$AAW?$AAj?$AAD@
	mov	r8d, DWORD PTR tv176[rbp]
	mov	rdx, rax
	mov	rcx, QWORD PTR env$[rbp]
	call	TEST_Assert

; 170  :     if (w_result == PMC_STATUS_OK)

	cmp	DWORD PTR w_result$[rbp], 0
	jne	SHORT $LN2@TEST_Subtr

; 171  :         ep->Dispose(w);

	mov	rcx, QWORD PTR w$[rbp]
	mov	rax, QWORD PTR ep$[rbp]
	call	QWORD PTR [rax+584]
$LN2@TEST_Subtr:

; 172  :     if (v_result == PMC_STATUS_OK)

	cmp	DWORD PTR v_result$[rbp], 0
	jne	SHORT $LN3@TEST_Subtr

; 173  :         ep->Dispose(v);

	mov	rcx, QWORD PTR v$[rbp]
	mov	rax, QWORD PTR ep$[rbp]
	call	QWORD PTR [rax+584]
$LN3@TEST_Subtr:

; 174  :     if (u_result == PMC_STATUS_OK)

	cmp	DWORD PTR u_result$[rbp], 0
	jne	SHORT $LN4@TEST_Subtr

; 175  :         ep->Dispose(u);

	mov	rcx, QWORD PTR u$[rbp]
	mov	rax, QWORD PTR ep$[rbp]
	call	QWORD PTR [rax+584]
$LN4@TEST_Subtr:

; 176  : }

	lea	rcx, QWORD PTR [rbp-32]
	lea	rdx, OFFSET FLAT:TEST_Subtruct_X_X$rtcFrameData
	call	_RTC_CheckStackVars
	mov	rcx, QWORD PTR __$ArrayPad$[rbp]
	xor	rcx, rbp
	call	__security_check_cookie
	lea	rsp, QWORD PTR [rbp+952]
	pop	rdi
	pop	rbp
	ret	0
TEST_Subtruct_X_X ENDP
_TEXT	ENDS
; Function compile flags: /Odtp /RTCsu /ZI
; File z:\sources\lunor\repos\rougemeilland\palmtree.math.core.sint\palmtree.math.core.sint\test_op_subtruct.c
;	COMDAT TEST_Subtruct_X_UX
_TEXT	SEGMENT
u$ = 8
v$ = 40
w$ = 72
actual_z_buf$ = 112
actual_z_buf_size$ = 392
result$ = 420
u_result$ = 452
v_result$ = 484
w_result$ = 516
tv176 = 916
tv161 = 916
tv142 = 916
tv92 = 916
tv74 = 916
tv150 = 920
tv132 = 920
tv82 = 920
tv64 = 920
__$ArrayPad$ = 928
env$ = 976
ep$ = 984
no$ = 992
u_buf$ = 1000
u_buf_size$ = 1008
v_buf$ = 1016
v_buf_size$ = 1024
desired_w_buf$ = 1032
desired_w_buf_size$ = 1040
TEST_Subtruct_X_UX PROC					; COMDAT

; 132  : {

$LN16:
	mov	QWORD PTR [rsp+32], r9
	mov	DWORD PTR [rsp+24], r8d
	mov	QWORD PTR [rsp+16], rdx
	mov	QWORD PTR [rsp+8], rcx
	push	rbp
	push	rdi
	sub	rsp, 984				; 000003d8H
	lea	rbp, QWORD PTR [rsp+32]
	mov	rdi, rsp
	mov	ecx, 246				; 000000f6H
	mov	eax, -858993460				; ccccccccH
	rep stosd
	mov	rcx, QWORD PTR [rsp+1016]
	mov	rax, QWORD PTR __security_cookie
	xor	rax, rbp
	mov	QWORD PTR __$ArrayPad$[rbp], rax
	lea	rcx, OFFSET FLAT:__433B2F9A_test_op_subtruct@c
	call	__CheckForDebuggerJustMyCode

; 133  :     PMC_HANDLE_SINT u;
; 134  :     PMC_HANDLE_UINT v;
; 135  :     PMC_HANDLE_SINT w;
; 136  :     unsigned char actual_z_buf[256];
; 137  :     size_t actual_z_buf_size;
; 138  :     PMC_STATUS_CODE result;
; 139  :     PMC_STATUS_CODE u_result;
; 140  :     PMC_STATUS_CODE v_result;
; 141  :     PMC_STATUS_CODE w_result;
; 142  :     TEST_Assert(env, FormatTestLabel(L"Subtruct_X_UX (%d.%d)", no, 1), (u_result = ep->FromByteArray(u_buf, u_buf_size, &u)) == PMC_STATUS_OK, FormatTestMesssage(L"FromByteArrayの復帰コードが期待通りではない(%d)", u_result));

	lea	r8, QWORD PTR u$[rbp]
	mov	rdx, QWORD PTR u_buf_size$[rbp]
	mov	rcx, QWORD PTR u_buf$[rbp]
	mov	rax, QWORD PTR ep$[rbp]
	call	QWORD PTR [rax+600]
	mov	DWORD PTR u_result$[rbp], eax
	cmp	DWORD PTR u_result$[rbp], 0
	jne	SHORT $LN6@TEST_Subtr
	mov	DWORD PTR tv74[rbp], 1
	jmp	SHORT $LN7@TEST_Subtr
$LN6@TEST_Subtr:
	mov	DWORD PTR tv74[rbp], 0
$LN7@TEST_Subtr:
	mov	edx, DWORD PTR u_result$[rbp]
	lea	rcx, OFFSET FLAT:??_C@_1EC@NPMCAPKO@?$AAF?$AAr?$AAo?$AAm?$AAB?$AAy?$AAt?$AAe?$AAA?$AAr?$AAr?$AAa?$AAy?$AAn?$PP?$KJ@
	call	FormatTestMesssage
	mov	QWORD PTR tv64[rbp], rax
	mov	r8d, 1
	mov	edx, DWORD PTR no$[rbp]
	lea	rcx, OFFSET FLAT:??_C@_1CM@KAKNNFML@?$AAS?$AAu?$AAb?$AAt?$AAr?$AAu?$AAc?$AAt?$AA_?$AAX?$AA_?$AAU?$AAX?$AA?5?$AA?$CI@
	call	FormatTestLabel
	mov	rcx, QWORD PTR tv64[rbp]
	mov	r9, rcx
	mov	r8d, DWORD PTR tv74[rbp]
	mov	rdx, rax
	mov	rcx, QWORD PTR env$[rbp]
	call	TEST_Assert

; 143  :     TEST_Assert(env, FormatTestLabel(L"Subtruct_X_UX (%d.%d)", no, 2), (v_result = ep->UINT_ENTRY_POINTS.FromByteArray(v_buf, v_buf_size, &v)) == PMC_STATUS_OK, FormatTestMesssage(L"FromByteArrayの復帰コードが期待通りではない(%d)", v_result));

	lea	r8, QWORD PTR v$[rbp]
	mov	rdx, QWORD PTR v_buf_size$[rbp]
	mov	rcx, QWORD PTR v_buf$[rbp]
	mov	rax, QWORD PTR ep$[rbp]
	call	QWORD PTR [rax+48]
	mov	DWORD PTR v_result$[rbp], eax
	cmp	DWORD PTR v_result$[rbp], 0
	jne	SHORT $LN8@TEST_Subtr
	mov	DWORD PTR tv92[rbp], 1
	jmp	SHORT $LN9@TEST_Subtr
$LN8@TEST_Subtr:
	mov	DWORD PTR tv92[rbp], 0
$LN9@TEST_Subtr:
	mov	edx, DWORD PTR v_result$[rbp]
	lea	rcx, OFFSET FLAT:??_C@_1EC@NPMCAPKO@?$AAF?$AAr?$AAo?$AAm?$AAB?$AAy?$AAt?$AAe?$AAA?$AAr?$AAr?$AAa?$AAy?$AAn?$PP?$KJ@
	call	FormatTestMesssage
	mov	QWORD PTR tv82[rbp], rax
	mov	r8d, 2
	mov	edx, DWORD PTR no$[rbp]
	lea	rcx, OFFSET FLAT:??_C@_1CM@KAKNNFML@?$AAS?$AAu?$AAb?$AAt?$AAr?$AAu?$AAc?$AAt?$AA_?$AAX?$AA_?$AAU?$AAX?$AA?5?$AA?$CI@
	call	FormatTestLabel
	mov	rcx, QWORD PTR tv82[rbp]
	mov	r9, rcx
	mov	r8d, DWORD PTR tv92[rbp]
	mov	rdx, rax
	mov	rcx, QWORD PTR env$[rbp]
	call	TEST_Assert

; 144  :     TEST_Assert(env, FormatTestLabel(L"Subtruct_X_UX (%d.%d)", no, 3), (w_result = ep->Subtruct_X_UX(u, v, &w)) == PMC_STATUS_OK, FormatTestMesssage(L"Subtruct_X_UXの復帰コードが期待通りではない(%d)", w_result));

	lea	r8, QWORD PTR w$[rbp]
	mov	rdx, QWORD PTR v$[rbp]
	mov	rcx, QWORD PTR u$[rbp]
	mov	rax, QWORD PTR ep$[rbp]
	call	QWORD PTR [rax+752]
	mov	DWORD PTR w_result$[rbp], eax
	cmp	DWORD PTR w_result$[rbp], 0
	jne	SHORT $LN10@TEST_Subtr
	mov	DWORD PTR tv142[rbp], 1
	jmp	SHORT $LN11@TEST_Subtr
$LN10@TEST_Subtr:
	mov	DWORD PTR tv142[rbp], 0
$LN11@TEST_Subtr:
	mov	edx, DWORD PTR w_result$[rbp]
	lea	rcx, OFFSET FLAT:??_C@_1EC@ELOBBMPD@?$AAS?$AAu?$AAb?$AAt?$AAr?$AAu?$AAc?$AAt?$AA_?$AAX?$AA_?$AAU?$AAX?$AAn?$PP?$KJ@
	call	FormatTestMesssage
	mov	QWORD PTR tv132[rbp], rax
	mov	r8d, 3
	mov	edx, DWORD PTR no$[rbp]
	lea	rcx, OFFSET FLAT:??_C@_1CM@KAKNNFML@?$AAS?$AAu?$AAb?$AAt?$AAr?$AAu?$AAc?$AAt?$AA_?$AAX?$AA_?$AAU?$AAX?$AA?5?$AA?$CI@
	call	FormatTestLabel
	mov	rcx, QWORD PTR tv132[rbp]
	mov	r9, rcx
	mov	r8d, DWORD PTR tv142[rbp]
	mov	rdx, rax
	mov	rcx, QWORD PTR env$[rbp]
	call	TEST_Assert

; 145  :     TEST_Assert(env, FormatTestLabel(L"Subtruct_X_UX (%d.%d)", no, 4), (result = ep->ToByteArray(w, actual_z_buf, sizeof(actual_z_buf), &actual_z_buf_size)) == PMC_STATUS_OK, FormatTestMesssage(L"ToByteArrayの復帰コードが期待通りではない(%d)", result));

	lea	r9, QWORD PTR actual_z_buf_size$[rbp]
	mov	r8d, 256				; 00000100H
	lea	rdx, QWORD PTR actual_z_buf$[rbp]
	mov	rcx, QWORD PTR w$[rbp]
	mov	rax, QWORD PTR ep$[rbp]
	call	QWORD PTR [rax+608]
	mov	DWORD PTR result$[rbp], eax
	cmp	DWORD PTR result$[rbp], 0
	jne	SHORT $LN12@TEST_Subtr
	mov	DWORD PTR tv161[rbp], 1
	jmp	SHORT $LN13@TEST_Subtr
$LN12@TEST_Subtr:
	mov	DWORD PTR tv161[rbp], 0
$LN13@TEST_Subtr:
	mov	edx, DWORD PTR result$[rbp]
	lea	rcx, OFFSET FLAT:??_C@_1DO@DOHJEMND@?$AAT?$AAo?$AAB?$AAy?$AAt?$AAe?$AAA?$AAr?$AAr?$AAa?$AAy?$AAn?$PP?$KJ?$AA0?$PP?$LD@
	call	FormatTestMesssage
	mov	QWORD PTR tv150[rbp], rax
	mov	r8d, 4
	mov	edx, DWORD PTR no$[rbp]
	lea	rcx, OFFSET FLAT:??_C@_1CM@KAKNNFML@?$AAS?$AAu?$AAb?$AAt?$AAr?$AAu?$AAc?$AAt?$AA_?$AAX?$AA_?$AAU?$AAX?$AA?5?$AA?$CI@
	call	FormatTestLabel
	mov	rcx, QWORD PTR tv150[rbp]
	mov	r9, rcx
	mov	r8d, DWORD PTR tv161[rbp]
	mov	rdx, rax
	mov	rcx, QWORD PTR env$[rbp]
	call	TEST_Assert

; 146  :     TEST_Assert(env, FormatTestLabel(L"Subtruct_X_UX (%d.%d)", no, 5), _EQUALS_MEMORY(actual_z_buf, actual_z_buf_size, desired_w_buf, desired_w_buf_size) == 0, L"データの内容が一致しない");

	mov	r9, QWORD PTR desired_w_buf_size$[rbp]
	mov	r8, QWORD PTR desired_w_buf$[rbp]
	mov	rdx, QWORD PTR actual_z_buf_size$[rbp]
	lea	rcx, QWORD PTR actual_z_buf$[rbp]
	call	_EQUALS_MEMORY
	test	eax, eax
	jne	SHORT $LN14@TEST_Subtr
	mov	DWORD PTR tv176[rbp], 1
	jmp	SHORT $LN15@TEST_Subtr
$LN14@TEST_Subtr:
	mov	DWORD PTR tv176[rbp], 0
$LN15@TEST_Subtr:
	mov	r8d, 5
	mov	edx, DWORD PTR no$[rbp]
	lea	rcx, OFFSET FLAT:??_C@_1CM@KAKNNFML@?$AAS?$AAu?$AAb?$AAt?$AAr?$AAu?$AAc?$AAt?$AA_?$AAX?$AA_?$AAU?$AAX?$AA?5?$AA?$CI@
	call	FormatTestLabel
	lea	r9, OFFSET FLAT:??_C@_1BK@CBDJCOBM@?$PP?G?$PP?$PM?$PP?$LP?$AAn?$PP?$IF?$PP?$LJ?$AAL?$AA?$AA?$PP?t?$AAW?$AAj?$AAD@
	mov	r8d, DWORD PTR tv176[rbp]
	mov	rdx, rax
	mov	rcx, QWORD PTR env$[rbp]
	call	TEST_Assert

; 147  :     if (w_result == PMC_STATUS_OK)

	cmp	DWORD PTR w_result$[rbp], 0
	jne	SHORT $LN2@TEST_Subtr

; 148  :         ep->Dispose(w);

	mov	rcx, QWORD PTR w$[rbp]
	mov	rax, QWORD PTR ep$[rbp]
	call	QWORD PTR [rax+584]
$LN2@TEST_Subtr:

; 149  :     if (v_result == PMC_STATUS_OK)

	cmp	DWORD PTR v_result$[rbp], 0
	jne	SHORT $LN3@TEST_Subtr

; 150  :         ep->UINT_ENTRY_POINTS.Dispose(v);

	mov	rcx, QWORD PTR v$[rbp]
	mov	rax, QWORD PTR ep$[rbp]
	call	QWORD PTR [rax+32]
$LN3@TEST_Subtr:

; 151  :     if (u_result == PMC_STATUS_OK)

	cmp	DWORD PTR u_result$[rbp], 0
	jne	SHORT $LN4@TEST_Subtr

; 152  :         ep->Dispose(u);

	mov	rcx, QWORD PTR u$[rbp]
	mov	rax, QWORD PTR ep$[rbp]
	call	QWORD PTR [rax+584]
$LN4@TEST_Subtr:

; 153  : }

	lea	rcx, QWORD PTR [rbp-32]
	lea	rdx, OFFSET FLAT:TEST_Subtruct_X_UX$rtcFrameData
	call	_RTC_CheckStackVars
	mov	rcx, QWORD PTR __$ArrayPad$[rbp]
	xor	rcx, rbp
	call	__security_check_cookie
	lea	rsp, QWORD PTR [rbp+952]
	pop	rdi
	pop	rbp
	ret	0
TEST_Subtruct_X_UX ENDP
_TEXT	ENDS
; Function compile flags: /Odtp /RTCsu /ZI
; File z:\sources\lunor\repos\rougemeilland\palmtree.math.core.sint\palmtree.math.core.sint\test_op_subtruct.c
;	COMDAT TEST_Subtruct_X_L
_TEXT	SEGMENT
u$ = 8
w$ = 40
actual_w_buf$ = 80
actual_w_buf_size$ = 360
result$ = 388
u_result$ = 420
w_result$ = 452
tv158 = 660
tv143 = 660
tv92 = 660
tv74 = 660
tv132 = 664
tv82 = 664
tv64 = 664
__$ArrayPad$ = 672
env$ = 720
ep$ = 728
no$ = 736
u_buf$ = 744
u_buf_size$ = 752
v$ = 760
desired_w_buf$ = 768
desired_w_buf_size$ = 776
TEST_Subtruct_X_L PROC					; COMDAT

; 113  : {

$LN13:
	mov	QWORD PTR [rsp+32], r9
	mov	DWORD PTR [rsp+24], r8d
	mov	QWORD PTR [rsp+16], rdx
	mov	QWORD PTR [rsp+8], rcx
	push	rbp
	push	rdi
	sub	rsp, 728				; 000002d8H
	lea	rbp, QWORD PTR [rsp+32]
	mov	rdi, rsp
	mov	ecx, 182				; 000000b6H
	mov	eax, -858993460				; ccccccccH
	rep stosd
	mov	rcx, QWORD PTR [rsp+760]
	mov	rax, QWORD PTR __security_cookie
	xor	rax, rbp
	mov	QWORD PTR __$ArrayPad$[rbp], rax
	lea	rcx, OFFSET FLAT:__433B2F9A_test_op_subtruct@c
	call	__CheckForDebuggerJustMyCode

; 114  :     PMC_HANDLE_SINT u;
; 115  :     PMC_HANDLE_SINT w;
; 116  :     unsigned char actual_w_buf[256];
; 117  :     size_t actual_w_buf_size;
; 118  :     PMC_STATUS_CODE result;
; 119  :     PMC_STATUS_CODE u_result;
; 120  :     PMC_STATUS_CODE w_result;
; 121  :     TEST_Assert(env, FormatTestLabel(L"Subtruct_X_L (%d.%d)", no, 1), (u_result = ep->FromByteArray(u_buf, u_buf_size, &u)) == PMC_STATUS_OK, FormatTestMesssage(L"FromByteArrayの復帰コードが期待通りではない(%d)", u_result));

	lea	r8, QWORD PTR u$[rbp]
	mov	rdx, QWORD PTR u_buf_size$[rbp]
	mov	rcx, QWORD PTR u_buf$[rbp]
	mov	rax, QWORD PTR ep$[rbp]
	call	QWORD PTR [rax+600]
	mov	DWORD PTR u_result$[rbp], eax
	cmp	DWORD PTR u_result$[rbp], 0
	jne	SHORT $LN5@TEST_Subtr
	mov	DWORD PTR tv74[rbp], 1
	jmp	SHORT $LN6@TEST_Subtr
$LN5@TEST_Subtr:
	mov	DWORD PTR tv74[rbp], 0
$LN6@TEST_Subtr:
	mov	edx, DWORD PTR u_result$[rbp]
	lea	rcx, OFFSET FLAT:??_C@_1EC@NPMCAPKO@?$AAF?$AAr?$AAo?$AAm?$AAB?$AAy?$AAt?$AAe?$AAA?$AAr?$AAr?$AAa?$AAy?$AAn?$PP?$KJ@
	call	FormatTestMesssage
	mov	QWORD PTR tv64[rbp], rax
	mov	r8d, 1
	mov	edx, DWORD PTR no$[rbp]
	lea	rcx, OFFSET FLAT:??_C@_1CK@MEDHKEAH@?$AAS?$AAu?$AAb?$AAt?$AAr?$AAu?$AAc?$AAt?$AA_?$AAX?$AA_?$AAL?$AA?5?$AA?$CI?$AA?$CF@
	call	FormatTestLabel
	mov	rcx, QWORD PTR tv64[rbp]
	mov	r9, rcx
	mov	r8d, DWORD PTR tv74[rbp]
	mov	rdx, rax
	mov	rcx, QWORD PTR env$[rbp]
	call	TEST_Assert

; 122  :     TEST_Assert(env, FormatTestLabel(L"Subtruct_X_L (%d.%d)", no, 2), (w_result = ep->Subtruct_X_L(u, v, &w)) == PMC_STATUS_OK, FormatTestMesssage(L"Subtruct_X_Lの復帰コードが期待通りではない(%d)", w_result));

	lea	r8, QWORD PTR w$[rbp]
	mov	rdx, QWORD PTR v$[rbp]
	mov	rcx, QWORD PTR u$[rbp]
	mov	rax, QWORD PTR ep$[rbp]
	call	QWORD PTR [rax+744]
	mov	DWORD PTR w_result$[rbp], eax
	cmp	DWORD PTR w_result$[rbp], 0
	jne	SHORT $LN7@TEST_Subtr
	mov	DWORD PTR tv92[rbp], 1
	jmp	SHORT $LN8@TEST_Subtr
$LN7@TEST_Subtr:
	mov	DWORD PTR tv92[rbp], 0
$LN8@TEST_Subtr:
	mov	edx, DWORD PTR w_result$[rbp]
	lea	rcx, OFFSET FLAT:??_C@_1EA@MCHBOOEJ@?$AAS?$AAu?$AAb?$AAt?$AAr?$AAu?$AAc?$AAt?$AA_?$AAX?$AA_?$AAL?$AAn?$PP?$KJ?$AA0@
	call	FormatTestMesssage
	mov	QWORD PTR tv82[rbp], rax
	mov	r8d, 2
	mov	edx, DWORD PTR no$[rbp]
	lea	rcx, OFFSET FLAT:??_C@_1CK@MEDHKEAH@?$AAS?$AAu?$AAb?$AAt?$AAr?$AAu?$AAc?$AAt?$AA_?$AAX?$AA_?$AAL?$AA?5?$AA?$CI?$AA?$CF@
	call	FormatTestLabel
	mov	rcx, QWORD PTR tv82[rbp]
	mov	r9, rcx
	mov	r8d, DWORD PTR tv92[rbp]
	mov	rdx, rax
	mov	rcx, QWORD PTR env$[rbp]
	call	TEST_Assert

; 123  :     TEST_Assert(env, FormatTestLabel(L"Subtruct_X_L (%d.%d)", no, 3), (result = ep->ToByteArray(w, actual_w_buf, sizeof(actual_w_buf), &actual_w_buf_size)) == PMC_STATUS_OK, FormatTestMesssage(L"ToByteArrayの復帰コードが期待通りではない(%d)", result));

	lea	r9, QWORD PTR actual_w_buf_size$[rbp]
	mov	r8d, 256				; 00000100H
	lea	rdx, QWORD PTR actual_w_buf$[rbp]
	mov	rcx, QWORD PTR w$[rbp]
	mov	rax, QWORD PTR ep$[rbp]
	call	QWORD PTR [rax+608]
	mov	DWORD PTR result$[rbp], eax
	cmp	DWORD PTR result$[rbp], 0
	jne	SHORT $LN9@TEST_Subtr
	mov	DWORD PTR tv143[rbp], 1
	jmp	SHORT $LN10@TEST_Subtr
$LN9@TEST_Subtr:
	mov	DWORD PTR tv143[rbp], 0
$LN10@TEST_Subtr:
	mov	edx, DWORD PTR result$[rbp]
	lea	rcx, OFFSET FLAT:??_C@_1DO@DOHJEMND@?$AAT?$AAo?$AAB?$AAy?$AAt?$AAe?$AAA?$AAr?$AAr?$AAa?$AAy?$AAn?$PP?$KJ?$AA0?$PP?$LD@
	call	FormatTestMesssage
	mov	QWORD PTR tv132[rbp], rax
	mov	r8d, 3
	mov	edx, DWORD PTR no$[rbp]
	lea	rcx, OFFSET FLAT:??_C@_1CK@MEDHKEAH@?$AAS?$AAu?$AAb?$AAt?$AAr?$AAu?$AAc?$AAt?$AA_?$AAX?$AA_?$AAL?$AA?5?$AA?$CI?$AA?$CF@
	call	FormatTestLabel
	mov	rcx, QWORD PTR tv132[rbp]
	mov	r9, rcx
	mov	r8d, DWORD PTR tv143[rbp]
	mov	rdx, rax
	mov	rcx, QWORD PTR env$[rbp]
	call	TEST_Assert

; 124  :     TEST_Assert(env, FormatTestLabel(L"Subtruct_X_L (%d.%d)", no, 4), _EQUALS_MEMORY(actual_w_buf, actual_w_buf_size, desired_w_buf, desired_w_buf_size) == 0, L"データの内容が一致しない");

	mov	r9, QWORD PTR desired_w_buf_size$[rbp]
	mov	r8, QWORD PTR desired_w_buf$[rbp]
	mov	rdx, QWORD PTR actual_w_buf_size$[rbp]
	lea	rcx, QWORD PTR actual_w_buf$[rbp]
	call	_EQUALS_MEMORY
	test	eax, eax
	jne	SHORT $LN11@TEST_Subtr
	mov	DWORD PTR tv158[rbp], 1
	jmp	SHORT $LN12@TEST_Subtr
$LN11@TEST_Subtr:
	mov	DWORD PTR tv158[rbp], 0
$LN12@TEST_Subtr:
	mov	r8d, 4
	mov	edx, DWORD PTR no$[rbp]
	lea	rcx, OFFSET FLAT:??_C@_1CK@MEDHKEAH@?$AAS?$AAu?$AAb?$AAt?$AAr?$AAu?$AAc?$AAt?$AA_?$AAX?$AA_?$AAL?$AA?5?$AA?$CI?$AA?$CF@
	call	FormatTestLabel
	lea	r9, OFFSET FLAT:??_C@_1BK@CBDJCOBM@?$PP?G?$PP?$PM?$PP?$LP?$AAn?$PP?$IF?$PP?$LJ?$AAL?$AA?$AA?$PP?t?$AAW?$AAj?$AAD@
	mov	r8d, DWORD PTR tv158[rbp]
	mov	rdx, rax
	mov	rcx, QWORD PTR env$[rbp]
	call	TEST_Assert

; 125  :     if (w_result == PMC_STATUS_OK)

	cmp	DWORD PTR w_result$[rbp], 0
	jne	SHORT $LN2@TEST_Subtr

; 126  :         ep->Dispose(w);

	mov	rcx, QWORD PTR w$[rbp]
	mov	rax, QWORD PTR ep$[rbp]
	call	QWORD PTR [rax+584]
$LN2@TEST_Subtr:

; 127  :     if (u_result == PMC_STATUS_OK)

	cmp	DWORD PTR u_result$[rbp], 0
	jne	SHORT $LN3@TEST_Subtr

; 128  :         ep->Dispose(u);

	mov	rcx, QWORD PTR u$[rbp]
	mov	rax, QWORD PTR ep$[rbp]
	call	QWORD PTR [rax+584]
$LN3@TEST_Subtr:

; 129  : }

	lea	rcx, QWORD PTR [rbp-32]
	lea	rdx, OFFSET FLAT:TEST_Subtruct_X_L$rtcFrameData
	call	_RTC_CheckStackVars
	mov	rcx, QWORD PTR __$ArrayPad$[rbp]
	xor	rcx, rbp
	call	__security_check_cookie
	lea	rsp, QWORD PTR [rbp+696]
	pop	rdi
	pop	rbp
	ret	0
TEST_Subtruct_X_L ENDP
_TEXT	ENDS
; Function compile flags: /Odtp /RTCsu /ZI
; File z:\sources\lunor\repos\rougemeilland\palmtree.math.core.sint\palmtree.math.core.sint\test_op_subtruct.c
;	COMDAT TEST_Subtruct_X_I
_TEXT	SEGMENT
u$ = 8
w$ = 40
actual_w_buf$ = 80
actual_w_buf_size$ = 360
result$ = 388
u_result$ = 420
w_result$ = 452
tv158 = 660
tv143 = 660
tv92 = 660
tv74 = 660
tv132 = 664
tv82 = 664
tv64 = 664
__$ArrayPad$ = 672
env$ = 720
ep$ = 728
no$ = 736
u_buf$ = 744
u_buf_size$ = 752
v$ = 760
desired_w_buf$ = 768
desired_w_buf_size$ = 776
TEST_Subtruct_X_I PROC					; COMDAT

; 94   : {

$LN13:
	mov	QWORD PTR [rsp+32], r9
	mov	DWORD PTR [rsp+24], r8d
	mov	QWORD PTR [rsp+16], rdx
	mov	QWORD PTR [rsp+8], rcx
	push	rbp
	push	rdi
	sub	rsp, 728				; 000002d8H
	lea	rbp, QWORD PTR [rsp+32]
	mov	rdi, rsp
	mov	ecx, 182				; 000000b6H
	mov	eax, -858993460				; ccccccccH
	rep stosd
	mov	rcx, QWORD PTR [rsp+760]
	mov	rax, QWORD PTR __security_cookie
	xor	rax, rbp
	mov	QWORD PTR __$ArrayPad$[rbp], rax
	lea	rcx, OFFSET FLAT:__433B2F9A_test_op_subtruct@c
	call	__CheckForDebuggerJustMyCode

; 95   :     PMC_HANDLE_SINT u;
; 96   :     PMC_HANDLE_SINT w;
; 97   :     unsigned char actual_w_buf[256];
; 98   :     size_t actual_w_buf_size;
; 99   :     PMC_STATUS_CODE result;
; 100  :     PMC_STATUS_CODE u_result;
; 101  :     PMC_STATUS_CODE w_result;
; 102  :     TEST_Assert(env, FormatTestLabel(L"Subtruct_X_I (%d.%d)", no, 1), (u_result = ep->FromByteArray(u_buf, u_buf_size, &u)) == PMC_STATUS_OK, FormatTestMesssage(L"FromByteArrayの復帰コードが期待通りではない(%d)", u_result));

	lea	r8, QWORD PTR u$[rbp]
	mov	rdx, QWORD PTR u_buf_size$[rbp]
	mov	rcx, QWORD PTR u_buf$[rbp]
	mov	rax, QWORD PTR ep$[rbp]
	call	QWORD PTR [rax+600]
	mov	DWORD PTR u_result$[rbp], eax
	cmp	DWORD PTR u_result$[rbp], 0
	jne	SHORT $LN5@TEST_Subtr
	mov	DWORD PTR tv74[rbp], 1
	jmp	SHORT $LN6@TEST_Subtr
$LN5@TEST_Subtr:
	mov	DWORD PTR tv74[rbp], 0
$LN6@TEST_Subtr:
	mov	edx, DWORD PTR u_result$[rbp]
	lea	rcx, OFFSET FLAT:??_C@_1EC@NPMCAPKO@?$AAF?$AAr?$AAo?$AAm?$AAB?$AAy?$AAt?$AAe?$AAA?$AAr?$AAr?$AAa?$AAy?$AAn?$PP?$KJ@
	call	FormatTestMesssage
	mov	QWORD PTR tv64[rbp], rax
	mov	r8d, 1
	mov	edx, DWORD PTR no$[rbp]
	lea	rcx, OFFSET FLAT:??_C@_1CK@OPLNHEBI@?$AAS?$AAu?$AAb?$AAt?$AAr?$AAu?$AAc?$AAt?$AA_?$AAX?$AA_?$AAI?$AA?5?$AA?$CI?$AA?$CF@
	call	FormatTestLabel
	mov	rcx, QWORD PTR tv64[rbp]
	mov	r9, rcx
	mov	r8d, DWORD PTR tv74[rbp]
	mov	rdx, rax
	mov	rcx, QWORD PTR env$[rbp]
	call	TEST_Assert

; 103  :     TEST_Assert(env, FormatTestLabel(L"Subtruct_X_I (%d.%d)", no, 2), (w_result = ep->Subtruct_X_I(u, v, &w)) == PMC_STATUS_OK, FormatTestMesssage(L"Subtruct_X_Iの復帰コードが期待通りではない(%d)", w_result));

	lea	r8, QWORD PTR w$[rbp]
	mov	edx, DWORD PTR v$[rbp]
	mov	rcx, QWORD PTR u$[rbp]
	mov	rax, QWORD PTR ep$[rbp]
	call	QWORD PTR [rax+736]
	mov	DWORD PTR w_result$[rbp], eax
	cmp	DWORD PTR w_result$[rbp], 0
	jne	SHORT $LN7@TEST_Subtr
	mov	DWORD PTR tv92[rbp], 1
	jmp	SHORT $LN8@TEST_Subtr
$LN7@TEST_Subtr:
	mov	DWORD PTR tv92[rbp], 0
$LN8@TEST_Subtr:
	mov	edx, DWORD PTR w_result$[rbp]
	lea	rcx, OFFSET FLAT:??_C@_1EA@IKDNHDNM@?$AAS?$AAu?$AAb?$AAt?$AAr?$AAu?$AAc?$AAt?$AA_?$AAX?$AA_?$AAI?$AAn?$PP?$KJ?$AA0@
	call	FormatTestMesssage
	mov	QWORD PTR tv82[rbp], rax
	mov	r8d, 2
	mov	edx, DWORD PTR no$[rbp]
	lea	rcx, OFFSET FLAT:??_C@_1CK@OPLNHEBI@?$AAS?$AAu?$AAb?$AAt?$AAr?$AAu?$AAc?$AAt?$AA_?$AAX?$AA_?$AAI?$AA?5?$AA?$CI?$AA?$CF@
	call	FormatTestLabel
	mov	rcx, QWORD PTR tv82[rbp]
	mov	r9, rcx
	mov	r8d, DWORD PTR tv92[rbp]
	mov	rdx, rax
	mov	rcx, QWORD PTR env$[rbp]
	call	TEST_Assert

; 104  :     TEST_Assert(env, FormatTestLabel(L"Subtruct_X_I (%d.%d)", no, 3), (result = ep->ToByteArray(w, actual_w_buf, sizeof(actual_w_buf), &actual_w_buf_size)) == PMC_STATUS_OK, FormatTestMesssage(L"ToByteArrayの復帰コードが期待通りではない(%d)", result));

	lea	r9, QWORD PTR actual_w_buf_size$[rbp]
	mov	r8d, 256				; 00000100H
	lea	rdx, QWORD PTR actual_w_buf$[rbp]
	mov	rcx, QWORD PTR w$[rbp]
	mov	rax, QWORD PTR ep$[rbp]
	call	QWORD PTR [rax+608]
	mov	DWORD PTR result$[rbp], eax
	cmp	DWORD PTR result$[rbp], 0
	jne	SHORT $LN9@TEST_Subtr
	mov	DWORD PTR tv143[rbp], 1
	jmp	SHORT $LN10@TEST_Subtr
$LN9@TEST_Subtr:
	mov	DWORD PTR tv143[rbp], 0
$LN10@TEST_Subtr:
	mov	edx, DWORD PTR result$[rbp]
	lea	rcx, OFFSET FLAT:??_C@_1DO@DOHJEMND@?$AAT?$AAo?$AAB?$AAy?$AAt?$AAe?$AAA?$AAr?$AAr?$AAa?$AAy?$AAn?$PP?$KJ?$AA0?$PP?$LD@
	call	FormatTestMesssage
	mov	QWORD PTR tv132[rbp], rax
	mov	r8d, 3
	mov	edx, DWORD PTR no$[rbp]
	lea	rcx, OFFSET FLAT:??_C@_1CK@OPLNHEBI@?$AAS?$AAu?$AAb?$AAt?$AAr?$AAu?$AAc?$AAt?$AA_?$AAX?$AA_?$AAI?$AA?5?$AA?$CI?$AA?$CF@
	call	FormatTestLabel
	mov	rcx, QWORD PTR tv132[rbp]
	mov	r9, rcx
	mov	r8d, DWORD PTR tv143[rbp]
	mov	rdx, rax
	mov	rcx, QWORD PTR env$[rbp]
	call	TEST_Assert

; 105  :     TEST_Assert(env, FormatTestLabel(L"Subtruct_X_I (%d.%d)", no, 4), _EQUALS_MEMORY(actual_w_buf, actual_w_buf_size, desired_w_buf, desired_w_buf_size) == 0, L"データの内容が一致しない");

	mov	r9, QWORD PTR desired_w_buf_size$[rbp]
	mov	r8, QWORD PTR desired_w_buf$[rbp]
	mov	rdx, QWORD PTR actual_w_buf_size$[rbp]
	lea	rcx, QWORD PTR actual_w_buf$[rbp]
	call	_EQUALS_MEMORY
	test	eax, eax
	jne	SHORT $LN11@TEST_Subtr
	mov	DWORD PTR tv158[rbp], 1
	jmp	SHORT $LN12@TEST_Subtr
$LN11@TEST_Subtr:
	mov	DWORD PTR tv158[rbp], 0
$LN12@TEST_Subtr:
	mov	r8d, 4
	mov	edx, DWORD PTR no$[rbp]
	lea	rcx, OFFSET FLAT:??_C@_1CK@OPLNHEBI@?$AAS?$AAu?$AAb?$AAt?$AAr?$AAu?$AAc?$AAt?$AA_?$AAX?$AA_?$AAI?$AA?5?$AA?$CI?$AA?$CF@
	call	FormatTestLabel
	lea	r9, OFFSET FLAT:??_C@_1BK@CBDJCOBM@?$PP?G?$PP?$PM?$PP?$LP?$AAn?$PP?$IF?$PP?$LJ?$AAL?$AA?$AA?$PP?t?$AAW?$AAj?$AAD@
	mov	r8d, DWORD PTR tv158[rbp]
	mov	rdx, rax
	mov	rcx, QWORD PTR env$[rbp]
	call	TEST_Assert

; 106  :     if (w_result == PMC_STATUS_OK)

	cmp	DWORD PTR w_result$[rbp], 0
	jne	SHORT $LN2@TEST_Subtr

; 107  :         ep->Dispose(w);

	mov	rcx, QWORD PTR w$[rbp]
	mov	rax, QWORD PTR ep$[rbp]
	call	QWORD PTR [rax+584]
$LN2@TEST_Subtr:

; 108  :     if (u_result == PMC_STATUS_OK)

	cmp	DWORD PTR u_result$[rbp], 0
	jne	SHORT $LN3@TEST_Subtr

; 109  :         ep->Dispose(u);

	mov	rcx, QWORD PTR u$[rbp]
	mov	rax, QWORD PTR ep$[rbp]
	call	QWORD PTR [rax+584]
$LN3@TEST_Subtr:

; 110  : }

	lea	rcx, QWORD PTR [rbp-32]
	lea	rdx, OFFSET FLAT:TEST_Subtruct_X_I$rtcFrameData
	call	_RTC_CheckStackVars
	mov	rcx, QWORD PTR __$ArrayPad$[rbp]
	xor	rcx, rbp
	call	__security_check_cookie
	lea	rsp, QWORD PTR [rbp+696]
	pop	rdi
	pop	rbp
	ret	0
TEST_Subtruct_X_I ENDP
_TEXT	ENDS
; Function compile flags: /Odtp /RTCsu /ZI
; File z:\sources\lunor\repos\rougemeilland\palmtree.math.core.sint\palmtree.math.core.sint\test_op_subtruct.c
;	COMDAT TEST_Subtruct_UX_X
_TEXT	SEGMENT
u$ = 8
v$ = 40
w$ = 72
actual_w_buf$ = 112
actual_w_buf_size$ = 392
result$ = 420
u_result$ = 452
v_result$ = 484
w_result$ = 516
tv176 = 916
tv161 = 916
tv142 = 916
tv92 = 916
tv74 = 916
tv150 = 920
tv132 = 920
tv82 = 920
tv64 = 920
__$ArrayPad$ = 928
env$ = 976
ep$ = 984
no$ = 992
u_buf$ = 1000
u_buf_size$ = 1008
v_buf$ = 1016
v_buf_size$ = 1024
desired_w_buf$ = 1032
desired_w_buf_size$ = 1040
TEST_Subtruct_UX_X PROC					; COMDAT

; 70   : {

$LN16:
	mov	QWORD PTR [rsp+32], r9
	mov	DWORD PTR [rsp+24], r8d
	mov	QWORD PTR [rsp+16], rdx
	mov	QWORD PTR [rsp+8], rcx
	push	rbp
	push	rdi
	sub	rsp, 984				; 000003d8H
	lea	rbp, QWORD PTR [rsp+32]
	mov	rdi, rsp
	mov	ecx, 246				; 000000f6H
	mov	eax, -858993460				; ccccccccH
	rep stosd
	mov	rcx, QWORD PTR [rsp+1016]
	mov	rax, QWORD PTR __security_cookie
	xor	rax, rbp
	mov	QWORD PTR __$ArrayPad$[rbp], rax
	lea	rcx, OFFSET FLAT:__433B2F9A_test_op_subtruct@c
	call	__CheckForDebuggerJustMyCode

; 71   :     PMC_HANDLE_UINT u;
; 72   :     PMC_HANDLE_SINT v;
; 73   :     PMC_HANDLE_SINT w;
; 74   :     unsigned char actual_w_buf[256];
; 75   :     size_t actual_w_buf_size;
; 76   :     PMC_STATUS_CODE result;
; 77   :     PMC_STATUS_CODE u_result;
; 78   :     PMC_STATUS_CODE v_result;
; 79   :     PMC_STATUS_CODE w_result;
; 80   :     TEST_Assert(env, FormatTestLabel(L"Subtruct_UX_X (%d.%d)", no, 1), (u_result = ep->UINT_ENTRY_POINTS.FromByteArray(u_buf, u_buf_size, &u)) == PMC_STATUS_OK, FormatTestMesssage(L"FromByteArrayの復帰コードが期待通りではない(%d)", u_result));

	lea	r8, QWORD PTR u$[rbp]
	mov	rdx, QWORD PTR u_buf_size$[rbp]
	mov	rcx, QWORD PTR u_buf$[rbp]
	mov	rax, QWORD PTR ep$[rbp]
	call	QWORD PTR [rax+48]
	mov	DWORD PTR u_result$[rbp], eax
	cmp	DWORD PTR u_result$[rbp], 0
	jne	SHORT $LN6@TEST_Subtr
	mov	DWORD PTR tv74[rbp], 1
	jmp	SHORT $LN7@TEST_Subtr
$LN6@TEST_Subtr:
	mov	DWORD PTR tv74[rbp], 0
$LN7@TEST_Subtr:
	mov	edx, DWORD PTR u_result$[rbp]
	lea	rcx, OFFSET FLAT:??_C@_1EC@NPMCAPKO@?$AAF?$AAr?$AAo?$AAm?$AAB?$AAy?$AAt?$AAe?$AAA?$AAr?$AAr?$AAa?$AAy?$AAn?$PP?$KJ@
	call	FormatTestMesssage
	mov	QWORD PTR tv64[rbp], rax
	mov	r8d, 1
	mov	edx, DWORD PTR no$[rbp]
	lea	rcx, OFFSET FLAT:??_C@_1CM@JOAGBAMJ@?$AAS?$AAu?$AAb?$AAt?$AAr?$AAu?$AAc?$AAt?$AA_?$AAU?$AAX?$AA_?$AAX?$AA?5?$AA?$CI@
	call	FormatTestLabel
	mov	rcx, QWORD PTR tv64[rbp]
	mov	r9, rcx
	mov	r8d, DWORD PTR tv74[rbp]
	mov	rdx, rax
	mov	rcx, QWORD PTR env$[rbp]
	call	TEST_Assert

; 81   :     TEST_Assert(env, FormatTestLabel(L"Subtruct_UX_X (%d.%d)", no, 2), (v_result = ep->FromByteArray(v_buf, v_buf_size, &v)) == PMC_STATUS_OK, FormatTestMesssage(L"FromByteArrayの復帰コードが期待通りではない(%d)", v_result));

	lea	r8, QWORD PTR v$[rbp]
	mov	rdx, QWORD PTR v_buf_size$[rbp]
	mov	rcx, QWORD PTR v_buf$[rbp]
	mov	rax, QWORD PTR ep$[rbp]
	call	QWORD PTR [rax+600]
	mov	DWORD PTR v_result$[rbp], eax
	cmp	DWORD PTR v_result$[rbp], 0
	jne	SHORT $LN8@TEST_Subtr
	mov	DWORD PTR tv92[rbp], 1
	jmp	SHORT $LN9@TEST_Subtr
$LN8@TEST_Subtr:
	mov	DWORD PTR tv92[rbp], 0
$LN9@TEST_Subtr:
	mov	edx, DWORD PTR v_result$[rbp]
	lea	rcx, OFFSET FLAT:??_C@_1EC@NPMCAPKO@?$AAF?$AAr?$AAo?$AAm?$AAB?$AAy?$AAt?$AAe?$AAA?$AAr?$AAr?$AAa?$AAy?$AAn?$PP?$KJ@
	call	FormatTestMesssage
	mov	QWORD PTR tv82[rbp], rax
	mov	r8d, 2
	mov	edx, DWORD PTR no$[rbp]
	lea	rcx, OFFSET FLAT:??_C@_1CM@JOAGBAMJ@?$AAS?$AAu?$AAb?$AAt?$AAr?$AAu?$AAc?$AAt?$AA_?$AAU?$AAX?$AA_?$AAX?$AA?5?$AA?$CI@
	call	FormatTestLabel
	mov	rcx, QWORD PTR tv82[rbp]
	mov	r9, rcx
	mov	r8d, DWORD PTR tv92[rbp]
	mov	rdx, rax
	mov	rcx, QWORD PTR env$[rbp]
	call	TEST_Assert

; 82   :     TEST_Assert(env, FormatTestLabel(L"Subtruct_UX_X (%d.%d)", no, 3), (w_result = ep->Subtruct_UX_X(u, v, &w)) == PMC_STATUS_OK, FormatTestMesssage(L"Subtruct_UX_Xの復帰コードが期待通りではない(%d)", w_result));

	lea	r8, QWORD PTR w$[rbp]
	mov	rdx, QWORD PTR v$[rbp]
	mov	rcx, QWORD PTR u$[rbp]
	mov	rax, QWORD PTR ep$[rbp]
	call	QWORD PTR [rax+728]
	mov	DWORD PTR w_result$[rbp], eax
	cmp	DWORD PTR w_result$[rbp], 0
	jne	SHORT $LN10@TEST_Subtr
	mov	DWORD PTR tv142[rbp], 1
	jmp	SHORT $LN11@TEST_Subtr
$LN10@TEST_Subtr:
	mov	DWORD PTR tv142[rbp], 0
$LN11@TEST_Subtr:
	mov	edx, DWORD PTR w_result$[rbp]
	lea	rcx, OFFSET FLAT:??_C@_1EC@MMAEFCND@?$AAS?$AAu?$AAb?$AAt?$AAr?$AAu?$AAc?$AAt?$AA_?$AAU?$AAX?$AA_?$AAX?$AAn?$PP?$KJ@
	call	FormatTestMesssage
	mov	QWORD PTR tv132[rbp], rax
	mov	r8d, 3
	mov	edx, DWORD PTR no$[rbp]
	lea	rcx, OFFSET FLAT:??_C@_1CM@JOAGBAMJ@?$AAS?$AAu?$AAb?$AAt?$AAr?$AAu?$AAc?$AAt?$AA_?$AAU?$AAX?$AA_?$AAX?$AA?5?$AA?$CI@
	call	FormatTestLabel
	mov	rcx, QWORD PTR tv132[rbp]
	mov	r9, rcx
	mov	r8d, DWORD PTR tv142[rbp]
	mov	rdx, rax
	mov	rcx, QWORD PTR env$[rbp]
	call	TEST_Assert

; 83   :     TEST_Assert(env, FormatTestLabel(L"Subtruct_UX_X (%d.%d)", no, 4), (result = ep->ToByteArray(w, actual_w_buf, sizeof(actual_w_buf), &actual_w_buf_size)) == PMC_STATUS_OK, FormatTestMesssage(L"ToByteArrayの復帰コードが期待通りではない(%d)", result));

	lea	r9, QWORD PTR actual_w_buf_size$[rbp]
	mov	r8d, 256				; 00000100H
	lea	rdx, QWORD PTR actual_w_buf$[rbp]
	mov	rcx, QWORD PTR w$[rbp]
	mov	rax, QWORD PTR ep$[rbp]
	call	QWORD PTR [rax+608]
	mov	DWORD PTR result$[rbp], eax
	cmp	DWORD PTR result$[rbp], 0
	jne	SHORT $LN12@TEST_Subtr
	mov	DWORD PTR tv161[rbp], 1
	jmp	SHORT $LN13@TEST_Subtr
$LN12@TEST_Subtr:
	mov	DWORD PTR tv161[rbp], 0
$LN13@TEST_Subtr:
	mov	edx, DWORD PTR result$[rbp]
	lea	rcx, OFFSET FLAT:??_C@_1DO@DOHJEMND@?$AAT?$AAo?$AAB?$AAy?$AAt?$AAe?$AAA?$AAr?$AAr?$AAa?$AAy?$AAn?$PP?$KJ?$AA0?$PP?$LD@
	call	FormatTestMesssage
	mov	QWORD PTR tv150[rbp], rax
	mov	r8d, 4
	mov	edx, DWORD PTR no$[rbp]
	lea	rcx, OFFSET FLAT:??_C@_1CM@JOAGBAMJ@?$AAS?$AAu?$AAb?$AAt?$AAr?$AAu?$AAc?$AAt?$AA_?$AAU?$AAX?$AA_?$AAX?$AA?5?$AA?$CI@
	call	FormatTestLabel
	mov	rcx, QWORD PTR tv150[rbp]
	mov	r9, rcx
	mov	r8d, DWORD PTR tv161[rbp]
	mov	rdx, rax
	mov	rcx, QWORD PTR env$[rbp]
	call	TEST_Assert

; 84   :     TEST_Assert(env, FormatTestLabel(L"Subtruct_UX_X (%d.%d)", no, 5), _EQUALS_MEMORY(actual_w_buf, actual_w_buf_size, desired_w_buf, desired_w_buf_size) == 0, L"データの内容が一致しない");

	mov	r9, QWORD PTR desired_w_buf_size$[rbp]
	mov	r8, QWORD PTR desired_w_buf$[rbp]
	mov	rdx, QWORD PTR actual_w_buf_size$[rbp]
	lea	rcx, QWORD PTR actual_w_buf$[rbp]
	call	_EQUALS_MEMORY
	test	eax, eax
	jne	SHORT $LN14@TEST_Subtr
	mov	DWORD PTR tv176[rbp], 1
	jmp	SHORT $LN15@TEST_Subtr
$LN14@TEST_Subtr:
	mov	DWORD PTR tv176[rbp], 0
$LN15@TEST_Subtr:
	mov	r8d, 5
	mov	edx, DWORD PTR no$[rbp]
	lea	rcx, OFFSET FLAT:??_C@_1CM@JOAGBAMJ@?$AAS?$AAu?$AAb?$AAt?$AAr?$AAu?$AAc?$AAt?$AA_?$AAU?$AAX?$AA_?$AAX?$AA?5?$AA?$CI@
	call	FormatTestLabel
	lea	r9, OFFSET FLAT:??_C@_1BK@CBDJCOBM@?$PP?G?$PP?$PM?$PP?$LP?$AAn?$PP?$IF?$PP?$LJ?$AAL?$AA?$AA?$PP?t?$AAW?$AAj?$AAD@
	mov	r8d, DWORD PTR tv176[rbp]
	mov	rdx, rax
	mov	rcx, QWORD PTR env$[rbp]
	call	TEST_Assert

; 85   :     if (w_result == PMC_STATUS_OK)

	cmp	DWORD PTR w_result$[rbp], 0
	jne	SHORT $LN2@TEST_Subtr

; 86   :         ep->Dispose(w);

	mov	rcx, QWORD PTR w$[rbp]
	mov	rax, QWORD PTR ep$[rbp]
	call	QWORD PTR [rax+584]
$LN2@TEST_Subtr:

; 87   :     if (v_result == PMC_STATUS_OK)

	cmp	DWORD PTR v_result$[rbp], 0
	jne	SHORT $LN3@TEST_Subtr

; 88   :         ep->Dispose(v);

	mov	rcx, QWORD PTR v$[rbp]
	mov	rax, QWORD PTR ep$[rbp]
	call	QWORD PTR [rax+584]
$LN3@TEST_Subtr:

; 89   :     if (u_result == PMC_STATUS_OK)

	cmp	DWORD PTR u_result$[rbp], 0
	jne	SHORT $LN4@TEST_Subtr

; 90   :         ep->UINT_ENTRY_POINTS.Dispose(u);

	mov	rcx, QWORD PTR u$[rbp]
	mov	rax, QWORD PTR ep$[rbp]
	call	QWORD PTR [rax+32]
$LN4@TEST_Subtr:

; 91   : }

	lea	rcx, QWORD PTR [rbp-32]
	lea	rdx, OFFSET FLAT:TEST_Subtruct_UX_X$rtcFrameData
	call	_RTC_CheckStackVars
	mov	rcx, QWORD PTR __$ArrayPad$[rbp]
	xor	rcx, rbp
	call	__security_check_cookie
	lea	rsp, QWORD PTR [rbp+952]
	pop	rdi
	pop	rbp
	ret	0
TEST_Subtruct_UX_X ENDP
_TEXT	ENDS
; Function compile flags: /Odtp /RTCsu /ZI
; File z:\sources\lunor\repos\rougemeilland\palmtree.math.core.sint\palmtree.math.core.sint\test_op_subtruct.c
;	COMDAT TEST_Subtruct_L_X
_TEXT	SEGMENT
v$ = 8
w$ = 40
actual_w_buf$ = 80
actual_w_buf_size$ = 360
result$ = 388
v_result$ = 420
w_result$ = 452
tv158 = 660
tv143 = 660
tv92 = 660
tv74 = 660
tv132 = 664
tv82 = 664
tv64 = 664
__$ArrayPad$ = 672
env$ = 720
ep$ = 728
no$ = 736
u$ = 744
v_buf$ = 752
v_buf_size$ = 760
desired_w_buf$ = 768
desired_w_buf_size$ = 776
TEST_Subtruct_L_X PROC					; COMDAT

; 51   : {

$LN13:
	mov	QWORD PTR [rsp+32], r9
	mov	DWORD PTR [rsp+24], r8d
	mov	QWORD PTR [rsp+16], rdx
	mov	QWORD PTR [rsp+8], rcx
	push	rbp
	push	rdi
	sub	rsp, 728				; 000002d8H
	lea	rbp, QWORD PTR [rsp+32]
	mov	rdi, rsp
	mov	ecx, 182				; 000000b6H
	mov	eax, -858993460				; ccccccccH
	rep stosd
	mov	rcx, QWORD PTR [rsp+760]
	mov	rax, QWORD PTR __security_cookie
	xor	rax, rbp
	mov	QWORD PTR __$ArrayPad$[rbp], rax
	lea	rcx, OFFSET FLAT:__433B2F9A_test_op_subtruct@c
	call	__CheckForDebuggerJustMyCode

; 52   :     PMC_HANDLE_SINT v;
; 53   :     PMC_HANDLE_SINT w;
; 54   :     unsigned char actual_w_buf[256];
; 55   :     size_t actual_w_buf_size;
; 56   :     PMC_STATUS_CODE result;
; 57   :     PMC_STATUS_CODE v_result;
; 58   :     PMC_STATUS_CODE w_result;
; 59   :     TEST_Assert(env, FormatTestLabel(L"Subtruct_L_X (%d.%d)", no, 1), (v_result = ep->FromByteArray(v_buf, v_buf_size, &v)) == PMC_STATUS_OK, FormatTestMesssage(L"FromByteArrayの復帰コードが期待通りではない(%d)", v_result));

	lea	r8, QWORD PTR v$[rbp]
	mov	rdx, QWORD PTR v_buf_size$[rbp]
	mov	rcx, QWORD PTR v_buf$[rbp]
	mov	rax, QWORD PTR ep$[rbp]
	call	QWORD PTR [rax+600]
	mov	DWORD PTR v_result$[rbp], eax
	cmp	DWORD PTR v_result$[rbp], 0
	jne	SHORT $LN5@TEST_Subtr
	mov	DWORD PTR tv74[rbp], 1
	jmp	SHORT $LN6@TEST_Subtr
$LN5@TEST_Subtr:
	mov	DWORD PTR tv74[rbp], 0
$LN6@TEST_Subtr:
	mov	edx, DWORD PTR v_result$[rbp]
	lea	rcx, OFFSET FLAT:??_C@_1EC@NPMCAPKO@?$AAF?$AAr?$AAo?$AAm?$AAB?$AAy?$AAt?$AAe?$AAA?$AAr?$AAr?$AAa?$AAy?$AAn?$PP?$KJ@
	call	FormatTestMesssage
	mov	QWORD PTR tv64[rbp], rax
	mov	r8d, 1
	mov	edx, DWORD PTR no$[rbp]
	lea	rcx, OFFSET FLAT:??_C@_1CK@HMHBAFBJ@?$AAS?$AAu?$AAb?$AAt?$AAr?$AAu?$AAc?$AAt?$AA_?$AAL?$AA_?$AAX?$AA?5?$AA?$CI?$AA?$CF@
	call	FormatTestLabel
	mov	rcx, QWORD PTR tv64[rbp]
	mov	r9, rcx
	mov	r8d, DWORD PTR tv74[rbp]
	mov	rdx, rax
	mov	rcx, QWORD PTR env$[rbp]
	call	TEST_Assert

; 60   :     TEST_Assert(env, FormatTestLabel(L"Subtruct_L_X (%d.%d)", no, 2), (w_result = ep->Subtruct_L_X(u, v, &w)) == PMC_STATUS_OK, FormatTestMesssage(L"Subtruct_L_Xの復帰コードが期待通りではない(%d)", w_result));

	lea	r8, QWORD PTR w$[rbp]
	mov	rdx, QWORD PTR v$[rbp]
	mov	rcx, QWORD PTR u$[rbp]
	mov	rax, QWORD PTR ep$[rbp]
	call	QWORD PTR [rax+720]
	mov	DWORD PTR w_result$[rbp], eax
	cmp	DWORD PTR w_result$[rbp], 0
	jne	SHORT $LN7@TEST_Subtr
	mov	DWORD PTR tv92[rbp], 1
	jmp	SHORT $LN8@TEST_Subtr
$LN7@TEST_Subtr:
	mov	DWORD PTR tv92[rbp], 0
$LN8@TEST_Subtr:
	mov	edx, DWORD PTR w_result$[rbp]
	lea	rcx, OFFSET FLAT:??_C@_1EA@INDIFGGF@?$AAS?$AAu?$AAb?$AAt?$AAr?$AAu?$AAc?$AAt?$AA_?$AAL?$AA_?$AAX?$AAn?$PP?$KJ?$AA0@
	call	FormatTestMesssage
	mov	QWORD PTR tv82[rbp], rax
	mov	r8d, 2
	mov	edx, DWORD PTR no$[rbp]
	lea	rcx, OFFSET FLAT:??_C@_1CK@HMHBAFBJ@?$AAS?$AAu?$AAb?$AAt?$AAr?$AAu?$AAc?$AAt?$AA_?$AAL?$AA_?$AAX?$AA?5?$AA?$CI?$AA?$CF@
	call	FormatTestLabel
	mov	rcx, QWORD PTR tv82[rbp]
	mov	r9, rcx
	mov	r8d, DWORD PTR tv92[rbp]
	mov	rdx, rax
	mov	rcx, QWORD PTR env$[rbp]
	call	TEST_Assert

; 61   :     TEST_Assert(env, FormatTestLabel(L"Subtruct_L_X (%d.%d)", no, 3), (result = ep->ToByteArray(w, actual_w_buf, sizeof(actual_w_buf), &actual_w_buf_size)) == PMC_STATUS_OK, FormatTestMesssage(L"ToByteArrayの復帰コードが期待通りではない(%d)", result));

	lea	r9, QWORD PTR actual_w_buf_size$[rbp]
	mov	r8d, 256				; 00000100H
	lea	rdx, QWORD PTR actual_w_buf$[rbp]
	mov	rcx, QWORD PTR w$[rbp]
	mov	rax, QWORD PTR ep$[rbp]
	call	QWORD PTR [rax+608]
	mov	DWORD PTR result$[rbp], eax
	cmp	DWORD PTR result$[rbp], 0
	jne	SHORT $LN9@TEST_Subtr
	mov	DWORD PTR tv143[rbp], 1
	jmp	SHORT $LN10@TEST_Subtr
$LN9@TEST_Subtr:
	mov	DWORD PTR tv143[rbp], 0
$LN10@TEST_Subtr:
	mov	edx, DWORD PTR result$[rbp]
	lea	rcx, OFFSET FLAT:??_C@_1DO@DOHJEMND@?$AAT?$AAo?$AAB?$AAy?$AAt?$AAe?$AAA?$AAr?$AAr?$AAa?$AAy?$AAn?$PP?$KJ?$AA0?$PP?$LD@
	call	FormatTestMesssage
	mov	QWORD PTR tv132[rbp], rax
	mov	r8d, 3
	mov	edx, DWORD PTR no$[rbp]
	lea	rcx, OFFSET FLAT:??_C@_1CK@HMHBAFBJ@?$AAS?$AAu?$AAb?$AAt?$AAr?$AAu?$AAc?$AAt?$AA_?$AAL?$AA_?$AAX?$AA?5?$AA?$CI?$AA?$CF@
	call	FormatTestLabel
	mov	rcx, QWORD PTR tv132[rbp]
	mov	r9, rcx
	mov	r8d, DWORD PTR tv143[rbp]
	mov	rdx, rax
	mov	rcx, QWORD PTR env$[rbp]
	call	TEST_Assert

; 62   :     TEST_Assert(env, FormatTestLabel(L"Subtruct_L_X (%d.%d)", no, 4), _EQUALS_MEMORY(actual_w_buf, actual_w_buf_size, desired_w_buf, desired_w_buf_size) == 0, L"データの内容が一致しない");

	mov	r9, QWORD PTR desired_w_buf_size$[rbp]
	mov	r8, QWORD PTR desired_w_buf$[rbp]
	mov	rdx, QWORD PTR actual_w_buf_size$[rbp]
	lea	rcx, QWORD PTR actual_w_buf$[rbp]
	call	_EQUALS_MEMORY
	test	eax, eax
	jne	SHORT $LN11@TEST_Subtr
	mov	DWORD PTR tv158[rbp], 1
	jmp	SHORT $LN12@TEST_Subtr
$LN11@TEST_Subtr:
	mov	DWORD PTR tv158[rbp], 0
$LN12@TEST_Subtr:
	mov	r8d, 4
	mov	edx, DWORD PTR no$[rbp]
	lea	rcx, OFFSET FLAT:??_C@_1CK@HMHBAFBJ@?$AAS?$AAu?$AAb?$AAt?$AAr?$AAu?$AAc?$AAt?$AA_?$AAL?$AA_?$AAX?$AA?5?$AA?$CI?$AA?$CF@
	call	FormatTestLabel
	lea	r9, OFFSET FLAT:??_C@_1BK@CBDJCOBM@?$PP?G?$PP?$PM?$PP?$LP?$AAn?$PP?$IF?$PP?$LJ?$AAL?$AA?$AA?$PP?t?$AAW?$AAj?$AAD@
	mov	r8d, DWORD PTR tv158[rbp]
	mov	rdx, rax
	mov	rcx, QWORD PTR env$[rbp]
	call	TEST_Assert

; 63   :     if (w_result == PMC_STATUS_OK)

	cmp	DWORD PTR w_result$[rbp], 0
	jne	SHORT $LN2@TEST_Subtr

; 64   :         ep->Dispose(w);

	mov	rcx, QWORD PTR w$[rbp]
	mov	rax, QWORD PTR ep$[rbp]
	call	QWORD PTR [rax+584]
$LN2@TEST_Subtr:

; 65   :     if (v_result == PMC_STATUS_OK)

	cmp	DWORD PTR v_result$[rbp], 0
	jne	SHORT $LN3@TEST_Subtr

; 66   :         ep->Dispose(v);

	mov	rcx, QWORD PTR v$[rbp]
	mov	rax, QWORD PTR ep$[rbp]
	call	QWORD PTR [rax+584]
$LN3@TEST_Subtr:

; 67   : }

	lea	rcx, QWORD PTR [rbp-32]
	lea	rdx, OFFSET FLAT:TEST_Subtruct_L_X$rtcFrameData
	call	_RTC_CheckStackVars
	mov	rcx, QWORD PTR __$ArrayPad$[rbp]
	xor	rcx, rbp
	call	__security_check_cookie
	lea	rsp, QWORD PTR [rbp+696]
	pop	rdi
	pop	rbp
	ret	0
TEST_Subtruct_L_X ENDP
_TEXT	ENDS
; Function compile flags: /Odtp /RTCsu /ZI
; File z:\sources\lunor\repos\rougemeilland\palmtree.math.core.sint\palmtree.math.core.sint\test_op_subtruct.c
;	COMDAT TEST_Subtruct_I_X
_TEXT	SEGMENT
v$ = 8
w$ = 40
actual_w_buf$ = 80
actual_w_buf_size$ = 360
result$ = 388
v_result$ = 420
w_result$ = 452
tv158 = 660
tv143 = 660
tv92 = 660
tv74 = 660
tv132 = 664
tv82 = 664
tv64 = 664
__$ArrayPad$ = 672
env$ = 720
ep$ = 728
no$ = 736
u$ = 744
v_buf$ = 752
v_buf_size$ = 760
desired_w_buf$ = 768
desired_w_buf_size$ = 776
TEST_Subtruct_I_X PROC					; COMDAT

; 32   : {

$LN13:
	mov	DWORD PTR [rsp+32], r9d
	mov	DWORD PTR [rsp+24], r8d
	mov	QWORD PTR [rsp+16], rdx
	mov	QWORD PTR [rsp+8], rcx
	push	rbp
	push	rdi
	sub	rsp, 728				; 000002d8H
	lea	rbp, QWORD PTR [rsp+32]
	mov	rdi, rsp
	mov	ecx, 182				; 000000b6H
	mov	eax, -858993460				; ccccccccH
	rep stosd
	mov	rcx, QWORD PTR [rsp+760]
	mov	rax, QWORD PTR __security_cookie
	xor	rax, rbp
	mov	QWORD PTR __$ArrayPad$[rbp], rax
	lea	rcx, OFFSET FLAT:__433B2F9A_test_op_subtruct@c
	call	__CheckForDebuggerJustMyCode

; 33   :     PMC_HANDLE_SINT v;
; 34   :     PMC_HANDLE_SINT w;
; 35   :     unsigned char actual_w_buf[256];
; 36   :     size_t actual_w_buf_size;
; 37   :     PMC_STATUS_CODE result;
; 38   :     PMC_STATUS_CODE v_result;
; 39   :     PMC_STATUS_CODE w_result;
; 40   :     TEST_Assert(env, FormatTestLabel(L"Subtruct_I_X (%d.%d)", no, 1), (v_result = ep->FromByteArray(v_buf, v_buf_size, &v)) == PMC_STATUS_OK, FormatTestMesssage(L"FromByteArrayの復帰コードが期待通りではない(%d)", v_result));

	lea	r8, QWORD PTR v$[rbp]
	mov	rdx, QWORD PTR v_buf_size$[rbp]
	mov	rcx, QWORD PTR v_buf$[rbp]
	mov	rax, QWORD PTR ep$[rbp]
	call	QWORD PTR [rax+600]
	mov	DWORD PTR v_result$[rbp], eax
	cmp	DWORD PTR v_result$[rbp], 0
	jne	SHORT $LN5@TEST_Subtr
	mov	DWORD PTR tv74[rbp], 1
	jmp	SHORT $LN6@TEST_Subtr
$LN5@TEST_Subtr:
	mov	DWORD PTR tv74[rbp], 0
$LN6@TEST_Subtr:
	mov	edx, DWORD PTR v_result$[rbp]
	lea	rcx, OFFSET FLAT:??_C@_1EC@NPMCAPKO@?$AAF?$AAr?$AAo?$AAm?$AAB?$AAy?$AAt?$AAe?$AAA?$AAr?$AAr?$AAa?$AAy?$AAn?$PP?$KJ@
	call	FormatTestMesssage
	mov	QWORD PTR tv64[rbp], rax
	mov	r8d, 1
	mov	edx, DWORD PTR no$[rbp]
	lea	rcx, OFFSET FLAT:??_C@_1CK@JEFCPOGB@?$AAS?$AAu?$AAb?$AAt?$AAr?$AAu?$AAc?$AAt?$AA_?$AAI?$AA_?$AAX?$AA?5?$AA?$CI?$AA?$CF@
	call	FormatTestLabel
	mov	rcx, QWORD PTR tv64[rbp]
	mov	r9, rcx
	mov	r8d, DWORD PTR tv74[rbp]
	mov	rdx, rax
	mov	rcx, QWORD PTR env$[rbp]
	call	TEST_Assert

; 41   :     TEST_Assert(env, FormatTestLabel(L"Subtruct_I_X (%d.%d)", no, 2), (w_result = ep->Subtruct_I_X(u, v, &w)) == PMC_STATUS_OK, FormatTestMesssage(L"Subtruct_I_Xの復帰コードが期待通りではない(%d)", w_result));

	lea	r8, QWORD PTR w$[rbp]
	mov	rdx, QWORD PTR v$[rbp]
	mov	ecx, DWORD PTR u$[rbp]
	mov	rax, QWORD PTR ep$[rbp]
	call	QWORD PTR [rax+712]
	mov	DWORD PTR w_result$[rbp], eax
	cmp	DWORD PTR w_result$[rbp], 0
	jne	SHORT $LN7@TEST_Subtr
	mov	DWORD PTR tv92[rbp], 1
	jmp	SHORT $LN8@TEST_Subtr
$LN7@TEST_Subtr:
	mov	DWORD PTR tv92[rbp], 0
$LN8@TEST_Subtr:
	mov	edx, DWORD PTR w_result$[rbp]
	lea	rcx, OFFSET FLAT:??_C@_1EA@NGKGKFPL@?$AAS?$AAu?$AAb?$AAt?$AAr?$AAu?$AAc?$AAt?$AA_?$AAI?$AA_?$AAX?$AAn?$PP?$KJ?$AA0@
	call	FormatTestMesssage
	mov	QWORD PTR tv82[rbp], rax
	mov	r8d, 2
	mov	edx, DWORD PTR no$[rbp]
	lea	rcx, OFFSET FLAT:??_C@_1CK@JEFCPOGB@?$AAS?$AAu?$AAb?$AAt?$AAr?$AAu?$AAc?$AAt?$AA_?$AAI?$AA_?$AAX?$AA?5?$AA?$CI?$AA?$CF@
	call	FormatTestLabel
	mov	rcx, QWORD PTR tv82[rbp]
	mov	r9, rcx
	mov	r8d, DWORD PTR tv92[rbp]
	mov	rdx, rax
	mov	rcx, QWORD PTR env$[rbp]
	call	TEST_Assert

; 42   :     TEST_Assert(env, FormatTestLabel(L"Subtruct_I_X (%d.%d)", no, 3), (result = ep->ToByteArray(w, actual_w_buf, sizeof(actual_w_buf), &actual_w_buf_size)) == PMC_STATUS_OK, FormatTestMesssage(L"ToByteArrayの復帰コードが期待通りではない(%d)", result));

	lea	r9, QWORD PTR actual_w_buf_size$[rbp]
	mov	r8d, 256				; 00000100H
	lea	rdx, QWORD PTR actual_w_buf$[rbp]
	mov	rcx, QWORD PTR w$[rbp]
	mov	rax, QWORD PTR ep$[rbp]
	call	QWORD PTR [rax+608]
	mov	DWORD PTR result$[rbp], eax
	cmp	DWORD PTR result$[rbp], 0
	jne	SHORT $LN9@TEST_Subtr
	mov	DWORD PTR tv143[rbp], 1
	jmp	SHORT $LN10@TEST_Subtr
$LN9@TEST_Subtr:
	mov	DWORD PTR tv143[rbp], 0
$LN10@TEST_Subtr:
	mov	edx, DWORD PTR result$[rbp]
	lea	rcx, OFFSET FLAT:??_C@_1DO@DOHJEMND@?$AAT?$AAo?$AAB?$AAy?$AAt?$AAe?$AAA?$AAr?$AAr?$AAa?$AAy?$AAn?$PP?$KJ?$AA0?$PP?$LD@
	call	FormatTestMesssage
	mov	QWORD PTR tv132[rbp], rax
	mov	r8d, 3
	mov	edx, DWORD PTR no$[rbp]
	lea	rcx, OFFSET FLAT:??_C@_1CK@JEFCPOGB@?$AAS?$AAu?$AAb?$AAt?$AAr?$AAu?$AAc?$AAt?$AA_?$AAI?$AA_?$AAX?$AA?5?$AA?$CI?$AA?$CF@
	call	FormatTestLabel
	mov	rcx, QWORD PTR tv132[rbp]
	mov	r9, rcx
	mov	r8d, DWORD PTR tv143[rbp]
	mov	rdx, rax
	mov	rcx, QWORD PTR env$[rbp]
	call	TEST_Assert

; 43   :     TEST_Assert(env, FormatTestLabel(L"Subtruct_I_X (%d.%d)", no, 4), _EQUALS_MEMORY(actual_w_buf, actual_w_buf_size, desired_w_buf, desired_w_buf_size) == 0, L"データの内容が一致しない");

	mov	r9, QWORD PTR desired_w_buf_size$[rbp]
	mov	r8, QWORD PTR desired_w_buf$[rbp]
	mov	rdx, QWORD PTR actual_w_buf_size$[rbp]
	lea	rcx, QWORD PTR actual_w_buf$[rbp]
	call	_EQUALS_MEMORY
	test	eax, eax
	jne	SHORT $LN11@TEST_Subtr
	mov	DWORD PTR tv158[rbp], 1
	jmp	SHORT $LN12@TEST_Subtr
$LN11@TEST_Subtr:
	mov	DWORD PTR tv158[rbp], 0
$LN12@TEST_Subtr:
	mov	r8d, 4
	mov	edx, DWORD PTR no$[rbp]
	lea	rcx, OFFSET FLAT:??_C@_1CK@JEFCPOGB@?$AAS?$AAu?$AAb?$AAt?$AAr?$AAu?$AAc?$AAt?$AA_?$AAI?$AA_?$AAX?$AA?5?$AA?$CI?$AA?$CF@
	call	FormatTestLabel
	lea	r9, OFFSET FLAT:??_C@_1BK@CBDJCOBM@?$PP?G?$PP?$PM?$PP?$LP?$AAn?$PP?$IF?$PP?$LJ?$AAL?$AA?$AA?$PP?t?$AAW?$AAj?$AAD@
	mov	r8d, DWORD PTR tv158[rbp]
	mov	rdx, rax
	mov	rcx, QWORD PTR env$[rbp]
	call	TEST_Assert

; 44   :     if (w_result == PMC_STATUS_OK)

	cmp	DWORD PTR w_result$[rbp], 0
	jne	SHORT $LN2@TEST_Subtr

; 45   :         ep->Dispose(w);

	mov	rcx, QWORD PTR w$[rbp]
	mov	rax, QWORD PTR ep$[rbp]
	call	QWORD PTR [rax+584]
$LN2@TEST_Subtr:

; 46   :     if (v_result == PMC_STATUS_OK)

	cmp	DWORD PTR v_result$[rbp], 0
	jne	SHORT $LN3@TEST_Subtr

; 47   :         ep->Dispose(v);

	mov	rcx, QWORD PTR v$[rbp]
	mov	rax, QWORD PTR ep$[rbp]
	call	QWORD PTR [rax+584]
$LN3@TEST_Subtr:

; 48   : }

	lea	rcx, QWORD PTR [rbp-32]
	lea	rdx, OFFSET FLAT:TEST_Subtruct_I_X$rtcFrameData
	call	_RTC_CheckStackVars
	mov	rcx, QWORD PTR __$ArrayPad$[rbp]
	xor	rcx, rbp
	call	__security_check_cookie
	lea	rsp, QWORD PTR [rbp+696]
	pop	rdi
	pop	rbp
	ret	0
TEST_Subtruct_I_X ENDP
_TEXT	ENDS
END
