; Listing generated by Microsoft (R) Optimizing Compiler Version 19.16.27026.1 

include listing.inc

INCLUDELIB MSVCRTD
INCLUDELIB OLDNAMES

msvcjmc	SEGMENT
__7B7A869E_ctype@h DB 01H
__457DD326_basetsd@h DB 01H
__4384A2D9_corecrt_memcpy_s@h DB 01H
__4E51A221_corecrt_wstring@h DB 01H
__2140C079_string@h DB 01H
__1887E595_winnt@h DB 01H
__9FC7C64B_processthreadsapi@h DB 01H
__FA470AEC_memoryapi@h DB 01H
__F37DAFF1_winerror@h DB 01H
__7A450CCC_winbase@h DB 01H
__B4B40122_winioctl@h DB 01H
__86261D59_stralign@h DB 01H
__059414E1_pmc_sint_debug@h DB 01H
__5155C79D_test_autogenerated@c DB 01H
msvcjmc	ENDS
PUBLIC	TEST_autogenerated
PUBLIC	__JustMyCode_Default
EXTRN	TEST_Add_I_X:PROC
EXTRN	TEST_Add_L_X:PROC
EXTRN	TEST_Add_UX_X:PROC
EXTRN	TEST_Add_X_I:PROC
EXTRN	TEST_Add_X_L:PROC
EXTRN	TEST_Add_X_UX:PROC
EXTRN	TEST_Add_X_X:PROC
EXTRN	TEST_Clone_X:PROC
EXTRN	TEST_From_I:PROC
EXTRN	TEST_From_L:PROC
EXTRN	TEST_GetNumberType_X:PROC
EXTRN	TEST_Negate_X:PROC
EXTRN	TEST_Subtruct_I_X:PROC
EXTRN	TEST_Subtruct_L_X:PROC
EXTRN	TEST_Subtruct_UX_X:PROC
EXTRN	TEST_Subtruct_X_I:PROC
EXTRN	TEST_Subtruct_X_L:PROC
EXTRN	TEST_Subtruct_X_UX:PROC
EXTRN	TEST_Subtruct_X_X:PROC
EXTRN	TEST_To_X_I:PROC
EXTRN	TEST_To_X_L:PROC
EXTRN	_RTC_InitBase:PROC
EXTRN	_RTC_Shutdown:PROC
EXTRN	__CheckForDebuggerJustMyCode:PROC
_BSS	SEGMENT
Add_in_data_14 DB 01H DUP (?)
Add_out_data_1_27 DB 01H DUP (?)
Add_out_data_2_26 DB 01H DUP (?)
Add_out_data_3_25 DB 01H DUP (?)
Add_out_data_4_24 DB 01H DUP (?)
Add_out_data_5_23 DB 01H DUP (?)
Add_out_data_6_22 DB 01H DUP (?)
Add_out_data_7_21 DB 01H DUP (?)
Add_out_data_8_20 DB 01H DUP (?)
Add_out_data_9_19 DB 01H DUP (?)
Add_out_data_10_18 DB 01H DUP (?)
Add_out_data_11_17 DB 01H DUP (?)
Add_out_data_12_16 DB 01H DUP (?)
Add_out_data_13_15 DB 01H DUP (?)
Add_out_data_14_14 DB 01H DUP (?)
Add_out_data_15_13 DB 01H DUP (?)
Add_out_data_16_12 DB 01H DUP (?)
Add_out_data_17_11 DB 01H DUP (?)
Add_out_data_18_10 DB 01H DUP (?)
Add_out_data_19_9 DB 01H DUP (?)
Add_out_data_20_8 DB 01H DUP (?)
Add_out_data_21_7 DB 01H DUP (?)
Add_out_data_22_6 DB 01H DUP (?)
Add_out_data_23_5 DB 01H DUP (?)
Add_out_data_24_4 DB 01H DUP (?)
Add_out_data_25_3 DB 01H DUP (?)
Add_out_data_26_2 DB 01H DUP (?)
Add_out_data_27_1 DB 01H DUP (?)
Clone_in_data_14 DB 01H DUP (?)
Clone_out_data_14 DB 01H DUP (?)
From_out_data_14 DB 01H DUP (?)
GetNumberType_in_data_14 DB 01H DUP (?)
Negate_in_data_14 DB 01H DUP (?)
Negate_out_data_14 DB 01H DUP (?)
Subtruct_in_data_14 DB 01H DUP (?)
Subtruct_out_data_1_1 DB 01H DUP (?)
Subtruct_out_data_2_2 DB 01H DUP (?)
Subtruct_out_data_3_3 DB 01H DUP (?)
Subtruct_out_data_4_4 DB 01H DUP (?)
Subtruct_out_data_5_5 DB 01H DUP (?)
Subtruct_out_data_6_6 DB 01H DUP (?)
Subtruct_out_data_7_7 DB 01H DUP (?)
Subtruct_out_data_8_8 DB 01H DUP (?)
Subtruct_out_data_9_9 DB 01H DUP (?)
Subtruct_out_data_10_10 DB 01H DUP (?)
Subtruct_out_data_11_11 DB 01H DUP (?)
Subtruct_out_data_12_12 DB 01H DUP (?)
Subtruct_out_data_13_13 DB 01H DUP (?)
Subtruct_out_data_14_14 DB 01H DUP (?)
Subtruct_out_data_15_15 DB 01H DUP (?)
Subtruct_out_data_16_16 DB 01H DUP (?)
Subtruct_out_data_17_17 DB 01H DUP (?)
Subtruct_out_data_18_18 DB 01H DUP (?)
Subtruct_out_data_19_19 DB 01H DUP (?)
Subtruct_out_data_20_20 DB 01H DUP (?)
Subtruct_out_data_21_21 DB 01H DUP (?)
Subtruct_out_data_22_22 DB 01H DUP (?)
Subtruct_out_data_23_23 DB 01H DUP (?)
Subtruct_out_data_24_24 DB 01H DUP (?)
Subtruct_out_data_25_25 DB 01H DUP (?)
Subtruct_out_data_26_26 DB 01H DUP (?)
Subtruct_out_data_27_27 DB 01H DUP (?)
To_in_data_14 DB 01H DUP (?)
_BSS	ENDS
;	COMDAT pdata
pdata	SEGMENT
$pdata$TEST_autogenerated DD imagerel $LN3
	DD	imagerel $LN3+413836
	DD	imagerel $unwind$TEST_autogenerated
pdata	ENDS
;	COMDAT rtc$TMZ
rtc$TMZ	SEGMENT
_RTC_Shutdown.rtc$TMZ DQ FLAT:_RTC_Shutdown
rtc$TMZ	ENDS
;	COMDAT rtc$IMZ
rtc$IMZ	SEGMENT
_RTC_InitBase.rtc$IMZ DQ FLAT:_RTC_InitBase
rtc$IMZ	ENDS
_DATA	SEGMENT
Add_in_data_1 DB 03H
	DB	00H
	DB	00H
	DB	00H
	DB	00H
	DB	00H
	DB	00H
	DB	00H
	DB	00H
	DB	00H
	DB	00H
	DB	00H
	DB	00H
	DB	00H
	DB	00H
	DB	00H
	DB	00H
	DB	01H
	ORG $+6
Add_in_data_2 DB 03H
	DB	0ffH
	DB	0ffH
	DB	0ffH
	DB	0ffH
	DB	0ffH
	DB	0ffH
	DB	0ffH
	DB	0ffH
	DB	0ffH
	DB	0ffH
	DB	0ffH
	DB	0ffH
	DB	0ffH
	DB	0ffH
	DB	0ffH
	DB	0ffH
	ORG $+3
Add_in_data_9 DB 03H
	DB	00H
	DB	00H
	DB	00H
	DB	00H
	DB	01H
	ORG $+2
Add_in_data_13 DB 03H
	DB	01H
	ORG $+2
Add_in_data_3 DB 03H
	DB	00H
	DB	00H
	DB	00H
	DB	00H
	DB	00H
	DB	00H
	DB	00H
	DB	00H
	DB	00H
	DB	00H
	DB	00H
	DB	00H
	DB	00H
	DB	00H
	DB	00H
	DB	080H
	ORG $+3
Add_in_data_15 DB 01H
	DB	01H
	ORG $+2
Add_in_data_4 DB 03H
	DB	0ffH
	DB	0ffH
	DB	0ffH
	DB	0ffH
	DB	0ffH
	DB	0ffH
	DB	0ffH
	DB	0ffH
	DB	0ffH
	DB	0ffH
	DB	0ffH
	DB	0ffH
	DB	0ffH
	DB	0ffH
	DB	0ffH
	DB	07fH
	ORG $+3
Add_in_data_19 DB 01H
	DB	00H
	DB	00H
	DB	00H
	DB	00H
	DB	01H
	ORG $+2
Add_out_data_1_26 DB 03H
	DB	01H
	ORG $+2
Add_in_data_5 DB 03H
	DB	00H
	DB	00H
	DB	00H
	DB	00H
	DB	00H
	DB	00H
	DB	00H
	DB	00H
	DB	01H
	ORG $+2
Add_out_data_2_27 DB 01H
	DB	01H
	ORG $+2
Add_in_data_6 DB 03H
	DB	0ffH
	DB	0ffH
	DB	0ffH
	DB	0ffH
	DB	0ffH
	DB	0ffH
	DB	0ffH
	DB	0ffH
	ORG $+3
Add_out_data_3_24 DB 03H
	DB	01H
	ORG $+2
Add_in_data_7 DB 03H
	DB	00H
	DB	00H
	DB	00H
	DB	00H
	DB	00H
	DB	00H
	DB	00H
	DB	080H
	ORG $+3
Add_out_data_4_25 DB 01H
	DB	01H
	ORG $+2
Add_in_data_8 DB 03H
	DB	0ffH
	DB	0ffH
	DB	0ffH
	DB	0ffH
	DB	0ffH
	DB	0ffH
	DB	0ffH
	DB	07fH
	ORG $+3
Add_in_data_10 DB 03H
	DB	0ffH
	DB	0ffH
	DB	0ffH
	DB	0ffH
	ORG $+3
Add_in_data_11 DB 03H
	DB	00H
	DB	00H
	DB	00H
	DB	080H
	ORG $+3
Add_in_data_12 DB 03H
	DB	0ffH
	DB	0ffH
	DB	0ffH
	DB	07fH
	ORG $+3
Add_in_data_16 DB 01H
	DB	0ffH
	DB	0ffH
	DB	0ffH
	DB	07fH
	ORG $+3
Add_in_data_17 DB 01H
	DB	00H
	DB	00H
	DB	00H
	DB	080H
	ORG $+3
Add_in_data_18 DB 01H
	DB	0ffH
	DB	0ffH
	DB	0ffH
	DB	0ffH
	ORG $+3
Add_out_data_5_22 DB 03H
	DB	01H
	ORG $+2
Add_in_data_20 DB 01H
	DB	0ffH
	DB	0ffH
	DB	0ffH
	DB	0ffH
	DB	0ffH
	DB	0ffH
	DB	0ffH
	DB	07fH
	ORG $+3
Add_out_data_6_23 DB 01H
	DB	01H
	ORG $+2
Add_in_data_21 DB 01H
	DB	00H
	DB	00H
	DB	00H
	DB	00H
	DB	00H
	DB	00H
	DB	00H
	DB	080H
	ORG $+3
Add_out_data_7_20 DB 03H
	DB	01H
	ORG $+2
Add_in_data_22 DB 01H
	DB	0ffH
	DB	0ffH
	DB	0ffH
	DB	0ffH
	DB	0ffH
	DB	0ffH
	DB	0ffH
	DB	0ffH
	ORG $+3
Add_out_data_8_21 DB 01H
	DB	01H
	ORG $+2
Add_in_data_23 DB 01H
	DB	00H
	DB	00H
	DB	00H
	DB	00H
	DB	00H
	DB	00H
	DB	00H
	DB	00H
	DB	01H
	ORG $+2
Add_out_data_9_18 DB 03H
	DB	01H
	ORG $+2
Add_in_data_24 DB 01H
	DB	0ffH
	DB	0ffH
	DB	0ffH
	DB	0ffH
	DB	0ffH
	DB	0ffH
	DB	0ffH
	DB	0ffH
	DB	0ffH
	DB	0ffH
	DB	0ffH
	DB	0ffH
	DB	0ffH
	DB	0ffH
	DB	0ffH
	DB	07fH
	ORG $+3
Add_out_data_9_9 DB 03H
	DB	00H
	DB	00H
	DB	00H
	DB	00H
	DB	02H
	ORG $+2
Add_out_data_10_19 DB 01H
	DB	01H
	ORG $+2
Add_in_data_25 DB 01H
	DB	00H
	DB	00H
	DB	00H
	DB	00H
	DB	00H
	DB	00H
	DB	00H
	DB	00H
	DB	00H
	DB	00H
	DB	00H
	DB	00H
	DB	00H
	DB	00H
	DB	00H
	DB	080H
	ORG $+3
Add_out_data_9_10 DB 03H
	DB	0ffH
	DB	0ffH
	DB	0ffH
	DB	0ffH
	DB	01H
	ORG $+2
Add_out_data_11_16 DB 03H
	DB	01H
	ORG $+2
Add_in_data_26 DB 01H
	DB	0ffH
	DB	0ffH
	DB	0ffH
	DB	0ffH
	DB	0ffH
	DB	0ffH
	DB	0ffH
	DB	0ffH
	DB	0ffH
	DB	0ffH
	DB	0ffH
	DB	0ffH
	DB	0ffH
	DB	0ffH
	DB	0ffH
	DB	0ffH
	ORG $+3
Add_out_data_9_11 DB 03H
	DB	00H
	DB	00H
	DB	00H
	DB	080H
	DB	01H
	ORG $+2
Add_out_data_12_17 DB 01H
	DB	01H
	ORG $+2
Add_in_data_27 DB 01H
	DB	00H
	DB	00H
	DB	00H
	DB	00H
	DB	00H
	DB	00H
	DB	00H
	DB	00H
	DB	00H
	DB	00H
	DB	00H
	DB	00H
	DB	00H
	DB	00H
	DB	00H
	DB	00H
	DB	01H
	ORG $+2
Add_out_data_13_13 DB 03H
	DB	02H
	ORG $+2
Add_out_data_1_1 DB 03H
	DB	00H
	DB	00H
	DB	00H
	DB	00H
	DB	00H
	DB	00H
	DB	00H
	DB	00H
	DB	00H
	DB	00H
	DB	00H
	DB	00H
	DB	00H
	DB	00H
	DB	00H
	DB	00H
	DB	02H
	ORG $+2
Add_out_data_13_14 DB 03H
	DB	01H
	ORG $+2
Add_out_data_1_2 DB 03H
	DB	0ffH
	DB	0ffH
	DB	0ffH
	DB	0ffH
	DB	0ffH
	DB	0ffH
	DB	0ffH
	DB	0ffH
	DB	0ffH
	DB	0ffH
	DB	0ffH
	DB	0ffH
	DB	0ffH
	DB	0ffH
	DB	0ffH
	DB	0ffH
	DB	01H
	ORG $+2
Add_out_data_14_13 DB 03H
	DB	01H
	ORG $+2
Add_out_data_1_3 DB 03H
	DB	00H
	DB	00H
	DB	00H
	DB	00H
	DB	00H
	DB	00H
	DB	00H
	DB	00H
	DB	00H
	DB	00H
	DB	00H
	DB	00H
	DB	00H
	DB	00H
	DB	00H
	DB	080H
	DB	01H
	ORG $+2
Add_out_data_14_15 DB 01H
	DB	01H
	ORG $+2
Add_out_data_1_4 DB 03H
	DB	0ffH
	DB	0ffH
	DB	0ffH
	DB	0ffH
	DB	0ffH
	DB	0ffH
	DB	0ffH
	DB	0ffH
	DB	0ffH
	DB	0ffH
	DB	0ffH
	DB	0ffH
	DB	0ffH
	DB	0ffH
	DB	0ffH
	DB	07fH
	DB	01H
	ORG $+2
Add_out_data_15_14 DB 01H
	DB	01H
	ORG $+2
Add_out_data_1_5 DB 03H
	DB	00H
	DB	00H
	DB	00H
	DB	00H
	DB	00H
	DB	00H
	DB	00H
	DB	00H
	DB	01H
	DB	00H
	DB	00H
	DB	00H
	DB	00H
	DB	00H
	DB	00H
	DB	00H
	DB	01H
	ORG $+2
Add_out_data_15_15 DB 01H
	DB	02H
	ORG $+2
Add_out_data_1_6 DB 03H
	DB	0ffH
	DB	0ffH
	DB	0ffH
	DB	0ffH
	DB	0ffH
	DB	0ffH
	DB	0ffH
	DB	0ffH
	DB	00H
	DB	00H
	DB	00H
	DB	00H
	DB	00H
	DB	00H
	DB	00H
	DB	00H
	DB	01H
	ORG $+2
Add_out_data_16_11 DB 03H
	DB	01H
	ORG $+2
Add_out_data_1_7 DB 03H
	DB	00H
	DB	00H
	DB	00H
	DB	00H
	DB	00H
	DB	00H
	DB	00H
	DB	080H
	DB	00H
	DB	00H
	DB	00H
	DB	00H
	DB	00H
	DB	00H
	DB	00H
	DB	00H
	DB	01H
	ORG $+2
Add_out_data_17_12 DB 01H
	DB	01H
	ORG $+2
Add_out_data_1_8 DB 03H
	DB	0ffH
	DB	0ffH
	DB	0ffH
	DB	0ffH
	DB	0ffH
	DB	0ffH
	DB	0ffH
	DB	07fH
	DB	00H
	DB	00H
	DB	00H
	DB	00H
	DB	00H
	DB	00H
	DB	00H
	DB	00H
	DB	01H
	ORG $+2
Add_out_data_18_9 DB 03H
	DB	01H
	ORG $+2
Add_out_data_1_9 DB 03H
	DB	00H
	DB	00H
	DB	00H
	DB	00H
	DB	01H
	DB	00H
	DB	00H
	DB	00H
	DB	00H
	DB	00H
	DB	00H
	DB	00H
	DB	00H
	DB	00H
	DB	00H
	DB	00H
	DB	01H
	ORG $+2
Add_out_data_19_10 DB 01H
	DB	01H
	ORG $+2
Add_out_data_1_10 DB 03H
	DB	0ffH
	DB	0ffH
	DB	0ffH
	DB	0ffH
	DB	00H
	DB	00H
	DB	00H
	DB	00H
	DB	00H
	DB	00H
	DB	00H
	DB	00H
	DB	00H
	DB	00H
	DB	00H
	DB	00H
	DB	01H
	ORG $+2
Add_out_data_20_7 DB 03H
	DB	01H
	ORG $+2
Add_out_data_1_11 DB 03H
	DB	00H
	DB	00H
	DB	00H
	DB	080H
	DB	00H
	DB	00H
	DB	00H
	DB	00H
	DB	00H
	DB	00H
	DB	00H
	DB	00H
	DB	00H
	DB	00H
	DB	00H
	DB	00H
	DB	01H
	ORG $+2
Add_out_data_21_8 DB 01H
	DB	01H
	ORG $+2
Add_out_data_1_12 DB 03H
	DB	0ffH
	DB	0ffH
	DB	0ffH
	DB	07fH
	DB	00H
	DB	00H
	DB	00H
	DB	00H
	DB	00H
	DB	00H
	DB	00H
	DB	00H
	DB	00H
	DB	00H
	DB	00H
	DB	00H
	DB	01H
	ORG $+2
Add_out_data_22_5 DB 03H
	DB	01H
	ORG $+2
Add_out_data_1_13 DB 03H
	DB	01H
	DB	00H
	DB	00H
	DB	00H
	DB	00H
	DB	00H
	DB	00H
	DB	00H
	DB	00H
	DB	00H
	DB	00H
	DB	00H
	DB	00H
	DB	00H
	DB	00H
	DB	00H
	DB	01H
	ORG $+2
Add_out_data_23_6 DB 01H
	DB	01H
	ORG $+2
Add_out_data_1_14 DB 03H
	DB	00H
	DB	00H
	DB	00H
	DB	00H
	DB	00H
	DB	00H
	DB	00H
	DB	00H
	DB	00H
	DB	00H
	DB	00H
	DB	00H
	DB	00H
	DB	00H
	DB	00H
	DB	00H
	DB	01H
	ORG $+2
Add_out_data_24_3 DB 03H
	DB	01H
	ORG $+2
Add_out_data_1_15 DB 03H
	DB	0ffH
	DB	0ffH
	DB	0ffH
	DB	0ffH
	DB	0ffH
	DB	0ffH
	DB	0ffH
	DB	0ffH
	DB	0ffH
	DB	0ffH
	DB	0ffH
	DB	0ffH
	DB	0ffH
	DB	0ffH
	DB	0ffH
	DB	0ffH
	ORG $+3
Add_out_data_9_12 DB 03H
	DB	0ffH
	DB	0ffH
	DB	0ffH
	DB	07fH
	DB	01H
	ORG $+2
Add_out_data_25_4 DB 01H
	DB	01H
	ORG $+2
Add_out_data_1_16 DB 03H
	DB	01H
	DB	00H
	DB	00H
	DB	080H
	DB	0ffH
	DB	0ffH
	DB	0ffH
	DB	0ffH
	DB	0ffH
	DB	0ffH
	DB	0ffH
	DB	0ffH
	DB	0ffH
	DB	0ffH
	DB	0ffH
	DB	0ffH
	ORG $+3
Add_out_data_9_13 DB 03H
	DB	01H
	DB	00H
	DB	00H
	DB	00H
	DB	01H
	ORG $+2
Add_out_data_26_1 DB 03H
	DB	01H
	ORG $+2
Add_out_data_1_17 DB 03H
	DB	00H
	DB	00H
	DB	00H
	DB	080H
	DB	0ffH
	DB	0ffH
	DB	0ffH
	DB	0ffH
	DB	0ffH
	DB	0ffH
	DB	0ffH
	DB	0ffH
	DB	0ffH
	DB	0ffH
	DB	0ffH
	DB	0ffH
	ORG $+3
Add_out_data_9_14 DB 03H
	DB	00H
	DB	00H
	DB	00H
	DB	00H
	DB	01H
	ORG $+2
Add_out_data_27_2 DB 01H
	DB	01H
	ORG $+2
Add_out_data_1_18 DB 03H
	DB	01H
	DB	00H
	DB	00H
	DB	00H
	DB	0ffH
	DB	0ffH
	DB	0ffH
	DB	0ffH
	DB	0ffH
	DB	0ffH
	DB	0ffH
	DB	0ffH
	DB	0ffH
	DB	0ffH
	DB	0ffH
	DB	0ffH
	ORG $+3
Add_out_data_10_9 DB 03H
	DB	0ffH
	DB	0ffH
	DB	0ffH
	DB	0ffH
	DB	01H
	ORG $+2
Clone_in_data_13 DB 03H
	DB	01H
	ORG $+2
Add_out_data_1_19 DB 03H
	DB	00H
	DB	00H
	DB	00H
	DB	00H
	DB	0ffH
	DB	0ffH
	DB	0ffH
	DB	0ffH
	DB	0ffH
	DB	0ffH
	DB	0ffH
	DB	0ffH
	DB	0ffH
	DB	0ffH
	DB	0ffH
	DB	0ffH
	ORG $+3
Add_out_data_10_10 DB 03H
	DB	0feH
	DB	0ffH
	DB	0ffH
	DB	0ffH
	DB	01H
	ORG $+2
Clone_in_data_15 DB 01H
	DB	01H
	ORG $+2
Add_out_data_1_20 DB 03H
	DB	01H
	DB	00H
	DB	00H
	DB	00H
	DB	00H
	DB	00H
	DB	00H
	DB	080H
	DB	0ffH
	DB	0ffH
	DB	0ffH
	DB	0ffH
	DB	0ffH
	DB	0ffH
	DB	0ffH
	DB	0ffH
	ORG $+3
Add_out_data_10_11 DB 03H
	DB	0ffH
	DB	0ffH
	DB	0ffH
	DB	07fH
	DB	01H
	ORG $+2
Clone_out_data_13 DB 03H
	DB	01H
	ORG $+2
Add_out_data_1_21 DB 03H
	DB	00H
	DB	00H
	DB	00H
	DB	00H
	DB	00H
	DB	00H
	DB	00H
	DB	080H
	DB	0ffH
	DB	0ffH
	DB	0ffH
	DB	0ffH
	DB	0ffH
	DB	0ffH
	DB	0ffH
	DB	0ffH
	ORG $+3
Add_out_data_10_12 DB 03H
	DB	0feH
	DB	0ffH
	DB	0ffH
	DB	07fH
	DB	01H
	ORG $+2
Clone_out_data_15 DB 01H
	DB	01H
	ORG $+2
Add_out_data_1_22 DB 03H
	DB	01H
	DB	00H
	DB	00H
	DB	00H
	DB	00H
	DB	00H
	DB	00H
	DB	00H
	DB	0ffH
	DB	0ffH
	DB	0ffH
	DB	0ffH
	DB	0ffH
	DB	0ffH
	DB	0ffH
	DB	0ffH
	ORG $+3
Add_out_data_10_13 DB 03H
	DB	00H
	DB	00H
	DB	00H
	DB	00H
	DB	01H
	ORG $+2
From_out_data_13 DB 03H
	DB	01H
	ORG $+2
Add_out_data_1_23 DB 03H
	DB	00H
	DB	00H
	DB	00H
	DB	00H
	DB	00H
	DB	00H
	DB	00H
	DB	00H
	DB	0ffH
	DB	0ffH
	DB	0ffH
	DB	0ffH
	DB	0ffH
	DB	0ffH
	DB	0ffH
	DB	0ffH
	ORG $+3
Add_out_data_11_9 DB 03H
	DB	00H
	DB	00H
	DB	00H
	DB	080H
	DB	01H
	ORG $+2
From_out_data_15 DB 01H
	DB	01H
	ORG $+2
Add_out_data_1_24 DB 03H
	DB	01H
	DB	00H
	DB	00H
	DB	00H
	DB	00H
	DB	00H
	DB	00H
	DB	00H
	DB	00H
	DB	00H
	DB	00H
	DB	00H
	DB	00H
	DB	00H
	DB	00H
	DB	080H
	ORG $+3
Add_out_data_11_10 DB 03H
	DB	0ffH
	DB	0ffH
	DB	0ffH
	DB	07fH
	DB	01H
	ORG $+2
GetNumberType_in_data_13 DB 03H
	DB	01H
	ORG $+2
Add_out_data_1_25 DB 03H
	DB	00H
	DB	00H
	DB	00H
	DB	00H
	DB	00H
	DB	00H
	DB	00H
	DB	00H
	DB	00H
	DB	00H
	DB	00H
	DB	00H
	DB	00H
	DB	00H
	DB	00H
	DB	080H
	ORG $+3
Add_out_data_11_11 DB 03H
	DB	00H
	DB	00H
	DB	00H
	DB	00H
	DB	01H
	ORG $+2
GetNumberType_in_data_15 DB 01H
	DB	01H
	ORG $+2
Add_out_data_2_1 DB 03H
	DB	0ffH
	DB	0ffH
	DB	0ffH
	DB	0ffH
	DB	0ffH
	DB	0ffH
	DB	0ffH
	DB	0ffH
	DB	0ffH
	DB	0ffH
	DB	0ffH
	DB	0ffH
	DB	0ffH
	DB	0ffH
	DB	0ffH
	DB	0ffH
	DB	01H
	ORG $+2
Negate_in_data_13 DB 03H
	DB	01H
	ORG $+2
Add_out_data_2_2 DB 03H
	DB	0feH
	DB	0ffH
	DB	0ffH
	DB	0ffH
	DB	0ffH
	DB	0ffH
	DB	0ffH
	DB	0ffH
	DB	0ffH
	DB	0ffH
	DB	0ffH
	DB	0ffH
	DB	0ffH
	DB	0ffH
	DB	0ffH
	DB	0ffH
	DB	01H
	ORG $+2
Negate_in_data_15 DB 01H
	DB	01H
	ORG $+2
Add_out_data_2_3 DB 03H
	DB	0ffH
	DB	0ffH
	DB	0ffH
	DB	0ffH
	DB	0ffH
	DB	0ffH
	DB	0ffH
	DB	0ffH
	DB	0ffH
	DB	0ffH
	DB	0ffH
	DB	0ffH
	DB	0ffH
	DB	0ffH
	DB	0ffH
	DB	07fH
	DB	01H
	ORG $+2
Negate_out_data_13 DB 01H
	DB	01H
	ORG $+2
Add_out_data_2_4 DB 03H
	DB	0feH
	DB	0ffH
	DB	0ffH
	DB	0ffH
	DB	0ffH
	DB	0ffH
	DB	0ffH
	DB	0ffH
	DB	0ffH
	DB	0ffH
	DB	0ffH
	DB	0ffH
	DB	0ffH
	DB	0ffH
	DB	0ffH
	DB	07fH
	DB	01H
	ORG $+2
Negate_out_data_15 DB 03H
	DB	01H
	ORG $+2
Add_out_data_2_5 DB 03H
	DB	0ffH
	DB	0ffH
	DB	0ffH
	DB	0ffH
	DB	0ffH
	DB	0ffH
	DB	0ffH
	DB	0ffH
	DB	00H
	DB	00H
	DB	00H
	DB	00H
	DB	00H
	DB	00H
	DB	00H
	DB	00H
	DB	01H
	ORG $+2
Subtruct_in_data_13 DB 03H
	DB	01H
	ORG $+2
Add_out_data_2_6 DB 03H
	DB	0feH
	DB	0ffH
	DB	0ffH
	DB	0ffH
	DB	0ffH
	DB	0ffH
	DB	0ffH
	DB	0ffH
	DB	00H
	DB	00H
	DB	00H
	DB	00H
	DB	00H
	DB	00H
	DB	00H
	DB	00H
	DB	01H
	ORG $+2
Subtruct_in_data_15 DB 01H
	DB	01H
	ORG $+2
Add_out_data_2_7 DB 03H
	DB	0ffH
	DB	0ffH
	DB	0ffH
	DB	0ffH
	DB	0ffH
	DB	0ffH
	DB	0ffH
	DB	07fH
	DB	00H
	DB	00H
	DB	00H
	DB	00H
	DB	00H
	DB	00H
	DB	00H
	DB	00H
	DB	01H
	ORG $+2
Subtruct_out_data_1_2 DB 03H
	DB	01H
	ORG $+2
Add_out_data_2_8 DB 03H
	DB	0feH
	DB	0ffH
	DB	0ffH
	DB	0ffH
	DB	0ffH
	DB	0ffH
	DB	0ffH
	DB	07fH
	DB	00H
	DB	00H
	DB	00H
	DB	00H
	DB	00H
	DB	00H
	DB	00H
	DB	00H
	DB	01H
	ORG $+2
Subtruct_out_data_2_1 DB 01H
	DB	01H
	ORG $+2
Add_out_data_2_9 DB 03H
	DB	0ffH
	DB	0ffH
	DB	0ffH
	DB	0ffH
	DB	00H
	DB	00H
	DB	00H
	DB	00H
	DB	00H
	DB	00H
	DB	00H
	DB	00H
	DB	00H
	DB	00H
	DB	00H
	DB	00H
	DB	01H
	ORG $+2
Subtruct_out_data_3_4 DB 03H
	DB	01H
	ORG $+2
Add_out_data_2_10 DB 03H
	DB	0feH
	DB	0ffH
	DB	0ffH
	DB	0ffH
	DB	00H
	DB	00H
	DB	00H
	DB	00H
	DB	00H
	DB	00H
	DB	00H
	DB	00H
	DB	00H
	DB	00H
	DB	00H
	DB	00H
	DB	01H
	ORG $+2
Subtruct_out_data_4_3 DB 01H
	DB	01H
	ORG $+2
Add_out_data_2_11 DB 03H
	DB	0ffH
	DB	0ffH
	DB	0ffH
	DB	07fH
	DB	00H
	DB	00H
	DB	00H
	DB	00H
	DB	00H
	DB	00H
	DB	00H
	DB	00H
	DB	00H
	DB	00H
	DB	00H
	DB	00H
	DB	01H
	ORG $+2
Subtruct_out_data_5_6 DB 03H
	DB	01H
	ORG $+2
Add_out_data_2_12 DB 03H
	DB	0feH
	DB	0ffH
	DB	0ffH
	DB	07fH
	DB	00H
	DB	00H
	DB	00H
	DB	00H
	DB	00H
	DB	00H
	DB	00H
	DB	00H
	DB	00H
	DB	00H
	DB	00H
	DB	00H
	DB	01H
	ORG $+2
Subtruct_out_data_6_5 DB 01H
	DB	01H
	ORG $+2
Add_out_data_2_13 DB 03H
	DB	00H
	DB	00H
	DB	00H
	DB	00H
	DB	00H
	DB	00H
	DB	00H
	DB	00H
	DB	00H
	DB	00H
	DB	00H
	DB	00H
	DB	00H
	DB	00H
	DB	00H
	DB	00H
	DB	01H
	ORG $+2
Subtruct_out_data_7_8 DB 03H
	DB	01H
	ORG $+2
Add_out_data_2_14 DB 03H
	DB	0ffH
	DB	0ffH
	DB	0ffH
	DB	0ffH
	DB	0ffH
	DB	0ffH
	DB	0ffH
	DB	0ffH
	DB	0ffH
	DB	0ffH
	DB	0ffH
	DB	0ffH
	DB	0ffH
	DB	0ffH
	DB	0ffH
	DB	0ffH
	ORG $+3
Add_out_data_12_9 DB 03H
	DB	0ffH
	DB	0ffH
	DB	0ffH
	DB	07fH
	DB	01H
	ORG $+2
Subtruct_out_data_8_7 DB 01H
	DB	01H
	ORG $+2
Add_out_data_2_15 DB 03H
	DB	0feH
	DB	0ffH
	DB	0ffH
	DB	0ffH
	DB	0ffH
	DB	0ffH
	DB	0ffH
	DB	0ffH
	DB	0ffH
	DB	0ffH
	DB	0ffH
	DB	0ffH
	DB	0ffH
	DB	0ffH
	DB	0ffH
	DB	0ffH
	ORG $+3
Add_out_data_12_10 DB 03H
	DB	0feH
	DB	0ffH
	DB	0ffH
	DB	07fH
	DB	01H
	ORG $+2
Subtruct_out_data_9_10 DB 03H
	DB	01H
	ORG $+2
Add_out_data_2_16 DB 03H
	DB	00H
	DB	00H
	DB	00H
	DB	080H
	DB	0ffH
	DB	0ffH
	DB	0ffH
	DB	0ffH
	DB	0ffH
	DB	0ffH
	DB	0ffH
	DB	0ffH
	DB	0ffH
	DB	0ffH
	DB	0ffH
	DB	0ffH
	ORG $+3
Add_out_data_13_9 DB 03H
	DB	01H
	DB	00H
	DB	00H
	DB	00H
	DB	01H
	ORG $+2
Subtruct_out_data_10_9 DB 01H
	DB	01H
	ORG $+2
Add_out_data_2_17 DB 03H
	DB	0ffH
	DB	0ffH
	DB	0ffH
	DB	07fH
	DB	0ffH
	DB	0ffH
	DB	0ffH
	DB	0ffH
	DB	0ffH
	DB	0ffH
	DB	0ffH
	DB	0ffH
	DB	0ffH
	DB	0ffH
	DB	0ffH
	DB	0ffH
	ORG $+3
Add_out_data_13_10 DB 03H
	DB	00H
	DB	00H
	DB	00H
	DB	00H
	DB	01H
	ORG $+2
Subtruct_out_data_11_12 DB 03H
	DB	01H
	ORG $+2
Add_out_data_2_18 DB 03H
	DB	00H
	DB	00H
	DB	00H
	DB	00H
	DB	0ffH
	DB	0ffH
	DB	0ffH
	DB	0ffH
	DB	0ffH
	DB	0ffH
	DB	0ffH
	DB	0ffH
	DB	0ffH
	DB	0ffH
	DB	0ffH
	DB	0ffH
	ORG $+3
Add_out_data_14_9 DB 03H
	DB	00H
	DB	00H
	DB	00H
	DB	00H
	DB	01H
	ORG $+2
Subtruct_out_data_12_11 DB 01H
	DB	01H
	ORG $+2
Add_out_data_2_19 DB 03H
	DB	0ffH
	DB	0ffH
	DB	0ffH
	DB	0ffH
	DB	0feH
	DB	0ffH
	DB	0ffH
	DB	0ffH
	DB	0ffH
	DB	0ffH
	DB	0ffH
	DB	0ffH
	DB	0ffH
	DB	0ffH
	DB	0ffH
	DB	0ffH
	ORG $+3
Add_out_data_14_19 DB 01H
	DB	00H
	DB	00H
	DB	00H
	DB	00H
	DB	01H
	ORG $+2
Subtruct_out_data_13_14 DB 03H
	DB	01H
	ORG $+2
Add_out_data_2_20 DB 03H
	DB	00H
	DB	00H
	DB	00H
	DB	00H
	DB	00H
	DB	00H
	DB	00H
	DB	080H
	DB	0ffH
	DB	0ffH
	DB	0ffH
	DB	0ffH
	DB	0ffH
	DB	0ffH
	DB	0ffH
	DB	0ffH
	ORG $+3
Add_out_data_15_18 DB 01H
	DB	00H
	DB	00H
	DB	00H
	DB	00H
	DB	01H
	ORG $+2
Subtruct_out_data_13_15 DB 03H
	DB	02H
	ORG $+2
Add_out_data_2_21 DB 03H
	DB	0ffH
	DB	0ffH
	DB	0ffH
	DB	0ffH
	DB	0ffH
	DB	0ffH
	DB	0ffH
	DB	07fH
	DB	0ffH
	DB	0ffH
	DB	0ffH
	DB	0ffH
	DB	0ffH
	DB	0ffH
	DB	0ffH
	DB	0ffH
	ORG $+3
Add_out_data_15_19 DB 01H
	DB	01H
	DB	00H
	DB	00H
	DB	00H
	DB	01H
	ORG $+2
Subtruct_out_data_14_13 DB 01H
	DB	01H
	ORG $+2
Add_out_data_2_22 DB 03H
	DB	00H
	DB	00H
	DB	00H
	DB	00H
	DB	00H
	DB	00H
	DB	00H
	DB	00H
	DB	0ffH
	DB	0ffH
	DB	0ffH
	DB	0ffH
	DB	0ffH
	DB	0ffH
	DB	0ffH
	DB	0ffH
	ORG $+3
Add_out_data_16_18 DB 01H
	DB	0feH
	DB	0ffH
	DB	0ffH
	DB	07fH
	DB	01H
	ORG $+2
Subtruct_out_data_14_15 DB 03H
	DB	01H
	ORG $+2
Add_out_data_2_23 DB 03H
	DB	0ffH
	DB	0ffH
	DB	0ffH
	DB	0ffH
	DB	0ffH
	DB	0ffH
	DB	0ffH
	DB	0ffH
	DB	0feH
	DB	0ffH
	DB	0ffH
	DB	0ffH
	DB	0ffH
	DB	0ffH
	DB	0ffH
	DB	0ffH
	ORG $+3
Add_out_data_16_19 DB 01H
	DB	0ffH
	DB	0ffH
	DB	0ffH
	DB	07fH
	DB	01H
	ORG $+2
Subtruct_out_data_15_13 DB 01H
	DB	02H
	ORG $+2
Add_out_data_2_24 DB 03H
	DB	00H
	DB	00H
	DB	00H
	DB	00H
	DB	00H
	DB	00H
	DB	00H
	DB	00H
	DB	00H
	DB	00H
	DB	00H
	DB	00H
	DB	00H
	DB	00H
	DB	00H
	DB	080H
	ORG $+3
Add_out_data_17_17 DB 01H
	DB	00H
	DB	00H
	DB	00H
	DB	00H
	DB	01H
	ORG $+2
Subtruct_out_data_15_14 DB 01H
	DB	01H
	ORG $+2
Add_out_data_2_25 DB 03H
	DB	0ffH
	DB	0ffH
	DB	0ffH
	DB	0ffH
	DB	0ffH
	DB	0ffH
	DB	0ffH
	DB	0ffH
	DB	0ffH
	DB	0ffH
	DB	0ffH
	DB	0ffH
	DB	0ffH
	DB	0ffH
	DB	0ffH
	DB	07fH
	ORG $+3
Add_out_data_17_18 DB 01H
	DB	0ffH
	DB	0ffH
	DB	0ffH
	DB	07fH
	DB	01H
	ORG $+2
Subtruct_out_data_16_17 DB 03H
	DB	01H
	ORG $+2
Add_out_data_3_1 DB 03H
	DB	00H
	DB	00H
	DB	00H
	DB	00H
	DB	00H
	DB	00H
	DB	00H
	DB	00H
	DB	00H
	DB	00H
	DB	00H
	DB	00H
	DB	00H
	DB	00H
	DB	00H
	DB	080H
	DB	01H
	ORG $+2
Subtruct_out_data_17_16 DB 01H
	DB	01H
	ORG $+2
Add_out_data_3_2 DB 03H
	DB	0ffH
	DB	0ffH
	DB	0ffH
	DB	0ffH
	DB	0ffH
	DB	0ffH
	DB	0ffH
	DB	0ffH
	DB	0ffH
	DB	0ffH
	DB	0ffH
	DB	0ffH
	DB	0ffH
	DB	0ffH
	DB	0ffH
	DB	07fH
	DB	01H
	ORG $+2
Subtruct_out_data_18_19 DB 03H
	DB	01H
	ORG $+2
Add_out_data_3_3 DB 03H
	DB	00H
	DB	00H
	DB	00H
	DB	00H
	DB	00H
	DB	00H
	DB	00H
	DB	00H
	DB	00H
	DB	00H
	DB	00H
	DB	00H
	DB	00H
	DB	00H
	DB	00H
	DB	00H
	DB	01H
	ORG $+2
Subtruct_out_data_19_18 DB 01H
	DB	01H
	ORG $+2
Add_out_data_3_4 DB 03H
	DB	0ffH
	DB	0ffH
	DB	0ffH
	DB	0ffH
	DB	0ffH
	DB	0ffH
	DB	0ffH
	DB	0ffH
	DB	0ffH
	DB	0ffH
	DB	0ffH
	DB	0ffH
	DB	0ffH
	DB	0ffH
	DB	0ffH
	DB	0ffH
	ORG $+3
Add_out_data_17_19 DB 01H
	DB	00H
	DB	00H
	DB	00H
	DB	080H
	DB	01H
	ORG $+2
Subtruct_out_data_20_21 DB 03H
	DB	01H
	ORG $+2
Add_out_data_3_5 DB 03H
	DB	00H
	DB	00H
	DB	00H
	DB	00H
	DB	00H
	DB	00H
	DB	00H
	DB	00H
	DB	01H
	DB	00H
	DB	00H
	DB	00H
	DB	00H
	DB	00H
	DB	00H
	DB	080H
	ORG $+3
Add_out_data_18_15 DB 01H
	DB	00H
	DB	00H
	DB	00H
	DB	00H
	DB	01H
	ORG $+2
Subtruct_out_data_21_20 DB 01H
	DB	01H
	ORG $+2
Add_out_data_3_6 DB 03H
	DB	0ffH
	DB	0ffH
	DB	0ffH
	DB	0ffH
	DB	0ffH
	DB	0ffH
	DB	0ffH
	DB	0ffH
	DB	00H
	DB	00H
	DB	00H
	DB	00H
	DB	00H
	DB	00H
	DB	00H
	DB	080H
	ORG $+3
Add_out_data_18_16 DB 01H
	DB	0feH
	DB	0ffH
	DB	0ffH
	DB	07fH
	DB	01H
	ORG $+2
Subtruct_out_data_22_23 DB 03H
	DB	01H
	ORG $+2
Add_out_data_3_7 DB 03H
	DB	00H
	DB	00H
	DB	00H
	DB	00H
	DB	00H
	DB	00H
	DB	00H
	DB	080H
	DB	00H
	DB	00H
	DB	00H
	DB	00H
	DB	00H
	DB	00H
	DB	00H
	DB	080H
	ORG $+3
Add_out_data_18_17 DB 01H
	DB	0ffH
	DB	0ffH
	DB	0ffH
	DB	07fH
	DB	01H
	ORG $+2
Subtruct_out_data_23_22 DB 01H
	DB	01H
	ORG $+2
Add_out_data_3_8 DB 03H
	DB	0ffH
	DB	0ffH
	DB	0ffH
	DB	0ffH
	DB	0ffH
	DB	0ffH
	DB	0ffH
	DB	07fH
	DB	00H
	DB	00H
	DB	00H
	DB	00H
	DB	00H
	DB	00H
	DB	00H
	DB	080H
	ORG $+3
Add_out_data_18_18 DB 01H
	DB	0feH
	DB	0ffH
	DB	0ffH
	DB	0ffH
	DB	01H
	ORG $+2
Subtruct_out_data_24_25 DB 03H
	DB	01H
	ORG $+2
Add_out_data_3_9 DB 03H
	DB	00H
	DB	00H
	DB	00H
	DB	00H
	DB	01H
	DB	00H
	DB	00H
	DB	00H
	DB	00H
	DB	00H
	DB	00H
	DB	00H
	DB	00H
	DB	00H
	DB	00H
	DB	080H
	ORG $+3
Add_out_data_18_19 DB 01H
	DB	0ffH
	DB	0ffH
	DB	0ffH
	DB	0ffH
	DB	01H
	ORG $+2
Subtruct_out_data_25_24 DB 01H
	DB	01H
	ORG $+2
Add_out_data_3_10 DB 03H
	DB	0ffH
	DB	0ffH
	DB	0ffH
	DB	0ffH
	DB	00H
	DB	00H
	DB	00H
	DB	00H
	DB	00H
	DB	00H
	DB	00H
	DB	00H
	DB	00H
	DB	00H
	DB	00H
	DB	080H
	ORG $+3
Add_out_data_19_14 DB 01H
	DB	00H
	DB	00H
	DB	00H
	DB	00H
	DB	01H
	ORG $+2
Subtruct_out_data_26_27 DB 03H
	DB	01H
	ORG $+2
Add_out_data_3_11 DB 03H
	DB	00H
	DB	00H
	DB	00H
	DB	080H
	DB	00H
	DB	00H
	DB	00H
	DB	00H
	DB	00H
	DB	00H
	DB	00H
	DB	00H
	DB	00H
	DB	00H
	DB	00H
	DB	080H
	ORG $+3
Add_out_data_19_15 DB 01H
	DB	01H
	DB	00H
	DB	00H
	DB	00H
	DB	01H
	ORG $+2
Subtruct_out_data_27_26 DB 01H
	DB	01H
	ORG $+2
Add_out_data_3_12 DB 03H
	DB	0ffH
	DB	0ffH
	DB	0ffH
	DB	07fH
	DB	00H
	DB	00H
	DB	00H
	DB	00H
	DB	00H
	DB	00H
	DB	00H
	DB	00H
	DB	00H
	DB	00H
	DB	00H
	DB	080H
	ORG $+3
Add_out_data_19_16 DB 01H
	DB	0ffH
	DB	0ffH
	DB	0ffH
	DB	07fH
	DB	01H
	ORG $+2
To_in_data_13 DB 03H
	DB	01H
	ORG $+2
Add_out_data_3_13 DB 03H
	DB	01H
	DB	00H
	DB	00H
	DB	00H
	DB	00H
	DB	00H
	DB	00H
	DB	00H
	DB	00H
	DB	00H
	DB	00H
	DB	00H
	DB	00H
	DB	00H
	DB	00H
	DB	080H
	ORG $+3
Add_out_data_19_17 DB 01H
	DB	00H
	DB	00H
	DB	00H
	DB	080H
	DB	01H
	ORG $+2
To_in_data_15 DB 01H
	DB	01H
	ORG $+2
Add_out_data_3_14 DB 03H
	DB	00H
	DB	00H
	DB	00H
	DB	00H
	DB	00H
	DB	00H
	DB	00H
	DB	00H
	DB	00H
	DB	00H
	DB	00H
	DB	00H
	DB	00H
	DB	00H
	DB	00H
	DB	080H
	ORG $+3
Add_out_data_19_18 DB 01H
	DB	0ffH
	DB	0ffH
	DB	0ffH
	DB	0ffH
	DB	01H
	ORG $+6
Add_out_data_3_15 DB 03H
	DB	0ffH
	DB	0ffH
	DB	0ffH
	DB	0ffH
	DB	0ffH
	DB	0ffH
	DB	0ffH
	DB	0ffH
	DB	0ffH
	DB	0ffH
	DB	0ffH
	DB	0ffH
	DB	0ffH
	DB	0ffH
	DB	0ffH
	DB	07fH
	ORG $+7
Add_out_data_3_16 DB 03H
	DB	01H
	DB	00H
	DB	00H
	DB	080H
	DB	0ffH
	DB	0ffH
	DB	0ffH
	DB	0ffH
	DB	0ffH
	DB	0ffH
	DB	0ffH
	DB	0ffH
	DB	0ffH
	DB	0ffH
	DB	0ffH
	DB	07fH
	ORG $+7
Add_out_data_3_17 DB 03H
	DB	00H
	DB	00H
	DB	00H
	DB	080H
	DB	0ffH
	DB	0ffH
	DB	0ffH
	DB	0ffH
	DB	0ffH
	DB	0ffH
	DB	0ffH
	DB	0ffH
	DB	0ffH
	DB	0ffH
	DB	0ffH
	DB	07fH
	ORG $+7
Add_out_data_3_18 DB 03H
	DB	01H
	DB	00H
	DB	00H
	DB	00H
	DB	0ffH
	DB	0ffH
	DB	0ffH
	DB	0ffH
	DB	0ffH
	DB	0ffH
	DB	0ffH
	DB	0ffH
	DB	0ffH
	DB	0ffH
	DB	0ffH
	DB	07fH
	ORG $+7
Add_out_data_3_19 DB 03H
	DB	00H
	DB	00H
	DB	00H
	DB	00H
	DB	0ffH
	DB	0ffH
	DB	0ffH
	DB	0ffH
	DB	0ffH
	DB	0ffH
	DB	0ffH
	DB	0ffH
	DB	0ffH
	DB	0ffH
	DB	0ffH
	DB	07fH
	ORG $+7
Add_out_data_3_20 DB 03H
	DB	01H
	DB	00H
	DB	00H
	DB	00H
	DB	00H
	DB	00H
	DB	00H
	DB	080H
	DB	0ffH
	DB	0ffH
	DB	0ffH
	DB	0ffH
	DB	0ffH
	DB	0ffH
	DB	0ffH
	DB	07fH
	ORG $+7
Add_out_data_3_21 DB 03H
	DB	00H
	DB	00H
	DB	00H
	DB	00H
	DB	00H
	DB	00H
	DB	00H
	DB	080H
	DB	0ffH
	DB	0ffH
	DB	0ffH
	DB	0ffH
	DB	0ffH
	DB	0ffH
	DB	0ffH
	DB	07fH
	ORG $+7
Add_out_data_3_22 DB 03H
	DB	01H
	DB	00H
	DB	00H
	DB	00H
	DB	00H
	DB	00H
	DB	00H
	DB	00H
	DB	0ffH
	DB	0ffH
	DB	0ffH
	DB	0ffH
	DB	0ffH
	DB	0ffH
	DB	0ffH
	DB	07fH
	ORG $+7
Add_out_data_3_23 DB 03H
	DB	00H
	DB	00H
	DB	00H
	DB	00H
	DB	00H
	DB	00H
	DB	00H
	DB	00H
	DB	0ffH
	DB	0ffH
	DB	0ffH
	DB	0ffH
	DB	0ffH
	DB	0ffH
	DB	0ffH
	DB	07fH
	ORG $+7
Add_out_data_3_26 DB 01H
	DB	0ffH
	DB	0ffH
	DB	0ffH
	DB	0ffH
	DB	0ffH
	DB	0ffH
	DB	0ffH
	DB	0ffH
	DB	0ffH
	DB	0ffH
	DB	0ffH
	DB	0ffH
	DB	0ffH
	DB	0ffH
	DB	0ffH
	DB	07fH
	ORG $+7
Add_out_data_3_27 DB 01H
	DB	00H
	DB	00H
	DB	00H
	DB	00H
	DB	00H
	DB	00H
	DB	00H
	DB	00H
	DB	00H
	DB	00H
	DB	00H
	DB	00H
	DB	00H
	DB	00H
	DB	00H
	DB	080H
	ORG $+7
Add_out_data_4_1 DB 03H
	DB	0ffH
	DB	0ffH
	DB	0ffH
	DB	0ffH
	DB	0ffH
	DB	0ffH
	DB	0ffH
	DB	0ffH
	DB	0ffH
	DB	0ffH
	DB	0ffH
	DB	0ffH
	DB	0ffH
	DB	0ffH
	DB	0ffH
	DB	07fH
	DB	01H
	ORG $+6
Add_out_data_4_2 DB 03H
	DB	0feH
	DB	0ffH
	DB	0ffH
	DB	0ffH
	DB	0ffH
	DB	0ffH
	DB	0ffH
	DB	0ffH
	DB	0ffH
	DB	0ffH
	DB	0ffH
	DB	0ffH
	DB	0ffH
	DB	0ffH
	DB	0ffH
	DB	07fH
	DB	01H
	ORG $+6
Add_out_data_4_3 DB 03H
	DB	0ffH
	DB	0ffH
	DB	0ffH
	DB	0ffH
	DB	0ffH
	DB	0ffH
	DB	0ffH
	DB	0ffH
	DB	0ffH
	DB	0ffH
	DB	0ffH
	DB	0ffH
	DB	0ffH
	DB	0ffH
	DB	0ffH
	DB	0ffH
	ORG $+7
Add_out_data_4_4 DB 03H
	DB	0feH
	DB	0ffH
	DB	0ffH
	DB	0ffH
	DB	0ffH
	DB	0ffH
	DB	0ffH
	DB	0ffH
	DB	0ffH
	DB	0ffH
	DB	0ffH
	DB	0ffH
	DB	0ffH
	DB	0ffH
	DB	0ffH
	DB	0ffH
	ORG $+7
Add_out_data_4_5 DB 03H
	DB	0ffH
	DB	0ffH
	DB	0ffH
	DB	0ffH
	DB	0ffH
	DB	0ffH
	DB	0ffH
	DB	0ffH
	DB	00H
	DB	00H
	DB	00H
	DB	00H
	DB	00H
	DB	00H
	DB	00H
	DB	080H
	ORG $+7
Add_out_data_4_6 DB 03H
	DB	0feH
	DB	0ffH
	DB	0ffH
	DB	0ffH
	DB	0ffH
	DB	0ffH
	DB	0ffH
	DB	0ffH
	DB	00H
	DB	00H
	DB	00H
	DB	00H
	DB	00H
	DB	00H
	DB	00H
	DB	080H
	ORG $+7
Add_out_data_4_7 DB 03H
	DB	0ffH
	DB	0ffH
	DB	0ffH
	DB	0ffH
	DB	0ffH
	DB	0ffH
	DB	0ffH
	DB	07fH
	DB	00H
	DB	00H
	DB	00H
	DB	00H
	DB	00H
	DB	00H
	DB	00H
	DB	080H
	ORG $+7
Add_out_data_4_8 DB 03H
	DB	0feH
	DB	0ffH
	DB	0ffH
	DB	0ffH
	DB	0ffH
	DB	0ffH
	DB	0ffH
	DB	07fH
	DB	00H
	DB	00H
	DB	00H
	DB	00H
	DB	00H
	DB	00H
	DB	00H
	DB	080H
	ORG $+7
Add_out_data_4_9 DB 03H
	DB	0ffH
	DB	0ffH
	DB	0ffH
	DB	0ffH
	DB	00H
	DB	00H
	DB	00H
	DB	00H
	DB	00H
	DB	00H
	DB	00H
	DB	00H
	DB	00H
	DB	00H
	DB	00H
	DB	080H
	ORG $+7
Add_out_data_4_10 DB 03H
	DB	0feH
	DB	0ffH
	DB	0ffH
	DB	0ffH
	DB	00H
	DB	00H
	DB	00H
	DB	00H
	DB	00H
	DB	00H
	DB	00H
	DB	00H
	DB	00H
	DB	00H
	DB	00H
	DB	080H
	ORG $+7
Add_out_data_4_11 DB 03H
	DB	0ffH
	DB	0ffH
	DB	0ffH
	DB	07fH
	DB	00H
	DB	00H
	DB	00H
	DB	00H
	DB	00H
	DB	00H
	DB	00H
	DB	00H
	DB	00H
	DB	00H
	DB	00H
	DB	080H
	ORG $+7
Add_out_data_4_12 DB 03H
	DB	0feH
	DB	0ffH
	DB	0ffH
	DB	07fH
	DB	00H
	DB	00H
	DB	00H
	DB	00H
	DB	00H
	DB	00H
	DB	00H
	DB	00H
	DB	00H
	DB	00H
	DB	00H
	DB	080H
	ORG $+7
Add_out_data_4_13 DB 03H
	DB	00H
	DB	00H
	DB	00H
	DB	00H
	DB	00H
	DB	00H
	DB	00H
	DB	00H
	DB	00H
	DB	00H
	DB	00H
	DB	00H
	DB	00H
	DB	00H
	DB	00H
	DB	080H
	ORG $+7
Add_out_data_4_14 DB 03H
	DB	0ffH
	DB	0ffH
	DB	0ffH
	DB	0ffH
	DB	0ffH
	DB	0ffH
	DB	0ffH
	DB	0ffH
	DB	0ffH
	DB	0ffH
	DB	0ffH
	DB	0ffH
	DB	0ffH
	DB	0ffH
	DB	0ffH
	DB	07fH
	ORG $+7
Add_out_data_4_15 DB 03H
	DB	0feH
	DB	0ffH
	DB	0ffH
	DB	0ffH
	DB	0ffH
	DB	0ffH
	DB	0ffH
	DB	0ffH
	DB	0ffH
	DB	0ffH
	DB	0ffH
	DB	0ffH
	DB	0ffH
	DB	0ffH
	DB	0ffH
	DB	07fH
	ORG $+7
Add_out_data_4_16 DB 03H
	DB	00H
	DB	00H
	DB	00H
	DB	080H
	DB	0ffH
	DB	0ffH
	DB	0ffH
	DB	0ffH
	DB	0ffH
	DB	0ffH
	DB	0ffH
	DB	0ffH
	DB	0ffH
	DB	0ffH
	DB	0ffH
	DB	07fH
	ORG $+7
Add_out_data_4_17 DB 03H
	DB	0ffH
	DB	0ffH
	DB	0ffH
	DB	07fH
	DB	0ffH
	DB	0ffH
	DB	0ffH
	DB	0ffH
	DB	0ffH
	DB	0ffH
	DB	0ffH
	DB	0ffH
	DB	0ffH
	DB	0ffH
	DB	0ffH
	DB	07fH
	ORG $+7
Add_out_data_4_18 DB 03H
	DB	00H
	DB	00H
	DB	00H
	DB	00H
	DB	0ffH
	DB	0ffH
	DB	0ffH
	DB	0ffH
	DB	0ffH
	DB	0ffH
	DB	0ffH
	DB	0ffH
	DB	0ffH
	DB	0ffH
	DB	0ffH
	DB	07fH
	ORG $+7
Add_out_data_4_19 DB 03H
	DB	0ffH
	DB	0ffH
	DB	0ffH
	DB	0ffH
	DB	0feH
	DB	0ffH
	DB	0ffH
	DB	0ffH
	DB	0ffH
	DB	0ffH
	DB	0ffH
	DB	0ffH
	DB	0ffH
	DB	0ffH
	DB	0ffH
	DB	07fH
	ORG $+7
Add_out_data_4_20 DB 03H
	DB	00H
	DB	00H
	DB	00H
	DB	00H
	DB	00H
	DB	00H
	DB	00H
	DB	080H
	DB	0ffH
	DB	0ffH
	DB	0ffH
	DB	0ffH
	DB	0ffH
	DB	0ffH
	DB	0ffH
	DB	07fH
	ORG $+7
Add_out_data_4_21 DB 03H
	DB	0ffH
	DB	0ffH
	DB	0ffH
	DB	0ffH
	DB	0ffH
	DB	0ffH
	DB	0ffH
	DB	07fH
	DB	0ffH
	DB	0ffH
	DB	0ffH
	DB	0ffH
	DB	0ffH
	DB	0ffH
	DB	0ffH
	DB	07fH
	ORG $+7
Add_out_data_4_22 DB 03H
	DB	00H
	DB	00H
	DB	00H
	DB	00H
	DB	00H
	DB	00H
	DB	00H
	DB	00H
	DB	0ffH
	DB	0ffH
	DB	0ffH
	DB	0ffH
	DB	0ffH
	DB	0ffH
	DB	0ffH
	DB	07fH
	ORG $+7
Add_out_data_4_23 DB 03H
	DB	0ffH
	DB	0ffH
	DB	0ffH
	DB	0ffH
	DB	0ffH
	DB	0ffH
	DB	0ffH
	DB	0ffH
	DB	0feH
	DB	0ffH
	DB	0ffH
	DB	0ffH
	DB	0ffH
	DB	0ffH
	DB	0ffH
	DB	07fH
	ORG $+7
Add_out_data_4_26 DB 01H
	DB	00H
	DB	00H
	DB	00H
	DB	00H
	DB	00H
	DB	00H
	DB	00H
	DB	00H
	DB	00H
	DB	00H
	DB	00H
	DB	00H
	DB	00H
	DB	00H
	DB	00H
	DB	080H
	ORG $+7
Add_out_data_4_27 DB 01H
	DB	01H
	DB	00H
	DB	00H
	DB	00H
	DB	00H
	DB	00H
	DB	00H
	DB	00H
	DB	00H
	DB	00H
	DB	00H
	DB	00H
	DB	00H
	DB	00H
	DB	00H
	DB	080H
	ORG $+7
Add_out_data_5_1 DB 03H
	DB	00H
	DB	00H
	DB	00H
	DB	00H
	DB	00H
	DB	00H
	DB	00H
	DB	00H
	DB	01H
	DB	00H
	DB	00H
	DB	00H
	DB	00H
	DB	00H
	DB	00H
	DB	00H
	DB	01H
	ORG $+6
Add_out_data_5_2 DB 03H
	DB	0ffH
	DB	0ffH
	DB	0ffH
	DB	0ffH
	DB	0ffH
	DB	0ffH
	DB	0ffH
	DB	0ffH
	DB	00H
	DB	00H
	DB	00H
	DB	00H
	DB	00H
	DB	00H
	DB	00H
	DB	00H
	DB	01H
	ORG $+6
Add_out_data_5_3 DB 03H
	DB	00H
	DB	00H
	DB	00H
	DB	00H
	DB	00H
	DB	00H
	DB	00H
	DB	00H
	DB	01H
	DB	00H
	DB	00H
	DB	00H
	DB	00H
	DB	00H
	DB	00H
	DB	080H
	ORG $+7
Add_out_data_5_4 DB 03H
	DB	0ffH
	DB	0ffH
	DB	0ffH
	DB	0ffH
	DB	0ffH
	DB	0ffH
	DB	0ffH
	DB	0ffH
	DB	00H
	DB	00H
	DB	00H
	DB	00H
	DB	00H
	DB	00H
	DB	00H
	DB	080H
	ORG $+7
Add_out_data_5_5 DB 03H
	DB	00H
	DB	00H
	DB	00H
	DB	00H
	DB	00H
	DB	00H
	DB	00H
	DB	00H
	DB	02H
	ORG $+6
Add_out_data_5_6 DB 03H
	DB	0ffH
	DB	0ffH
	DB	0ffH
	DB	0ffH
	DB	0ffH
	DB	0ffH
	DB	0ffH
	DB	0ffH
	DB	01H
	ORG $+6
Add_out_data_5_7 DB 03H
	DB	00H
	DB	00H
	DB	00H
	DB	00H
	DB	00H
	DB	00H
	DB	00H
	DB	080H
	DB	01H
	ORG $+6
Add_out_data_5_8 DB 03H
	DB	0ffH
	DB	0ffH
	DB	0ffH
	DB	0ffH
	DB	0ffH
	DB	0ffH
	DB	0ffH
	DB	07fH
	DB	01H
	ORG $+6
Add_out_data_5_9 DB 03H
	DB	00H
	DB	00H
	DB	00H
	DB	00H
	DB	01H
	DB	00H
	DB	00H
	DB	00H
	DB	01H
	ORG $+6
Add_out_data_5_10 DB 03H
	DB	0ffH
	DB	0ffH
	DB	0ffH
	DB	0ffH
	DB	00H
	DB	00H
	DB	00H
	DB	00H
	DB	01H
	ORG $+6
Add_out_data_5_11 DB 03H
	DB	00H
	DB	00H
	DB	00H
	DB	080H
	DB	00H
	DB	00H
	DB	00H
	DB	00H
	DB	01H
	ORG $+6
Add_out_data_5_12 DB 03H
	DB	0ffH
	DB	0ffH
	DB	0ffH
	DB	07fH
	DB	00H
	DB	00H
	DB	00H
	DB	00H
	DB	01H
	ORG $+6
Add_out_data_5_13 DB 03H
	DB	01H
	DB	00H
	DB	00H
	DB	00H
	DB	00H
	DB	00H
	DB	00H
	DB	00H
	DB	01H
	ORG $+6
Add_out_data_5_14 DB 03H
	DB	00H
	DB	00H
	DB	00H
	DB	00H
	DB	00H
	DB	00H
	DB	00H
	DB	00H
	DB	01H
	ORG $+6
Add_out_data_5_15 DB 03H
	DB	0ffH
	DB	0ffH
	DB	0ffH
	DB	0ffH
	DB	0ffH
	DB	0ffH
	DB	0ffH
	DB	0ffH
	ORG $+7
Add_out_data_5_16 DB 03H
	DB	01H
	DB	00H
	DB	00H
	DB	080H
	DB	0ffH
	DB	0ffH
	DB	0ffH
	DB	0ffH
	ORG $+7
Add_out_data_5_17 DB 03H
	DB	00H
	DB	00H
	DB	00H
	DB	080H
	DB	0ffH
	DB	0ffH
	DB	0ffH
	DB	0ffH
	ORG $+7
Add_out_data_5_18 DB 03H
	DB	01H
	DB	00H
	DB	00H
	DB	00H
	DB	0ffH
	DB	0ffH
	DB	0ffH
	DB	0ffH
	ORG $+7
Add_out_data_5_19 DB 03H
	DB	00H
	DB	00H
	DB	00H
	DB	00H
	DB	0ffH
	DB	0ffH
	DB	0ffH
	DB	0ffH
	ORG $+7
Add_out_data_5_20 DB 03H
	DB	01H
	DB	00H
	DB	00H
	DB	00H
	DB	00H
	DB	00H
	DB	00H
	DB	080H
	ORG $+7
Add_out_data_5_21 DB 03H
	DB	00H
	DB	00H
	DB	00H
	DB	00H
	DB	00H
	DB	00H
	DB	00H
	DB	080H
	ORG $+7
Add_out_data_5_24 DB 01H
	DB	0ffH
	DB	0ffH
	DB	0ffH
	DB	0ffH
	DB	0ffH
	DB	0ffH
	DB	0ffH
	DB	0ffH
	DB	0feH
	DB	0ffH
	DB	0ffH
	DB	0ffH
	DB	0ffH
	DB	0ffH
	DB	0ffH
	DB	07fH
	ORG $+7
Add_out_data_5_25 DB 01H
	DB	00H
	DB	00H
	DB	00H
	DB	00H
	DB	00H
	DB	00H
	DB	00H
	DB	00H
	DB	0ffH
	DB	0ffH
	DB	0ffH
	DB	0ffH
	DB	0ffH
	DB	0ffH
	DB	0ffH
	DB	07fH
	ORG $+7
Add_out_data_5_26 DB 01H
	DB	0ffH
	DB	0ffH
	DB	0ffH
	DB	0ffH
	DB	0ffH
	DB	0ffH
	DB	0ffH
	DB	0ffH
	DB	0feH
	DB	0ffH
	DB	0ffH
	DB	0ffH
	DB	0ffH
	DB	0ffH
	DB	0ffH
	DB	0ffH
	ORG $+7
Add_out_data_5_27 DB 01H
	DB	00H
	DB	00H
	DB	00H
	DB	00H
	DB	00H
	DB	00H
	DB	00H
	DB	00H
	DB	0ffH
	DB	0ffH
	DB	0ffH
	DB	0ffH
	DB	0ffH
	DB	0ffH
	DB	0ffH
	DB	0ffH
	ORG $+7
Add_out_data_6_1 DB 03H
	DB	0ffH
	DB	0ffH
	DB	0ffH
	DB	0ffH
	DB	0ffH
	DB	0ffH
	DB	0ffH
	DB	0ffH
	DB	00H
	DB	00H
	DB	00H
	DB	00H
	DB	00H
	DB	00H
	DB	00H
	DB	00H
	DB	01H
	ORG $+6
Add_out_data_6_2 DB 03H
	DB	0feH
	DB	0ffH
	DB	0ffH
	DB	0ffH
	DB	0ffH
	DB	0ffH
	DB	0ffH
	DB	0ffH
	DB	00H
	DB	00H
	DB	00H
	DB	00H
	DB	00H
	DB	00H
	DB	00H
	DB	00H
	DB	01H
	ORG $+6
Add_out_data_6_3 DB 03H
	DB	0ffH
	DB	0ffH
	DB	0ffH
	DB	0ffH
	DB	0ffH
	DB	0ffH
	DB	0ffH
	DB	0ffH
	DB	00H
	DB	00H
	DB	00H
	DB	00H
	DB	00H
	DB	00H
	DB	00H
	DB	080H
	ORG $+7
Add_out_data_6_4 DB 03H
	DB	0feH
	DB	0ffH
	DB	0ffH
	DB	0ffH
	DB	0ffH
	DB	0ffH
	DB	0ffH
	DB	0ffH
	DB	00H
	DB	00H
	DB	00H
	DB	00H
	DB	00H
	DB	00H
	DB	00H
	DB	080H
	ORG $+7
Add_out_data_6_5 DB 03H
	DB	0ffH
	DB	0ffH
	DB	0ffH
	DB	0ffH
	DB	0ffH
	DB	0ffH
	DB	0ffH
	DB	0ffH
	DB	01H
	ORG $+6
Add_out_data_6_6 DB 03H
	DB	0feH
	DB	0ffH
	DB	0ffH
	DB	0ffH
	DB	0ffH
	DB	0ffH
	DB	0ffH
	DB	0ffH
	DB	01H
	ORG $+6
Add_out_data_6_7 DB 03H
	DB	0ffH
	DB	0ffH
	DB	0ffH
	DB	0ffH
	DB	0ffH
	DB	0ffH
	DB	0ffH
	DB	07fH
	DB	01H
	ORG $+6
Add_out_data_6_8 DB 03H
	DB	0feH
	DB	0ffH
	DB	0ffH
	DB	0ffH
	DB	0ffH
	DB	0ffH
	DB	0ffH
	DB	07fH
	DB	01H
	ORG $+6
Add_out_data_6_9 DB 03H
	DB	0ffH
	DB	0ffH
	DB	0ffH
	DB	0ffH
	DB	00H
	DB	00H
	DB	00H
	DB	00H
	DB	01H
	ORG $+6
Add_out_data_6_10 DB 03H
	DB	0feH
	DB	0ffH
	DB	0ffH
	DB	0ffH
	DB	00H
	DB	00H
	DB	00H
	DB	00H
	DB	01H
	ORG $+6
Add_out_data_6_11 DB 03H
	DB	0ffH
	DB	0ffH
	DB	0ffH
	DB	07fH
	DB	00H
	DB	00H
	DB	00H
	DB	00H
	DB	01H
	ORG $+6
Add_out_data_6_12 DB 03H
	DB	0feH
	DB	0ffH
	DB	0ffH
	DB	07fH
	DB	00H
	DB	00H
	DB	00H
	DB	00H
	DB	01H
	ORG $+6
Add_out_data_6_13 DB 03H
	DB	00H
	DB	00H
	DB	00H
	DB	00H
	DB	00H
	DB	00H
	DB	00H
	DB	00H
	DB	01H
	ORG $+6
Add_out_data_6_14 DB 03H
	DB	0ffH
	DB	0ffH
	DB	0ffH
	DB	0ffH
	DB	0ffH
	DB	0ffH
	DB	0ffH
	DB	0ffH
	ORG $+7
Add_out_data_6_15 DB 03H
	DB	0feH
	DB	0ffH
	DB	0ffH
	DB	0ffH
	DB	0ffH
	DB	0ffH
	DB	0ffH
	DB	0ffH
	ORG $+7
Add_out_data_6_16 DB 03H
	DB	00H
	DB	00H
	DB	00H
	DB	080H
	DB	0ffH
	DB	0ffH
	DB	0ffH
	DB	0ffH
	ORG $+7
Add_out_data_6_17 DB 03H
	DB	0ffH
	DB	0ffH
	DB	0ffH
	DB	07fH
	DB	0ffH
	DB	0ffH
	DB	0ffH
	DB	0ffH
	ORG $+7
Add_out_data_6_18 DB 03H
	DB	00H
	DB	00H
	DB	00H
	DB	00H
	DB	0ffH
	DB	0ffH
	DB	0ffH
	DB	0ffH
	ORG $+7
Add_out_data_6_19 DB 03H
	DB	0ffH
	DB	0ffH
	DB	0ffH
	DB	0ffH
	DB	0feH
	DB	0ffH
	DB	0ffH
	DB	0ffH
	ORG $+7
Add_out_data_6_20 DB 03H
	DB	00H
	DB	00H
	DB	00H
	DB	00H
	DB	00H
	DB	00H
	DB	00H
	DB	080H
	ORG $+7
Add_out_data_6_21 DB 03H
	DB	0ffH
	DB	0ffH
	DB	0ffH
	DB	0ffH
	DB	0ffH
	DB	0ffH
	DB	0ffH
	DB	07fH
	ORG $+7
Add_out_data_6_24 DB 01H
	DB	00H
	DB	00H
	DB	00H
	DB	00H
	DB	00H
	DB	00H
	DB	00H
	DB	00H
	DB	0ffH
	DB	0ffH
	DB	0ffH
	DB	0ffH
	DB	0ffH
	DB	0ffH
	DB	0ffH
	DB	07fH
	ORG $+7
Add_out_data_6_25 DB 01H
	DB	01H
	DB	00H
	DB	00H
	DB	00H
	DB	00H
	DB	00H
	DB	00H
	DB	00H
	DB	0ffH
	DB	0ffH
	DB	0ffH
	DB	0ffH
	DB	0ffH
	DB	0ffH
	DB	0ffH
	DB	07fH
	ORG $+7
Add_out_data_6_26 DB 01H
	DB	00H
	DB	00H
	DB	00H
	DB	00H
	DB	00H
	DB	00H
	DB	00H
	DB	00H
	DB	0ffH
	DB	0ffH
	DB	0ffH
	DB	0ffH
	DB	0ffH
	DB	0ffH
	DB	0ffH
	DB	0ffH
	ORG $+7
Add_out_data_6_27 DB 01H
	DB	01H
	DB	00H
	DB	00H
	DB	00H
	DB	00H
	DB	00H
	DB	00H
	DB	00H
	DB	0ffH
	DB	0ffH
	DB	0ffH
	DB	0ffH
	DB	0ffH
	DB	0ffH
	DB	0ffH
	DB	0ffH
	ORG $+7
Add_out_data_7_1 DB 03H
	DB	00H
	DB	00H
	DB	00H
	DB	00H
	DB	00H
	DB	00H
	DB	00H
	DB	080H
	DB	00H
	DB	00H
	DB	00H
	DB	00H
	DB	00H
	DB	00H
	DB	00H
	DB	00H
	DB	01H
	ORG $+6
Add_out_data_7_2 DB 03H
	DB	0ffH
	DB	0ffH
	DB	0ffH
	DB	0ffH
	DB	0ffH
	DB	0ffH
	DB	0ffH
	DB	07fH
	DB	00H
	DB	00H
	DB	00H
	DB	00H
	DB	00H
	DB	00H
	DB	00H
	DB	00H
	DB	01H
	ORG $+6
Add_out_data_7_3 DB 03H
	DB	00H
	DB	00H
	DB	00H
	DB	00H
	DB	00H
	DB	00H
	DB	00H
	DB	080H
	DB	00H
	DB	00H
	DB	00H
	DB	00H
	DB	00H
	DB	00H
	DB	00H
	DB	080H
	ORG $+7
Add_out_data_7_4 DB 03H
	DB	0ffH
	DB	0ffH
	DB	0ffH
	DB	0ffH
	DB	0ffH
	DB	0ffH
	DB	0ffH
	DB	07fH
	DB	00H
	DB	00H
	DB	00H
	DB	00H
	DB	00H
	DB	00H
	DB	00H
	DB	080H
	ORG $+7
Add_out_data_7_5 DB 03H
	DB	00H
	DB	00H
	DB	00H
	DB	00H
	DB	00H
	DB	00H
	DB	00H
	DB	080H
	DB	01H
	ORG $+6
Add_out_data_7_6 DB 03H
	DB	0ffH
	DB	0ffH
	DB	0ffH
	DB	0ffH
	DB	0ffH
	DB	0ffH
	DB	0ffH
	DB	07fH
	DB	01H
	ORG $+6
Add_out_data_7_7 DB 03H
	DB	00H
	DB	00H
	DB	00H
	DB	00H
	DB	00H
	DB	00H
	DB	00H
	DB	00H
	DB	01H
	ORG $+6
Add_out_data_7_8 DB 03H
	DB	0ffH
	DB	0ffH
	DB	0ffH
	DB	0ffH
	DB	0ffH
	DB	0ffH
	DB	0ffH
	DB	0ffH
	ORG $+7
Add_out_data_7_9 DB 03H
	DB	00H
	DB	00H
	DB	00H
	DB	00H
	DB	01H
	DB	00H
	DB	00H
	DB	080H
	ORG $+7
Add_out_data_7_10 DB 03H
	DB	0ffH
	DB	0ffH
	DB	0ffH
	DB	0ffH
	DB	00H
	DB	00H
	DB	00H
	DB	080H
	ORG $+7
Add_out_data_7_11 DB 03H
	DB	00H
	DB	00H
	DB	00H
	DB	080H
	DB	00H
	DB	00H
	DB	00H
	DB	080H
	ORG $+7
Add_out_data_7_12 DB 03H
	DB	0ffH
	DB	0ffH
	DB	0ffH
	DB	07fH
	DB	00H
	DB	00H
	DB	00H
	DB	080H
	ORG $+7
Add_out_data_7_13 DB 03H
	DB	01H
	DB	00H
	DB	00H
	DB	00H
	DB	00H
	DB	00H
	DB	00H
	DB	080H
	ORG $+7
Add_out_data_7_14 DB 03H
	DB	00H
	DB	00H
	DB	00H
	DB	00H
	DB	00H
	DB	00H
	DB	00H
	DB	080H
	ORG $+7
Add_out_data_7_15 DB 03H
	DB	0ffH
	DB	0ffH
	DB	0ffH
	DB	0ffH
	DB	0ffH
	DB	0ffH
	DB	0ffH
	DB	07fH
	ORG $+7
Add_out_data_7_16 DB 03H
	DB	01H
	DB	00H
	DB	00H
	DB	080H
	DB	0ffH
	DB	0ffH
	DB	0ffH
	DB	07fH
	ORG $+7
Add_out_data_7_17 DB 03H
	DB	00H
	DB	00H
	DB	00H
	DB	080H
	DB	0ffH
	DB	0ffH
	DB	0ffH
	DB	07fH
	ORG $+7
Add_out_data_7_18 DB 03H
	DB	01H
	DB	00H
	DB	00H
	DB	00H
	DB	0ffH
	DB	0ffH
	DB	0ffH
	DB	07fH
	ORG $+7
Add_out_data_7_19 DB 03H
	DB	00H
	DB	00H
	DB	00H
	DB	00H
	DB	0ffH
	DB	0ffH
	DB	0ffH
	DB	07fH
	ORG $+7
Add_out_data_7_22 DB 01H
	DB	0ffH
	DB	0ffH
	DB	0ffH
	DB	0ffH
	DB	0ffH
	DB	0ffH
	DB	0ffH
	DB	07fH
	ORG $+7
Add_out_data_7_23 DB 01H
	DB	00H
	DB	00H
	DB	00H
	DB	00H
	DB	00H
	DB	00H
	DB	00H
	DB	080H
	ORG $+7
Add_out_data_7_24 DB 01H
	DB	0ffH
	DB	0ffH
	DB	0ffH
	DB	0ffH
	DB	0ffH
	DB	0ffH
	DB	0ffH
	DB	07fH
	DB	0ffH
	DB	0ffH
	DB	0ffH
	DB	0ffH
	DB	0ffH
	DB	0ffH
	DB	0ffH
	DB	07fH
	ORG $+7
Add_out_data_7_25 DB 01H
	DB	00H
	DB	00H
	DB	00H
	DB	00H
	DB	00H
	DB	00H
	DB	00H
	DB	080H
	DB	0ffH
	DB	0ffH
	DB	0ffH
	DB	0ffH
	DB	0ffH
	DB	0ffH
	DB	0ffH
	DB	07fH
	ORG $+7
Add_out_data_7_26 DB 01H
	DB	0ffH
	DB	0ffH
	DB	0ffH
	DB	0ffH
	DB	0ffH
	DB	0ffH
	DB	0ffH
	DB	07fH
	DB	0ffH
	DB	0ffH
	DB	0ffH
	DB	0ffH
	DB	0ffH
	DB	0ffH
	DB	0ffH
	DB	0ffH
	ORG $+7
Add_out_data_7_27 DB 01H
	DB	00H
	DB	00H
	DB	00H
	DB	00H
	DB	00H
	DB	00H
	DB	00H
	DB	080H
	DB	0ffH
	DB	0ffH
	DB	0ffH
	DB	0ffH
	DB	0ffH
	DB	0ffH
	DB	0ffH
	DB	0ffH
	ORG $+7
Add_out_data_8_1 DB 03H
	DB	0ffH
	DB	0ffH
	DB	0ffH
	DB	0ffH
	DB	0ffH
	DB	0ffH
	DB	0ffH
	DB	07fH
	DB	00H
	DB	00H
	DB	00H
	DB	00H
	DB	00H
	DB	00H
	DB	00H
	DB	00H
	DB	01H
	ORG $+6
Add_out_data_8_2 DB 03H
	DB	0feH
	DB	0ffH
	DB	0ffH
	DB	0ffH
	DB	0ffH
	DB	0ffH
	DB	0ffH
	DB	07fH
	DB	00H
	DB	00H
	DB	00H
	DB	00H
	DB	00H
	DB	00H
	DB	00H
	DB	00H
	DB	01H
	ORG $+6
Add_out_data_8_3 DB 03H
	DB	0ffH
	DB	0ffH
	DB	0ffH
	DB	0ffH
	DB	0ffH
	DB	0ffH
	DB	0ffH
	DB	07fH
	DB	00H
	DB	00H
	DB	00H
	DB	00H
	DB	00H
	DB	00H
	DB	00H
	DB	080H
	ORG $+7
Add_out_data_8_4 DB 03H
	DB	0feH
	DB	0ffH
	DB	0ffH
	DB	0ffH
	DB	0ffH
	DB	0ffH
	DB	0ffH
	DB	07fH
	DB	00H
	DB	00H
	DB	00H
	DB	00H
	DB	00H
	DB	00H
	DB	00H
	DB	080H
	ORG $+7
Add_out_data_8_5 DB 03H
	DB	0ffH
	DB	0ffH
	DB	0ffH
	DB	0ffH
	DB	0ffH
	DB	0ffH
	DB	0ffH
	DB	07fH
	DB	01H
	ORG $+6
Add_out_data_8_6 DB 03H
	DB	0feH
	DB	0ffH
	DB	0ffH
	DB	0ffH
	DB	0ffH
	DB	0ffH
	DB	0ffH
	DB	07fH
	DB	01H
	ORG $+6
Add_out_data_8_7 DB 03H
	DB	0ffH
	DB	0ffH
	DB	0ffH
	DB	0ffH
	DB	0ffH
	DB	0ffH
	DB	0ffH
	DB	0ffH
	ORG $+7
Add_out_data_8_8 DB 03H
	DB	0feH
	DB	0ffH
	DB	0ffH
	DB	0ffH
	DB	0ffH
	DB	0ffH
	DB	0ffH
	DB	0ffH
	ORG $+7
Add_out_data_8_9 DB 03H
	DB	0ffH
	DB	0ffH
	DB	0ffH
	DB	0ffH
	DB	00H
	DB	00H
	DB	00H
	DB	080H
	ORG $+7
Add_out_data_8_10 DB 03H
	DB	0feH
	DB	0ffH
	DB	0ffH
	DB	0ffH
	DB	00H
	DB	00H
	DB	00H
	DB	080H
	ORG $+7
Add_out_data_8_11 DB 03H
	DB	0ffH
	DB	0ffH
	DB	0ffH
	DB	07fH
	DB	00H
	DB	00H
	DB	00H
	DB	080H
	ORG $+7
Add_out_data_8_12 DB 03H
	DB	0feH
	DB	0ffH
	DB	0ffH
	DB	07fH
	DB	00H
	DB	00H
	DB	00H
	DB	080H
	ORG $+7
Add_out_data_8_13 DB 03H
	DB	00H
	DB	00H
	DB	00H
	DB	00H
	DB	00H
	DB	00H
	DB	00H
	DB	080H
	ORG $+7
Add_out_data_8_14 DB 03H
	DB	0ffH
	DB	0ffH
	DB	0ffH
	DB	0ffH
	DB	0ffH
	DB	0ffH
	DB	0ffH
	DB	07fH
	ORG $+7
Add_out_data_8_15 DB 03H
	DB	0feH
	DB	0ffH
	DB	0ffH
	DB	0ffH
	DB	0ffH
	DB	0ffH
	DB	0ffH
	DB	07fH
	ORG $+7
Add_out_data_8_16 DB 03H
	DB	00H
	DB	00H
	DB	00H
	DB	080H
	DB	0ffH
	DB	0ffH
	DB	0ffH
	DB	07fH
	ORG $+7
Add_out_data_8_17 DB 03H
	DB	0ffH
	DB	0ffH
	DB	0ffH
	DB	07fH
	DB	0ffH
	DB	0ffH
	DB	0ffH
	DB	07fH
	ORG $+7
Add_out_data_8_18 DB 03H
	DB	00H
	DB	00H
	DB	00H
	DB	00H
	DB	0ffH
	DB	0ffH
	DB	0ffH
	DB	07fH
	ORG $+7
Add_out_data_8_19 DB 03H
	DB	0ffH
	DB	0ffH
	DB	0ffH
	DB	0ffH
	DB	0feH
	DB	0ffH
	DB	0ffH
	DB	07fH
	ORG $+7
Add_out_data_8_22 DB 01H
	DB	00H
	DB	00H
	DB	00H
	DB	00H
	DB	00H
	DB	00H
	DB	00H
	DB	080H
	ORG $+7
Add_out_data_8_23 DB 01H
	DB	01H
	DB	00H
	DB	00H
	DB	00H
	DB	00H
	DB	00H
	DB	00H
	DB	080H
	ORG $+7
Add_out_data_8_24 DB 01H
	DB	00H
	DB	00H
	DB	00H
	DB	00H
	DB	00H
	DB	00H
	DB	00H
	DB	080H
	DB	0ffH
	DB	0ffH
	DB	0ffH
	DB	0ffH
	DB	0ffH
	DB	0ffH
	DB	0ffH
	DB	07fH
	ORG $+7
Add_out_data_8_25 DB 01H
	DB	01H
	DB	00H
	DB	00H
	DB	00H
	DB	00H
	DB	00H
	DB	00H
	DB	080H
	DB	0ffH
	DB	0ffH
	DB	0ffH
	DB	0ffH
	DB	0ffH
	DB	0ffH
	DB	0ffH
	DB	07fH
	ORG $+7
Add_out_data_8_26 DB 01H
	DB	00H
	DB	00H
	DB	00H
	DB	00H
	DB	00H
	DB	00H
	DB	00H
	DB	080H
	DB	0ffH
	DB	0ffH
	DB	0ffH
	DB	0ffH
	DB	0ffH
	DB	0ffH
	DB	0ffH
	DB	0ffH
	ORG $+7
Add_out_data_8_27 DB 01H
	DB	01H
	DB	00H
	DB	00H
	DB	00H
	DB	00H
	DB	00H
	DB	00H
	DB	080H
	DB	0ffH
	DB	0ffH
	DB	0ffH
	DB	0ffH
	DB	0ffH
	DB	0ffH
	DB	0ffH
	DB	0ffH
	ORG $+7
Add_out_data_9_1 DB 03H
	DB	00H
	DB	00H
	DB	00H
	DB	00H
	DB	01H
	DB	00H
	DB	00H
	DB	00H
	DB	00H
	DB	00H
	DB	00H
	DB	00H
	DB	00H
	DB	00H
	DB	00H
	DB	00H
	DB	01H
	ORG $+6
Add_out_data_9_2 DB 03H
	DB	0ffH
	DB	0ffH
	DB	0ffH
	DB	0ffH
	DB	00H
	DB	00H
	DB	00H
	DB	00H
	DB	00H
	DB	00H
	DB	00H
	DB	00H
	DB	00H
	DB	00H
	DB	00H
	DB	00H
	DB	01H
	ORG $+6
Add_out_data_9_3 DB 03H
	DB	00H
	DB	00H
	DB	00H
	DB	00H
	DB	01H
	DB	00H
	DB	00H
	DB	00H
	DB	00H
	DB	00H
	DB	00H
	DB	00H
	DB	00H
	DB	00H
	DB	00H
	DB	080H
	ORG $+7
Add_out_data_9_4 DB 03H
	DB	0ffH
	DB	0ffH
	DB	0ffH
	DB	0ffH
	DB	00H
	DB	00H
	DB	00H
	DB	00H
	DB	00H
	DB	00H
	DB	00H
	DB	00H
	DB	00H
	DB	00H
	DB	00H
	DB	080H
	ORG $+7
Add_out_data_9_5 DB 03H
	DB	00H
	DB	00H
	DB	00H
	DB	00H
	DB	01H
	DB	00H
	DB	00H
	DB	00H
	DB	01H
	ORG $+6
Add_out_data_9_6 DB 03H
	DB	0ffH
	DB	0ffH
	DB	0ffH
	DB	0ffH
	DB	00H
	DB	00H
	DB	00H
	DB	00H
	DB	01H
	ORG $+6
Add_out_data_9_7 DB 03H
	DB	00H
	DB	00H
	DB	00H
	DB	00H
	DB	01H
	DB	00H
	DB	00H
	DB	080H
	ORG $+7
Add_out_data_9_8 DB 03H
	DB	0ffH
	DB	0ffH
	DB	0ffH
	DB	0ffH
	DB	00H
	DB	00H
	DB	00H
	DB	080H
	ORG $+3
Add_out_data_9_15 DB 03H
	DB	0ffH
	DB	0ffH
	DB	0ffH
	DB	0ffH
	ORG $+3
Add_out_data_9_16 DB 03H
	DB	01H
	DB	00H
	DB	00H
	DB	080H
	ORG $+3
Add_out_data_9_17 DB 03H
	DB	00H
	DB	00H
	DB	00H
	DB	080H
	ORG $+7
Add_out_data_9_20 DB 01H
	DB	0ffH
	DB	0ffH
	DB	0ffH
	DB	0ffH
	DB	0feH
	DB	0ffH
	DB	0ffH
	DB	07fH
	ORG $+7
Add_out_data_9_21 DB 01H
	DB	00H
	DB	00H
	DB	00H
	DB	00H
	DB	0ffH
	DB	0ffH
	DB	0ffH
	DB	07fH
	ORG $+7
Add_out_data_9_22 DB 01H
	DB	0ffH
	DB	0ffH
	DB	0ffH
	DB	0ffH
	DB	0feH
	DB	0ffH
	DB	0ffH
	DB	0ffH
	ORG $+7
Add_out_data_9_23 DB 01H
	DB	00H
	DB	00H
	DB	00H
	DB	00H
	DB	0ffH
	DB	0ffH
	DB	0ffH
	DB	0ffH
	ORG $+7
Add_out_data_9_24 DB 01H
	DB	0ffH
	DB	0ffH
	DB	0ffH
	DB	0ffH
	DB	0feH
	DB	0ffH
	DB	0ffH
	DB	0ffH
	DB	0ffH
	DB	0ffH
	DB	0ffH
	DB	0ffH
	DB	0ffH
	DB	0ffH
	DB	0ffH
	DB	07fH
	ORG $+7
Add_out_data_9_25 DB 01H
	DB	00H
	DB	00H
	DB	00H
	DB	00H
	DB	0ffH
	DB	0ffH
	DB	0ffH
	DB	0ffH
	DB	0ffH
	DB	0ffH
	DB	0ffH
	DB	0ffH
	DB	0ffH
	DB	0ffH
	DB	0ffH
	DB	07fH
	ORG $+7
Add_out_data_9_26 DB 01H
	DB	0ffH
	DB	0ffH
	DB	0ffH
	DB	0ffH
	DB	0feH
	DB	0ffH
	DB	0ffH
	DB	0ffH
	DB	0ffH
	DB	0ffH
	DB	0ffH
	DB	0ffH
	DB	0ffH
	DB	0ffH
	DB	0ffH
	DB	0ffH
	ORG $+7
Add_out_data_9_27 DB 01H
	DB	00H
	DB	00H
	DB	00H
	DB	00H
	DB	0ffH
	DB	0ffH
	DB	0ffH
	DB	0ffH
	DB	0ffH
	DB	0ffH
	DB	0ffH
	DB	0ffH
	DB	0ffH
	DB	0ffH
	DB	0ffH
	DB	0ffH
	ORG $+7
Add_out_data_10_1 DB 03H
	DB	0ffH
	DB	0ffH
	DB	0ffH
	DB	0ffH
	DB	00H
	DB	00H
	DB	00H
	DB	00H
	DB	00H
	DB	00H
	DB	00H
	DB	00H
	DB	00H
	DB	00H
	DB	00H
	DB	00H
	DB	01H
	ORG $+6
Add_out_data_10_2 DB 03H
	DB	0feH
	DB	0ffH
	DB	0ffH
	DB	0ffH
	DB	00H
	DB	00H
	DB	00H
	DB	00H
	DB	00H
	DB	00H
	DB	00H
	DB	00H
	DB	00H
	DB	00H
	DB	00H
	DB	00H
	DB	01H
	ORG $+6
Add_out_data_10_3 DB 03H
	DB	0ffH
	DB	0ffH
	DB	0ffH
	DB	0ffH
	DB	00H
	DB	00H
	DB	00H
	DB	00H
	DB	00H
	DB	00H
	DB	00H
	DB	00H
	DB	00H
	DB	00H
	DB	00H
	DB	080H
	ORG $+7
Add_out_data_10_4 DB 03H
	DB	0feH
	DB	0ffH
	DB	0ffH
	DB	0ffH
	DB	00H
	DB	00H
	DB	00H
	DB	00H
	DB	00H
	DB	00H
	DB	00H
	DB	00H
	DB	00H
	DB	00H
	DB	00H
	DB	080H
	ORG $+7
Add_out_data_10_5 DB 03H
	DB	0ffH
	DB	0ffH
	DB	0ffH
	DB	0ffH
	DB	00H
	DB	00H
	DB	00H
	DB	00H
	DB	01H
	ORG $+6
Add_out_data_10_6 DB 03H
	DB	0feH
	DB	0ffH
	DB	0ffH
	DB	0ffH
	DB	00H
	DB	00H
	DB	00H
	DB	00H
	DB	01H
	ORG $+6
Add_out_data_10_7 DB 03H
	DB	0ffH
	DB	0ffH
	DB	0ffH
	DB	0ffH
	DB	00H
	DB	00H
	DB	00H
	DB	080H
	ORG $+7
Add_out_data_10_8 DB 03H
	DB	0feH
	DB	0ffH
	DB	0ffH
	DB	0ffH
	DB	00H
	DB	00H
	DB	00H
	DB	080H
	ORG $+3
Add_out_data_10_14 DB 03H
	DB	0ffH
	DB	0ffH
	DB	0ffH
	DB	0ffH
	ORG $+3
Add_out_data_10_15 DB 03H
	DB	0feH
	DB	0ffH
	DB	0ffH
	DB	0ffH
	ORG $+3
Add_out_data_10_16 DB 03H
	DB	00H
	DB	00H
	DB	00H
	DB	080H
	ORG $+3
Add_out_data_10_17 DB 03H
	DB	0ffH
	DB	0ffH
	DB	0ffH
	DB	07fH
	ORG $+7
Add_out_data_10_20 DB 01H
	DB	00H
	DB	00H
	DB	00H
	DB	00H
	DB	0ffH
	DB	0ffH
	DB	0ffH
	DB	07fH
	ORG $+7
Add_out_data_10_21 DB 01H
	DB	01H
	DB	00H
	DB	00H
	DB	00H
	DB	0ffH
	DB	0ffH
	DB	0ffH
	DB	07fH
	ORG $+7
Add_out_data_10_22 DB 01H
	DB	00H
	DB	00H
	DB	00H
	DB	00H
	DB	0ffH
	DB	0ffH
	DB	0ffH
	DB	0ffH
	ORG $+7
Add_out_data_10_23 DB 01H
	DB	01H
	DB	00H
	DB	00H
	DB	00H
	DB	0ffH
	DB	0ffH
	DB	0ffH
	DB	0ffH
	ORG $+7
Add_out_data_10_24 DB 01H
	DB	00H
	DB	00H
	DB	00H
	DB	00H
	DB	0ffH
	DB	0ffH
	DB	0ffH
	DB	0ffH
	DB	0ffH
	DB	0ffH
	DB	0ffH
	DB	0ffH
	DB	0ffH
	DB	0ffH
	DB	0ffH
	DB	07fH
	ORG $+7
Add_out_data_10_25 DB 01H
	DB	01H
	DB	00H
	DB	00H
	DB	00H
	DB	0ffH
	DB	0ffH
	DB	0ffH
	DB	0ffH
	DB	0ffH
	DB	0ffH
	DB	0ffH
	DB	0ffH
	DB	0ffH
	DB	0ffH
	DB	0ffH
	DB	07fH
	ORG $+7
Add_out_data_10_26 DB 01H
	DB	00H
	DB	00H
	DB	00H
	DB	00H
	DB	0ffH
	DB	0ffH
	DB	0ffH
	DB	0ffH
	DB	0ffH
	DB	0ffH
	DB	0ffH
	DB	0ffH
	DB	0ffH
	DB	0ffH
	DB	0ffH
	DB	0ffH
	ORG $+7
Add_out_data_10_27 DB 01H
	DB	01H
	DB	00H
	DB	00H
	DB	00H
	DB	0ffH
	DB	0ffH
	DB	0ffH
	DB	0ffH
	DB	0ffH
	DB	0ffH
	DB	0ffH
	DB	0ffH
	DB	0ffH
	DB	0ffH
	DB	0ffH
	DB	0ffH
	ORG $+7
Add_out_data_11_1 DB 03H
	DB	00H
	DB	00H
	DB	00H
	DB	080H
	DB	00H
	DB	00H
	DB	00H
	DB	00H
	DB	00H
	DB	00H
	DB	00H
	DB	00H
	DB	00H
	DB	00H
	DB	00H
	DB	00H
	DB	01H
	ORG $+6
Add_out_data_11_2 DB 03H
	DB	0ffH
	DB	0ffH
	DB	0ffH
	DB	07fH
	DB	00H
	DB	00H
	DB	00H
	DB	00H
	DB	00H
	DB	00H
	DB	00H
	DB	00H
	DB	00H
	DB	00H
	DB	00H
	DB	00H
	DB	01H
	ORG $+6
Add_out_data_11_3 DB 03H
	DB	00H
	DB	00H
	DB	00H
	DB	080H
	DB	00H
	DB	00H
	DB	00H
	DB	00H
	DB	00H
	DB	00H
	DB	00H
	DB	00H
	DB	00H
	DB	00H
	DB	00H
	DB	080H
	ORG $+7
Add_out_data_11_4 DB 03H
	DB	0ffH
	DB	0ffH
	DB	0ffH
	DB	07fH
	DB	00H
	DB	00H
	DB	00H
	DB	00H
	DB	00H
	DB	00H
	DB	00H
	DB	00H
	DB	00H
	DB	00H
	DB	00H
	DB	080H
	ORG $+7
Add_out_data_11_5 DB 03H
	DB	00H
	DB	00H
	DB	00H
	DB	080H
	DB	00H
	DB	00H
	DB	00H
	DB	00H
	DB	01H
	ORG $+6
Add_out_data_11_6 DB 03H
	DB	0ffH
	DB	0ffH
	DB	0ffH
	DB	07fH
	DB	00H
	DB	00H
	DB	00H
	DB	00H
	DB	01H
	ORG $+6
Add_out_data_11_7 DB 03H
	DB	00H
	DB	00H
	DB	00H
	DB	080H
	DB	00H
	DB	00H
	DB	00H
	DB	080H
	ORG $+7
Add_out_data_11_8 DB 03H
	DB	0ffH
	DB	0ffH
	DB	0ffH
	DB	07fH
	DB	00H
	DB	00H
	DB	00H
	DB	080H
	ORG $+3
Add_out_data_11_12 DB 03H
	DB	0ffH
	DB	0ffH
	DB	0ffH
	DB	0ffH
	ORG $+3
Add_out_data_11_13 DB 03H
	DB	01H
	DB	00H
	DB	00H
	DB	080H
	ORG $+3
Add_out_data_11_14 DB 03H
	DB	00H
	DB	00H
	DB	00H
	DB	080H
	ORG $+3
Add_out_data_11_15 DB 03H
	DB	0ffH
	DB	0ffH
	DB	0ffH
	DB	07fH
	ORG $+3
Add_out_data_11_18 DB 01H
	DB	0ffH
	DB	0ffH
	DB	0ffH
	DB	07fH
	ORG $+3
Add_out_data_11_19 DB 01H
	DB	00H
	DB	00H
	DB	00H
	DB	080H
	ORG $+7
Add_out_data_11_20 DB 01H
	DB	0ffH
	DB	0ffH
	DB	0ffH
	DB	07fH
	DB	0ffH
	DB	0ffH
	DB	0ffH
	DB	07fH
	ORG $+7
Add_out_data_11_21 DB 01H
	DB	00H
	DB	00H
	DB	00H
	DB	080H
	DB	0ffH
	DB	0ffH
	DB	0ffH
	DB	07fH
	ORG $+7
Add_out_data_11_22 DB 01H
	DB	0ffH
	DB	0ffH
	DB	0ffH
	DB	07fH
	DB	0ffH
	DB	0ffH
	DB	0ffH
	DB	0ffH
	ORG $+7
Add_out_data_11_23 DB 01H
	DB	00H
	DB	00H
	DB	00H
	DB	080H
	DB	0ffH
	DB	0ffH
	DB	0ffH
	DB	0ffH
	ORG $+7
Add_out_data_11_24 DB 01H
	DB	0ffH
	DB	0ffH
	DB	0ffH
	DB	07fH
	DB	0ffH
	DB	0ffH
	DB	0ffH
	DB	0ffH
	DB	0ffH
	DB	0ffH
	DB	0ffH
	DB	0ffH
	DB	0ffH
	DB	0ffH
	DB	0ffH
	DB	07fH
	ORG $+7
Add_out_data_11_25 DB 01H
	DB	00H
	DB	00H
	DB	00H
	DB	080H
	DB	0ffH
	DB	0ffH
	DB	0ffH
	DB	0ffH
	DB	0ffH
	DB	0ffH
	DB	0ffH
	DB	0ffH
	DB	0ffH
	DB	0ffH
	DB	0ffH
	DB	07fH
	ORG $+7
Add_out_data_11_26 DB 01H
	DB	0ffH
	DB	0ffH
	DB	0ffH
	DB	07fH
	DB	0ffH
	DB	0ffH
	DB	0ffH
	DB	0ffH
	DB	0ffH
	DB	0ffH
	DB	0ffH
	DB	0ffH
	DB	0ffH
	DB	0ffH
	DB	0ffH
	DB	0ffH
	ORG $+7
Add_out_data_11_27 DB 01H
	DB	00H
	DB	00H
	DB	00H
	DB	080H
	DB	0ffH
	DB	0ffH
	DB	0ffH
	DB	0ffH
	DB	0ffH
	DB	0ffH
	DB	0ffH
	DB	0ffH
	DB	0ffH
	DB	0ffH
	DB	0ffH
	DB	0ffH
	ORG $+7
Add_out_data_12_1 DB 03H
	DB	0ffH
	DB	0ffH
	DB	0ffH
	DB	07fH
	DB	00H
	DB	00H
	DB	00H
	DB	00H
	DB	00H
	DB	00H
	DB	00H
	DB	00H
	DB	00H
	DB	00H
	DB	00H
	DB	00H
	DB	01H
	ORG $+6
Add_out_data_12_2 DB 03H
	DB	0feH
	DB	0ffH
	DB	0ffH
	DB	07fH
	DB	00H
	DB	00H
	DB	00H
	DB	00H
	DB	00H
	DB	00H
	DB	00H
	DB	00H
	DB	00H
	DB	00H
	DB	00H
	DB	00H
	DB	01H
	ORG $+6
Add_out_data_12_3 DB 03H
	DB	0ffH
	DB	0ffH
	DB	0ffH
	DB	07fH
	DB	00H
	DB	00H
	DB	00H
	DB	00H
	DB	00H
	DB	00H
	DB	00H
	DB	00H
	DB	00H
	DB	00H
	DB	00H
	DB	080H
	ORG $+7
Add_out_data_12_4 DB 03H
	DB	0feH
	DB	0ffH
	DB	0ffH
	DB	07fH
	DB	00H
	DB	00H
	DB	00H
	DB	00H
	DB	00H
	DB	00H
	DB	00H
	DB	00H
	DB	00H
	DB	00H
	DB	00H
	DB	080H
	ORG $+7
Add_out_data_12_5 DB 03H
	DB	0ffH
	DB	0ffH
	DB	0ffH
	DB	07fH
	DB	00H
	DB	00H
	DB	00H
	DB	00H
	DB	01H
	ORG $+6
Add_out_data_12_6 DB 03H
	DB	0feH
	DB	0ffH
	DB	0ffH
	DB	07fH
	DB	00H
	DB	00H
	DB	00H
	DB	00H
	DB	01H
	ORG $+6
Add_out_data_12_7 DB 03H
	DB	0ffH
	DB	0ffH
	DB	0ffH
	DB	07fH
	DB	00H
	DB	00H
	DB	00H
	DB	080H
	ORG $+7
Add_out_data_12_8 DB 03H
	DB	0feH
	DB	0ffH
	DB	0ffH
	DB	07fH
	DB	00H
	DB	00H
	DB	00H
	DB	080H
	ORG $+3
Add_out_data_12_11 DB 03H
	DB	0ffH
	DB	0ffH
	DB	0ffH
	DB	0ffH
	ORG $+3
Add_out_data_12_12 DB 03H
	DB	0feH
	DB	0ffH
	DB	0ffH
	DB	0ffH
	ORG $+3
Add_out_data_12_13 DB 03H
	DB	00H
	DB	00H
	DB	00H
	DB	080H
	ORG $+3
Add_out_data_12_14 DB 03H
	DB	0ffH
	DB	0ffH
	DB	0ffH
	DB	07fH
	ORG $+3
Add_out_data_12_15 DB 03H
	DB	0feH
	DB	0ffH
	DB	0ffH
	DB	07fH
	ORG $+3
Add_out_data_12_18 DB 01H
	DB	00H
	DB	00H
	DB	00H
	DB	080H
	ORG $+3
Add_out_data_12_19 DB 01H
	DB	01H
	DB	00H
	DB	00H
	DB	080H
	ORG $+7
Add_out_data_12_20 DB 01H
	DB	00H
	DB	00H
	DB	00H
	DB	080H
	DB	0ffH
	DB	0ffH
	DB	0ffH
	DB	07fH
	ORG $+7
Add_out_data_12_21 DB 01H
	DB	01H
	DB	00H
	DB	00H
	DB	080H
	DB	0ffH
	DB	0ffH
	DB	0ffH
	DB	07fH
	ORG $+7
Add_out_data_12_22 DB 01H
	DB	00H
	DB	00H
	DB	00H
	DB	080H
	DB	0ffH
	DB	0ffH
	DB	0ffH
	DB	0ffH
	ORG $+7
Add_out_data_12_23 DB 01H
	DB	01H
	DB	00H
	DB	00H
	DB	080H
	DB	0ffH
	DB	0ffH
	DB	0ffH
	DB	0ffH
	ORG $+7
Add_out_data_12_24 DB 01H
	DB	00H
	DB	00H
	DB	00H
	DB	080H
	DB	0ffH
	DB	0ffH
	DB	0ffH
	DB	0ffH
	DB	0ffH
	DB	0ffH
	DB	0ffH
	DB	0ffH
	DB	0ffH
	DB	0ffH
	DB	0ffH
	DB	07fH
	ORG $+7
Add_out_data_12_25 DB 01H
	DB	01H
	DB	00H
	DB	00H
	DB	080H
	DB	0ffH
	DB	0ffH
	DB	0ffH
	DB	0ffH
	DB	0ffH
	DB	0ffH
	DB	0ffH
	DB	0ffH
	DB	0ffH
	DB	0ffH
	DB	0ffH
	DB	07fH
	ORG $+7
Add_out_data_12_26 DB 01H
	DB	00H
	DB	00H
	DB	00H
	DB	080H
	DB	0ffH
	DB	0ffH
	DB	0ffH
	DB	0ffH
	DB	0ffH
	DB	0ffH
	DB	0ffH
	DB	0ffH
	DB	0ffH
	DB	0ffH
	DB	0ffH
	DB	0ffH
	ORG $+7
Add_out_data_12_27 DB 01H
	DB	01H
	DB	00H
	DB	00H
	DB	080H
	DB	0ffH
	DB	0ffH
	DB	0ffH
	DB	0ffH
	DB	0ffH
	DB	0ffH
	DB	0ffH
	DB	0ffH
	DB	0ffH
	DB	0ffH
	DB	0ffH
	DB	0ffH
	ORG $+7
Add_out_data_13_1 DB 03H
	DB	01H
	DB	00H
	DB	00H
	DB	00H
	DB	00H
	DB	00H
	DB	00H
	DB	00H
	DB	00H
	DB	00H
	DB	00H
	DB	00H
	DB	00H
	DB	00H
	DB	00H
	DB	00H
	DB	01H
	ORG $+6
Add_out_data_13_2 DB 03H
	DB	00H
	DB	00H
	DB	00H
	DB	00H
	DB	00H
	DB	00H
	DB	00H
	DB	00H
	DB	00H
	DB	00H
	DB	00H
	DB	00H
	DB	00H
	DB	00H
	DB	00H
	DB	00H
	DB	01H
	ORG $+6
Add_out_data_13_3 DB 03H
	DB	01H
	DB	00H
	DB	00H
	DB	00H
	DB	00H
	DB	00H
	DB	00H
	DB	00H
	DB	00H
	DB	00H
	DB	00H
	DB	00H
	DB	00H
	DB	00H
	DB	00H
	DB	080H
	ORG $+7
Add_out_data_13_4 DB 03H
	DB	00H
	DB	00H
	DB	00H
	DB	00H
	DB	00H
	DB	00H
	DB	00H
	DB	00H
	DB	00H
	DB	00H
	DB	00H
	DB	00H
	DB	00H
	DB	00H
	DB	00H
	DB	080H
	ORG $+7
Add_out_data_13_5 DB 03H
	DB	01H
	DB	00H
	DB	00H
	DB	00H
	DB	00H
	DB	00H
	DB	00H
	DB	00H
	DB	01H
	ORG $+6
Add_out_data_13_6 DB 03H
	DB	00H
	DB	00H
	DB	00H
	DB	00H
	DB	00H
	DB	00H
	DB	00H
	DB	00H
	DB	01H
	ORG $+6
Add_out_data_13_7 DB 03H
	DB	01H
	DB	00H
	DB	00H
	DB	00H
	DB	00H
	DB	00H
	DB	00H
	DB	080H
	ORG $+7
Add_out_data_13_8 DB 03H
	DB	00H
	DB	00H
	DB	00H
	DB	00H
	DB	00H
	DB	00H
	DB	00H
	DB	080H
	ORG $+3
Add_out_data_13_11 DB 03H
	DB	01H
	DB	00H
	DB	00H
	DB	080H
	ORG $+3
Add_out_data_13_12 DB 03H
	DB	00H
	DB	00H
	DB	00H
	DB	080H
	ORG $+3
Add_out_data_13_16 DB 01H
	DB	0feH
	DB	0ffH
	DB	0ffH
	DB	07fH
	ORG $+3
Add_out_data_13_17 DB 01H
	DB	0ffH
	DB	0ffH
	DB	0ffH
	DB	07fH
	ORG $+3
Add_out_data_13_18 DB 01H
	DB	0feH
	DB	0ffH
	DB	0ffH
	DB	0ffH
	ORG $+3
Add_out_data_13_19 DB 01H
	DB	0ffH
	DB	0ffH
	DB	0ffH
	DB	0ffH
	ORG $+7
Add_out_data_13_20 DB 01H
	DB	0feH
	DB	0ffH
	DB	0ffH
	DB	0ffH
	DB	0ffH
	DB	0ffH
	DB	0ffH
	DB	07fH
	ORG $+7
Add_out_data_13_21 DB 01H
	DB	0ffH
	DB	0ffH
	DB	0ffH
	DB	0ffH
	DB	0ffH
	DB	0ffH
	DB	0ffH
	DB	07fH
	ORG $+7
Add_out_data_13_22 DB 01H
	DB	0feH
	DB	0ffH
	DB	0ffH
	DB	0ffH
	DB	0ffH
	DB	0ffH
	DB	0ffH
	DB	0ffH
	ORG $+7
Add_out_data_13_23 DB 01H
	DB	0ffH
	DB	0ffH
	DB	0ffH
	DB	0ffH
	DB	0ffH
	DB	0ffH
	DB	0ffH
	DB	0ffH
	ORG $+7
Add_out_data_13_24 DB 01H
	DB	0feH
	DB	0ffH
	DB	0ffH
	DB	0ffH
	DB	0ffH
	DB	0ffH
	DB	0ffH
	DB	0ffH
	DB	0ffH
	DB	0ffH
	DB	0ffH
	DB	0ffH
	DB	0ffH
	DB	0ffH
	DB	0ffH
	DB	07fH
	ORG $+7
Add_out_data_13_25 DB 01H
	DB	0ffH
	DB	0ffH
	DB	0ffH
	DB	0ffH
	DB	0ffH
	DB	0ffH
	DB	0ffH
	DB	0ffH
	DB	0ffH
	DB	0ffH
	DB	0ffH
	DB	0ffH
	DB	0ffH
	DB	0ffH
	DB	0ffH
	DB	07fH
	ORG $+7
Add_out_data_13_26 DB 01H
	DB	0feH
	DB	0ffH
	DB	0ffH
	DB	0ffH
	DB	0ffH
	DB	0ffH
	DB	0ffH
	DB	0ffH
	DB	0ffH
	DB	0ffH
	DB	0ffH
	DB	0ffH
	DB	0ffH
	DB	0ffH
	DB	0ffH
	DB	0ffH
	ORG $+7
Add_out_data_13_27 DB 01H
	DB	0ffH
	DB	0ffH
	DB	0ffH
	DB	0ffH
	DB	0ffH
	DB	0ffH
	DB	0ffH
	DB	0ffH
	DB	0ffH
	DB	0ffH
	DB	0ffH
	DB	0ffH
	DB	0ffH
	DB	0ffH
	DB	0ffH
	DB	0ffH
	ORG $+7
Add_out_data_14_1 DB 03H
	DB	00H
	DB	00H
	DB	00H
	DB	00H
	DB	00H
	DB	00H
	DB	00H
	DB	00H
	DB	00H
	DB	00H
	DB	00H
	DB	00H
	DB	00H
	DB	00H
	DB	00H
	DB	00H
	DB	01H
	ORG $+6
Add_out_data_14_2 DB 03H
	DB	0ffH
	DB	0ffH
	DB	0ffH
	DB	0ffH
	DB	0ffH
	DB	0ffH
	DB	0ffH
	DB	0ffH
	DB	0ffH
	DB	0ffH
	DB	0ffH
	DB	0ffH
	DB	0ffH
	DB	0ffH
	DB	0ffH
	DB	0ffH
	ORG $+7
Add_out_data_14_3 DB 03H
	DB	00H
	DB	00H
	DB	00H
	DB	00H
	DB	00H
	DB	00H
	DB	00H
	DB	00H
	DB	00H
	DB	00H
	DB	00H
	DB	00H
	DB	00H
	DB	00H
	DB	00H
	DB	080H
	ORG $+7
Add_out_data_14_4 DB 03H
	DB	0ffH
	DB	0ffH
	DB	0ffH
	DB	0ffH
	DB	0ffH
	DB	0ffH
	DB	0ffH
	DB	0ffH
	DB	0ffH
	DB	0ffH
	DB	0ffH
	DB	0ffH
	DB	0ffH
	DB	0ffH
	DB	0ffH
	DB	07fH
	ORG $+7
Add_out_data_14_5 DB 03H
	DB	00H
	DB	00H
	DB	00H
	DB	00H
	DB	00H
	DB	00H
	DB	00H
	DB	00H
	DB	01H
	ORG $+6
Add_out_data_14_6 DB 03H
	DB	0ffH
	DB	0ffH
	DB	0ffH
	DB	0ffH
	DB	0ffH
	DB	0ffH
	DB	0ffH
	DB	0ffH
	ORG $+7
Add_out_data_14_7 DB 03H
	DB	00H
	DB	00H
	DB	00H
	DB	00H
	DB	00H
	DB	00H
	DB	00H
	DB	080H
	ORG $+7
Add_out_data_14_8 DB 03H
	DB	0ffH
	DB	0ffH
	DB	0ffH
	DB	0ffH
	DB	0ffH
	DB	0ffH
	DB	0ffH
	DB	07fH
	ORG $+3
Add_out_data_14_10 DB 03H
	DB	0ffH
	DB	0ffH
	DB	0ffH
	DB	0ffH
	ORG $+3
Add_out_data_14_11 DB 03H
	DB	00H
	DB	00H
	DB	00H
	DB	080H
	ORG $+3
Add_out_data_14_12 DB 03H
	DB	0ffH
	DB	0ffH
	DB	0ffH
	DB	07fH
	ORG $+3
Add_out_data_14_16 DB 01H
	DB	0ffH
	DB	0ffH
	DB	0ffH
	DB	07fH
	ORG $+3
Add_out_data_14_17 DB 01H
	DB	00H
	DB	00H
	DB	00H
	DB	080H
	ORG $+3
Add_out_data_14_18 DB 01H
	DB	0ffH
	DB	0ffH
	DB	0ffH
	DB	0ffH
	ORG $+7
Add_out_data_14_20 DB 01H
	DB	0ffH
	DB	0ffH
	DB	0ffH
	DB	0ffH
	DB	0ffH
	DB	0ffH
	DB	0ffH
	DB	07fH
	ORG $+7
Add_out_data_14_21 DB 01H
	DB	00H
	DB	00H
	DB	00H
	DB	00H
	DB	00H
	DB	00H
	DB	00H
	DB	080H
	ORG $+7
Add_out_data_14_22 DB 01H
	DB	0ffH
	DB	0ffH
	DB	0ffH
	DB	0ffH
	DB	0ffH
	DB	0ffH
	DB	0ffH
	DB	0ffH
	ORG $+7
Add_out_data_14_23 DB 01H
	DB	00H
	DB	00H
	DB	00H
	DB	00H
	DB	00H
	DB	00H
	DB	00H
	DB	00H
	DB	01H
	ORG $+6
Add_out_data_14_24 DB 01H
	DB	0ffH
	DB	0ffH
	DB	0ffH
	DB	0ffH
	DB	0ffH
	DB	0ffH
	DB	0ffH
	DB	0ffH
	DB	0ffH
	DB	0ffH
	DB	0ffH
	DB	0ffH
	DB	0ffH
	DB	0ffH
	DB	0ffH
	DB	07fH
	ORG $+7
Add_out_data_14_25 DB 01H
	DB	00H
	DB	00H
	DB	00H
	DB	00H
	DB	00H
	DB	00H
	DB	00H
	DB	00H
	DB	00H
	DB	00H
	DB	00H
	DB	00H
	DB	00H
	DB	00H
	DB	00H
	DB	080H
	ORG $+7
Add_out_data_14_26 DB 01H
	DB	0ffH
	DB	0ffH
	DB	0ffH
	DB	0ffH
	DB	0ffH
	DB	0ffH
	DB	0ffH
	DB	0ffH
	DB	0ffH
	DB	0ffH
	DB	0ffH
	DB	0ffH
	DB	0ffH
	DB	0ffH
	DB	0ffH
	DB	0ffH
	ORG $+7
Add_out_data_14_27 DB 01H
	DB	00H
	DB	00H
	DB	00H
	DB	00H
	DB	00H
	DB	00H
	DB	00H
	DB	00H
	DB	00H
	DB	00H
	DB	00H
	DB	00H
	DB	00H
	DB	00H
	DB	00H
	DB	00H
	DB	01H
	ORG $+6
Add_out_data_15_1 DB 03H
	DB	0ffH
	DB	0ffH
	DB	0ffH
	DB	0ffH
	DB	0ffH
	DB	0ffH
	DB	0ffH
	DB	0ffH
	DB	0ffH
	DB	0ffH
	DB	0ffH
	DB	0ffH
	DB	0ffH
	DB	0ffH
	DB	0ffH
	DB	0ffH
	ORG $+7
Add_out_data_15_2 DB 03H
	DB	0feH
	DB	0ffH
	DB	0ffH
	DB	0ffH
	DB	0ffH
	DB	0ffH
	DB	0ffH
	DB	0ffH
	DB	0ffH
	DB	0ffH
	DB	0ffH
	DB	0ffH
	DB	0ffH
	DB	0ffH
	DB	0ffH
	DB	0ffH
	ORG $+7
Add_out_data_15_3 DB 03H
	DB	0ffH
	DB	0ffH
	DB	0ffH
	DB	0ffH
	DB	0ffH
	DB	0ffH
	DB	0ffH
	DB	0ffH
	DB	0ffH
	DB	0ffH
	DB	0ffH
	DB	0ffH
	DB	0ffH
	DB	0ffH
	DB	0ffH
	DB	07fH
	ORG $+7
Add_out_data_15_4 DB 03H
	DB	0feH
	DB	0ffH
	DB	0ffH
	DB	0ffH
	DB	0ffH
	DB	0ffH
	DB	0ffH
	DB	0ffH
	DB	0ffH
	DB	0ffH
	DB	0ffH
	DB	0ffH
	DB	0ffH
	DB	0ffH
	DB	0ffH
	DB	07fH
	ORG $+7
Add_out_data_15_5 DB 03H
	DB	0ffH
	DB	0ffH
	DB	0ffH
	DB	0ffH
	DB	0ffH
	DB	0ffH
	DB	0ffH
	DB	0ffH
	ORG $+7
Add_out_data_15_6 DB 03H
	DB	0feH
	DB	0ffH
	DB	0ffH
	DB	0ffH
	DB	0ffH
	DB	0ffH
	DB	0ffH
	DB	0ffH
	ORG $+7
Add_out_data_15_7 DB 03H
	DB	0ffH
	DB	0ffH
	DB	0ffH
	DB	0ffH
	DB	0ffH
	DB	0ffH
	DB	0ffH
	DB	07fH
	ORG $+7
Add_out_data_15_8 DB 03H
	DB	0feH
	DB	0ffH
	DB	0ffH
	DB	0ffH
	DB	0ffH
	DB	0ffH
	DB	0ffH
	DB	07fH
	ORG $+3
Add_out_data_15_9 DB 03H
	DB	0ffH
	DB	0ffH
	DB	0ffH
	DB	0ffH
	ORG $+3
Add_out_data_15_10 DB 03H
	DB	0feH
	DB	0ffH
	DB	0ffH
	DB	0ffH
	ORG $+3
Add_out_data_15_11 DB 03H
	DB	0ffH
	DB	0ffH
	DB	0ffH
	DB	07fH
	ORG $+3
Add_out_data_15_12 DB 03H
	DB	0feH
	DB	0ffH
	DB	0ffH
	DB	07fH
	ORG $+3
Add_out_data_15_16 DB 01H
	DB	00H
	DB	00H
	DB	00H
	DB	080H
	ORG $+3
Add_out_data_15_17 DB 01H
	DB	01H
	DB	00H
	DB	00H
	DB	080H
	ORG $+7
Add_out_data_15_20 DB 01H
	DB	00H
	DB	00H
	DB	00H
	DB	00H
	DB	00H
	DB	00H
	DB	00H
	DB	080H
	ORG $+7
Add_out_data_15_21 DB 01H
	DB	01H
	DB	00H
	DB	00H
	DB	00H
	DB	00H
	DB	00H
	DB	00H
	DB	080H
	ORG $+7
Add_out_data_15_22 DB 01H
	DB	00H
	DB	00H
	DB	00H
	DB	00H
	DB	00H
	DB	00H
	DB	00H
	DB	00H
	DB	01H
	ORG $+6
Add_out_data_15_23 DB 01H
	DB	01H
	DB	00H
	DB	00H
	DB	00H
	DB	00H
	DB	00H
	DB	00H
	DB	00H
	DB	01H
	ORG $+6
Add_out_data_15_24 DB 01H
	DB	00H
	DB	00H
	DB	00H
	DB	00H
	DB	00H
	DB	00H
	DB	00H
	DB	00H
	DB	00H
	DB	00H
	DB	00H
	DB	00H
	DB	00H
	DB	00H
	DB	00H
	DB	080H
	ORG $+7
Add_out_data_15_25 DB 01H
	DB	01H
	DB	00H
	DB	00H
	DB	00H
	DB	00H
	DB	00H
	DB	00H
	DB	00H
	DB	00H
	DB	00H
	DB	00H
	DB	00H
	DB	00H
	DB	00H
	DB	00H
	DB	080H
	ORG $+7
Add_out_data_15_26 DB 01H
	DB	00H
	DB	00H
	DB	00H
	DB	00H
	DB	00H
	DB	00H
	DB	00H
	DB	00H
	DB	00H
	DB	00H
	DB	00H
	DB	00H
	DB	00H
	DB	00H
	DB	00H
	DB	00H
	DB	01H
	ORG $+6
Add_out_data_15_27 DB 01H
	DB	01H
	DB	00H
	DB	00H
	DB	00H
	DB	00H
	DB	00H
	DB	00H
	DB	00H
	DB	00H
	DB	00H
	DB	00H
	DB	00H
	DB	00H
	DB	00H
	DB	00H
	DB	00H
	DB	01H
	ORG $+6
Add_out_data_16_1 DB 03H
	DB	01H
	DB	00H
	DB	00H
	DB	080H
	DB	0ffH
	DB	0ffH
	DB	0ffH
	DB	0ffH
	DB	0ffH
	DB	0ffH
	DB	0ffH
	DB	0ffH
	DB	0ffH
	DB	0ffH
	DB	0ffH
	DB	0ffH
	ORG $+7
Add_out_data_16_2 DB 03H
	DB	00H
	DB	00H
	DB	00H
	DB	080H
	DB	0ffH
	DB	0ffH
	DB	0ffH
	DB	0ffH
	DB	0ffH
	DB	0ffH
	DB	0ffH
	DB	0ffH
	DB	0ffH
	DB	0ffH
	DB	0ffH
	DB	0ffH
	ORG $+7
Add_out_data_16_3 DB 03H
	DB	01H
	DB	00H
	DB	00H
	DB	080H
	DB	0ffH
	DB	0ffH
	DB	0ffH
	DB	0ffH
	DB	0ffH
	DB	0ffH
	DB	0ffH
	DB	0ffH
	DB	0ffH
	DB	0ffH
	DB	0ffH
	DB	07fH
	ORG $+7
Add_out_data_16_4 DB 03H
	DB	00H
	DB	00H
	DB	00H
	DB	080H
	DB	0ffH
	DB	0ffH
	DB	0ffH
	DB	0ffH
	DB	0ffH
	DB	0ffH
	DB	0ffH
	DB	0ffH
	DB	0ffH
	DB	0ffH
	DB	0ffH
	DB	07fH
	ORG $+7
Add_out_data_16_5 DB 03H
	DB	01H
	DB	00H
	DB	00H
	DB	080H
	DB	0ffH
	DB	0ffH
	DB	0ffH
	DB	0ffH
	ORG $+7
Add_out_data_16_6 DB 03H
	DB	00H
	DB	00H
	DB	00H
	DB	080H
	DB	0ffH
	DB	0ffH
	DB	0ffH
	DB	0ffH
	ORG $+7
Add_out_data_16_7 DB 03H
	DB	01H
	DB	00H
	DB	00H
	DB	080H
	DB	0ffH
	DB	0ffH
	DB	0ffH
	DB	07fH
	ORG $+7
Add_out_data_16_8 DB 03H
	DB	00H
	DB	00H
	DB	00H
	DB	080H
	DB	0ffH
	DB	0ffH
	DB	0ffH
	DB	07fH
	ORG $+3
Add_out_data_16_9 DB 03H
	DB	01H
	DB	00H
	DB	00H
	DB	080H
	ORG $+3
Add_out_data_16_10 DB 03H
	DB	00H
	DB	00H
	DB	00H
	DB	080H
	ORG $+3
Add_out_data_16_13 DB 01H
	DB	0feH
	DB	0ffH
	DB	0ffH
	DB	07fH
	ORG $+3
Add_out_data_16_14 DB 01H
	DB	0ffH
	DB	0ffH
	DB	0ffH
	DB	07fH
	ORG $+3
Add_out_data_16_15 DB 01H
	DB	00H
	DB	00H
	DB	00H
	DB	080H
	ORG $+3
Add_out_data_16_16 DB 01H
	DB	0feH
	DB	0ffH
	DB	0ffH
	DB	0ffH
	ORG $+3
Add_out_data_16_17 DB 01H
	DB	0ffH
	DB	0ffH
	DB	0ffH
	DB	0ffH
	ORG $+7
Add_out_data_16_20 DB 01H
	DB	0feH
	DB	0ffH
	DB	0ffH
	DB	07fH
	DB	00H
	DB	00H
	DB	00H
	DB	080H
	ORG $+7
Add_out_data_16_21 DB 01H
	DB	0ffH
	DB	0ffH
	DB	0ffH
	DB	07fH
	DB	00H
	DB	00H
	DB	00H
	DB	080H
	ORG $+7
Add_out_data_16_22 DB 01H
	DB	0feH
	DB	0ffH
	DB	0ffH
	DB	07fH
	DB	00H
	DB	00H
	DB	00H
	DB	00H
	DB	01H
	ORG $+6
Add_out_data_16_23 DB 01H
	DB	0ffH
	DB	0ffH
	DB	0ffH
	DB	07fH
	DB	00H
	DB	00H
	DB	00H
	DB	00H
	DB	01H
	ORG $+6
Add_out_data_16_24 DB 01H
	DB	0feH
	DB	0ffH
	DB	0ffH
	DB	07fH
	DB	00H
	DB	00H
	DB	00H
	DB	00H
	DB	00H
	DB	00H
	DB	00H
	DB	00H
	DB	00H
	DB	00H
	DB	00H
	DB	080H
	ORG $+7
Add_out_data_16_25 DB 01H
	DB	0ffH
	DB	0ffH
	DB	0ffH
	DB	07fH
	DB	00H
	DB	00H
	DB	00H
	DB	00H
	DB	00H
	DB	00H
	DB	00H
	DB	00H
	DB	00H
	DB	00H
	DB	00H
	DB	080H
	ORG $+7
Add_out_data_16_26 DB 01H
	DB	0feH
	DB	0ffH
	DB	0ffH
	DB	07fH
	DB	00H
	DB	00H
	DB	00H
	DB	00H
	DB	00H
	DB	00H
	DB	00H
	DB	00H
	DB	00H
	DB	00H
	DB	00H
	DB	00H
	DB	01H
	ORG $+6
Add_out_data_16_27 DB 01H
	DB	0ffH
	DB	0ffH
	DB	0ffH
	DB	07fH
	DB	00H
	DB	00H
	DB	00H
	DB	00H
	DB	00H
	DB	00H
	DB	00H
	DB	00H
	DB	00H
	DB	00H
	DB	00H
	DB	00H
	DB	01H
	ORG $+6
Add_out_data_17_1 DB 03H
	DB	00H
	DB	00H
	DB	00H
	DB	080H
	DB	0ffH
	DB	0ffH
	DB	0ffH
	DB	0ffH
	DB	0ffH
	DB	0ffH
	DB	0ffH
	DB	0ffH
	DB	0ffH
	DB	0ffH
	DB	0ffH
	DB	0ffH
	ORG $+7
Add_out_data_17_2 DB 03H
	DB	0ffH
	DB	0ffH
	DB	0ffH
	DB	07fH
	DB	0ffH
	DB	0ffH
	DB	0ffH
	DB	0ffH
	DB	0ffH
	DB	0ffH
	DB	0ffH
	DB	0ffH
	DB	0ffH
	DB	0ffH
	DB	0ffH
	DB	0ffH
	ORG $+7
Add_out_data_17_3 DB 03H
	DB	00H
	DB	00H
	DB	00H
	DB	080H
	DB	0ffH
	DB	0ffH
	DB	0ffH
	DB	0ffH
	DB	0ffH
	DB	0ffH
	DB	0ffH
	DB	0ffH
	DB	0ffH
	DB	0ffH
	DB	0ffH
	DB	07fH
	ORG $+7
Add_out_data_17_4 DB 03H
	DB	0ffH
	DB	0ffH
	DB	0ffH
	DB	07fH
	DB	0ffH
	DB	0ffH
	DB	0ffH
	DB	0ffH
	DB	0ffH
	DB	0ffH
	DB	0ffH
	DB	0ffH
	DB	0ffH
	DB	0ffH
	DB	0ffH
	DB	07fH
	ORG $+7
Add_out_data_17_5 DB 03H
	DB	00H
	DB	00H
	DB	00H
	DB	080H
	DB	0ffH
	DB	0ffH
	DB	0ffH
	DB	0ffH
	ORG $+7
Add_out_data_17_6 DB 03H
	DB	0ffH
	DB	0ffH
	DB	0ffH
	DB	07fH
	DB	0ffH
	DB	0ffH
	DB	0ffH
	DB	0ffH
	ORG $+7
Add_out_data_17_7 DB 03H
	DB	00H
	DB	00H
	DB	00H
	DB	080H
	DB	0ffH
	DB	0ffH
	DB	0ffH
	DB	07fH
	ORG $+7
Add_out_data_17_8 DB 03H
	DB	0ffH
	DB	0ffH
	DB	0ffH
	DB	07fH
	DB	0ffH
	DB	0ffH
	DB	0ffH
	DB	07fH
	ORG $+3
Add_out_data_17_9 DB 03H
	DB	00H
	DB	00H
	DB	00H
	DB	080H
	ORG $+3
Add_out_data_17_10 DB 03H
	DB	0ffH
	DB	0ffH
	DB	0ffH
	DB	07fH
	ORG $+3
Add_out_data_17_13 DB 01H
	DB	0ffH
	DB	0ffH
	DB	0ffH
	DB	07fH
	ORG $+3
Add_out_data_17_14 DB 01H
	DB	00H
	DB	00H
	DB	00H
	DB	080H
	ORG $+3
Add_out_data_17_15 DB 01H
	DB	01H
	DB	00H
	DB	00H
	DB	080H
	ORG $+3
Add_out_data_17_16 DB 01H
	DB	0ffH
	DB	0ffH
	DB	0ffH
	DB	0ffH
	ORG $+7
Add_out_data_17_20 DB 01H
	DB	0ffH
	DB	0ffH
	DB	0ffH
	DB	07fH
	DB	00H
	DB	00H
	DB	00H
	DB	080H
	ORG $+7
Add_out_data_17_21 DB 01H
	DB	00H
	DB	00H
	DB	00H
	DB	080H
	DB	00H
	DB	00H
	DB	00H
	DB	080H
	ORG $+7
Add_out_data_17_22 DB 01H
	DB	0ffH
	DB	0ffH
	DB	0ffH
	DB	07fH
	DB	00H
	DB	00H
	DB	00H
	DB	00H
	DB	01H
	ORG $+6
Add_out_data_17_23 DB 01H
	DB	00H
	DB	00H
	DB	00H
	DB	080H
	DB	00H
	DB	00H
	DB	00H
	DB	00H
	DB	01H
	ORG $+6
Add_out_data_17_24 DB 01H
	DB	0ffH
	DB	0ffH
	DB	0ffH
	DB	07fH
	DB	00H
	DB	00H
	DB	00H
	DB	00H
	DB	00H
	DB	00H
	DB	00H
	DB	00H
	DB	00H
	DB	00H
	DB	00H
	DB	080H
	ORG $+7
Add_out_data_17_25 DB 01H
	DB	00H
	DB	00H
	DB	00H
	DB	080H
	DB	00H
	DB	00H
	DB	00H
	DB	00H
	DB	00H
	DB	00H
	DB	00H
	DB	00H
	DB	00H
	DB	00H
	DB	00H
	DB	080H
	ORG $+7
Add_out_data_17_26 DB 01H
	DB	0ffH
	DB	0ffH
	DB	0ffH
	DB	07fH
	DB	00H
	DB	00H
	DB	00H
	DB	00H
	DB	00H
	DB	00H
	DB	00H
	DB	00H
	DB	00H
	DB	00H
	DB	00H
	DB	00H
	DB	01H
	ORG $+6
Add_out_data_17_27 DB 01H
	DB	00H
	DB	00H
	DB	00H
	DB	080H
	DB	00H
	DB	00H
	DB	00H
	DB	00H
	DB	00H
	DB	00H
	DB	00H
	DB	00H
	DB	00H
	DB	00H
	DB	00H
	DB	00H
	DB	01H
	ORG $+6
Add_out_data_18_1 DB 03H
	DB	01H
	DB	00H
	DB	00H
	DB	00H
	DB	0ffH
	DB	0ffH
	DB	0ffH
	DB	0ffH
	DB	0ffH
	DB	0ffH
	DB	0ffH
	DB	0ffH
	DB	0ffH
	DB	0ffH
	DB	0ffH
	DB	0ffH
	ORG $+7
Add_out_data_18_2 DB 03H
	DB	00H
	DB	00H
	DB	00H
	DB	00H
	DB	0ffH
	DB	0ffH
	DB	0ffH
	DB	0ffH
	DB	0ffH
	DB	0ffH
	DB	0ffH
	DB	0ffH
	DB	0ffH
	DB	0ffH
	DB	0ffH
	DB	0ffH
	ORG $+7
Add_out_data_18_3 DB 03H
	DB	01H
	DB	00H
	DB	00H
	DB	00H
	DB	0ffH
	DB	0ffH
	DB	0ffH
	DB	0ffH
	DB	0ffH
	DB	0ffH
	DB	0ffH
	DB	0ffH
	DB	0ffH
	DB	0ffH
	DB	0ffH
	DB	07fH
	ORG $+7
Add_out_data_18_4 DB 03H
	DB	00H
	DB	00H
	DB	00H
	DB	00H
	DB	0ffH
	DB	0ffH
	DB	0ffH
	DB	0ffH
	DB	0ffH
	DB	0ffH
	DB	0ffH
	DB	0ffH
	DB	0ffH
	DB	0ffH
	DB	0ffH
	DB	07fH
	ORG $+7
Add_out_data_18_5 DB 03H
	DB	01H
	DB	00H
	DB	00H
	DB	00H
	DB	0ffH
	DB	0ffH
	DB	0ffH
	DB	0ffH
	ORG $+7
Add_out_data_18_6 DB 03H
	DB	00H
	DB	00H
	DB	00H
	DB	00H
	DB	0ffH
	DB	0ffH
	DB	0ffH
	DB	0ffH
	ORG $+7
Add_out_data_18_7 DB 03H
	DB	01H
	DB	00H
	DB	00H
	DB	00H
	DB	0ffH
	DB	0ffH
	DB	0ffH
	DB	07fH
	ORG $+7
Add_out_data_18_8 DB 03H
	DB	00H
	DB	00H
	DB	00H
	DB	00H
	DB	0ffH
	DB	0ffH
	DB	0ffH
	DB	07fH
	ORG $+3
Add_out_data_18_11 DB 01H
	DB	0ffH
	DB	0ffH
	DB	0ffH
	DB	07fH
	ORG $+3
Add_out_data_18_12 DB 01H
	DB	00H
	DB	00H
	DB	00H
	DB	080H
	ORG $+3
Add_out_data_18_13 DB 01H
	DB	0feH
	DB	0ffH
	DB	0ffH
	DB	0ffH
	ORG $+3
Add_out_data_18_14 DB 01H
	DB	0ffH
	DB	0ffH
	DB	0ffH
	DB	0ffH
	ORG $+7
Add_out_data_18_20 DB 01H
	DB	0feH
	DB	0ffH
	DB	0ffH
	DB	0ffH
	DB	00H
	DB	00H
	DB	00H
	DB	080H
	ORG $+7
Add_out_data_18_21 DB 01H
	DB	0ffH
	DB	0ffH
	DB	0ffH
	DB	0ffH
	DB	00H
	DB	00H
	DB	00H
	DB	080H
	ORG $+7
Add_out_data_18_22 DB 01H
	DB	0feH
	DB	0ffH
	DB	0ffH
	DB	0ffH
	DB	00H
	DB	00H
	DB	00H
	DB	00H
	DB	01H
	ORG $+6
Add_out_data_18_23 DB 01H
	DB	0ffH
	DB	0ffH
	DB	0ffH
	DB	0ffH
	DB	00H
	DB	00H
	DB	00H
	DB	00H
	DB	01H
	ORG $+6
Add_out_data_18_24 DB 01H
	DB	0feH
	DB	0ffH
	DB	0ffH
	DB	0ffH
	DB	00H
	DB	00H
	DB	00H
	DB	00H
	DB	00H
	DB	00H
	DB	00H
	DB	00H
	DB	00H
	DB	00H
	DB	00H
	DB	080H
	ORG $+7
Add_out_data_18_25 DB 01H
	DB	0ffH
	DB	0ffH
	DB	0ffH
	DB	0ffH
	DB	00H
	DB	00H
	DB	00H
	DB	00H
	DB	00H
	DB	00H
	DB	00H
	DB	00H
	DB	00H
	DB	00H
	DB	00H
	DB	080H
	ORG $+7
Add_out_data_18_26 DB 01H
	DB	0feH
	DB	0ffH
	DB	0ffH
	DB	0ffH
	DB	00H
	DB	00H
	DB	00H
	DB	00H
	DB	00H
	DB	00H
	DB	00H
	DB	00H
	DB	00H
	DB	00H
	DB	00H
	DB	00H
	DB	01H
	ORG $+6
Add_out_data_18_27 DB 01H
	DB	0ffH
	DB	0ffH
	DB	0ffH
	DB	0ffH
	DB	00H
	DB	00H
	DB	00H
	DB	00H
	DB	00H
	DB	00H
	DB	00H
	DB	00H
	DB	00H
	DB	00H
	DB	00H
	DB	00H
	DB	01H
	ORG $+6
Add_out_data_19_1 DB 03H
	DB	00H
	DB	00H
	DB	00H
	DB	00H
	DB	0ffH
	DB	0ffH
	DB	0ffH
	DB	0ffH
	DB	0ffH
	DB	0ffH
	DB	0ffH
	DB	0ffH
	DB	0ffH
	DB	0ffH
	DB	0ffH
	DB	0ffH
	ORG $+7
Add_out_data_19_2 DB 03H
	DB	0ffH
	DB	0ffH
	DB	0ffH
	DB	0ffH
	DB	0feH
	DB	0ffH
	DB	0ffH
	DB	0ffH
	DB	0ffH
	DB	0ffH
	DB	0ffH
	DB	0ffH
	DB	0ffH
	DB	0ffH
	DB	0ffH
	DB	0ffH
	ORG $+7
Add_out_data_19_3 DB 03H
	DB	00H
	DB	00H
	DB	00H
	DB	00H
	DB	0ffH
	DB	0ffH
	DB	0ffH
	DB	0ffH
	DB	0ffH
	DB	0ffH
	DB	0ffH
	DB	0ffH
	DB	0ffH
	DB	0ffH
	DB	0ffH
	DB	07fH
	ORG $+7
Add_out_data_19_4 DB 03H
	DB	0ffH
	DB	0ffH
	DB	0ffH
	DB	0ffH
	DB	0feH
	DB	0ffH
	DB	0ffH
	DB	0ffH
	DB	0ffH
	DB	0ffH
	DB	0ffH
	DB	0ffH
	DB	0ffH
	DB	0ffH
	DB	0ffH
	DB	07fH
	ORG $+7
Add_out_data_19_5 DB 03H
	DB	00H
	DB	00H
	DB	00H
	DB	00H
	DB	0ffH
	DB	0ffH
	DB	0ffH
	DB	0ffH
	ORG $+7
Add_out_data_19_6 DB 03H
	DB	0ffH
	DB	0ffH
	DB	0ffH
	DB	0ffH
	DB	0feH
	DB	0ffH
	DB	0ffH
	DB	0ffH
	ORG $+7
Add_out_data_19_7 DB 03H
	DB	00H
	DB	00H
	DB	00H
	DB	00H
	DB	0ffH
	DB	0ffH
	DB	0ffH
	DB	07fH
	ORG $+7
Add_out_data_19_8 DB 03H
	DB	0ffH
	DB	0ffH
	DB	0ffH
	DB	0ffH
	DB	0feH
	DB	0ffH
	DB	0ffH
	DB	07fH
	ORG $+3
Add_out_data_19_11 DB 01H
	DB	00H
	DB	00H
	DB	00H
	DB	080H
	ORG $+3
Add_out_data_19_12 DB 01H
	DB	01H
	DB	00H
	DB	00H
	DB	080H
	ORG $+3
Add_out_data_19_13 DB 01H
	DB	0ffH
	DB	0ffH
	DB	0ffH
	DB	0ffH
	ORG $+3
Add_out_data_19_19 DB 01H
	DB	00H
	DB	00H
	DB	00H
	DB	00H
	DB	02H
	ORG $+6
Add_out_data_19_20 DB 01H
	DB	0ffH
	DB	0ffH
	DB	0ffH
	DB	0ffH
	DB	00H
	DB	00H
	DB	00H
	DB	080H
	ORG $+7
Add_out_data_19_21 DB 01H
	DB	00H
	DB	00H
	DB	00H
	DB	00H
	DB	01H
	DB	00H
	DB	00H
	DB	080H
	ORG $+7
Add_out_data_19_22 DB 01H
	DB	0ffH
	DB	0ffH
	DB	0ffH
	DB	0ffH
	DB	00H
	DB	00H
	DB	00H
	DB	00H
	DB	01H
	ORG $+6
Add_out_data_19_23 DB 01H
	DB	00H
	DB	00H
	DB	00H
	DB	00H
	DB	01H
	DB	00H
	DB	00H
	DB	00H
	DB	01H
	ORG $+6
Add_out_data_19_24 DB 01H
	DB	0ffH
	DB	0ffH
	DB	0ffH
	DB	0ffH
	DB	00H
	DB	00H
	DB	00H
	DB	00H
	DB	00H
	DB	00H
	DB	00H
	DB	00H
	DB	00H
	DB	00H
	DB	00H
	DB	080H
	ORG $+7
Add_out_data_19_25 DB 01H
	DB	00H
	DB	00H
	DB	00H
	DB	00H
	DB	01H
	DB	00H
	DB	00H
	DB	00H
	DB	00H
	DB	00H
	DB	00H
	DB	00H
	DB	00H
	DB	00H
	DB	00H
	DB	080H
	ORG $+7
Add_out_data_19_26 DB 01H
	DB	0ffH
	DB	0ffH
	DB	0ffH
	DB	0ffH
	DB	00H
	DB	00H
	DB	00H
	DB	00H
	DB	00H
	DB	00H
	DB	00H
	DB	00H
	DB	00H
	DB	00H
	DB	00H
	DB	00H
	DB	01H
	ORG $+6
Add_out_data_19_27 DB 01H
	DB	00H
	DB	00H
	DB	00H
	DB	00H
	DB	01H
	DB	00H
	DB	00H
	DB	00H
	DB	00H
	DB	00H
	DB	00H
	DB	00H
	DB	00H
	DB	00H
	DB	00H
	DB	00H
	DB	01H
	ORG $+6
Add_out_data_20_1 DB 03H
	DB	01H
	DB	00H
	DB	00H
	DB	00H
	DB	00H
	DB	00H
	DB	00H
	DB	080H
	DB	0ffH
	DB	0ffH
	DB	0ffH
	DB	0ffH
	DB	0ffH
	DB	0ffH
	DB	0ffH
	DB	0ffH
	ORG $+7
Add_out_data_20_2 DB 03H
	DB	00H
	DB	00H
	DB	00H
	DB	00H
	DB	00H
	DB	00H
	DB	00H
	DB	080H
	DB	0ffH
	DB	0ffH
	DB	0ffH
	DB	0ffH
	DB	0ffH
	DB	0ffH
	DB	0ffH
	DB	0ffH
	ORG $+7
Add_out_data_20_3 DB 03H
	DB	01H
	DB	00H
	DB	00H
	DB	00H
	DB	00H
	DB	00H
	DB	00H
	DB	080H
	DB	0ffH
	DB	0ffH
	DB	0ffH
	DB	0ffH
	DB	0ffH
	DB	0ffH
	DB	0ffH
	DB	07fH
	ORG $+7
Add_out_data_20_4 DB 03H
	DB	00H
	DB	00H
	DB	00H
	DB	00H
	DB	00H
	DB	00H
	DB	00H
	DB	080H
	DB	0ffH
	DB	0ffH
	DB	0ffH
	DB	0ffH
	DB	0ffH
	DB	0ffH
	DB	0ffH
	DB	07fH
	ORG $+7
Add_out_data_20_5 DB 03H
	DB	01H
	DB	00H
	DB	00H
	DB	00H
	DB	00H
	DB	00H
	DB	00H
	DB	080H
	ORG $+7
Add_out_data_20_6 DB 03H
	DB	00H
	DB	00H
	DB	00H
	DB	00H
	DB	00H
	DB	00H
	DB	00H
	DB	080H
	ORG $+7
Add_out_data_20_9 DB 01H
	DB	0ffH
	DB	0ffH
	DB	0ffH
	DB	0ffH
	DB	0feH
	DB	0ffH
	DB	0ffH
	DB	07fH
	ORG $+7
Add_out_data_20_10 DB 01H
	DB	00H
	DB	00H
	DB	00H
	DB	00H
	DB	0ffH
	DB	0ffH
	DB	0ffH
	DB	07fH
	ORG $+7
Add_out_data_20_11 DB 01H
	DB	0ffH
	DB	0ffH
	DB	0ffH
	DB	07fH
	DB	0ffH
	DB	0ffH
	DB	0ffH
	DB	07fH
	ORG $+7
Add_out_data_20_12 DB 01H
	DB	00H
	DB	00H
	DB	00H
	DB	080H
	DB	0ffH
	DB	0ffH
	DB	0ffH
	DB	07fH
	ORG $+7
Add_out_data_20_13 DB 01H
	DB	0feH
	DB	0ffH
	DB	0ffH
	DB	0ffH
	DB	0ffH
	DB	0ffH
	DB	0ffH
	DB	07fH
	ORG $+7
Add_out_data_20_14 DB 01H
	DB	0ffH
	DB	0ffH
	DB	0ffH
	DB	0ffH
	DB	0ffH
	DB	0ffH
	DB	0ffH
	DB	07fH
	ORG $+7
Add_out_data_20_15 DB 01H
	DB	00H
	DB	00H
	DB	00H
	DB	00H
	DB	00H
	DB	00H
	DB	00H
	DB	080H
	ORG $+7
Add_out_data_20_16 DB 01H
	DB	0feH
	DB	0ffH
	DB	0ffH
	DB	07fH
	DB	00H
	DB	00H
	DB	00H
	DB	080H
	ORG $+7
Add_out_data_20_17 DB 01H
	DB	0ffH
	DB	0ffH
	DB	0ffH
	DB	07fH
	DB	00H
	DB	00H
	DB	00H
	DB	080H
	ORG $+7
Add_out_data_20_18 DB 01H
	DB	0feH
	DB	0ffH
	DB	0ffH
	DB	0ffH
	DB	00H
	DB	00H
	DB	00H
	DB	080H
	ORG $+7
Add_out_data_20_19 DB 01H
	DB	0ffH
	DB	0ffH
	DB	0ffH
	DB	0ffH
	DB	00H
	DB	00H
	DB	00H
	DB	080H
	ORG $+7
Add_out_data_20_20 DB 01H
	DB	0feH
	DB	0ffH
	DB	0ffH
	DB	0ffH
	DB	0ffH
	DB	0ffH
	DB	0ffH
	DB	0ffH
	ORG $+7
Add_out_data_20_21 DB 01H
	DB	0ffH
	DB	0ffH
	DB	0ffH
	DB	0ffH
	DB	0ffH
	DB	0ffH
	DB	0ffH
	DB	0ffH
	ORG $+7
Add_out_data_20_22 DB 01H
	DB	0feH
	DB	0ffH
	DB	0ffH
	DB	0ffH
	DB	0ffH
	DB	0ffH
	DB	0ffH
	DB	07fH
	DB	01H
	ORG $+6
Add_out_data_20_23 DB 01H
	DB	0ffH
	DB	0ffH
	DB	0ffH
	DB	0ffH
	DB	0ffH
	DB	0ffH
	DB	0ffH
	DB	07fH
	DB	01H
	ORG $+6
Add_out_data_20_24 DB 01H
	DB	0feH
	DB	0ffH
	DB	0ffH
	DB	0ffH
	DB	0ffH
	DB	0ffH
	DB	0ffH
	DB	07fH
	DB	00H
	DB	00H
	DB	00H
	DB	00H
	DB	00H
	DB	00H
	DB	00H
	DB	080H
	ORG $+7
Add_out_data_20_25 DB 01H
	DB	0ffH
	DB	0ffH
	DB	0ffH
	DB	0ffH
	DB	0ffH
	DB	0ffH
	DB	0ffH
	DB	07fH
	DB	00H
	DB	00H
	DB	00H
	DB	00H
	DB	00H
	DB	00H
	DB	00H
	DB	080H
	ORG $+7
Add_out_data_20_26 DB 01H
	DB	0feH
	DB	0ffH
	DB	0ffH
	DB	0ffH
	DB	0ffH
	DB	0ffH
	DB	0ffH
	DB	07fH
	DB	00H
	DB	00H
	DB	00H
	DB	00H
	DB	00H
	DB	00H
	DB	00H
	DB	00H
	DB	01H
	ORG $+6
Add_out_data_20_27 DB 01H
	DB	0ffH
	DB	0ffH
	DB	0ffH
	DB	0ffH
	DB	0ffH
	DB	0ffH
	DB	0ffH
	DB	07fH
	DB	00H
	DB	00H
	DB	00H
	DB	00H
	DB	00H
	DB	00H
	DB	00H
	DB	00H
	DB	01H
	ORG $+6
Add_out_data_21_1 DB 03H
	DB	00H
	DB	00H
	DB	00H
	DB	00H
	DB	00H
	DB	00H
	DB	00H
	DB	080H
	DB	0ffH
	DB	0ffH
	DB	0ffH
	DB	0ffH
	DB	0ffH
	DB	0ffH
	DB	0ffH
	DB	0ffH
	ORG $+7
Add_out_data_21_2 DB 03H
	DB	0ffH
	DB	0ffH
	DB	0ffH
	DB	0ffH
	DB	0ffH
	DB	0ffH
	DB	0ffH
	DB	07fH
	DB	0ffH
	DB	0ffH
	DB	0ffH
	DB	0ffH
	DB	0ffH
	DB	0ffH
	DB	0ffH
	DB	0ffH
	ORG $+7
Add_out_data_21_3 DB 03H
	DB	00H
	DB	00H
	DB	00H
	DB	00H
	DB	00H
	DB	00H
	DB	00H
	DB	080H
	DB	0ffH
	DB	0ffH
	DB	0ffH
	DB	0ffH
	DB	0ffH
	DB	0ffH
	DB	0ffH
	DB	07fH
	ORG $+7
Add_out_data_21_4 DB 03H
	DB	0ffH
	DB	0ffH
	DB	0ffH
	DB	0ffH
	DB	0ffH
	DB	0ffH
	DB	0ffH
	DB	07fH
	DB	0ffH
	DB	0ffH
	DB	0ffH
	DB	0ffH
	DB	0ffH
	DB	0ffH
	DB	0ffH
	DB	07fH
	ORG $+7
Add_out_data_21_5 DB 03H
	DB	00H
	DB	00H
	DB	00H
	DB	00H
	DB	00H
	DB	00H
	DB	00H
	DB	080H
	ORG $+7
Add_out_data_21_6 DB 03H
	DB	0ffH
	DB	0ffH
	DB	0ffH
	DB	0ffH
	DB	0ffH
	DB	0ffH
	DB	0ffH
	DB	07fH
	ORG $+7
Add_out_data_21_9 DB 01H
	DB	00H
	DB	00H
	DB	00H
	DB	00H
	DB	0ffH
	DB	0ffH
	DB	0ffH
	DB	07fH
	ORG $+7
Add_out_data_21_10 DB 01H
	DB	01H
	DB	00H
	DB	00H
	DB	00H
	DB	0ffH
	DB	0ffH
	DB	0ffH
	DB	07fH
	ORG $+7
Add_out_data_21_11 DB 01H
	DB	00H
	DB	00H
	DB	00H
	DB	080H
	DB	0ffH
	DB	0ffH
	DB	0ffH
	DB	07fH
	ORG $+7
Add_out_data_21_12 DB 01H
	DB	01H
	DB	00H
	DB	00H
	DB	080H
	DB	0ffH
	DB	0ffH
	DB	0ffH
	DB	07fH
	ORG $+7
Add_out_data_21_13 DB 01H
	DB	0ffH
	DB	0ffH
	DB	0ffH
	DB	0ffH
	DB	0ffH
	DB	0ffH
	DB	0ffH
	DB	07fH
	ORG $+7
Add_out_data_21_14 DB 01H
	DB	00H
	DB	00H
	DB	00H
	DB	00H
	DB	00H
	DB	00H
	DB	00H
	DB	080H
	ORG $+7
Add_out_data_21_15 DB 01H
	DB	01H
	DB	00H
	DB	00H
	DB	00H
	DB	00H
	DB	00H
	DB	00H
	DB	080H
	ORG $+7
Add_out_data_21_16 DB 01H
	DB	0ffH
	DB	0ffH
	DB	0ffH
	DB	07fH
	DB	00H
	DB	00H
	DB	00H
	DB	080H
	ORG $+7
Add_out_data_21_17 DB 01H
	DB	00H
	DB	00H
	DB	00H
	DB	080H
	DB	00H
	DB	00H
	DB	00H
	DB	080H
	ORG $+7
Add_out_data_21_18 DB 01H
	DB	0ffH
	DB	0ffH
	DB	0ffH
	DB	0ffH
	DB	00H
	DB	00H
	DB	00H
	DB	080H
	ORG $+7
Add_out_data_21_19 DB 01H
	DB	00H
	DB	00H
	DB	00H
	DB	00H
	DB	01H
	DB	00H
	DB	00H
	DB	080H
	ORG $+7
Add_out_data_21_20 DB 01H
	DB	0ffH
	DB	0ffH
	DB	0ffH
	DB	0ffH
	DB	0ffH
	DB	0ffH
	DB	0ffH
	DB	0ffH
	ORG $+7
Add_out_data_21_21 DB 01H
	DB	00H
	DB	00H
	DB	00H
	DB	00H
	DB	00H
	DB	00H
	DB	00H
	DB	00H
	DB	01H
	ORG $+6
Add_out_data_21_22 DB 01H
	DB	0ffH
	DB	0ffH
	DB	0ffH
	DB	0ffH
	DB	0ffH
	DB	0ffH
	DB	0ffH
	DB	07fH
	DB	01H
	ORG $+6
Add_out_data_21_23 DB 01H
	DB	00H
	DB	00H
	DB	00H
	DB	00H
	DB	00H
	DB	00H
	DB	00H
	DB	080H
	DB	01H
	ORG $+6
Add_out_data_21_24 DB 01H
	DB	0ffH
	DB	0ffH
	DB	0ffH
	DB	0ffH
	DB	0ffH
	DB	0ffH
	DB	0ffH
	DB	07fH
	DB	00H
	DB	00H
	DB	00H
	DB	00H
	DB	00H
	DB	00H
	DB	00H
	DB	080H
	ORG $+7
Add_out_data_21_25 DB 01H
	DB	00H
	DB	00H
	DB	00H
	DB	00H
	DB	00H
	DB	00H
	DB	00H
	DB	080H
	DB	00H
	DB	00H
	DB	00H
	DB	00H
	DB	00H
	DB	00H
	DB	00H
	DB	080H
	ORG $+7
Add_out_data_21_26 DB 01H
	DB	0ffH
	DB	0ffH
	DB	0ffH
	DB	0ffH
	DB	0ffH
	DB	0ffH
	DB	0ffH
	DB	07fH
	DB	00H
	DB	00H
	DB	00H
	DB	00H
	DB	00H
	DB	00H
	DB	00H
	DB	00H
	DB	01H
	ORG $+6
Add_out_data_21_27 DB 01H
	DB	00H
	DB	00H
	DB	00H
	DB	00H
	DB	00H
	DB	00H
	DB	00H
	DB	080H
	DB	00H
	DB	00H
	DB	00H
	DB	00H
	DB	00H
	DB	00H
	DB	00H
	DB	00H
	DB	01H
	ORG $+6
Add_out_data_22_1 DB 03H
	DB	01H
	DB	00H
	DB	00H
	DB	00H
	DB	00H
	DB	00H
	DB	00H
	DB	00H
	DB	0ffH
	DB	0ffH
	DB	0ffH
	DB	0ffH
	DB	0ffH
	DB	0ffH
	DB	0ffH
	DB	0ffH
	ORG $+7
Add_out_data_22_2 DB 03H
	DB	00H
	DB	00H
	DB	00H
	DB	00H
	DB	00H
	DB	00H
	DB	00H
	DB	00H
	DB	0ffH
	DB	0ffH
	DB	0ffH
	DB	0ffH
	DB	0ffH
	DB	0ffH
	DB	0ffH
	DB	0ffH
	ORG $+7
Add_out_data_22_3 DB 03H
	DB	01H
	DB	00H
	DB	00H
	DB	00H
	DB	00H
	DB	00H
	DB	00H
	DB	00H
	DB	0ffH
	DB	0ffH
	DB	0ffH
	DB	0ffH
	DB	0ffH
	DB	0ffH
	DB	0ffH
	DB	07fH
	ORG $+7
Add_out_data_22_4 DB 03H
	DB	00H
	DB	00H
	DB	00H
	DB	00H
	DB	00H
	DB	00H
	DB	00H
	DB	00H
	DB	0ffH
	DB	0ffH
	DB	0ffH
	DB	0ffH
	DB	0ffH
	DB	0ffH
	DB	0ffH
	DB	07fH
	ORG $+7
Add_out_data_22_7 DB 01H
	DB	0ffH
	DB	0ffH
	DB	0ffH
	DB	0ffH
	DB	0ffH
	DB	0ffH
	DB	0ffH
	DB	07fH
	ORG $+7
Add_out_data_22_8 DB 01H
	DB	00H
	DB	00H
	DB	00H
	DB	00H
	DB	00H
	DB	00H
	DB	00H
	DB	080H
	ORG $+7
Add_out_data_22_9 DB 01H
	DB	0ffH
	DB	0ffH
	DB	0ffH
	DB	0ffH
	DB	0feH
	DB	0ffH
	DB	0ffH
	DB	0ffH
	ORG $+7
Add_out_data_22_10 DB 01H
	DB	00H
	DB	00H
	DB	00H
	DB	00H
	DB	0ffH
	DB	0ffH
	DB	0ffH
	DB	0ffH
	ORG $+7
Add_out_data_22_11 DB 01H
	DB	0ffH
	DB	0ffH
	DB	0ffH
	DB	07fH
	DB	0ffH
	DB	0ffH
	DB	0ffH
	DB	0ffH
	ORG $+7
Add_out_data_22_12 DB 01H
	DB	00H
	DB	00H
	DB	00H
	DB	080H
	DB	0ffH
	DB	0ffH
	DB	0ffH
	DB	0ffH
	ORG $+7
Add_out_data_22_13 DB 01H
	DB	0feH
	DB	0ffH
	DB	0ffH
	DB	0ffH
	DB	0ffH
	DB	0ffH
	DB	0ffH
	DB	0ffH
	ORG $+7
Add_out_data_22_14 DB 01H
	DB	0ffH
	DB	0ffH
	DB	0ffH
	DB	0ffH
	DB	0ffH
	DB	0ffH
	DB	0ffH
	DB	0ffH
	ORG $+7
Add_out_data_22_15 DB 01H
	DB	00H
	DB	00H
	DB	00H
	DB	00H
	DB	00H
	DB	00H
	DB	00H
	DB	00H
	DB	01H
	ORG $+6
Add_out_data_22_16 DB 01H
	DB	0feH
	DB	0ffH
	DB	0ffH
	DB	07fH
	DB	00H
	DB	00H
	DB	00H
	DB	00H
	DB	01H
	ORG $+6
Add_out_data_22_17 DB 01H
	DB	0ffH
	DB	0ffH
	DB	0ffH
	DB	07fH
	DB	00H
	DB	00H
	DB	00H
	DB	00H
	DB	01H
	ORG $+6
Add_out_data_22_18 DB 01H
	DB	0feH
	DB	0ffH
	DB	0ffH
	DB	0ffH
	DB	00H
	DB	00H
	DB	00H
	DB	00H
	DB	01H
	ORG $+6
Add_out_data_22_19 DB 01H
	DB	0ffH
	DB	0ffH
	DB	0ffH
	DB	0ffH
	DB	00H
	DB	00H
	DB	00H
	DB	00H
	DB	01H
	ORG $+6
Add_out_data_22_20 DB 01H
	DB	0feH
	DB	0ffH
	DB	0ffH
	DB	0ffH
	DB	0ffH
	DB	0ffH
	DB	0ffH
	DB	07fH
	DB	01H
	ORG $+6
Add_out_data_22_21 DB 01H
	DB	0ffH
	DB	0ffH
	DB	0ffH
	DB	0ffH
	DB	0ffH
	DB	0ffH
	DB	0ffH
	DB	07fH
	DB	01H
	ORG $+6
Add_out_data_22_22 DB 01H
	DB	0feH
	DB	0ffH
	DB	0ffH
	DB	0ffH
	DB	0ffH
	DB	0ffH
	DB	0ffH
	DB	0ffH
	DB	01H
	ORG $+6
Add_out_data_22_23 DB 01H
	DB	0ffH
	DB	0ffH
	DB	0ffH
	DB	0ffH
	DB	0ffH
	DB	0ffH
	DB	0ffH
	DB	0ffH
	DB	01H
	ORG $+6
Add_out_data_22_24 DB 01H
	DB	0feH
	DB	0ffH
	DB	0ffH
	DB	0ffH
	DB	0ffH
	DB	0ffH
	DB	0ffH
	DB	0ffH
	DB	00H
	DB	00H
	DB	00H
	DB	00H
	DB	00H
	DB	00H
	DB	00H
	DB	080H
	ORG $+7
Add_out_data_22_25 DB 01H
	DB	0ffH
	DB	0ffH
	DB	0ffH
	DB	0ffH
	DB	0ffH
	DB	0ffH
	DB	0ffH
	DB	0ffH
	DB	00H
	DB	00H
	DB	00H
	DB	00H
	DB	00H
	DB	00H
	DB	00H
	DB	080H
	ORG $+7
Add_out_data_22_26 DB 01H
	DB	0feH
	DB	0ffH
	DB	0ffH
	DB	0ffH
	DB	0ffH
	DB	0ffH
	DB	0ffH
	DB	0ffH
	DB	00H
	DB	00H
	DB	00H
	DB	00H
	DB	00H
	DB	00H
	DB	00H
	DB	00H
	DB	01H
	ORG $+6
Add_out_data_22_27 DB 01H
	DB	0ffH
	DB	0ffH
	DB	0ffH
	DB	0ffH
	DB	0ffH
	DB	0ffH
	DB	0ffH
	DB	0ffH
	DB	00H
	DB	00H
	DB	00H
	DB	00H
	DB	00H
	DB	00H
	DB	00H
	DB	00H
	DB	01H
	ORG $+6
Add_out_data_23_1 DB 03H
	DB	00H
	DB	00H
	DB	00H
	DB	00H
	DB	00H
	DB	00H
	DB	00H
	DB	00H
	DB	0ffH
	DB	0ffH
	DB	0ffH
	DB	0ffH
	DB	0ffH
	DB	0ffH
	DB	0ffH
	DB	0ffH
	ORG $+7
Add_out_data_23_2 DB 03H
	DB	0ffH
	DB	0ffH
	DB	0ffH
	DB	0ffH
	DB	0ffH
	DB	0ffH
	DB	0ffH
	DB	0ffH
	DB	0feH
	DB	0ffH
	DB	0ffH
	DB	0ffH
	DB	0ffH
	DB	0ffH
	DB	0ffH
	DB	0ffH
	ORG $+7
Add_out_data_23_3 DB 03H
	DB	00H
	DB	00H
	DB	00H
	DB	00H
	DB	00H
	DB	00H
	DB	00H
	DB	00H
	DB	0ffH
	DB	0ffH
	DB	0ffH
	DB	0ffH
	DB	0ffH
	DB	0ffH
	DB	0ffH
	DB	07fH
	ORG $+7
Add_out_data_23_4 DB 03H
	DB	0ffH
	DB	0ffH
	DB	0ffH
	DB	0ffH
	DB	0ffH
	DB	0ffH
	DB	0ffH
	DB	0ffH
	DB	0feH
	DB	0ffH
	DB	0ffH
	DB	0ffH
	DB	0ffH
	DB	0ffH
	DB	0ffH
	DB	07fH
	ORG $+7
Add_out_data_23_7 DB 01H
	DB	00H
	DB	00H
	DB	00H
	DB	00H
	DB	00H
	DB	00H
	DB	00H
	DB	080H
	ORG $+7
Add_out_data_23_8 DB 01H
	DB	01H
	DB	00H
	DB	00H
	DB	00H
	DB	00H
	DB	00H
	DB	00H
	DB	080H
	ORG $+7
Add_out_data_23_9 DB 01H
	DB	00H
	DB	00H
	DB	00H
	DB	00H
	DB	0ffH
	DB	0ffH
	DB	0ffH
	DB	0ffH
	ORG $+7
Add_out_data_23_10 DB 01H
	DB	01H
	DB	00H
	DB	00H
	DB	00H
	DB	0ffH
	DB	0ffH
	DB	0ffH
	DB	0ffH
	ORG $+7
Add_out_data_23_11 DB 01H
	DB	00H
	DB	00H
	DB	00H
	DB	080H
	DB	0ffH
	DB	0ffH
	DB	0ffH
	DB	0ffH
	ORG $+7
Add_out_data_23_12 DB 01H
	DB	01H
	DB	00H
	DB	00H
	DB	080H
	DB	0ffH
	DB	0ffH
	DB	0ffH
	DB	0ffH
	ORG $+7
Add_out_data_23_13 DB 01H
	DB	0ffH
	DB	0ffH
	DB	0ffH
	DB	0ffH
	DB	0ffH
	DB	0ffH
	DB	0ffH
	DB	0ffH
	ORG $+7
Add_out_data_23_14 DB 01H
	DB	00H
	DB	00H
	DB	00H
	DB	00H
	DB	00H
	DB	00H
	DB	00H
	DB	00H
	DB	01H
	ORG $+6
Add_out_data_23_15 DB 01H
	DB	01H
	DB	00H
	DB	00H
	DB	00H
	DB	00H
	DB	00H
	DB	00H
	DB	00H
	DB	01H
	ORG $+6
Add_out_data_23_16 DB 01H
	DB	0ffH
	DB	0ffH
	DB	0ffH
	DB	07fH
	DB	00H
	DB	00H
	DB	00H
	DB	00H
	DB	01H
	ORG $+6
Add_out_data_23_17 DB 01H
	DB	00H
	DB	00H
	DB	00H
	DB	080H
	DB	00H
	DB	00H
	DB	00H
	DB	00H
	DB	01H
	ORG $+6
Add_out_data_23_18 DB 01H
	DB	0ffH
	DB	0ffH
	DB	0ffH
	DB	0ffH
	DB	00H
	DB	00H
	DB	00H
	DB	00H
	DB	01H
	ORG $+6
Add_out_data_23_19 DB 01H
	DB	00H
	DB	00H
	DB	00H
	DB	00H
	DB	01H
	DB	00H
	DB	00H
	DB	00H
	DB	01H
	ORG $+6
Add_out_data_23_20 DB 01H
	DB	0ffH
	DB	0ffH
	DB	0ffH
	DB	0ffH
	DB	0ffH
	DB	0ffH
	DB	0ffH
	DB	07fH
	DB	01H
	ORG $+6
Add_out_data_23_21 DB 01H
	DB	00H
	DB	00H
	DB	00H
	DB	00H
	DB	00H
	DB	00H
	DB	00H
	DB	080H
	DB	01H
	ORG $+6
Add_out_data_23_22 DB 01H
	DB	0ffH
	DB	0ffH
	DB	0ffH
	DB	0ffH
	DB	0ffH
	DB	0ffH
	DB	0ffH
	DB	0ffH
	DB	01H
	ORG $+6
Add_out_data_23_23 DB 01H
	DB	00H
	DB	00H
	DB	00H
	DB	00H
	DB	00H
	DB	00H
	DB	00H
	DB	00H
	DB	02H
	ORG $+6
Add_out_data_23_24 DB 01H
	DB	0ffH
	DB	0ffH
	DB	0ffH
	DB	0ffH
	DB	0ffH
	DB	0ffH
	DB	0ffH
	DB	0ffH
	DB	00H
	DB	00H
	DB	00H
	DB	00H
	DB	00H
	DB	00H
	DB	00H
	DB	080H
	ORG $+7
Add_out_data_23_25 DB 01H
	DB	00H
	DB	00H
	DB	00H
	DB	00H
	DB	00H
	DB	00H
	DB	00H
	DB	00H
	DB	01H
	DB	00H
	DB	00H
	DB	00H
	DB	00H
	DB	00H
	DB	00H
	DB	080H
	ORG $+7
Add_out_data_23_26 DB 01H
	DB	0ffH
	DB	0ffH
	DB	0ffH
	DB	0ffH
	DB	0ffH
	DB	0ffH
	DB	0ffH
	DB	0ffH
	DB	00H
	DB	00H
	DB	00H
	DB	00H
	DB	00H
	DB	00H
	DB	00H
	DB	00H
	DB	01H
	ORG $+6
Add_out_data_23_27 DB 01H
	DB	00H
	DB	00H
	DB	00H
	DB	00H
	DB	00H
	DB	00H
	DB	00H
	DB	00H
	DB	01H
	DB	00H
	DB	00H
	DB	00H
	DB	00H
	DB	00H
	DB	00H
	DB	00H
	DB	01H
	ORG $+6
Add_out_data_24_1 DB 03H
	DB	01H
	DB	00H
	DB	00H
	DB	00H
	DB	00H
	DB	00H
	DB	00H
	DB	00H
	DB	00H
	DB	00H
	DB	00H
	DB	00H
	DB	00H
	DB	00H
	DB	00H
	DB	080H
	ORG $+7
Add_out_data_24_2 DB 03H
	DB	00H
	DB	00H
	DB	00H
	DB	00H
	DB	00H
	DB	00H
	DB	00H
	DB	00H
	DB	00H
	DB	00H
	DB	00H
	DB	00H
	DB	00H
	DB	00H
	DB	00H
	DB	080H
	ORG $+7
Add_out_data_24_5 DB 01H
	DB	0ffH
	DB	0ffH
	DB	0ffH
	DB	0ffH
	DB	0ffH
	DB	0ffH
	DB	0ffH
	DB	0ffH
	DB	0feH
	DB	0ffH
	DB	0ffH
	DB	0ffH
	DB	0ffH
	DB	0ffH
	DB	0ffH
	DB	07fH
	ORG $+7
Add_out_data_24_6 DB 01H
	DB	00H
	DB	00H
	DB	00H
	DB	00H
	DB	00H
	DB	00H
	DB	00H
	DB	00H
	DB	0ffH
	DB	0ffH
	DB	0ffH
	DB	0ffH
	DB	0ffH
	DB	0ffH
	DB	0ffH
	DB	07fH
	ORG $+7
Add_out_data_24_7 DB 01H
	DB	0ffH
	DB	0ffH
	DB	0ffH
	DB	0ffH
	DB	0ffH
	DB	0ffH
	DB	0ffH
	DB	07fH
	DB	0ffH
	DB	0ffH
	DB	0ffH
	DB	0ffH
	DB	0ffH
	DB	0ffH
	DB	0ffH
	DB	07fH
	ORG $+7
Add_out_data_24_8 DB 01H
	DB	00H
	DB	00H
	DB	00H
	DB	00H
	DB	00H
	DB	00H
	DB	00H
	DB	080H
	DB	0ffH
	DB	0ffH
	DB	0ffH
	DB	0ffH
	DB	0ffH
	DB	0ffH
	DB	0ffH
	DB	07fH
	ORG $+7
Add_out_data_24_9 DB 01H
	DB	0ffH
	DB	0ffH
	DB	0ffH
	DB	0ffH
	DB	0feH
	DB	0ffH
	DB	0ffH
	DB	0ffH
	DB	0ffH
	DB	0ffH
	DB	0ffH
	DB	0ffH
	DB	0ffH
	DB	0ffH
	DB	0ffH
	DB	07fH
	ORG $+7
Add_out_data_24_10 DB 01H
	DB	00H
	DB	00H
	DB	00H
	DB	00H
	DB	0ffH
	DB	0ffH
	DB	0ffH
	DB	0ffH
	DB	0ffH
	DB	0ffH
	DB	0ffH
	DB	0ffH
	DB	0ffH
	DB	0ffH
	DB	0ffH
	DB	07fH
	ORG $+7
Add_out_data_24_11 DB 01H
	DB	0ffH
	DB	0ffH
	DB	0ffH
	DB	07fH
	DB	0ffH
	DB	0ffH
	DB	0ffH
	DB	0ffH
	DB	0ffH
	DB	0ffH
	DB	0ffH
	DB	0ffH
	DB	0ffH
	DB	0ffH
	DB	0ffH
	DB	07fH
	ORG $+7
Add_out_data_24_12 DB 01H
	DB	00H
	DB	00H
	DB	00H
	DB	080H
	DB	0ffH
	DB	0ffH
	DB	0ffH
	DB	0ffH
	DB	0ffH
	DB	0ffH
	DB	0ffH
	DB	0ffH
	DB	0ffH
	DB	0ffH
	DB	0ffH
	DB	07fH
	ORG $+7
Add_out_data_24_13 DB 01H
	DB	0feH
	DB	0ffH
	DB	0ffH
	DB	0ffH
	DB	0ffH
	DB	0ffH
	DB	0ffH
	DB	0ffH
	DB	0ffH
	DB	0ffH
	DB	0ffH
	DB	0ffH
	DB	0ffH
	DB	0ffH
	DB	0ffH
	DB	07fH
	ORG $+7
Add_out_data_24_14 DB 01H
	DB	0ffH
	DB	0ffH
	DB	0ffH
	DB	0ffH
	DB	0ffH
	DB	0ffH
	DB	0ffH
	DB	0ffH
	DB	0ffH
	DB	0ffH
	DB	0ffH
	DB	0ffH
	DB	0ffH
	DB	0ffH
	DB	0ffH
	DB	07fH
	ORG $+7
Add_out_data_24_15 DB 01H
	DB	00H
	DB	00H
	DB	00H
	DB	00H
	DB	00H
	DB	00H
	DB	00H
	DB	00H
	DB	00H
	DB	00H
	DB	00H
	DB	00H
	DB	00H
	DB	00H
	DB	00H
	DB	080H
	ORG $+7
Add_out_data_24_16 DB 01H
	DB	0feH
	DB	0ffH
	DB	0ffH
	DB	07fH
	DB	00H
	DB	00H
	DB	00H
	DB	00H
	DB	00H
	DB	00H
	DB	00H
	DB	00H
	DB	00H
	DB	00H
	DB	00H
	DB	080H
	ORG $+7
Add_out_data_24_17 DB 01H
	DB	0ffH
	DB	0ffH
	DB	0ffH
	DB	07fH
	DB	00H
	DB	00H
	DB	00H
	DB	00H
	DB	00H
	DB	00H
	DB	00H
	DB	00H
	DB	00H
	DB	00H
	DB	00H
	DB	080H
	ORG $+7
Add_out_data_24_18 DB 01H
	DB	0feH
	DB	0ffH
	DB	0ffH
	DB	0ffH
	DB	00H
	DB	00H
	DB	00H
	DB	00H
	DB	00H
	DB	00H
	DB	00H
	DB	00H
	DB	00H
	DB	00H
	DB	00H
	DB	080H
	ORG $+7
Add_out_data_24_19 DB 01H
	DB	0ffH
	DB	0ffH
	DB	0ffH
	DB	0ffH
	DB	00H
	DB	00H
	DB	00H
	DB	00H
	DB	00H
	DB	00H
	DB	00H
	DB	00H
	DB	00H
	DB	00H
	DB	00H
	DB	080H
	ORG $+7
Add_out_data_24_20 DB 01H
	DB	0feH
	DB	0ffH
	DB	0ffH
	DB	0ffH
	DB	0ffH
	DB	0ffH
	DB	0ffH
	DB	07fH
	DB	00H
	DB	00H
	DB	00H
	DB	00H
	DB	00H
	DB	00H
	DB	00H
	DB	080H
	ORG $+7
Add_out_data_24_21 DB 01H
	DB	0ffH
	DB	0ffH
	DB	0ffH
	DB	0ffH
	DB	0ffH
	DB	0ffH
	DB	0ffH
	DB	07fH
	DB	00H
	DB	00H
	DB	00H
	DB	00H
	DB	00H
	DB	00H
	DB	00H
	DB	080H
	ORG $+7
Add_out_data_24_22 DB 01H
	DB	0feH
	DB	0ffH
	DB	0ffH
	DB	0ffH
	DB	0ffH
	DB	0ffH
	DB	0ffH
	DB	0ffH
	DB	00H
	DB	00H
	DB	00H
	DB	00H
	DB	00H
	DB	00H
	DB	00H
	DB	080H
	ORG $+7
Add_out_data_24_23 DB 01H
	DB	0ffH
	DB	0ffH
	DB	0ffH
	DB	0ffH
	DB	0ffH
	DB	0ffH
	DB	0ffH
	DB	0ffH
	DB	00H
	DB	00H
	DB	00H
	DB	00H
	DB	00H
	DB	00H
	DB	00H
	DB	080H
	ORG $+7
Add_out_data_24_24 DB 01H
	DB	0feH
	DB	0ffH
	DB	0ffH
	DB	0ffH
	DB	0ffH
	DB	0ffH
	DB	0ffH
	DB	0ffH
	DB	0ffH
	DB	0ffH
	DB	0ffH
	DB	0ffH
	DB	0ffH
	DB	0ffH
	DB	0ffH
	DB	0ffH
	ORG $+7
Add_out_data_24_25 DB 01H
	DB	0ffH
	DB	0ffH
	DB	0ffH
	DB	0ffH
	DB	0ffH
	DB	0ffH
	DB	0ffH
	DB	0ffH
	DB	0ffH
	DB	0ffH
	DB	0ffH
	DB	0ffH
	DB	0ffH
	DB	0ffH
	DB	0ffH
	DB	0ffH
	ORG $+7
Add_out_data_24_26 DB 01H
	DB	0feH
	DB	0ffH
	DB	0ffH
	DB	0ffH
	DB	0ffH
	DB	0ffH
	DB	0ffH
	DB	0ffH
	DB	0ffH
	DB	0ffH
	DB	0ffH
	DB	0ffH
	DB	0ffH
	DB	0ffH
	DB	0ffH
	DB	07fH
	DB	01H
	ORG $+6
Add_out_data_24_27 DB 01H
	DB	0ffH
	DB	0ffH
	DB	0ffH
	DB	0ffH
	DB	0ffH
	DB	0ffH
	DB	0ffH
	DB	0ffH
	DB	0ffH
	DB	0ffH
	DB	0ffH
	DB	0ffH
	DB	0ffH
	DB	0ffH
	DB	0ffH
	DB	07fH
	DB	01H
	ORG $+6
Add_out_data_25_1 DB 03H
	DB	00H
	DB	00H
	DB	00H
	DB	00H
	DB	00H
	DB	00H
	DB	00H
	DB	00H
	DB	00H
	DB	00H
	DB	00H
	DB	00H
	DB	00H
	DB	00H
	DB	00H
	DB	080H
	ORG $+7
Add_out_data_25_2 DB 03H
	DB	0ffH
	DB	0ffH
	DB	0ffH
	DB	0ffH
	DB	0ffH
	DB	0ffH
	DB	0ffH
	DB	0ffH
	DB	0ffH
	DB	0ffH
	DB	0ffH
	DB	0ffH
	DB	0ffH
	DB	0ffH
	DB	0ffH
	DB	07fH
	ORG $+7
Add_out_data_25_5 DB 01H
	DB	00H
	DB	00H
	DB	00H
	DB	00H
	DB	00H
	DB	00H
	DB	00H
	DB	00H
	DB	0ffH
	DB	0ffH
	DB	0ffH
	DB	0ffH
	DB	0ffH
	DB	0ffH
	DB	0ffH
	DB	07fH
	ORG $+7
Add_out_data_25_6 DB 01H
	DB	01H
	DB	00H
	DB	00H
	DB	00H
	DB	00H
	DB	00H
	DB	00H
	DB	00H
	DB	0ffH
	DB	0ffH
	DB	0ffH
	DB	0ffH
	DB	0ffH
	DB	0ffH
	DB	0ffH
	DB	07fH
	ORG $+7
Add_out_data_25_7 DB 01H
	DB	00H
	DB	00H
	DB	00H
	DB	00H
	DB	00H
	DB	00H
	DB	00H
	DB	080H
	DB	0ffH
	DB	0ffH
	DB	0ffH
	DB	0ffH
	DB	0ffH
	DB	0ffH
	DB	0ffH
	DB	07fH
	ORG $+7
Add_out_data_25_8 DB 01H
	DB	01H
	DB	00H
	DB	00H
	DB	00H
	DB	00H
	DB	00H
	DB	00H
	DB	080H
	DB	0ffH
	DB	0ffH
	DB	0ffH
	DB	0ffH
	DB	0ffH
	DB	0ffH
	DB	0ffH
	DB	07fH
	ORG $+7
Add_out_data_25_9 DB 01H
	DB	00H
	DB	00H
	DB	00H
	DB	00H
	DB	0ffH
	DB	0ffH
	DB	0ffH
	DB	0ffH
	DB	0ffH
	DB	0ffH
	DB	0ffH
	DB	0ffH
	DB	0ffH
	DB	0ffH
	DB	0ffH
	DB	07fH
	ORG $+7
Add_out_data_25_10 DB 01H
	DB	01H
	DB	00H
	DB	00H
	DB	00H
	DB	0ffH
	DB	0ffH
	DB	0ffH
	DB	0ffH
	DB	0ffH
	DB	0ffH
	DB	0ffH
	DB	0ffH
	DB	0ffH
	DB	0ffH
	DB	0ffH
	DB	07fH
	ORG $+7
Add_out_data_25_11 DB 01H
	DB	00H
	DB	00H
	DB	00H
	DB	080H
	DB	0ffH
	DB	0ffH
	DB	0ffH
	DB	0ffH
	DB	0ffH
	DB	0ffH
	DB	0ffH
	DB	0ffH
	DB	0ffH
	DB	0ffH
	DB	0ffH
	DB	07fH
	ORG $+7
Add_out_data_25_12 DB 01H
	DB	01H
	DB	00H
	DB	00H
	DB	080H
	DB	0ffH
	DB	0ffH
	DB	0ffH
	DB	0ffH
	DB	0ffH
	DB	0ffH
	DB	0ffH
	DB	0ffH
	DB	0ffH
	DB	0ffH
	DB	0ffH
	DB	07fH
	ORG $+7
Add_out_data_25_13 DB 01H
	DB	0ffH
	DB	0ffH
	DB	0ffH
	DB	0ffH
	DB	0ffH
	DB	0ffH
	DB	0ffH
	DB	0ffH
	DB	0ffH
	DB	0ffH
	DB	0ffH
	DB	0ffH
	DB	0ffH
	DB	0ffH
	DB	0ffH
	DB	07fH
	ORG $+7
Add_out_data_25_14 DB 01H
	DB	00H
	DB	00H
	DB	00H
	DB	00H
	DB	00H
	DB	00H
	DB	00H
	DB	00H
	DB	00H
	DB	00H
	DB	00H
	DB	00H
	DB	00H
	DB	00H
	DB	00H
	DB	080H
	ORG $+7
Add_out_data_25_15 DB 01H
	DB	01H
	DB	00H
	DB	00H
	DB	00H
	DB	00H
	DB	00H
	DB	00H
	DB	00H
	DB	00H
	DB	00H
	DB	00H
	DB	00H
	DB	00H
	DB	00H
	DB	00H
	DB	080H
	ORG $+7
Add_out_data_25_16 DB 01H
	DB	0ffH
	DB	0ffH
	DB	0ffH
	DB	07fH
	DB	00H
	DB	00H
	DB	00H
	DB	00H
	DB	00H
	DB	00H
	DB	00H
	DB	00H
	DB	00H
	DB	00H
	DB	00H
	DB	080H
	ORG $+7
Add_out_data_25_17 DB 01H
	DB	00H
	DB	00H
	DB	00H
	DB	080H
	DB	00H
	DB	00H
	DB	00H
	DB	00H
	DB	00H
	DB	00H
	DB	00H
	DB	00H
	DB	00H
	DB	00H
	DB	00H
	DB	080H
	ORG $+7
Add_out_data_25_18 DB 01H
	DB	0ffH
	DB	0ffH
	DB	0ffH
	DB	0ffH
	DB	00H
	DB	00H
	DB	00H
	DB	00H
	DB	00H
	DB	00H
	DB	00H
	DB	00H
	DB	00H
	DB	00H
	DB	00H
	DB	080H
	ORG $+7
Add_out_data_25_19 DB 01H
	DB	00H
	DB	00H
	DB	00H
	DB	00H
	DB	01H
	DB	00H
	DB	00H
	DB	00H
	DB	00H
	DB	00H
	DB	00H
	DB	00H
	DB	00H
	DB	00H
	DB	00H
	DB	080H
	ORG $+7
Add_out_data_25_20 DB 01H
	DB	0ffH
	DB	0ffH
	DB	0ffH
	DB	0ffH
	DB	0ffH
	DB	0ffH
	DB	0ffH
	DB	07fH
	DB	00H
	DB	00H
	DB	00H
	DB	00H
	DB	00H
	DB	00H
	DB	00H
	DB	080H
	ORG $+7
Add_out_data_25_21 DB 01H
	DB	00H
	DB	00H
	DB	00H
	DB	00H
	DB	00H
	DB	00H
	DB	00H
	DB	080H
	DB	00H
	DB	00H
	DB	00H
	DB	00H
	DB	00H
	DB	00H
	DB	00H
	DB	080H
	ORG $+7
Add_out_data_25_22 DB 01H
	DB	0ffH
	DB	0ffH
	DB	0ffH
	DB	0ffH
	DB	0ffH
	DB	0ffH
	DB	0ffH
	DB	0ffH
	DB	00H
	DB	00H
	DB	00H
	DB	00H
	DB	00H
	DB	00H
	DB	00H
	DB	080H
	ORG $+7
Add_out_data_25_23 DB 01H
	DB	00H
	DB	00H
	DB	00H
	DB	00H
	DB	00H
	DB	00H
	DB	00H
	DB	00H
	DB	01H
	DB	00H
	DB	00H
	DB	00H
	DB	00H
	DB	00H
	DB	00H
	DB	080H
	ORG $+7
Add_out_data_25_24 DB 01H
	DB	0ffH
	DB	0ffH
	DB	0ffH
	DB	0ffH
	DB	0ffH
	DB	0ffH
	DB	0ffH
	DB	0ffH
	DB	0ffH
	DB	0ffH
	DB	0ffH
	DB	0ffH
	DB	0ffH
	DB	0ffH
	DB	0ffH
	DB	0ffH
	ORG $+7
Add_out_data_25_25 DB 01H
	DB	00H
	DB	00H
	DB	00H
	DB	00H
	DB	00H
	DB	00H
	DB	00H
	DB	00H
	DB	00H
	DB	00H
	DB	00H
	DB	00H
	DB	00H
	DB	00H
	DB	00H
	DB	00H
	DB	01H
	ORG $+6
Add_out_data_25_26 DB 01H
	DB	0ffH
	DB	0ffH
	DB	0ffH
	DB	0ffH
	DB	0ffH
	DB	0ffH
	DB	0ffH
	DB	0ffH
	DB	0ffH
	DB	0ffH
	DB	0ffH
	DB	0ffH
	DB	0ffH
	DB	0ffH
	DB	0ffH
	DB	07fH
	DB	01H
	ORG $+6
Add_out_data_25_27 DB 01H
	DB	00H
	DB	00H
	DB	00H
	DB	00H
	DB	00H
	DB	00H
	DB	00H
	DB	00H
	DB	00H
	DB	00H
	DB	00H
	DB	00H
	DB	00H
	DB	00H
	DB	00H
	DB	080H
	DB	01H
	ORG $+6
Add_out_data_26_3 DB 01H
	DB	0ffH
	DB	0ffH
	DB	0ffH
	DB	0ffH
	DB	0ffH
	DB	0ffH
	DB	0ffH
	DB	0ffH
	DB	0ffH
	DB	0ffH
	DB	0ffH
	DB	0ffH
	DB	0ffH
	DB	0ffH
	DB	0ffH
	DB	07fH
	ORG $+7
Add_out_data_26_4 DB 01H
	DB	00H
	DB	00H
	DB	00H
	DB	00H
	DB	00H
	DB	00H
	DB	00H
	DB	00H
	DB	00H
	DB	00H
	DB	00H
	DB	00H
	DB	00H
	DB	00H
	DB	00H
	DB	080H
	ORG $+7
Add_out_data_26_5 DB 01H
	DB	0ffH
	DB	0ffH
	DB	0ffH
	DB	0ffH
	DB	0ffH
	DB	0ffH
	DB	0ffH
	DB	0ffH
	DB	0feH
	DB	0ffH
	DB	0ffH
	DB	0ffH
	DB	0ffH
	DB	0ffH
	DB	0ffH
	DB	0ffH
	ORG $+7
Add_out_data_26_6 DB 01H
	DB	00H
	DB	00H
	DB	00H
	DB	00H
	DB	00H
	DB	00H
	DB	00H
	DB	00H
	DB	0ffH
	DB	0ffH
	DB	0ffH
	DB	0ffH
	DB	0ffH
	DB	0ffH
	DB	0ffH
	DB	0ffH
	ORG $+7
Add_out_data_26_7 DB 01H
	DB	0ffH
	DB	0ffH
	DB	0ffH
	DB	0ffH
	DB	0ffH
	DB	0ffH
	DB	0ffH
	DB	07fH
	DB	0ffH
	DB	0ffH
	DB	0ffH
	DB	0ffH
	DB	0ffH
	DB	0ffH
	DB	0ffH
	DB	0ffH
	ORG $+7
Add_out_data_26_8 DB 01H
	DB	00H
	DB	00H
	DB	00H
	DB	00H
	DB	00H
	DB	00H
	DB	00H
	DB	080H
	DB	0ffH
	DB	0ffH
	DB	0ffH
	DB	0ffH
	DB	0ffH
	DB	0ffH
	DB	0ffH
	DB	0ffH
	ORG $+7
Add_out_data_26_9 DB 01H
	DB	0ffH
	DB	0ffH
	DB	0ffH
	DB	0ffH
	DB	0feH
	DB	0ffH
	DB	0ffH
	DB	0ffH
	DB	0ffH
	DB	0ffH
	DB	0ffH
	DB	0ffH
	DB	0ffH
	DB	0ffH
	DB	0ffH
	DB	0ffH
	ORG $+7
Add_out_data_26_10 DB 01H
	DB	00H
	DB	00H
	DB	00H
	DB	00H
	DB	0ffH
	DB	0ffH
	DB	0ffH
	DB	0ffH
	DB	0ffH
	DB	0ffH
	DB	0ffH
	DB	0ffH
	DB	0ffH
	DB	0ffH
	DB	0ffH
	DB	0ffH
	ORG $+7
Add_out_data_26_11 DB 01H
	DB	0ffH
	DB	0ffH
	DB	0ffH
	DB	07fH
	DB	0ffH
	DB	0ffH
	DB	0ffH
	DB	0ffH
	DB	0ffH
	DB	0ffH
	DB	0ffH
	DB	0ffH
	DB	0ffH
	DB	0ffH
	DB	0ffH
	DB	0ffH
	ORG $+7
Add_out_data_26_12 DB 01H
	DB	00H
	DB	00H
	DB	00H
	DB	080H
	DB	0ffH
	DB	0ffH
	DB	0ffH
	DB	0ffH
	DB	0ffH
	DB	0ffH
	DB	0ffH
	DB	0ffH
	DB	0ffH
	DB	0ffH
	DB	0ffH
	DB	0ffH
	ORG $+7
Add_out_data_26_13 DB 01H
	DB	0feH
	DB	0ffH
	DB	0ffH
	DB	0ffH
	DB	0ffH
	DB	0ffH
	DB	0ffH
	DB	0ffH
	DB	0ffH
	DB	0ffH
	DB	0ffH
	DB	0ffH
	DB	0ffH
	DB	0ffH
	DB	0ffH
	DB	0ffH
	ORG $+7
Add_out_data_26_14 DB 01H
	DB	0ffH
	DB	0ffH
	DB	0ffH
	DB	0ffH
	DB	0ffH
	DB	0ffH
	DB	0ffH
	DB	0ffH
	DB	0ffH
	DB	0ffH
	DB	0ffH
	DB	0ffH
	DB	0ffH
	DB	0ffH
	DB	0ffH
	DB	0ffH
	ORG $+7
Add_out_data_26_15 DB 01H
	DB	00H
	DB	00H
	DB	00H
	DB	00H
	DB	00H
	DB	00H
	DB	00H
	DB	00H
	DB	00H
	DB	00H
	DB	00H
	DB	00H
	DB	00H
	DB	00H
	DB	00H
	DB	00H
	DB	01H
	ORG $+6
Add_out_data_26_16 DB 01H
	DB	0feH
	DB	0ffH
	DB	0ffH
	DB	07fH
	DB	00H
	DB	00H
	DB	00H
	DB	00H
	DB	00H
	DB	00H
	DB	00H
	DB	00H
	DB	00H
	DB	00H
	DB	00H
	DB	00H
	DB	01H
	ORG $+6
Add_out_data_26_17 DB 01H
	DB	0ffH
	DB	0ffH
	DB	0ffH
	DB	07fH
	DB	00H
	DB	00H
	DB	00H
	DB	00H
	DB	00H
	DB	00H
	DB	00H
	DB	00H
	DB	00H
	DB	00H
	DB	00H
	DB	00H
	DB	01H
	ORG $+6
Add_out_data_26_18 DB 01H
	DB	0feH
	DB	0ffH
	DB	0ffH
	DB	0ffH
	DB	00H
	DB	00H
	DB	00H
	DB	00H
	DB	00H
	DB	00H
	DB	00H
	DB	00H
	DB	00H
	DB	00H
	DB	00H
	DB	00H
	DB	01H
	ORG $+6
Add_out_data_26_19 DB 01H
	DB	0ffH
	DB	0ffH
	DB	0ffH
	DB	0ffH
	DB	00H
	DB	00H
	DB	00H
	DB	00H
	DB	00H
	DB	00H
	DB	00H
	DB	00H
	DB	00H
	DB	00H
	DB	00H
	DB	00H
	DB	01H
	ORG $+6
Add_out_data_26_20 DB 01H
	DB	0feH
	DB	0ffH
	DB	0ffH
	DB	0ffH
	DB	0ffH
	DB	0ffH
	DB	0ffH
	DB	07fH
	DB	00H
	DB	00H
	DB	00H
	DB	00H
	DB	00H
	DB	00H
	DB	00H
	DB	00H
	DB	01H
	ORG $+6
Add_out_data_26_21 DB 01H
	DB	0ffH
	DB	0ffH
	DB	0ffH
	DB	0ffH
	DB	0ffH
	DB	0ffH
	DB	0ffH
	DB	07fH
	DB	00H
	DB	00H
	DB	00H
	DB	00H
	DB	00H
	DB	00H
	DB	00H
	DB	00H
	DB	01H
	ORG $+6
Add_out_data_26_22 DB 01H
	DB	0feH
	DB	0ffH
	DB	0ffH
	DB	0ffH
	DB	0ffH
	DB	0ffH
	DB	0ffH
	DB	0ffH
	DB	00H
	DB	00H
	DB	00H
	DB	00H
	DB	00H
	DB	00H
	DB	00H
	DB	00H
	DB	01H
	ORG $+6
Add_out_data_26_23 DB 01H
	DB	0ffH
	DB	0ffH
	DB	0ffH
	DB	0ffH
	DB	0ffH
	DB	0ffH
	DB	0ffH
	DB	0ffH
	DB	00H
	DB	00H
	DB	00H
	DB	00H
	DB	00H
	DB	00H
	DB	00H
	DB	00H
	DB	01H
	ORG $+6
Add_out_data_26_24 DB 01H
	DB	0feH
	DB	0ffH
	DB	0ffH
	DB	0ffH
	DB	0ffH
	DB	0ffH
	DB	0ffH
	DB	0ffH
	DB	0ffH
	DB	0ffH
	DB	0ffH
	DB	0ffH
	DB	0ffH
	DB	0ffH
	DB	0ffH
	DB	07fH
	DB	01H
	ORG $+6
Add_out_data_26_25 DB 01H
	DB	0ffH
	DB	0ffH
	DB	0ffH
	DB	0ffH
	DB	0ffH
	DB	0ffH
	DB	0ffH
	DB	0ffH
	DB	0ffH
	DB	0ffH
	DB	0ffH
	DB	0ffH
	DB	0ffH
	DB	0ffH
	DB	0ffH
	DB	07fH
	DB	01H
	ORG $+6
Add_out_data_26_26 DB 01H
	DB	0feH
	DB	0ffH
	DB	0ffH
	DB	0ffH
	DB	0ffH
	DB	0ffH
	DB	0ffH
	DB	0ffH
	DB	0ffH
	DB	0ffH
	DB	0ffH
	DB	0ffH
	DB	0ffH
	DB	0ffH
	DB	0ffH
	DB	0ffH
	DB	01H
	ORG $+6
Add_out_data_26_27 DB 01H
	DB	0ffH
	DB	0ffH
	DB	0ffH
	DB	0ffH
	DB	0ffH
	DB	0ffH
	DB	0ffH
	DB	0ffH
	DB	0ffH
	DB	0ffH
	DB	0ffH
	DB	0ffH
	DB	0ffH
	DB	0ffH
	DB	0ffH
	DB	0ffH
	DB	01H
	ORG $+6
Add_out_data_27_3 DB 01H
	DB	00H
	DB	00H
	DB	00H
	DB	00H
	DB	00H
	DB	00H
	DB	00H
	DB	00H
	DB	00H
	DB	00H
	DB	00H
	DB	00H
	DB	00H
	DB	00H
	DB	00H
	DB	080H
	ORG $+7
Add_out_data_27_4 DB 01H
	DB	01H
	DB	00H
	DB	00H
	DB	00H
	DB	00H
	DB	00H
	DB	00H
	DB	00H
	DB	00H
	DB	00H
	DB	00H
	DB	00H
	DB	00H
	DB	00H
	DB	00H
	DB	080H
	ORG $+7
Add_out_data_27_5 DB 01H
	DB	00H
	DB	00H
	DB	00H
	DB	00H
	DB	00H
	DB	00H
	DB	00H
	DB	00H
	DB	0ffH
	DB	0ffH
	DB	0ffH
	DB	0ffH
	DB	0ffH
	DB	0ffH
	DB	0ffH
	DB	0ffH
	ORG $+7
Add_out_data_27_6 DB 01H
	DB	01H
	DB	00H
	DB	00H
	DB	00H
	DB	00H
	DB	00H
	DB	00H
	DB	00H
	DB	0ffH
	DB	0ffH
	DB	0ffH
	DB	0ffH
	DB	0ffH
	DB	0ffH
	DB	0ffH
	DB	0ffH
	ORG $+7
Add_out_data_27_7 DB 01H
	DB	00H
	DB	00H
	DB	00H
	DB	00H
	DB	00H
	DB	00H
	DB	00H
	DB	080H
	DB	0ffH
	DB	0ffH
	DB	0ffH
	DB	0ffH
	DB	0ffH
	DB	0ffH
	DB	0ffH
	DB	0ffH
	ORG $+7
Add_out_data_27_8 DB 01H
	DB	01H
	DB	00H
	DB	00H
	DB	00H
	DB	00H
	DB	00H
	DB	00H
	DB	080H
	DB	0ffH
	DB	0ffH
	DB	0ffH
	DB	0ffH
	DB	0ffH
	DB	0ffH
	DB	0ffH
	DB	0ffH
	ORG $+7
Add_out_data_27_9 DB 01H
	DB	00H
	DB	00H
	DB	00H
	DB	00H
	DB	0ffH
	DB	0ffH
	DB	0ffH
	DB	0ffH
	DB	0ffH
	DB	0ffH
	DB	0ffH
	DB	0ffH
	DB	0ffH
	DB	0ffH
	DB	0ffH
	DB	0ffH
	ORG $+7
Add_out_data_27_10 DB 01H
	DB	01H
	DB	00H
	DB	00H
	DB	00H
	DB	0ffH
	DB	0ffH
	DB	0ffH
	DB	0ffH
	DB	0ffH
	DB	0ffH
	DB	0ffH
	DB	0ffH
	DB	0ffH
	DB	0ffH
	DB	0ffH
	DB	0ffH
	ORG $+7
Add_out_data_27_11 DB 01H
	DB	00H
	DB	00H
	DB	00H
	DB	080H
	DB	0ffH
	DB	0ffH
	DB	0ffH
	DB	0ffH
	DB	0ffH
	DB	0ffH
	DB	0ffH
	DB	0ffH
	DB	0ffH
	DB	0ffH
	DB	0ffH
	DB	0ffH
	ORG $+7
Add_out_data_27_12 DB 01H
	DB	01H
	DB	00H
	DB	00H
	DB	080H
	DB	0ffH
	DB	0ffH
	DB	0ffH
	DB	0ffH
	DB	0ffH
	DB	0ffH
	DB	0ffH
	DB	0ffH
	DB	0ffH
	DB	0ffH
	DB	0ffH
	DB	0ffH
	ORG $+7
Add_out_data_27_13 DB 01H
	DB	0ffH
	DB	0ffH
	DB	0ffH
	DB	0ffH
	DB	0ffH
	DB	0ffH
	DB	0ffH
	DB	0ffH
	DB	0ffH
	DB	0ffH
	DB	0ffH
	DB	0ffH
	DB	0ffH
	DB	0ffH
	DB	0ffH
	DB	0ffH
	ORG $+7
Add_out_data_27_14 DB 01H
	DB	00H
	DB	00H
	DB	00H
	DB	00H
	DB	00H
	DB	00H
	DB	00H
	DB	00H
	DB	00H
	DB	00H
	DB	00H
	DB	00H
	DB	00H
	DB	00H
	DB	00H
	DB	00H
	DB	01H
	ORG $+6
Add_out_data_27_15 DB 01H
	DB	01H
	DB	00H
	DB	00H
	DB	00H
	DB	00H
	DB	00H
	DB	00H
	DB	00H
	DB	00H
	DB	00H
	DB	00H
	DB	00H
	DB	00H
	DB	00H
	DB	00H
	DB	00H
	DB	01H
	ORG $+6
Add_out_data_27_16 DB 01H
	DB	0ffH
	DB	0ffH
	DB	0ffH
	DB	07fH
	DB	00H
	DB	00H
	DB	00H
	DB	00H
	DB	00H
	DB	00H
	DB	00H
	DB	00H
	DB	00H
	DB	00H
	DB	00H
	DB	00H
	DB	01H
	ORG $+6
Add_out_data_27_17 DB 01H
	DB	00H
	DB	00H
	DB	00H
	DB	080H
	DB	00H
	DB	00H
	DB	00H
	DB	00H
	DB	00H
	DB	00H
	DB	00H
	DB	00H
	DB	00H
	DB	00H
	DB	00H
	DB	00H
	DB	01H
	ORG $+6
Add_out_data_27_18 DB 01H
	DB	0ffH
	DB	0ffH
	DB	0ffH
	DB	0ffH
	DB	00H
	DB	00H
	DB	00H
	DB	00H
	DB	00H
	DB	00H
	DB	00H
	DB	00H
	DB	00H
	DB	00H
	DB	00H
	DB	00H
	DB	01H
	ORG $+6
Add_out_data_27_19 DB 01H
	DB	00H
	DB	00H
	DB	00H
	DB	00H
	DB	01H
	DB	00H
	DB	00H
	DB	00H
	DB	00H
	DB	00H
	DB	00H
	DB	00H
	DB	00H
	DB	00H
	DB	00H
	DB	00H
	DB	01H
	ORG $+6
Add_out_data_27_20 DB 01H
	DB	0ffH
	DB	0ffH
	DB	0ffH
	DB	0ffH
	DB	0ffH
	DB	0ffH
	DB	0ffH
	DB	07fH
	DB	00H
	DB	00H
	DB	00H
	DB	00H
	DB	00H
	DB	00H
	DB	00H
	DB	00H
	DB	01H
	ORG $+6
Add_out_data_27_21 DB 01H
	DB	00H
	DB	00H
	DB	00H
	DB	00H
	DB	00H
	DB	00H
	DB	00H
	DB	080H
	DB	00H
	DB	00H
	DB	00H
	DB	00H
	DB	00H
	DB	00H
	DB	00H
	DB	00H
	DB	01H
	ORG $+6
Add_out_data_27_22 DB 01H
	DB	0ffH
	DB	0ffH
	DB	0ffH
	DB	0ffH
	DB	0ffH
	DB	0ffH
	DB	0ffH
	DB	0ffH
	DB	00H
	DB	00H
	DB	00H
	DB	00H
	DB	00H
	DB	00H
	DB	00H
	DB	00H
	DB	01H
	ORG $+6
Add_out_data_27_23 DB 01H
	DB	00H
	DB	00H
	DB	00H
	DB	00H
	DB	00H
	DB	00H
	DB	00H
	DB	00H
	DB	01H
	DB	00H
	DB	00H
	DB	00H
	DB	00H
	DB	00H
	DB	00H
	DB	00H
	DB	01H
	ORG $+6
Add_out_data_27_24 DB 01H
	DB	0ffH
	DB	0ffH
	DB	0ffH
	DB	0ffH
	DB	0ffH
	DB	0ffH
	DB	0ffH
	DB	0ffH
	DB	0ffH
	DB	0ffH
	DB	0ffH
	DB	0ffH
	DB	0ffH
	DB	0ffH
	DB	0ffH
	DB	07fH
	DB	01H
	ORG $+6
Add_out_data_27_25 DB 01H
	DB	00H
	DB	00H
	DB	00H
	DB	00H
	DB	00H
	DB	00H
	DB	00H
	DB	00H
	DB	00H
	DB	00H
	DB	00H
	DB	00H
	DB	00H
	DB	00H
	DB	00H
	DB	080H
	DB	01H
	ORG $+6
Add_out_data_27_26 DB 01H
	DB	0ffH
	DB	0ffH
	DB	0ffH
	DB	0ffH
	DB	0ffH
	DB	0ffH
	DB	0ffH
	DB	0ffH
	DB	0ffH
	DB	0ffH
	DB	0ffH
	DB	0ffH
	DB	0ffH
	DB	0ffH
	DB	0ffH
	DB	0ffH
	DB	01H
	ORG $+6
Add_out_data_27_27 DB 01H
	DB	00H
	DB	00H
	DB	00H
	DB	00H
	DB	00H
	DB	00H
	DB	00H
	DB	00H
	DB	00H
	DB	00H
	DB	00H
	DB	00H
	DB	00H
	DB	00H
	DB	00H
	DB	00H
	DB	02H
	ORG $+6
Clone_in_data_1 DB 03H
	DB	00H
	DB	00H
	DB	00H
	DB	00H
	DB	00H
	DB	00H
	DB	00H
	DB	00H
	DB	00H
	DB	00H
	DB	00H
	DB	00H
	DB	00H
	DB	00H
	DB	00H
	DB	00H
	DB	01H
	ORG $+6
Clone_in_data_2 DB 03H
	DB	0ffH
	DB	0ffH
	DB	0ffH
	DB	0ffH
	DB	0ffH
	DB	0ffH
	DB	0ffH
	DB	0ffH
	DB	0ffH
	DB	0ffH
	DB	0ffH
	DB	0ffH
	DB	0ffH
	DB	0ffH
	DB	0ffH
	DB	0ffH
	ORG $+7
Clone_in_data_3 DB 03H
	DB	00H
	DB	00H
	DB	00H
	DB	00H
	DB	00H
	DB	00H
	DB	00H
	DB	00H
	DB	00H
	DB	00H
	DB	00H
	DB	00H
	DB	00H
	DB	00H
	DB	00H
	DB	080H
	ORG $+7
Clone_in_data_4 DB 03H
	DB	0ffH
	DB	0ffH
	DB	0ffH
	DB	0ffH
	DB	0ffH
	DB	0ffH
	DB	0ffH
	DB	0ffH
	DB	0ffH
	DB	0ffH
	DB	0ffH
	DB	0ffH
	DB	0ffH
	DB	0ffH
	DB	0ffH
	DB	07fH
	ORG $+7
Clone_in_data_5 DB 03H
	DB	00H
	DB	00H
	DB	00H
	DB	00H
	DB	00H
	DB	00H
	DB	00H
	DB	00H
	DB	01H
	ORG $+6
Clone_in_data_6 DB 03H
	DB	0ffH
	DB	0ffH
	DB	0ffH
	DB	0ffH
	DB	0ffH
	DB	0ffH
	DB	0ffH
	DB	0ffH
	ORG $+7
Clone_in_data_7 DB 03H
	DB	00H
	DB	00H
	DB	00H
	DB	00H
	DB	00H
	DB	00H
	DB	00H
	DB	080H
	ORG $+7
Clone_in_data_8 DB 03H
	DB	0ffH
	DB	0ffH
	DB	0ffH
	DB	0ffH
	DB	0ffH
	DB	0ffH
	DB	0ffH
	DB	07fH
	ORG $+3
Clone_in_data_9 DB 03H
	DB	00H
	DB	00H
	DB	00H
	DB	00H
	DB	01H
	ORG $+2
Clone_in_data_10 DB 03H
	DB	0ffH
	DB	0ffH
	DB	0ffH
	DB	0ffH
	ORG $+3
Clone_in_data_11 DB 03H
	DB	00H
	DB	00H
	DB	00H
	DB	080H
	ORG $+3
Clone_in_data_12 DB 03H
	DB	0ffH
	DB	0ffH
	DB	0ffH
	DB	07fH
	ORG $+3
Clone_in_data_16 DB 01H
	DB	0ffH
	DB	0ffH
	DB	0ffH
	DB	07fH
	ORG $+3
Clone_in_data_17 DB 01H
	DB	00H
	DB	00H
	DB	00H
	DB	080H
	ORG $+3
Clone_in_data_18 DB 01H
	DB	0ffH
	DB	0ffH
	DB	0ffH
	DB	0ffH
	ORG $+3
Clone_in_data_19 DB 01H
	DB	00H
	DB	00H
	DB	00H
	DB	00H
	DB	01H
	ORG $+6
Clone_in_data_20 DB 01H
	DB	0ffH
	DB	0ffH
	DB	0ffH
	DB	0ffH
	DB	0ffH
	DB	0ffH
	DB	0ffH
	DB	07fH
	ORG $+7
Clone_in_data_21 DB 01H
	DB	00H
	DB	00H
	DB	00H
	DB	00H
	DB	00H
	DB	00H
	DB	00H
	DB	080H
	ORG $+7
Clone_in_data_22 DB 01H
	DB	0ffH
	DB	0ffH
	DB	0ffH
	DB	0ffH
	DB	0ffH
	DB	0ffH
	DB	0ffH
	DB	0ffH
	ORG $+7
Clone_in_data_23 DB 01H
	DB	00H
	DB	00H
	DB	00H
	DB	00H
	DB	00H
	DB	00H
	DB	00H
	DB	00H
	DB	01H
	ORG $+6
Clone_in_data_24 DB 01H
	DB	0ffH
	DB	0ffH
	DB	0ffH
	DB	0ffH
	DB	0ffH
	DB	0ffH
	DB	0ffH
	DB	0ffH
	DB	0ffH
	DB	0ffH
	DB	0ffH
	DB	0ffH
	DB	0ffH
	DB	0ffH
	DB	0ffH
	DB	07fH
	ORG $+7
Clone_in_data_25 DB 01H
	DB	00H
	DB	00H
	DB	00H
	DB	00H
	DB	00H
	DB	00H
	DB	00H
	DB	00H
	DB	00H
	DB	00H
	DB	00H
	DB	00H
	DB	00H
	DB	00H
	DB	00H
	DB	080H
	ORG $+7
Clone_in_data_26 DB 01H
	DB	0ffH
	DB	0ffH
	DB	0ffH
	DB	0ffH
	DB	0ffH
	DB	0ffH
	DB	0ffH
	DB	0ffH
	DB	0ffH
	DB	0ffH
	DB	0ffH
	DB	0ffH
	DB	0ffH
	DB	0ffH
	DB	0ffH
	DB	0ffH
	ORG $+7
Clone_in_data_27 DB 01H
	DB	00H
	DB	00H
	DB	00H
	DB	00H
	DB	00H
	DB	00H
	DB	00H
	DB	00H
	DB	00H
	DB	00H
	DB	00H
	DB	00H
	DB	00H
	DB	00H
	DB	00H
	DB	00H
	DB	01H
	ORG $+6
Clone_out_data_1 DB 03H
	DB	00H
	DB	00H
	DB	00H
	DB	00H
	DB	00H
	DB	00H
	DB	00H
	DB	00H
	DB	00H
	DB	00H
	DB	00H
	DB	00H
	DB	00H
	DB	00H
	DB	00H
	DB	00H
	DB	01H
	ORG $+6
Clone_out_data_2 DB 03H
	DB	0ffH
	DB	0ffH
	DB	0ffH
	DB	0ffH
	DB	0ffH
	DB	0ffH
	DB	0ffH
	DB	0ffH
	DB	0ffH
	DB	0ffH
	DB	0ffH
	DB	0ffH
	DB	0ffH
	DB	0ffH
	DB	0ffH
	DB	0ffH
	ORG $+7
Clone_out_data_3 DB 03H
	DB	00H
	DB	00H
	DB	00H
	DB	00H
	DB	00H
	DB	00H
	DB	00H
	DB	00H
	DB	00H
	DB	00H
	DB	00H
	DB	00H
	DB	00H
	DB	00H
	DB	00H
	DB	080H
	ORG $+7
Clone_out_data_4 DB 03H
	DB	0ffH
	DB	0ffH
	DB	0ffH
	DB	0ffH
	DB	0ffH
	DB	0ffH
	DB	0ffH
	DB	0ffH
	DB	0ffH
	DB	0ffH
	DB	0ffH
	DB	0ffH
	DB	0ffH
	DB	0ffH
	DB	0ffH
	DB	07fH
	ORG $+7
Clone_out_data_5 DB 03H
	DB	00H
	DB	00H
	DB	00H
	DB	00H
	DB	00H
	DB	00H
	DB	00H
	DB	00H
	DB	01H
	ORG $+6
Clone_out_data_6 DB 03H
	DB	0ffH
	DB	0ffH
	DB	0ffH
	DB	0ffH
	DB	0ffH
	DB	0ffH
	DB	0ffH
	DB	0ffH
	ORG $+7
Clone_out_data_7 DB 03H
	DB	00H
	DB	00H
	DB	00H
	DB	00H
	DB	00H
	DB	00H
	DB	00H
	DB	080H
	ORG $+7
Clone_out_data_8 DB 03H
	DB	0ffH
	DB	0ffH
	DB	0ffH
	DB	0ffH
	DB	0ffH
	DB	0ffH
	DB	0ffH
	DB	07fH
	ORG $+3
Clone_out_data_9 DB 03H
	DB	00H
	DB	00H
	DB	00H
	DB	00H
	DB	01H
	ORG $+2
Clone_out_data_10 DB 03H
	DB	0ffH
	DB	0ffH
	DB	0ffH
	DB	0ffH
	ORG $+3
Clone_out_data_11 DB 03H
	DB	00H
	DB	00H
	DB	00H
	DB	080H
	ORG $+3
Clone_out_data_12 DB 03H
	DB	0ffH
	DB	0ffH
	DB	0ffH
	DB	07fH
	ORG $+3
Clone_out_data_16 DB 01H
	DB	0ffH
	DB	0ffH
	DB	0ffH
	DB	07fH
	ORG $+3
Clone_out_data_17 DB 01H
	DB	00H
	DB	00H
	DB	00H
	DB	080H
	ORG $+3
Clone_out_data_18 DB 01H
	DB	0ffH
	DB	0ffH
	DB	0ffH
	DB	0ffH
	ORG $+3
Clone_out_data_19 DB 01H
	DB	00H
	DB	00H
	DB	00H
	DB	00H
	DB	01H
	ORG $+6
Clone_out_data_20 DB 01H
	DB	0ffH
	DB	0ffH
	DB	0ffH
	DB	0ffH
	DB	0ffH
	DB	0ffH
	DB	0ffH
	DB	07fH
	ORG $+7
Clone_out_data_21 DB 01H
	DB	00H
	DB	00H
	DB	00H
	DB	00H
	DB	00H
	DB	00H
	DB	00H
	DB	080H
	ORG $+7
Clone_out_data_22 DB 01H
	DB	0ffH
	DB	0ffH
	DB	0ffH
	DB	0ffH
	DB	0ffH
	DB	0ffH
	DB	0ffH
	DB	0ffH
	ORG $+7
Clone_out_data_23 DB 01H
	DB	00H
	DB	00H
	DB	00H
	DB	00H
	DB	00H
	DB	00H
	DB	00H
	DB	00H
	DB	01H
	ORG $+6
Clone_out_data_24 DB 01H
	DB	0ffH
	DB	0ffH
	DB	0ffH
	DB	0ffH
	DB	0ffH
	DB	0ffH
	DB	0ffH
	DB	0ffH
	DB	0ffH
	DB	0ffH
	DB	0ffH
	DB	0ffH
	DB	0ffH
	DB	0ffH
	DB	0ffH
	DB	07fH
	ORG $+7
Clone_out_data_25 DB 01H
	DB	00H
	DB	00H
	DB	00H
	DB	00H
	DB	00H
	DB	00H
	DB	00H
	DB	00H
	DB	00H
	DB	00H
	DB	00H
	DB	00H
	DB	00H
	DB	00H
	DB	00H
	DB	080H
	ORG $+7
Clone_out_data_26 DB 01H
	DB	0ffH
	DB	0ffH
	DB	0ffH
	DB	0ffH
	DB	0ffH
	DB	0ffH
	DB	0ffH
	DB	0ffH
	DB	0ffH
	DB	0ffH
	DB	0ffH
	DB	0ffH
	DB	0ffH
	DB	0ffH
	DB	0ffH
	DB	0ffH
	ORG $+7
Clone_out_data_27 DB 01H
	DB	00H
	DB	00H
	DB	00H
	DB	00H
	DB	00H
	DB	00H
	DB	00H
	DB	00H
	DB	00H
	DB	00H
	DB	00H
	DB	00H
	DB	00H
	DB	00H
	DB	00H
	DB	00H
	DB	01H
	ORG $+6
From_out_data_7 DB 03H
	DB	00H
	DB	00H
	DB	00H
	DB	00H
	DB	00H
	DB	00H
	DB	00H
	DB	080H
	ORG $+7
From_out_data_8 DB 03H
	DB	0ffH
	DB	0ffH
	DB	0ffH
	DB	0ffH
	DB	0ffH
	DB	0ffH
	DB	0ffH
	DB	07fH
	ORG $+3
From_out_data_9 DB 03H
	DB	00H
	DB	00H
	DB	00H
	DB	00H
	DB	01H
	ORG $+2
From_out_data_10 DB 03H
	DB	0ffH
	DB	0ffH
	DB	0ffH
	DB	0ffH
	ORG $+3
From_out_data_11 DB 03H
	DB	00H
	DB	00H
	DB	00H
	DB	080H
	ORG $+3
From_out_data_12 DB 03H
	DB	0ffH
	DB	0ffH
	DB	0ffH
	DB	07fH
	ORG $+3
From_out_data_16 DB 01H
	DB	0ffH
	DB	0ffH
	DB	0ffH
	DB	07fH
	ORG $+3
From_out_data_17 DB 01H
	DB	00H
	DB	00H
	DB	00H
	DB	080H
	ORG $+3
From_out_data_18 DB 01H
	DB	0ffH
	DB	0ffH
	DB	0ffH
	DB	0ffH
	ORG $+3
From_out_data_19 DB 01H
	DB	00H
	DB	00H
	DB	00H
	DB	00H
	DB	01H
	ORG $+6
From_out_data_20 DB 01H
	DB	0ffH
	DB	0ffH
	DB	0ffH
	DB	0ffH
	DB	0ffH
	DB	0ffH
	DB	0ffH
	DB	07fH
	ORG $+7
GetNumberType_in_data_1 DB 03H
	DB	00H
	DB	00H
	DB	00H
	DB	00H
	DB	00H
	DB	00H
	DB	00H
	DB	00H
	DB	00H
	DB	00H
	DB	00H
	DB	00H
	DB	00H
	DB	00H
	DB	00H
	DB	00H
	DB	01H
	ORG $+6
GetNumberType_in_data_2 DB 03H
	DB	0ffH
	DB	0ffH
	DB	0ffH
	DB	0ffH
	DB	0ffH
	DB	0ffH
	DB	0ffH
	DB	0ffH
	DB	0ffH
	DB	0ffH
	DB	0ffH
	DB	0ffH
	DB	0ffH
	DB	0ffH
	DB	0ffH
	DB	0ffH
	ORG $+7
GetNumberType_in_data_3 DB 03H
	DB	00H
	DB	00H
	DB	00H
	DB	00H
	DB	00H
	DB	00H
	DB	00H
	DB	00H
	DB	00H
	DB	00H
	DB	00H
	DB	00H
	DB	00H
	DB	00H
	DB	00H
	DB	080H
	ORG $+7
GetNumberType_in_data_4 DB 03H
	DB	0ffH
	DB	0ffH
	DB	0ffH
	DB	0ffH
	DB	0ffH
	DB	0ffH
	DB	0ffH
	DB	0ffH
	DB	0ffH
	DB	0ffH
	DB	0ffH
	DB	0ffH
	DB	0ffH
	DB	0ffH
	DB	0ffH
	DB	07fH
	ORG $+7
GetNumberType_in_data_5 DB 03H
	DB	00H
	DB	00H
	DB	00H
	DB	00H
	DB	00H
	DB	00H
	DB	00H
	DB	00H
	DB	01H
	ORG $+6
GetNumberType_in_data_6 DB 03H
	DB	0ffH
	DB	0ffH
	DB	0ffH
	DB	0ffH
	DB	0ffH
	DB	0ffH
	DB	0ffH
	DB	0ffH
	ORG $+7
GetNumberType_in_data_7 DB 03H
	DB	00H
	DB	00H
	DB	00H
	DB	00H
	DB	00H
	DB	00H
	DB	00H
	DB	080H
	ORG $+7
GetNumberType_in_data_8 DB 03H
	DB	0ffH
	DB	0ffH
	DB	0ffH
	DB	0ffH
	DB	0ffH
	DB	0ffH
	DB	0ffH
	DB	07fH
	ORG $+3
GetNumberType_in_data_9 DB 03H
	DB	00H
	DB	00H
	DB	00H
	DB	00H
	DB	01H
	ORG $+2
GetNumberType_in_data_10 DB 03H
	DB	0ffH
	DB	0ffH
	DB	0ffH
	DB	0ffH
	ORG $+3
GetNumberType_in_data_11 DB 03H
	DB	00H
	DB	00H
	DB	00H
	DB	080H
	ORG $+3
GetNumberType_in_data_12 DB 03H
	DB	0ffH
	DB	0ffH
	DB	0ffH
	DB	07fH
	ORG $+3
GetNumberType_in_data_16 DB 01H
	DB	0ffH
	DB	0ffH
	DB	0ffH
	DB	07fH
	ORG $+3
GetNumberType_in_data_17 DB 01H
	DB	00H
	DB	00H
	DB	00H
	DB	080H
	ORG $+3
GetNumberType_in_data_18 DB 01H
	DB	0ffH
	DB	0ffH
	DB	0ffH
	DB	0ffH
	ORG $+3
GetNumberType_in_data_19 DB 01H
	DB	00H
	DB	00H
	DB	00H
	DB	00H
	DB	01H
	ORG $+6
GetNumberType_in_data_20 DB 01H
	DB	0ffH
	DB	0ffH
	DB	0ffH
	DB	0ffH
	DB	0ffH
	DB	0ffH
	DB	0ffH
	DB	07fH
	ORG $+7
GetNumberType_in_data_21 DB 01H
	DB	00H
	DB	00H
	DB	00H
	DB	00H
	DB	00H
	DB	00H
	DB	00H
	DB	080H
	ORG $+7
GetNumberType_in_data_22 DB 01H
	DB	0ffH
	DB	0ffH
	DB	0ffH
	DB	0ffH
	DB	0ffH
	DB	0ffH
	DB	0ffH
	DB	0ffH
	ORG $+7
GetNumberType_in_data_23 DB 01H
	DB	00H
	DB	00H
	DB	00H
	DB	00H
	DB	00H
	DB	00H
	DB	00H
	DB	00H
	DB	01H
	ORG $+6
GetNumberType_in_data_24 DB 01H
	DB	0ffH
	DB	0ffH
	DB	0ffH
	DB	0ffH
	DB	0ffH
	DB	0ffH
	DB	0ffH
	DB	0ffH
	DB	0ffH
	DB	0ffH
	DB	0ffH
	DB	0ffH
	DB	0ffH
	DB	0ffH
	DB	0ffH
	DB	07fH
	ORG $+7
GetNumberType_in_data_25 DB 01H
	DB	00H
	DB	00H
	DB	00H
	DB	00H
	DB	00H
	DB	00H
	DB	00H
	DB	00H
	DB	00H
	DB	00H
	DB	00H
	DB	00H
	DB	00H
	DB	00H
	DB	00H
	DB	080H
	ORG $+7
GetNumberType_in_data_26 DB 01H
	DB	0ffH
	DB	0ffH
	DB	0ffH
	DB	0ffH
	DB	0ffH
	DB	0ffH
	DB	0ffH
	DB	0ffH
	DB	0ffH
	DB	0ffH
	DB	0ffH
	DB	0ffH
	DB	0ffH
	DB	0ffH
	DB	0ffH
	DB	0ffH
	ORG $+7
GetNumberType_in_data_27 DB 01H
	DB	00H
	DB	00H
	DB	00H
	DB	00H
	DB	00H
	DB	00H
	DB	00H
	DB	00H
	DB	00H
	DB	00H
	DB	00H
	DB	00H
	DB	00H
	DB	00H
	DB	00H
	DB	00H
	DB	01H
	ORG $+6
Negate_in_data_1 DB 03H
	DB	00H
	DB	00H
	DB	00H
	DB	00H
	DB	00H
	DB	00H
	DB	00H
	DB	00H
	DB	00H
	DB	00H
	DB	00H
	DB	00H
	DB	00H
	DB	00H
	DB	00H
	DB	00H
	DB	01H
	ORG $+6
Negate_in_data_2 DB 03H
	DB	0ffH
	DB	0ffH
	DB	0ffH
	DB	0ffH
	DB	0ffH
	DB	0ffH
	DB	0ffH
	DB	0ffH
	DB	0ffH
	DB	0ffH
	DB	0ffH
	DB	0ffH
	DB	0ffH
	DB	0ffH
	DB	0ffH
	DB	0ffH
	ORG $+7
Negate_in_data_3 DB 03H
	DB	00H
	DB	00H
	DB	00H
	DB	00H
	DB	00H
	DB	00H
	DB	00H
	DB	00H
	DB	00H
	DB	00H
	DB	00H
	DB	00H
	DB	00H
	DB	00H
	DB	00H
	DB	080H
	ORG $+7
Negate_in_data_4 DB 03H
	DB	0ffH
	DB	0ffH
	DB	0ffH
	DB	0ffH
	DB	0ffH
	DB	0ffH
	DB	0ffH
	DB	0ffH
	DB	0ffH
	DB	0ffH
	DB	0ffH
	DB	0ffH
	DB	0ffH
	DB	0ffH
	DB	0ffH
	DB	07fH
	ORG $+7
Negate_in_data_5 DB 03H
	DB	00H
	DB	00H
	DB	00H
	DB	00H
	DB	00H
	DB	00H
	DB	00H
	DB	00H
	DB	01H
	ORG $+6
Negate_in_data_6 DB 03H
	DB	0ffH
	DB	0ffH
	DB	0ffH
	DB	0ffH
	DB	0ffH
	DB	0ffH
	DB	0ffH
	DB	0ffH
	ORG $+7
Negate_in_data_7 DB 03H
	DB	00H
	DB	00H
	DB	00H
	DB	00H
	DB	00H
	DB	00H
	DB	00H
	DB	080H
	ORG $+7
Negate_in_data_8 DB 03H
	DB	0ffH
	DB	0ffH
	DB	0ffH
	DB	0ffH
	DB	0ffH
	DB	0ffH
	DB	0ffH
	DB	07fH
	ORG $+3
Negate_in_data_9 DB 03H
	DB	00H
	DB	00H
	DB	00H
	DB	00H
	DB	01H
	ORG $+2
Negate_in_data_10 DB 03H
	DB	0ffH
	DB	0ffH
	DB	0ffH
	DB	0ffH
	ORG $+3
Negate_in_data_11 DB 03H
	DB	00H
	DB	00H
	DB	00H
	DB	080H
	ORG $+3
Negate_in_data_12 DB 03H
	DB	0ffH
	DB	0ffH
	DB	0ffH
	DB	07fH
	ORG $+3
Negate_in_data_16 DB 01H
	DB	0ffH
	DB	0ffH
	DB	0ffH
	DB	07fH
	ORG $+3
Negate_in_data_17 DB 01H
	DB	00H
	DB	00H
	DB	00H
	DB	080H
	ORG $+3
Negate_in_data_18 DB 01H
	DB	0ffH
	DB	0ffH
	DB	0ffH
	DB	0ffH
	ORG $+3
Negate_in_data_19 DB 01H
	DB	00H
	DB	00H
	DB	00H
	DB	00H
	DB	01H
	ORG $+6
Negate_in_data_20 DB 01H
	DB	0ffH
	DB	0ffH
	DB	0ffH
	DB	0ffH
	DB	0ffH
	DB	0ffH
	DB	0ffH
	DB	07fH
	ORG $+7
Negate_in_data_21 DB 01H
	DB	00H
	DB	00H
	DB	00H
	DB	00H
	DB	00H
	DB	00H
	DB	00H
	DB	080H
	ORG $+7
Negate_in_data_22 DB 01H
	DB	0ffH
	DB	0ffH
	DB	0ffH
	DB	0ffH
	DB	0ffH
	DB	0ffH
	DB	0ffH
	DB	0ffH
	ORG $+7
Negate_in_data_23 DB 01H
	DB	00H
	DB	00H
	DB	00H
	DB	00H
	DB	00H
	DB	00H
	DB	00H
	DB	00H
	DB	01H
	ORG $+6
Negate_in_data_24 DB 01H
	DB	0ffH
	DB	0ffH
	DB	0ffH
	DB	0ffH
	DB	0ffH
	DB	0ffH
	DB	0ffH
	DB	0ffH
	DB	0ffH
	DB	0ffH
	DB	0ffH
	DB	0ffH
	DB	0ffH
	DB	0ffH
	DB	0ffH
	DB	07fH
	ORG $+7
Negate_in_data_25 DB 01H
	DB	00H
	DB	00H
	DB	00H
	DB	00H
	DB	00H
	DB	00H
	DB	00H
	DB	00H
	DB	00H
	DB	00H
	DB	00H
	DB	00H
	DB	00H
	DB	00H
	DB	00H
	DB	080H
	ORG $+7
Negate_in_data_26 DB 01H
	DB	0ffH
	DB	0ffH
	DB	0ffH
	DB	0ffH
	DB	0ffH
	DB	0ffH
	DB	0ffH
	DB	0ffH
	DB	0ffH
	DB	0ffH
	DB	0ffH
	DB	0ffH
	DB	0ffH
	DB	0ffH
	DB	0ffH
	DB	0ffH
	ORG $+7
Negate_in_data_27 DB 01H
	DB	00H
	DB	00H
	DB	00H
	DB	00H
	DB	00H
	DB	00H
	DB	00H
	DB	00H
	DB	00H
	DB	00H
	DB	00H
	DB	00H
	DB	00H
	DB	00H
	DB	00H
	DB	00H
	DB	01H
	ORG $+6
Negate_out_data_1 DB 01H
	DB	00H
	DB	00H
	DB	00H
	DB	00H
	DB	00H
	DB	00H
	DB	00H
	DB	00H
	DB	00H
	DB	00H
	DB	00H
	DB	00H
	DB	00H
	DB	00H
	DB	00H
	DB	00H
	DB	01H
	ORG $+6
Negate_out_data_2 DB 01H
	DB	0ffH
	DB	0ffH
	DB	0ffH
	DB	0ffH
	DB	0ffH
	DB	0ffH
	DB	0ffH
	DB	0ffH
	DB	0ffH
	DB	0ffH
	DB	0ffH
	DB	0ffH
	DB	0ffH
	DB	0ffH
	DB	0ffH
	DB	0ffH
	ORG $+7
Negate_out_data_3 DB 01H
	DB	00H
	DB	00H
	DB	00H
	DB	00H
	DB	00H
	DB	00H
	DB	00H
	DB	00H
	DB	00H
	DB	00H
	DB	00H
	DB	00H
	DB	00H
	DB	00H
	DB	00H
	DB	080H
	ORG $+7
Negate_out_data_4 DB 01H
	DB	0ffH
	DB	0ffH
	DB	0ffH
	DB	0ffH
	DB	0ffH
	DB	0ffH
	DB	0ffH
	DB	0ffH
	DB	0ffH
	DB	0ffH
	DB	0ffH
	DB	0ffH
	DB	0ffH
	DB	0ffH
	DB	0ffH
	DB	07fH
	ORG $+7
Negate_out_data_5 DB 01H
	DB	00H
	DB	00H
	DB	00H
	DB	00H
	DB	00H
	DB	00H
	DB	00H
	DB	00H
	DB	01H
	ORG $+6
Negate_out_data_6 DB 01H
	DB	0ffH
	DB	0ffH
	DB	0ffH
	DB	0ffH
	DB	0ffH
	DB	0ffH
	DB	0ffH
	DB	0ffH
	ORG $+7
Negate_out_data_7 DB 01H
	DB	00H
	DB	00H
	DB	00H
	DB	00H
	DB	00H
	DB	00H
	DB	00H
	DB	080H
	ORG $+7
Negate_out_data_8 DB 01H
	DB	0ffH
	DB	0ffH
	DB	0ffH
	DB	0ffH
	DB	0ffH
	DB	0ffH
	DB	0ffH
	DB	07fH
	ORG $+3
Negate_out_data_9 DB 01H
	DB	00H
	DB	00H
	DB	00H
	DB	00H
	DB	01H
	ORG $+2
Negate_out_data_10 DB 01H
	DB	0ffH
	DB	0ffH
	DB	0ffH
	DB	0ffH
	ORG $+3
Negate_out_data_11 DB 01H
	DB	00H
	DB	00H
	DB	00H
	DB	080H
	ORG $+3
Negate_out_data_12 DB 01H
	DB	0ffH
	DB	0ffH
	DB	0ffH
	DB	07fH
	ORG $+3
Negate_out_data_16 DB 03H
	DB	0ffH
	DB	0ffH
	DB	0ffH
	DB	07fH
	ORG $+3
Negate_out_data_17 DB 03H
	DB	00H
	DB	00H
	DB	00H
	DB	080H
	ORG $+3
Negate_out_data_18 DB 03H
	DB	0ffH
	DB	0ffH
	DB	0ffH
	DB	0ffH
	ORG $+3
Negate_out_data_19 DB 03H
	DB	00H
	DB	00H
	DB	00H
	DB	00H
	DB	01H
	ORG $+6
Negate_out_data_20 DB 03H
	DB	0ffH
	DB	0ffH
	DB	0ffH
	DB	0ffH
	DB	0ffH
	DB	0ffH
	DB	0ffH
	DB	07fH
	ORG $+7
Negate_out_data_21 DB 03H
	DB	00H
	DB	00H
	DB	00H
	DB	00H
	DB	00H
	DB	00H
	DB	00H
	DB	080H
	ORG $+7
Negate_out_data_22 DB 03H
	DB	0ffH
	DB	0ffH
	DB	0ffH
	DB	0ffH
	DB	0ffH
	DB	0ffH
	DB	0ffH
	DB	0ffH
	ORG $+7
Negate_out_data_23 DB 03H
	DB	00H
	DB	00H
	DB	00H
	DB	00H
	DB	00H
	DB	00H
	DB	00H
	DB	00H
	DB	01H
	ORG $+6
Negate_out_data_24 DB 03H
	DB	0ffH
	DB	0ffH
	DB	0ffH
	DB	0ffH
	DB	0ffH
	DB	0ffH
	DB	0ffH
	DB	0ffH
	DB	0ffH
	DB	0ffH
	DB	0ffH
	DB	0ffH
	DB	0ffH
	DB	0ffH
	DB	0ffH
	DB	07fH
	ORG $+7
Negate_out_data_25 DB 03H
	DB	00H
	DB	00H
	DB	00H
	DB	00H
	DB	00H
	DB	00H
	DB	00H
	DB	00H
	DB	00H
	DB	00H
	DB	00H
	DB	00H
	DB	00H
	DB	00H
	DB	00H
	DB	080H
	ORG $+7
Negate_out_data_26 DB 03H
	DB	0ffH
	DB	0ffH
	DB	0ffH
	DB	0ffH
	DB	0ffH
	DB	0ffH
	DB	0ffH
	DB	0ffH
	DB	0ffH
	DB	0ffH
	DB	0ffH
	DB	0ffH
	DB	0ffH
	DB	0ffH
	DB	0ffH
	DB	0ffH
	ORG $+7
Negate_out_data_27 DB 03H
	DB	00H
	DB	00H
	DB	00H
	DB	00H
	DB	00H
	DB	00H
	DB	00H
	DB	00H
	DB	00H
	DB	00H
	DB	00H
	DB	00H
	DB	00H
	DB	00H
	DB	00H
	DB	00H
	DB	01H
	ORG $+6
Subtruct_in_data_1 DB 03H
	DB	00H
	DB	00H
	DB	00H
	DB	00H
	DB	00H
	DB	00H
	DB	00H
	DB	00H
	DB	00H
	DB	00H
	DB	00H
	DB	00H
	DB	00H
	DB	00H
	DB	00H
	DB	00H
	DB	01H
	ORG $+6
Subtruct_in_data_2 DB 03H
	DB	0ffH
	DB	0ffH
	DB	0ffH
	DB	0ffH
	DB	0ffH
	DB	0ffH
	DB	0ffH
	DB	0ffH
	DB	0ffH
	DB	0ffH
	DB	0ffH
	DB	0ffH
	DB	0ffH
	DB	0ffH
	DB	0ffH
	DB	0ffH
	ORG $+7
Subtruct_in_data_3 DB 03H
	DB	00H
	DB	00H
	DB	00H
	DB	00H
	DB	00H
	DB	00H
	DB	00H
	DB	00H
	DB	00H
	DB	00H
	DB	00H
	DB	00H
	DB	00H
	DB	00H
	DB	00H
	DB	080H
	ORG $+7
Subtruct_in_data_4 DB 03H
	DB	0ffH
	DB	0ffH
	DB	0ffH
	DB	0ffH
	DB	0ffH
	DB	0ffH
	DB	0ffH
	DB	0ffH
	DB	0ffH
	DB	0ffH
	DB	0ffH
	DB	0ffH
	DB	0ffH
	DB	0ffH
	DB	0ffH
	DB	07fH
	ORG $+7
Subtruct_in_data_5 DB 03H
	DB	00H
	DB	00H
	DB	00H
	DB	00H
	DB	00H
	DB	00H
	DB	00H
	DB	00H
	DB	01H
	ORG $+6
Subtruct_in_data_6 DB 03H
	DB	0ffH
	DB	0ffH
	DB	0ffH
	DB	0ffH
	DB	0ffH
	DB	0ffH
	DB	0ffH
	DB	0ffH
	ORG $+7
Subtruct_in_data_7 DB 03H
	DB	00H
	DB	00H
	DB	00H
	DB	00H
	DB	00H
	DB	00H
	DB	00H
	DB	080H
	ORG $+7
Subtruct_in_data_8 DB 03H
	DB	0ffH
	DB	0ffH
	DB	0ffH
	DB	0ffH
	DB	0ffH
	DB	0ffH
	DB	0ffH
	DB	07fH
	ORG $+3
Subtruct_in_data_9 DB 03H
	DB	00H
	DB	00H
	DB	00H
	DB	00H
	DB	01H
	ORG $+2
Subtruct_in_data_10 DB 03H
	DB	0ffH
	DB	0ffH
	DB	0ffH
	DB	0ffH
	ORG $+3
Subtruct_in_data_11 DB 03H
	DB	00H
	DB	00H
	DB	00H
	DB	080H
	ORG $+3
Subtruct_in_data_12 DB 03H
	DB	0ffH
	DB	0ffH
	DB	0ffH
	DB	07fH
	ORG $+3
Subtruct_in_data_16 DB 01H
	DB	0ffH
	DB	0ffH
	DB	0ffH
	DB	07fH
	ORG $+3
Subtruct_in_data_17 DB 01H
	DB	00H
	DB	00H
	DB	00H
	DB	080H
	ORG $+3
Subtruct_in_data_18 DB 01H
	DB	0ffH
	DB	0ffH
	DB	0ffH
	DB	0ffH
	ORG $+3
Subtruct_in_data_19 DB 01H
	DB	00H
	DB	00H
	DB	00H
	DB	00H
	DB	01H
	ORG $+6
Subtruct_in_data_20 DB 01H
	DB	0ffH
	DB	0ffH
	DB	0ffH
	DB	0ffH
	DB	0ffH
	DB	0ffH
	DB	0ffH
	DB	07fH
	ORG $+7
Subtruct_in_data_21 DB 01H
	DB	00H
	DB	00H
	DB	00H
	DB	00H
	DB	00H
	DB	00H
	DB	00H
	DB	080H
	ORG $+7
Subtruct_in_data_22 DB 01H
	DB	0ffH
	DB	0ffH
	DB	0ffH
	DB	0ffH
	DB	0ffH
	DB	0ffH
	DB	0ffH
	DB	0ffH
	ORG $+7
Subtruct_in_data_23 DB 01H
	DB	00H
	DB	00H
	DB	00H
	DB	00H
	DB	00H
	DB	00H
	DB	00H
	DB	00H
	DB	01H
	ORG $+6
Subtruct_in_data_24 DB 01H
	DB	0ffH
	DB	0ffH
	DB	0ffH
	DB	0ffH
	DB	0ffH
	DB	0ffH
	DB	0ffH
	DB	0ffH
	DB	0ffH
	DB	0ffH
	DB	0ffH
	DB	0ffH
	DB	0ffH
	DB	0ffH
	DB	0ffH
	DB	07fH
	ORG $+7
Subtruct_in_data_25 DB 01H
	DB	00H
	DB	00H
	DB	00H
	DB	00H
	DB	00H
	DB	00H
	DB	00H
	DB	00H
	DB	00H
	DB	00H
	DB	00H
	DB	00H
	DB	00H
	DB	00H
	DB	00H
	DB	080H
	ORG $+7
Subtruct_in_data_26 DB 01H
	DB	0ffH
	DB	0ffH
	DB	0ffH
	DB	0ffH
	DB	0ffH
	DB	0ffH
	DB	0ffH
	DB	0ffH
	DB	0ffH
	DB	0ffH
	DB	0ffH
	DB	0ffH
	DB	0ffH
	DB	0ffH
	DB	0ffH
	DB	0ffH
	ORG $+7
Subtruct_in_data_27 DB 01H
	DB	00H
	DB	00H
	DB	00H
	DB	00H
	DB	00H
	DB	00H
	DB	00H
	DB	00H
	DB	00H
	DB	00H
	DB	00H
	DB	00H
	DB	00H
	DB	00H
	DB	00H
	DB	00H
	DB	01H
	ORG $+6
Subtruct_out_data_1_3 DB 03H
	DB	00H
	DB	00H
	DB	00H
	DB	00H
	DB	00H
	DB	00H
	DB	00H
	DB	00H
	DB	00H
	DB	00H
	DB	00H
	DB	00H
	DB	00H
	DB	00H
	DB	00H
	DB	080H
	ORG $+7
Subtruct_out_data_1_4 DB 03H
	DB	01H
	DB	00H
	DB	00H
	DB	00H
	DB	00H
	DB	00H
	DB	00H
	DB	00H
	DB	00H
	DB	00H
	DB	00H
	DB	00H
	DB	00H
	DB	00H
	DB	00H
	DB	080H
	ORG $+7
Subtruct_out_data_1_5 DB 03H
	DB	00H
	DB	00H
	DB	00H
	DB	00H
	DB	00H
	DB	00H
	DB	00H
	DB	00H
	DB	0ffH
	DB	0ffH
	DB	0ffH
	DB	0ffH
	DB	0ffH
	DB	0ffH
	DB	0ffH
	DB	0ffH
	ORG $+7
Subtruct_out_data_1_6 DB 03H
	DB	01H
	DB	00H
	DB	00H
	DB	00H
	DB	00H
	DB	00H
	DB	00H
	DB	00H
	DB	0ffH
	DB	0ffH
	DB	0ffH
	DB	0ffH
	DB	0ffH
	DB	0ffH
	DB	0ffH
	DB	0ffH
	ORG $+7
Subtruct_out_data_1_7 DB 03H
	DB	00H
	DB	00H
	DB	00H
	DB	00H
	DB	00H
	DB	00H
	DB	00H
	DB	080H
	DB	0ffH
	DB	0ffH
	DB	0ffH
	DB	0ffH
	DB	0ffH
	DB	0ffH
	DB	0ffH
	DB	0ffH
	ORG $+7
Subtruct_out_data_1_8 DB 03H
	DB	01H
	DB	00H
	DB	00H
	DB	00H
	DB	00H
	DB	00H
	DB	00H
	DB	080H
	DB	0ffH
	DB	0ffH
	DB	0ffH
	DB	0ffH
	DB	0ffH
	DB	0ffH
	DB	0ffH
	DB	0ffH
	ORG $+7
Subtruct_out_data_1_9 DB 03H
	DB	00H
	DB	00H
	DB	00H
	DB	00H
	DB	0ffH
	DB	0ffH
	DB	0ffH
	DB	0ffH
	DB	0ffH
	DB	0ffH
	DB	0ffH
	DB	0ffH
	DB	0ffH
	DB	0ffH
	DB	0ffH
	DB	0ffH
	ORG $+7
Subtruct_out_data_1_10 DB 03H
	DB	01H
	DB	00H
	DB	00H
	DB	00H
	DB	0ffH
	DB	0ffH
	DB	0ffH
	DB	0ffH
	DB	0ffH
	DB	0ffH
	DB	0ffH
	DB	0ffH
	DB	0ffH
	DB	0ffH
	DB	0ffH
	DB	0ffH
	ORG $+7
Subtruct_out_data_1_11 DB 03H
	DB	00H
	DB	00H
	DB	00H
	DB	080H
	DB	0ffH
	DB	0ffH
	DB	0ffH
	DB	0ffH
	DB	0ffH
	DB	0ffH
	DB	0ffH
	DB	0ffH
	DB	0ffH
	DB	0ffH
	DB	0ffH
	DB	0ffH
	ORG $+7
Subtruct_out_data_1_12 DB 03H
	DB	01H
	DB	00H
	DB	00H
	DB	080H
	DB	0ffH
	DB	0ffH
	DB	0ffH
	DB	0ffH
	DB	0ffH
	DB	0ffH
	DB	0ffH
	DB	0ffH
	DB	0ffH
	DB	0ffH
	DB	0ffH
	DB	0ffH
	ORG $+7
Subtruct_out_data_1_13 DB 03H
	DB	0ffH
	DB	0ffH
	DB	0ffH
	DB	0ffH
	DB	0ffH
	DB	0ffH
	DB	0ffH
	DB	0ffH
	DB	0ffH
	DB	0ffH
	DB	0ffH
	DB	0ffH
	DB	0ffH
	DB	0ffH
	DB	0ffH
	DB	0ffH
	ORG $+7
Subtruct_out_data_1_14 DB 03H
	DB	00H
	DB	00H
	DB	00H
	DB	00H
	DB	00H
	DB	00H
	DB	00H
	DB	00H
	DB	00H
	DB	00H
	DB	00H
	DB	00H
	DB	00H
	DB	00H
	DB	00H
	DB	00H
	DB	01H
	ORG $+6
Subtruct_out_data_1_15 DB 03H
	DB	01H
	DB	00H
	DB	00H
	DB	00H
	DB	00H
	DB	00H
	DB	00H
	DB	00H
	DB	00H
	DB	00H
	DB	00H
	DB	00H
	DB	00H
	DB	00H
	DB	00H
	DB	00H
	DB	01H
	ORG $+6
Subtruct_out_data_1_16 DB 03H
	DB	0ffH
	DB	0ffH
	DB	0ffH
	DB	07fH
	DB	00H
	DB	00H
	DB	00H
	DB	00H
	DB	00H
	DB	00H
	DB	00H
	DB	00H
	DB	00H
	DB	00H
	DB	00H
	DB	00H
	DB	01H
	ORG $+6
Subtruct_out_data_1_17 DB 03H
	DB	00H
	DB	00H
	DB	00H
	DB	080H
	DB	00H
	DB	00H
	DB	00H
	DB	00H
	DB	00H
	DB	00H
	DB	00H
	DB	00H
	DB	00H
	DB	00H
	DB	00H
	DB	00H
	DB	01H
	ORG $+6
Subtruct_out_data_1_18 DB 03H
	DB	0ffH
	DB	0ffH
	DB	0ffH
	DB	0ffH
	DB	00H
	DB	00H
	DB	00H
	DB	00H
	DB	00H
	DB	00H
	DB	00H
	DB	00H
	DB	00H
	DB	00H
	DB	00H
	DB	00H
	DB	01H
	ORG $+6
Subtruct_out_data_1_19 DB 03H
	DB	00H
	DB	00H
	DB	00H
	DB	00H
	DB	01H
	DB	00H
	DB	00H
	DB	00H
	DB	00H
	DB	00H
	DB	00H
	DB	00H
	DB	00H
	DB	00H
	DB	00H
	DB	00H
	DB	01H
	ORG $+6
Subtruct_out_data_1_20 DB 03H
	DB	0ffH
	DB	0ffH
	DB	0ffH
	DB	0ffH
	DB	0ffH
	DB	0ffH
	DB	0ffH
	DB	07fH
	DB	00H
	DB	00H
	DB	00H
	DB	00H
	DB	00H
	DB	00H
	DB	00H
	DB	00H
	DB	01H
	ORG $+6
Subtruct_out_data_1_21 DB 03H
	DB	00H
	DB	00H
	DB	00H
	DB	00H
	DB	00H
	DB	00H
	DB	00H
	DB	080H
	DB	00H
	DB	00H
	DB	00H
	DB	00H
	DB	00H
	DB	00H
	DB	00H
	DB	00H
	DB	01H
	ORG $+6
Subtruct_out_data_1_22 DB 03H
	DB	0ffH
	DB	0ffH
	DB	0ffH
	DB	0ffH
	DB	0ffH
	DB	0ffH
	DB	0ffH
	DB	0ffH
	DB	00H
	DB	00H
	DB	00H
	DB	00H
	DB	00H
	DB	00H
	DB	00H
	DB	00H
	DB	01H
	ORG $+6
Subtruct_out_data_1_23 DB 03H
	DB	00H
	DB	00H
	DB	00H
	DB	00H
	DB	00H
	DB	00H
	DB	00H
	DB	00H
	DB	01H
	DB	00H
	DB	00H
	DB	00H
	DB	00H
	DB	00H
	DB	00H
	DB	00H
	DB	01H
	ORG $+6
Subtruct_out_data_1_24 DB 03H
	DB	0ffH
	DB	0ffH
	DB	0ffH
	DB	0ffH
	DB	0ffH
	DB	0ffH
	DB	0ffH
	DB	0ffH
	DB	0ffH
	DB	0ffH
	DB	0ffH
	DB	0ffH
	DB	0ffH
	DB	0ffH
	DB	0ffH
	DB	07fH
	DB	01H
	ORG $+6
Subtruct_out_data_1_25 DB 03H
	DB	00H
	DB	00H
	DB	00H
	DB	00H
	DB	00H
	DB	00H
	DB	00H
	DB	00H
	DB	00H
	DB	00H
	DB	00H
	DB	00H
	DB	00H
	DB	00H
	DB	00H
	DB	080H
	DB	01H
	ORG $+6
Subtruct_out_data_1_26 DB 03H
	DB	0ffH
	DB	0ffH
	DB	0ffH
	DB	0ffH
	DB	0ffH
	DB	0ffH
	DB	0ffH
	DB	0ffH
	DB	0ffH
	DB	0ffH
	DB	0ffH
	DB	0ffH
	DB	0ffH
	DB	0ffH
	DB	0ffH
	DB	0ffH
	DB	01H
	ORG $+6
Subtruct_out_data_1_27 DB 03H
	DB	00H
	DB	00H
	DB	00H
	DB	00H
	DB	00H
	DB	00H
	DB	00H
	DB	00H
	DB	00H
	DB	00H
	DB	00H
	DB	00H
	DB	00H
	DB	00H
	DB	00H
	DB	00H
	DB	02H
	ORG $+6
Subtruct_out_data_2_3 DB 03H
	DB	0ffH
	DB	0ffH
	DB	0ffH
	DB	0ffH
	DB	0ffH
	DB	0ffH
	DB	0ffH
	DB	0ffH
	DB	0ffH
	DB	0ffH
	DB	0ffH
	DB	0ffH
	DB	0ffH
	DB	0ffH
	DB	0ffH
	DB	07fH
	ORG $+7
Subtruct_out_data_2_4 DB 03H
	DB	00H
	DB	00H
	DB	00H
	DB	00H
	DB	00H
	DB	00H
	DB	00H
	DB	00H
	DB	00H
	DB	00H
	DB	00H
	DB	00H
	DB	00H
	DB	00H
	DB	00H
	DB	080H
	ORG $+7
Subtruct_out_data_2_5 DB 03H
	DB	0ffH
	DB	0ffH
	DB	0ffH
	DB	0ffH
	DB	0ffH
	DB	0ffH
	DB	0ffH
	DB	0ffH
	DB	0feH
	DB	0ffH
	DB	0ffH
	DB	0ffH
	DB	0ffH
	DB	0ffH
	DB	0ffH
	DB	0ffH
	ORG $+7
Subtruct_out_data_2_6 DB 03H
	DB	00H
	DB	00H
	DB	00H
	DB	00H
	DB	00H
	DB	00H
	DB	00H
	DB	00H
	DB	0ffH
	DB	0ffH
	DB	0ffH
	DB	0ffH
	DB	0ffH
	DB	0ffH
	DB	0ffH
	DB	0ffH
	ORG $+7
Subtruct_out_data_2_7 DB 03H
	DB	0ffH
	DB	0ffH
	DB	0ffH
	DB	0ffH
	DB	0ffH
	DB	0ffH
	DB	0ffH
	DB	07fH
	DB	0ffH
	DB	0ffH
	DB	0ffH
	DB	0ffH
	DB	0ffH
	DB	0ffH
	DB	0ffH
	DB	0ffH
	ORG $+7
Subtruct_out_data_2_8 DB 03H
	DB	00H
	DB	00H
	DB	00H
	DB	00H
	DB	00H
	DB	00H
	DB	00H
	DB	080H
	DB	0ffH
	DB	0ffH
	DB	0ffH
	DB	0ffH
	DB	0ffH
	DB	0ffH
	DB	0ffH
	DB	0ffH
	ORG $+7
Subtruct_out_data_2_9 DB 03H
	DB	0ffH
	DB	0ffH
	DB	0ffH
	DB	0ffH
	DB	0feH
	DB	0ffH
	DB	0ffH
	DB	0ffH
	DB	0ffH
	DB	0ffH
	DB	0ffH
	DB	0ffH
	DB	0ffH
	DB	0ffH
	DB	0ffH
	DB	0ffH
	ORG $+7
Subtruct_out_data_2_10 DB 03H
	DB	00H
	DB	00H
	DB	00H
	DB	00H
	DB	0ffH
	DB	0ffH
	DB	0ffH
	DB	0ffH
	DB	0ffH
	DB	0ffH
	DB	0ffH
	DB	0ffH
	DB	0ffH
	DB	0ffH
	DB	0ffH
	DB	0ffH
	ORG $+7
Subtruct_out_data_2_11 DB 03H
	DB	0ffH
	DB	0ffH
	DB	0ffH
	DB	07fH
	DB	0ffH
	DB	0ffH
	DB	0ffH
	DB	0ffH
	DB	0ffH
	DB	0ffH
	DB	0ffH
	DB	0ffH
	DB	0ffH
	DB	0ffH
	DB	0ffH
	DB	0ffH
	ORG $+7
Subtruct_out_data_2_12 DB 03H
	DB	00H
	DB	00H
	DB	00H
	DB	080H
	DB	0ffH
	DB	0ffH
	DB	0ffH
	DB	0ffH
	DB	0ffH
	DB	0ffH
	DB	0ffH
	DB	0ffH
	DB	0ffH
	DB	0ffH
	DB	0ffH
	DB	0ffH
	ORG $+7
Subtruct_out_data_2_13 DB 03H
	DB	0feH
	DB	0ffH
	DB	0ffH
	DB	0ffH
	DB	0ffH
	DB	0ffH
	DB	0ffH
	DB	0ffH
	DB	0ffH
	DB	0ffH
	DB	0ffH
	DB	0ffH
	DB	0ffH
	DB	0ffH
	DB	0ffH
	DB	0ffH
	ORG $+7
Subtruct_out_data_2_14 DB 03H
	DB	0ffH
	DB	0ffH
	DB	0ffH
	DB	0ffH
	DB	0ffH
	DB	0ffH
	DB	0ffH
	DB	0ffH
	DB	0ffH
	DB	0ffH
	DB	0ffH
	DB	0ffH
	DB	0ffH
	DB	0ffH
	DB	0ffH
	DB	0ffH
	ORG $+7
Subtruct_out_data_2_15 DB 03H
	DB	00H
	DB	00H
	DB	00H
	DB	00H
	DB	00H
	DB	00H
	DB	00H
	DB	00H
	DB	00H
	DB	00H
	DB	00H
	DB	00H
	DB	00H
	DB	00H
	DB	00H
	DB	00H
	DB	01H
	ORG $+6
Subtruct_out_data_2_16 DB 03H
	DB	0feH
	DB	0ffH
	DB	0ffH
	DB	07fH
	DB	00H
	DB	00H
	DB	00H
	DB	00H
	DB	00H
	DB	00H
	DB	00H
	DB	00H
	DB	00H
	DB	00H
	DB	00H
	DB	00H
	DB	01H
	ORG $+6
Subtruct_out_data_2_17 DB 03H
	DB	0ffH
	DB	0ffH
	DB	0ffH
	DB	07fH
	DB	00H
	DB	00H
	DB	00H
	DB	00H
	DB	00H
	DB	00H
	DB	00H
	DB	00H
	DB	00H
	DB	00H
	DB	00H
	DB	00H
	DB	01H
	ORG $+6
Subtruct_out_data_2_18 DB 03H
	DB	0feH
	DB	0ffH
	DB	0ffH
	DB	0ffH
	DB	00H
	DB	00H
	DB	00H
	DB	00H
	DB	00H
	DB	00H
	DB	00H
	DB	00H
	DB	00H
	DB	00H
	DB	00H
	DB	00H
	DB	01H
	ORG $+6
Subtruct_out_data_2_19 DB 03H
	DB	0ffH
	DB	0ffH
	DB	0ffH
	DB	0ffH
	DB	00H
	DB	00H
	DB	00H
	DB	00H
	DB	00H
	DB	00H
	DB	00H
	DB	00H
	DB	00H
	DB	00H
	DB	00H
	DB	00H
	DB	01H
	ORG $+6
Subtruct_out_data_2_20 DB 03H
	DB	0feH
	DB	0ffH
	DB	0ffH
	DB	0ffH
	DB	0ffH
	DB	0ffH
	DB	0ffH
	DB	07fH
	DB	00H
	DB	00H
	DB	00H
	DB	00H
	DB	00H
	DB	00H
	DB	00H
	DB	00H
	DB	01H
	ORG $+6
Subtruct_out_data_2_21 DB 03H
	DB	0ffH
	DB	0ffH
	DB	0ffH
	DB	0ffH
	DB	0ffH
	DB	0ffH
	DB	0ffH
	DB	07fH
	DB	00H
	DB	00H
	DB	00H
	DB	00H
	DB	00H
	DB	00H
	DB	00H
	DB	00H
	DB	01H
	ORG $+6
Subtruct_out_data_2_22 DB 03H
	DB	0feH
	DB	0ffH
	DB	0ffH
	DB	0ffH
	DB	0ffH
	DB	0ffH
	DB	0ffH
	DB	0ffH
	DB	00H
	DB	00H
	DB	00H
	DB	00H
	DB	00H
	DB	00H
	DB	00H
	DB	00H
	DB	01H
	ORG $+6
Subtruct_out_data_2_23 DB 03H
	DB	0ffH
	DB	0ffH
	DB	0ffH
	DB	0ffH
	DB	0ffH
	DB	0ffH
	DB	0ffH
	DB	0ffH
	DB	00H
	DB	00H
	DB	00H
	DB	00H
	DB	00H
	DB	00H
	DB	00H
	DB	00H
	DB	01H
	ORG $+6
Subtruct_out_data_2_24 DB 03H
	DB	0feH
	DB	0ffH
	DB	0ffH
	DB	0ffH
	DB	0ffH
	DB	0ffH
	DB	0ffH
	DB	0ffH
	DB	0ffH
	DB	0ffH
	DB	0ffH
	DB	0ffH
	DB	0ffH
	DB	0ffH
	DB	0ffH
	DB	07fH
	DB	01H
	ORG $+6
Subtruct_out_data_2_25 DB 03H
	DB	0ffH
	DB	0ffH
	DB	0ffH
	DB	0ffH
	DB	0ffH
	DB	0ffH
	DB	0ffH
	DB	0ffH
	DB	0ffH
	DB	0ffH
	DB	0ffH
	DB	0ffH
	DB	0ffH
	DB	0ffH
	DB	0ffH
	DB	07fH
	DB	01H
	ORG $+6
Subtruct_out_data_2_26 DB 03H
	DB	0feH
	DB	0ffH
	DB	0ffH
	DB	0ffH
	DB	0ffH
	DB	0ffH
	DB	0ffH
	DB	0ffH
	DB	0ffH
	DB	0ffH
	DB	0ffH
	DB	0ffH
	DB	0ffH
	DB	0ffH
	DB	0ffH
	DB	0ffH
	DB	01H
	ORG $+6
Subtruct_out_data_2_27 DB 03H
	DB	0ffH
	DB	0ffH
	DB	0ffH
	DB	0ffH
	DB	0ffH
	DB	0ffH
	DB	0ffH
	DB	0ffH
	DB	0ffH
	DB	0ffH
	DB	0ffH
	DB	0ffH
	DB	0ffH
	DB	0ffH
	DB	0ffH
	DB	0ffH
	DB	01H
	ORG $+6
Subtruct_out_data_3_1 DB 01H
	DB	00H
	DB	00H
	DB	00H
	DB	00H
	DB	00H
	DB	00H
	DB	00H
	DB	00H
	DB	00H
	DB	00H
	DB	00H
	DB	00H
	DB	00H
	DB	00H
	DB	00H
	DB	080H
	ORG $+7
Subtruct_out_data_3_2 DB 01H
	DB	0ffH
	DB	0ffH
	DB	0ffH
	DB	0ffH
	DB	0ffH
	DB	0ffH
	DB	0ffH
	DB	0ffH
	DB	0ffH
	DB	0ffH
	DB	0ffH
	DB	0ffH
	DB	0ffH
	DB	0ffH
	DB	0ffH
	DB	07fH
	ORG $+7
Subtruct_out_data_3_5 DB 03H
	DB	00H
	DB	00H
	DB	00H
	DB	00H
	DB	00H
	DB	00H
	DB	00H
	DB	00H
	DB	0ffH
	DB	0ffH
	DB	0ffH
	DB	0ffH
	DB	0ffH
	DB	0ffH
	DB	0ffH
	DB	07fH
	ORG $+7
Subtruct_out_data_3_6 DB 03H
	DB	01H
	DB	00H
	DB	00H
	DB	00H
	DB	00H
	DB	00H
	DB	00H
	DB	00H
	DB	0ffH
	DB	0ffH
	DB	0ffH
	DB	0ffH
	DB	0ffH
	DB	0ffH
	DB	0ffH
	DB	07fH
	ORG $+7
Subtruct_out_data_3_7 DB 03H
	DB	00H
	DB	00H
	DB	00H
	DB	00H
	DB	00H
	DB	00H
	DB	00H
	DB	080H
	DB	0ffH
	DB	0ffH
	DB	0ffH
	DB	0ffH
	DB	0ffH
	DB	0ffH
	DB	0ffH
	DB	07fH
	ORG $+7
Subtruct_out_data_3_8 DB 03H
	DB	01H
	DB	00H
	DB	00H
	DB	00H
	DB	00H
	DB	00H
	DB	00H
	DB	080H
	DB	0ffH
	DB	0ffH
	DB	0ffH
	DB	0ffH
	DB	0ffH
	DB	0ffH
	DB	0ffH
	DB	07fH
	ORG $+7
Subtruct_out_data_3_9 DB 03H
	DB	00H
	DB	00H
	DB	00H
	DB	00H
	DB	0ffH
	DB	0ffH
	DB	0ffH
	DB	0ffH
	DB	0ffH
	DB	0ffH
	DB	0ffH
	DB	0ffH
	DB	0ffH
	DB	0ffH
	DB	0ffH
	DB	07fH
	ORG $+7
Subtruct_out_data_3_10 DB 03H
	DB	01H
	DB	00H
	DB	00H
	DB	00H
	DB	0ffH
	DB	0ffH
	DB	0ffH
	DB	0ffH
	DB	0ffH
	DB	0ffH
	DB	0ffH
	DB	0ffH
	DB	0ffH
	DB	0ffH
	DB	0ffH
	DB	07fH
	ORG $+7
Subtruct_out_data_3_11 DB 03H
	DB	00H
	DB	00H
	DB	00H
	DB	080H
	DB	0ffH
	DB	0ffH
	DB	0ffH
	DB	0ffH
	DB	0ffH
	DB	0ffH
	DB	0ffH
	DB	0ffH
	DB	0ffH
	DB	0ffH
	DB	0ffH
	DB	07fH
	ORG $+7
Subtruct_out_data_3_12 DB 03H
	DB	01H
	DB	00H
	DB	00H
	DB	080H
	DB	0ffH
	DB	0ffH
	DB	0ffH
	DB	0ffH
	DB	0ffH
	DB	0ffH
	DB	0ffH
	DB	0ffH
	DB	0ffH
	DB	0ffH
	DB	0ffH
	DB	07fH
	ORG $+7
Subtruct_out_data_3_13 DB 03H
	DB	0ffH
	DB	0ffH
	DB	0ffH
	DB	0ffH
	DB	0ffH
	DB	0ffH
	DB	0ffH
	DB	0ffH
	DB	0ffH
	DB	0ffH
	DB	0ffH
	DB	0ffH
	DB	0ffH
	DB	0ffH
	DB	0ffH
	DB	07fH
	ORG $+7
Subtruct_out_data_3_14 DB 03H
	DB	00H
	DB	00H
	DB	00H
	DB	00H
	DB	00H
	DB	00H
	DB	00H
	DB	00H
	DB	00H
	DB	00H
	DB	00H
	DB	00H
	DB	00H
	DB	00H
	DB	00H
	DB	080H
	ORG $+7
Subtruct_out_data_3_15 DB 03H
	DB	01H
	DB	00H
	DB	00H
	DB	00H
	DB	00H
	DB	00H
	DB	00H
	DB	00H
	DB	00H
	DB	00H
	DB	00H
	DB	00H
	DB	00H
	DB	00H
	DB	00H
	DB	080H
	ORG $+7
Subtruct_out_data_3_16 DB 03H
	DB	0ffH
	DB	0ffH
	DB	0ffH
	DB	07fH
	DB	00H
	DB	00H
	DB	00H
	DB	00H
	DB	00H
	DB	00H
	DB	00H
	DB	00H
	DB	00H
	DB	00H
	DB	00H
	DB	080H
	ORG $+7
Subtruct_out_data_3_17 DB 03H
	DB	00H
	DB	00H
	DB	00H
	DB	080H
	DB	00H
	DB	00H
	DB	00H
	DB	00H
	DB	00H
	DB	00H
	DB	00H
	DB	00H
	DB	00H
	DB	00H
	DB	00H
	DB	080H
	ORG $+7
Subtruct_out_data_3_18 DB 03H
	DB	0ffH
	DB	0ffH
	DB	0ffH
	DB	0ffH
	DB	00H
	DB	00H
	DB	00H
	DB	00H
	DB	00H
	DB	00H
	DB	00H
	DB	00H
	DB	00H
	DB	00H
	DB	00H
	DB	080H
	ORG $+7
Subtruct_out_data_3_19 DB 03H
	DB	00H
	DB	00H
	DB	00H
	DB	00H
	DB	01H
	DB	00H
	DB	00H
	DB	00H
	DB	00H
	DB	00H
	DB	00H
	DB	00H
	DB	00H
	DB	00H
	DB	00H
	DB	080H
	ORG $+7
Subtruct_out_data_3_20 DB 03H
	DB	0ffH
	DB	0ffH
	DB	0ffH
	DB	0ffH
	DB	0ffH
	DB	0ffH
	DB	0ffH
	DB	07fH
	DB	00H
	DB	00H
	DB	00H
	DB	00H
	DB	00H
	DB	00H
	DB	00H
	DB	080H
	ORG $+7
Subtruct_out_data_3_21 DB 03H
	DB	00H
	DB	00H
	DB	00H
	DB	00H
	DB	00H
	DB	00H
	DB	00H
	DB	080H
	DB	00H
	DB	00H
	DB	00H
	DB	00H
	DB	00H
	DB	00H
	DB	00H
	DB	080H
	ORG $+7
Subtruct_out_data_3_22 DB 03H
	DB	0ffH
	DB	0ffH
	DB	0ffH
	DB	0ffH
	DB	0ffH
	DB	0ffH
	DB	0ffH
	DB	0ffH
	DB	00H
	DB	00H
	DB	00H
	DB	00H
	DB	00H
	DB	00H
	DB	00H
	DB	080H
	ORG $+7
Subtruct_out_data_3_23 DB 03H
	DB	00H
	DB	00H
	DB	00H
	DB	00H
	DB	00H
	DB	00H
	DB	00H
	DB	00H
	DB	01H
	DB	00H
	DB	00H
	DB	00H
	DB	00H
	DB	00H
	DB	00H
	DB	080H
	ORG $+7
Subtruct_out_data_3_24 DB 03H
	DB	0ffH
	DB	0ffH
	DB	0ffH
	DB	0ffH
	DB	0ffH
	DB	0ffH
	DB	0ffH
	DB	0ffH
	DB	0ffH
	DB	0ffH
	DB	0ffH
	DB	0ffH
	DB	0ffH
	DB	0ffH
	DB	0ffH
	DB	0ffH
	ORG $+7
Subtruct_out_data_3_25 DB 03H
	DB	00H
	DB	00H
	DB	00H
	DB	00H
	DB	00H
	DB	00H
	DB	00H
	DB	00H
	DB	00H
	DB	00H
	DB	00H
	DB	00H
	DB	00H
	DB	00H
	DB	00H
	DB	00H
	DB	01H
	ORG $+6
Subtruct_out_data_3_26 DB 03H
	DB	0ffH
	DB	0ffH
	DB	0ffH
	DB	0ffH
	DB	0ffH
	DB	0ffH
	DB	0ffH
	DB	0ffH
	DB	0ffH
	DB	0ffH
	DB	0ffH
	DB	0ffH
	DB	0ffH
	DB	0ffH
	DB	0ffH
	DB	07fH
	DB	01H
	ORG $+6
Subtruct_out_data_3_27 DB 03H
	DB	00H
	DB	00H
	DB	00H
	DB	00H
	DB	00H
	DB	00H
	DB	00H
	DB	00H
	DB	00H
	DB	00H
	DB	00H
	DB	00H
	DB	00H
	DB	00H
	DB	00H
	DB	080H
	DB	01H
	ORG $+6
Subtruct_out_data_4_1 DB 01H
	DB	01H
	DB	00H
	DB	00H
	DB	00H
	DB	00H
	DB	00H
	DB	00H
	DB	00H
	DB	00H
	DB	00H
	DB	00H
	DB	00H
	DB	00H
	DB	00H
	DB	00H
	DB	080H
	ORG $+7
Subtruct_out_data_4_2 DB 01H
	DB	00H
	DB	00H
	DB	00H
	DB	00H
	DB	00H
	DB	00H
	DB	00H
	DB	00H
	DB	00H
	DB	00H
	DB	00H
	DB	00H
	DB	00H
	DB	00H
	DB	00H
	DB	080H
	ORG $+7
Subtruct_out_data_4_5 DB 03H
	DB	0ffH
	DB	0ffH
	DB	0ffH
	DB	0ffH
	DB	0ffH
	DB	0ffH
	DB	0ffH
	DB	0ffH
	DB	0feH
	DB	0ffH
	DB	0ffH
	DB	0ffH
	DB	0ffH
	DB	0ffH
	DB	0ffH
	DB	07fH
	ORG $+7
Subtruct_out_data_4_6 DB 03H
	DB	00H
	DB	00H
	DB	00H
	DB	00H
	DB	00H
	DB	00H
	DB	00H
	DB	00H
	DB	0ffH
	DB	0ffH
	DB	0ffH
	DB	0ffH
	DB	0ffH
	DB	0ffH
	DB	0ffH
	DB	07fH
	ORG $+7
Subtruct_out_data_4_7 DB 03H
	DB	0ffH
	DB	0ffH
	DB	0ffH
	DB	0ffH
	DB	0ffH
	DB	0ffH
	DB	0ffH
	DB	07fH
	DB	0ffH
	DB	0ffH
	DB	0ffH
	DB	0ffH
	DB	0ffH
	DB	0ffH
	DB	0ffH
	DB	07fH
	ORG $+7
Subtruct_out_data_4_8 DB 03H
	DB	00H
	DB	00H
	DB	00H
	DB	00H
	DB	00H
	DB	00H
	DB	00H
	DB	080H
	DB	0ffH
	DB	0ffH
	DB	0ffH
	DB	0ffH
	DB	0ffH
	DB	0ffH
	DB	0ffH
	DB	07fH
	ORG $+7
Subtruct_out_data_4_9 DB 03H
	DB	0ffH
	DB	0ffH
	DB	0ffH
	DB	0ffH
	DB	0feH
	DB	0ffH
	DB	0ffH
	DB	0ffH
	DB	0ffH
	DB	0ffH
	DB	0ffH
	DB	0ffH
	DB	0ffH
	DB	0ffH
	DB	0ffH
	DB	07fH
	ORG $+7
Subtruct_out_data_4_10 DB 03H
	DB	00H
	DB	00H
	DB	00H
	DB	00H
	DB	0ffH
	DB	0ffH
	DB	0ffH
	DB	0ffH
	DB	0ffH
	DB	0ffH
	DB	0ffH
	DB	0ffH
	DB	0ffH
	DB	0ffH
	DB	0ffH
	DB	07fH
	ORG $+7
Subtruct_out_data_4_11 DB 03H
	DB	0ffH
	DB	0ffH
	DB	0ffH
	DB	07fH
	DB	0ffH
	DB	0ffH
	DB	0ffH
	DB	0ffH
	DB	0ffH
	DB	0ffH
	DB	0ffH
	DB	0ffH
	DB	0ffH
	DB	0ffH
	DB	0ffH
	DB	07fH
	ORG $+7
Subtruct_out_data_4_12 DB 03H
	DB	00H
	DB	00H
	DB	00H
	DB	080H
	DB	0ffH
	DB	0ffH
	DB	0ffH
	DB	0ffH
	DB	0ffH
	DB	0ffH
	DB	0ffH
	DB	0ffH
	DB	0ffH
	DB	0ffH
	DB	0ffH
	DB	07fH
	ORG $+7
Subtruct_out_data_4_13 DB 03H
	DB	0feH
	DB	0ffH
	DB	0ffH
	DB	0ffH
	DB	0ffH
	DB	0ffH
	DB	0ffH
	DB	0ffH
	DB	0ffH
	DB	0ffH
	DB	0ffH
	DB	0ffH
	DB	0ffH
	DB	0ffH
	DB	0ffH
	DB	07fH
	ORG $+7
Subtruct_out_data_4_14 DB 03H
	DB	0ffH
	DB	0ffH
	DB	0ffH
	DB	0ffH
	DB	0ffH
	DB	0ffH
	DB	0ffH
	DB	0ffH
	DB	0ffH
	DB	0ffH
	DB	0ffH
	DB	0ffH
	DB	0ffH
	DB	0ffH
	DB	0ffH
	DB	07fH
	ORG $+7
Subtruct_out_data_4_15 DB 03H
	DB	00H
	DB	00H
	DB	00H
	DB	00H
	DB	00H
	DB	00H
	DB	00H
	DB	00H
	DB	00H
	DB	00H
	DB	00H
	DB	00H
	DB	00H
	DB	00H
	DB	00H
	DB	080H
	ORG $+7
Subtruct_out_data_4_16 DB 03H
	DB	0feH
	DB	0ffH
	DB	0ffH
	DB	07fH
	DB	00H
	DB	00H
	DB	00H
	DB	00H
	DB	00H
	DB	00H
	DB	00H
	DB	00H
	DB	00H
	DB	00H
	DB	00H
	DB	080H
	ORG $+7
Subtruct_out_data_4_17 DB 03H
	DB	0ffH
	DB	0ffH
	DB	0ffH
	DB	07fH
	DB	00H
	DB	00H
	DB	00H
	DB	00H
	DB	00H
	DB	00H
	DB	00H
	DB	00H
	DB	00H
	DB	00H
	DB	00H
	DB	080H
	ORG $+7
Subtruct_out_data_4_18 DB 03H
	DB	0feH
	DB	0ffH
	DB	0ffH
	DB	0ffH
	DB	00H
	DB	00H
	DB	00H
	DB	00H
	DB	00H
	DB	00H
	DB	00H
	DB	00H
	DB	00H
	DB	00H
	DB	00H
	DB	080H
	ORG $+7
Subtruct_out_data_4_19 DB 03H
	DB	0ffH
	DB	0ffH
	DB	0ffH
	DB	0ffH
	DB	00H
	DB	00H
	DB	00H
	DB	00H
	DB	00H
	DB	00H
	DB	00H
	DB	00H
	DB	00H
	DB	00H
	DB	00H
	DB	080H
	ORG $+7
Subtruct_out_data_4_20 DB 03H
	DB	0feH
	DB	0ffH
	DB	0ffH
	DB	0ffH
	DB	0ffH
	DB	0ffH
	DB	0ffH
	DB	07fH
	DB	00H
	DB	00H
	DB	00H
	DB	00H
	DB	00H
	DB	00H
	DB	00H
	DB	080H
	ORG $+7
Subtruct_out_data_4_21 DB 03H
	DB	0ffH
	DB	0ffH
	DB	0ffH
	DB	0ffH
	DB	0ffH
	DB	0ffH
	DB	0ffH
	DB	07fH
	DB	00H
	DB	00H
	DB	00H
	DB	00H
	DB	00H
	DB	00H
	DB	00H
	DB	080H
	ORG $+7
Subtruct_out_data_4_22 DB 03H
	DB	0feH
	DB	0ffH
	DB	0ffH
	DB	0ffH
	DB	0ffH
	DB	0ffH
	DB	0ffH
	DB	0ffH
	DB	00H
	DB	00H
	DB	00H
	DB	00H
	DB	00H
	DB	00H
	DB	00H
	DB	080H
	ORG $+7
Subtruct_out_data_4_23 DB 03H
	DB	0ffH
	DB	0ffH
	DB	0ffH
	DB	0ffH
	DB	0ffH
	DB	0ffH
	DB	0ffH
	DB	0ffH
	DB	00H
	DB	00H
	DB	00H
	DB	00H
	DB	00H
	DB	00H
	DB	00H
	DB	080H
	ORG $+7
Subtruct_out_data_4_24 DB 03H
	DB	0feH
	DB	0ffH
	DB	0ffH
	DB	0ffH
	DB	0ffH
	DB	0ffH
	DB	0ffH
	DB	0ffH
	DB	0ffH
	DB	0ffH
	DB	0ffH
	DB	0ffH
	DB	0ffH
	DB	0ffH
	DB	0ffH
	DB	0ffH
	ORG $+7
Subtruct_out_data_4_25 DB 03H
	DB	0ffH
	DB	0ffH
	DB	0ffH
	DB	0ffH
	DB	0ffH
	DB	0ffH
	DB	0ffH
	DB	0ffH
	DB	0ffH
	DB	0ffH
	DB	0ffH
	DB	0ffH
	DB	0ffH
	DB	0ffH
	DB	0ffH
	DB	0ffH
	ORG $+7
Subtruct_out_data_4_26 DB 03H
	DB	0feH
	DB	0ffH
	DB	0ffH
	DB	0ffH
	DB	0ffH
	DB	0ffH
	DB	0ffH
	DB	0ffH
	DB	0ffH
	DB	0ffH
	DB	0ffH
	DB	0ffH
	DB	0ffH
	DB	0ffH
	DB	0ffH
	DB	07fH
	DB	01H
	ORG $+6
Subtruct_out_data_4_27 DB 03H
	DB	0ffH
	DB	0ffH
	DB	0ffH
	DB	0ffH
	DB	0ffH
	DB	0ffH
	DB	0ffH
	DB	0ffH
	DB	0ffH
	DB	0ffH
	DB	0ffH
	DB	0ffH
	DB	0ffH
	DB	0ffH
	DB	0ffH
	DB	07fH
	DB	01H
	ORG $+6
Subtruct_out_data_5_1 DB 01H
	DB	00H
	DB	00H
	DB	00H
	DB	00H
	DB	00H
	DB	00H
	DB	00H
	DB	00H
	DB	0ffH
	DB	0ffH
	DB	0ffH
	DB	0ffH
	DB	0ffH
	DB	0ffH
	DB	0ffH
	DB	0ffH
	ORG $+7
Subtruct_out_data_5_2 DB 01H
	DB	0ffH
	DB	0ffH
	DB	0ffH
	DB	0ffH
	DB	0ffH
	DB	0ffH
	DB	0ffH
	DB	0ffH
	DB	0feH
	DB	0ffH
	DB	0ffH
	DB	0ffH
	DB	0ffH
	DB	0ffH
	DB	0ffH
	DB	0ffH
	ORG $+7
Subtruct_out_data_5_3 DB 01H
	DB	00H
	DB	00H
	DB	00H
	DB	00H
	DB	00H
	DB	00H
	DB	00H
	DB	00H
	DB	0ffH
	DB	0ffH
	DB	0ffH
	DB	0ffH
	DB	0ffH
	DB	0ffH
	DB	0ffH
	DB	07fH
	ORG $+7
Subtruct_out_data_5_4 DB 01H
	DB	0ffH
	DB	0ffH
	DB	0ffH
	DB	0ffH
	DB	0ffH
	DB	0ffH
	DB	0ffH
	DB	0ffH
	DB	0feH
	DB	0ffH
	DB	0ffH
	DB	0ffH
	DB	0ffH
	DB	0ffH
	DB	0ffH
	DB	07fH
	ORG $+7
Subtruct_out_data_5_7 DB 03H
	DB	00H
	DB	00H
	DB	00H
	DB	00H
	DB	00H
	DB	00H
	DB	00H
	DB	080H
	ORG $+7
Subtruct_out_data_5_8 DB 03H
	DB	01H
	DB	00H
	DB	00H
	DB	00H
	DB	00H
	DB	00H
	DB	00H
	DB	080H
	ORG $+7
Subtruct_out_data_5_9 DB 03H
	DB	00H
	DB	00H
	DB	00H
	DB	00H
	DB	0ffH
	DB	0ffH
	DB	0ffH
	DB	0ffH
	ORG $+7
Subtruct_out_data_5_10 DB 03H
	DB	01H
	DB	00H
	DB	00H
	DB	00H
	DB	0ffH
	DB	0ffH
	DB	0ffH
	DB	0ffH
	ORG $+7
Subtruct_out_data_5_11 DB 03H
	DB	00H
	DB	00H
	DB	00H
	DB	080H
	DB	0ffH
	DB	0ffH
	DB	0ffH
	DB	0ffH
	ORG $+7
Subtruct_out_data_5_12 DB 03H
	DB	01H
	DB	00H
	DB	00H
	DB	080H
	DB	0ffH
	DB	0ffH
	DB	0ffH
	DB	0ffH
	ORG $+7
Subtruct_out_data_5_13 DB 03H
	DB	0ffH
	DB	0ffH
	DB	0ffH
	DB	0ffH
	DB	0ffH
	DB	0ffH
	DB	0ffH
	DB	0ffH
	ORG $+7
Subtruct_out_data_5_14 DB 03H
	DB	00H
	DB	00H
	DB	00H
	DB	00H
	DB	00H
	DB	00H
	DB	00H
	DB	00H
	DB	01H
	ORG $+6
Subtruct_out_data_5_15 DB 03H
	DB	01H
	DB	00H
	DB	00H
	DB	00H
	DB	00H
	DB	00H
	DB	00H
	DB	00H
	DB	01H
	ORG $+6
Subtruct_out_data_5_16 DB 03H
	DB	0ffH
	DB	0ffH
	DB	0ffH
	DB	07fH
	DB	00H
	DB	00H
	DB	00H
	DB	00H
	DB	01H
	ORG $+6
Subtruct_out_data_5_17 DB 03H
	DB	00H
	DB	00H
	DB	00H
	DB	080H
	DB	00H
	DB	00H
	DB	00H
	DB	00H
	DB	01H
	ORG $+6
Subtruct_out_data_5_18 DB 03H
	DB	0ffH
	DB	0ffH
	DB	0ffH
	DB	0ffH
	DB	00H
	DB	00H
	DB	00H
	DB	00H
	DB	01H
	ORG $+6
Subtruct_out_data_5_19 DB 03H
	DB	00H
	DB	00H
	DB	00H
	DB	00H
	DB	01H
	DB	00H
	DB	00H
	DB	00H
	DB	01H
	ORG $+6
Subtruct_out_data_5_20 DB 03H
	DB	0ffH
	DB	0ffH
	DB	0ffH
	DB	0ffH
	DB	0ffH
	DB	0ffH
	DB	0ffH
	DB	07fH
	DB	01H
	ORG $+6
Subtruct_out_data_5_21 DB 03H
	DB	00H
	DB	00H
	DB	00H
	DB	00H
	DB	00H
	DB	00H
	DB	00H
	DB	080H
	DB	01H
	ORG $+6
Subtruct_out_data_5_22 DB 03H
	DB	0ffH
	DB	0ffH
	DB	0ffH
	DB	0ffH
	DB	0ffH
	DB	0ffH
	DB	0ffH
	DB	0ffH
	DB	01H
	ORG $+6
Subtruct_out_data_5_23 DB 03H
	DB	00H
	DB	00H
	DB	00H
	DB	00H
	DB	00H
	DB	00H
	DB	00H
	DB	00H
	DB	02H
	ORG $+6
Subtruct_out_data_5_24 DB 03H
	DB	0ffH
	DB	0ffH
	DB	0ffH
	DB	0ffH
	DB	0ffH
	DB	0ffH
	DB	0ffH
	DB	0ffH
	DB	00H
	DB	00H
	DB	00H
	DB	00H
	DB	00H
	DB	00H
	DB	00H
	DB	080H
	ORG $+7
Subtruct_out_data_5_25 DB 03H
	DB	00H
	DB	00H
	DB	00H
	DB	00H
	DB	00H
	DB	00H
	DB	00H
	DB	00H
	DB	01H
	DB	00H
	DB	00H
	DB	00H
	DB	00H
	DB	00H
	DB	00H
	DB	080H
	ORG $+7
Subtruct_out_data_5_26 DB 03H
	DB	0ffH
	DB	0ffH
	DB	0ffH
	DB	0ffH
	DB	0ffH
	DB	0ffH
	DB	0ffH
	DB	0ffH
	DB	00H
	DB	00H
	DB	00H
	DB	00H
	DB	00H
	DB	00H
	DB	00H
	DB	00H
	DB	01H
	ORG $+6
Subtruct_out_data_5_27 DB 03H
	DB	00H
	DB	00H
	DB	00H
	DB	00H
	DB	00H
	DB	00H
	DB	00H
	DB	00H
	DB	01H
	DB	00H
	DB	00H
	DB	00H
	DB	00H
	DB	00H
	DB	00H
	DB	00H
	DB	01H
	ORG $+6
Subtruct_out_data_6_1 DB 01H
	DB	01H
	DB	00H
	DB	00H
	DB	00H
	DB	00H
	DB	00H
	DB	00H
	DB	00H
	DB	0ffH
	DB	0ffH
	DB	0ffH
	DB	0ffH
	DB	0ffH
	DB	0ffH
	DB	0ffH
	DB	0ffH
	ORG $+7
Subtruct_out_data_6_2 DB 01H
	DB	00H
	DB	00H
	DB	00H
	DB	00H
	DB	00H
	DB	00H
	DB	00H
	DB	00H
	DB	0ffH
	DB	0ffH
	DB	0ffH
	DB	0ffH
	DB	0ffH
	DB	0ffH
	DB	0ffH
	DB	0ffH
	ORG $+7
Subtruct_out_data_6_3 DB 01H
	DB	01H
	DB	00H
	DB	00H
	DB	00H
	DB	00H
	DB	00H
	DB	00H
	DB	00H
	DB	0ffH
	DB	0ffH
	DB	0ffH
	DB	0ffH
	DB	0ffH
	DB	0ffH
	DB	0ffH
	DB	07fH
	ORG $+7
Subtruct_out_data_6_4 DB 01H
	DB	00H
	DB	00H
	DB	00H
	DB	00H
	DB	00H
	DB	00H
	DB	00H
	DB	00H
	DB	0ffH
	DB	0ffH
	DB	0ffH
	DB	0ffH
	DB	0ffH
	DB	0ffH
	DB	0ffH
	DB	07fH
	ORG $+7
Subtruct_out_data_6_7 DB 03H
	DB	0ffH
	DB	0ffH
	DB	0ffH
	DB	0ffH
	DB	0ffH
	DB	0ffH
	DB	0ffH
	DB	07fH
	ORG $+7
Subtruct_out_data_6_8 DB 03H
	DB	00H
	DB	00H
	DB	00H
	DB	00H
	DB	00H
	DB	00H
	DB	00H
	DB	080H
	ORG $+7
Subtruct_out_data_6_9 DB 03H
	DB	0ffH
	DB	0ffH
	DB	0ffH
	DB	0ffH
	DB	0feH
	DB	0ffH
	DB	0ffH
	DB	0ffH
	ORG $+7
Subtruct_out_data_6_10 DB 03H
	DB	00H
	DB	00H
	DB	00H
	DB	00H
	DB	0ffH
	DB	0ffH
	DB	0ffH
	DB	0ffH
	ORG $+7
Subtruct_out_data_6_11 DB 03H
	DB	0ffH
	DB	0ffH
	DB	0ffH
	DB	07fH
	DB	0ffH
	DB	0ffH
	DB	0ffH
	DB	0ffH
	ORG $+7
Subtruct_out_data_6_12 DB 03H
	DB	00H
	DB	00H
	DB	00H
	DB	080H
	DB	0ffH
	DB	0ffH
	DB	0ffH
	DB	0ffH
	ORG $+7
Subtruct_out_data_6_13 DB 03H
	DB	0feH
	DB	0ffH
	DB	0ffH
	DB	0ffH
	DB	0ffH
	DB	0ffH
	DB	0ffH
	DB	0ffH
	ORG $+7
Subtruct_out_data_6_14 DB 03H
	DB	0ffH
	DB	0ffH
	DB	0ffH
	DB	0ffH
	DB	0ffH
	DB	0ffH
	DB	0ffH
	DB	0ffH
	ORG $+7
Subtruct_out_data_6_15 DB 03H
	DB	00H
	DB	00H
	DB	00H
	DB	00H
	DB	00H
	DB	00H
	DB	00H
	DB	00H
	DB	01H
	ORG $+6
Subtruct_out_data_6_16 DB 03H
	DB	0feH
	DB	0ffH
	DB	0ffH
	DB	07fH
	DB	00H
	DB	00H
	DB	00H
	DB	00H
	DB	01H
	ORG $+6
Subtruct_out_data_6_17 DB 03H
	DB	0ffH
	DB	0ffH
	DB	0ffH
	DB	07fH
	DB	00H
	DB	00H
	DB	00H
	DB	00H
	DB	01H
	ORG $+6
Subtruct_out_data_6_18 DB 03H
	DB	0feH
	DB	0ffH
	DB	0ffH
	DB	0ffH
	DB	00H
	DB	00H
	DB	00H
	DB	00H
	DB	01H
	ORG $+6
Subtruct_out_data_6_19 DB 03H
	DB	0ffH
	DB	0ffH
	DB	0ffH
	DB	0ffH
	DB	00H
	DB	00H
	DB	00H
	DB	00H
	DB	01H
	ORG $+6
Subtruct_out_data_6_20 DB 03H
	DB	0feH
	DB	0ffH
	DB	0ffH
	DB	0ffH
	DB	0ffH
	DB	0ffH
	DB	0ffH
	DB	07fH
	DB	01H
	ORG $+6
Subtruct_out_data_6_21 DB 03H
	DB	0ffH
	DB	0ffH
	DB	0ffH
	DB	0ffH
	DB	0ffH
	DB	0ffH
	DB	0ffH
	DB	07fH
	DB	01H
	ORG $+6
Subtruct_out_data_6_22 DB 03H
	DB	0feH
	DB	0ffH
	DB	0ffH
	DB	0ffH
	DB	0ffH
	DB	0ffH
	DB	0ffH
	DB	0ffH
	DB	01H
	ORG $+6
Subtruct_out_data_6_23 DB 03H
	DB	0ffH
	DB	0ffH
	DB	0ffH
	DB	0ffH
	DB	0ffH
	DB	0ffH
	DB	0ffH
	DB	0ffH
	DB	01H
	ORG $+6
Subtruct_out_data_6_24 DB 03H
	DB	0feH
	DB	0ffH
	DB	0ffH
	DB	0ffH
	DB	0ffH
	DB	0ffH
	DB	0ffH
	DB	0ffH
	DB	00H
	DB	00H
	DB	00H
	DB	00H
	DB	00H
	DB	00H
	DB	00H
	DB	080H
	ORG $+7
Subtruct_out_data_6_25 DB 03H
	DB	0ffH
	DB	0ffH
	DB	0ffH
	DB	0ffH
	DB	0ffH
	DB	0ffH
	DB	0ffH
	DB	0ffH
	DB	00H
	DB	00H
	DB	00H
	DB	00H
	DB	00H
	DB	00H
	DB	00H
	DB	080H
	ORG $+7
Subtruct_out_data_6_26 DB 03H
	DB	0feH
	DB	0ffH
	DB	0ffH
	DB	0ffH
	DB	0ffH
	DB	0ffH
	DB	0ffH
	DB	0ffH
	DB	00H
	DB	00H
	DB	00H
	DB	00H
	DB	00H
	DB	00H
	DB	00H
	DB	00H
	DB	01H
	ORG $+6
Subtruct_out_data_6_27 DB 03H
	DB	0ffH
	DB	0ffH
	DB	0ffH
	DB	0ffH
	DB	0ffH
	DB	0ffH
	DB	0ffH
	DB	0ffH
	DB	00H
	DB	00H
	DB	00H
	DB	00H
	DB	00H
	DB	00H
	DB	00H
	DB	00H
	DB	01H
	ORG $+6
Subtruct_out_data_7_1 DB 01H
	DB	00H
	DB	00H
	DB	00H
	DB	00H
	DB	00H
	DB	00H
	DB	00H
	DB	080H
	DB	0ffH
	DB	0ffH
	DB	0ffH
	DB	0ffH
	DB	0ffH
	DB	0ffH
	DB	0ffH
	DB	0ffH
	ORG $+7
Subtruct_out_data_7_2 DB 01H
	DB	0ffH
	DB	0ffH
	DB	0ffH
	DB	0ffH
	DB	0ffH
	DB	0ffH
	DB	0ffH
	DB	07fH
	DB	0ffH
	DB	0ffH
	DB	0ffH
	DB	0ffH
	DB	0ffH
	DB	0ffH
	DB	0ffH
	DB	0ffH
	ORG $+7
Subtruct_out_data_7_3 DB 01H
	DB	00H
	DB	00H
	DB	00H
	DB	00H
	DB	00H
	DB	00H
	DB	00H
	DB	080H
	DB	0ffH
	DB	0ffH
	DB	0ffH
	DB	0ffH
	DB	0ffH
	DB	0ffH
	DB	0ffH
	DB	07fH
	ORG $+7
Subtruct_out_data_7_4 DB 01H
	DB	0ffH
	DB	0ffH
	DB	0ffH
	DB	0ffH
	DB	0ffH
	DB	0ffH
	DB	0ffH
	DB	07fH
	DB	0ffH
	DB	0ffH
	DB	0ffH
	DB	0ffH
	DB	0ffH
	DB	0ffH
	DB	0ffH
	DB	07fH
	ORG $+7
Subtruct_out_data_7_5 DB 01H
	DB	00H
	DB	00H
	DB	00H
	DB	00H
	DB	00H
	DB	00H
	DB	00H
	DB	080H
	ORG $+7
Subtruct_out_data_7_6 DB 01H
	DB	0ffH
	DB	0ffH
	DB	0ffH
	DB	0ffH
	DB	0ffH
	DB	0ffH
	DB	0ffH
	DB	07fH
	ORG $+7
Subtruct_out_data_7_9 DB 03H
	DB	00H
	DB	00H
	DB	00H
	DB	00H
	DB	0ffH
	DB	0ffH
	DB	0ffH
	DB	07fH
	ORG $+7
Subtruct_out_data_7_10 DB 03H
	DB	01H
	DB	00H
	DB	00H
	DB	00H
	DB	0ffH
	DB	0ffH
	DB	0ffH
	DB	07fH
	ORG $+7
Subtruct_out_data_7_11 DB 03H
	DB	00H
	DB	00H
	DB	00H
	DB	080H
	DB	0ffH
	DB	0ffH
	DB	0ffH
	DB	07fH
	ORG $+7
Subtruct_out_data_7_12 DB 03H
	DB	01H
	DB	00H
	DB	00H
	DB	080H
	DB	0ffH
	DB	0ffH
	DB	0ffH
	DB	07fH
	ORG $+7
Subtruct_out_data_7_13 DB 03H
	DB	0ffH
	DB	0ffH
	DB	0ffH
	DB	0ffH
	DB	0ffH
	DB	0ffH
	DB	0ffH
	DB	07fH
	ORG $+7
Subtruct_out_data_7_14 DB 03H
	DB	00H
	DB	00H
	DB	00H
	DB	00H
	DB	00H
	DB	00H
	DB	00H
	DB	080H
	ORG $+7
Subtruct_out_data_7_15 DB 03H
	DB	01H
	DB	00H
	DB	00H
	DB	00H
	DB	00H
	DB	00H
	DB	00H
	DB	080H
	ORG $+7
Subtruct_out_data_7_16 DB 03H
	DB	0ffH
	DB	0ffH
	DB	0ffH
	DB	07fH
	DB	00H
	DB	00H
	DB	00H
	DB	080H
	ORG $+7
Subtruct_out_data_7_17 DB 03H
	DB	00H
	DB	00H
	DB	00H
	DB	080H
	DB	00H
	DB	00H
	DB	00H
	DB	080H
	ORG $+7
Subtruct_out_data_7_18 DB 03H
	DB	0ffH
	DB	0ffH
	DB	0ffH
	DB	0ffH
	DB	00H
	DB	00H
	DB	00H
	DB	080H
	ORG $+7
Subtruct_out_data_7_19 DB 03H
	DB	00H
	DB	00H
	DB	00H
	DB	00H
	DB	01H
	DB	00H
	DB	00H
	DB	080H
	ORG $+7
Subtruct_out_data_7_20 DB 03H
	DB	0ffH
	DB	0ffH
	DB	0ffH
	DB	0ffH
	DB	0ffH
	DB	0ffH
	DB	0ffH
	DB	0ffH
	ORG $+7
Subtruct_out_data_7_21 DB 03H
	DB	00H
	DB	00H
	DB	00H
	DB	00H
	DB	00H
	DB	00H
	DB	00H
	DB	00H
	DB	01H
	ORG $+6
Subtruct_out_data_7_22 DB 03H
	DB	0ffH
	DB	0ffH
	DB	0ffH
	DB	0ffH
	DB	0ffH
	DB	0ffH
	DB	0ffH
	DB	07fH
	DB	01H
	ORG $+6
Subtruct_out_data_7_23 DB 03H
	DB	00H
	DB	00H
	DB	00H
	DB	00H
	DB	00H
	DB	00H
	DB	00H
	DB	080H
	DB	01H
	ORG $+6
Subtruct_out_data_7_24 DB 03H
	DB	0ffH
	DB	0ffH
	DB	0ffH
	DB	0ffH
	DB	0ffH
	DB	0ffH
	DB	0ffH
	DB	07fH
	DB	00H
	DB	00H
	DB	00H
	DB	00H
	DB	00H
	DB	00H
	DB	00H
	DB	080H
	ORG $+7
Subtruct_out_data_7_25 DB 03H
	DB	00H
	DB	00H
	DB	00H
	DB	00H
	DB	00H
	DB	00H
	DB	00H
	DB	080H
	DB	00H
	DB	00H
	DB	00H
	DB	00H
	DB	00H
	DB	00H
	DB	00H
	DB	080H
	ORG $+7
Subtruct_out_data_7_26 DB 03H
	DB	0ffH
	DB	0ffH
	DB	0ffH
	DB	0ffH
	DB	0ffH
	DB	0ffH
	DB	0ffH
	DB	07fH
	DB	00H
	DB	00H
	DB	00H
	DB	00H
	DB	00H
	DB	00H
	DB	00H
	DB	00H
	DB	01H
	ORG $+6
Subtruct_out_data_7_27 DB 03H
	DB	00H
	DB	00H
	DB	00H
	DB	00H
	DB	00H
	DB	00H
	DB	00H
	DB	080H
	DB	00H
	DB	00H
	DB	00H
	DB	00H
	DB	00H
	DB	00H
	DB	00H
	DB	00H
	DB	01H
	ORG $+6
Subtruct_out_data_8_1 DB 01H
	DB	01H
	DB	00H
	DB	00H
	DB	00H
	DB	00H
	DB	00H
	DB	00H
	DB	080H
	DB	0ffH
	DB	0ffH
	DB	0ffH
	DB	0ffH
	DB	0ffH
	DB	0ffH
	DB	0ffH
	DB	0ffH
	ORG $+7
Subtruct_out_data_8_2 DB 01H
	DB	00H
	DB	00H
	DB	00H
	DB	00H
	DB	00H
	DB	00H
	DB	00H
	DB	080H
	DB	0ffH
	DB	0ffH
	DB	0ffH
	DB	0ffH
	DB	0ffH
	DB	0ffH
	DB	0ffH
	DB	0ffH
	ORG $+7
Subtruct_out_data_8_3 DB 01H
	DB	01H
	DB	00H
	DB	00H
	DB	00H
	DB	00H
	DB	00H
	DB	00H
	DB	080H
	DB	0ffH
	DB	0ffH
	DB	0ffH
	DB	0ffH
	DB	0ffH
	DB	0ffH
	DB	0ffH
	DB	07fH
	ORG $+7
Subtruct_out_data_8_4 DB 01H
	DB	00H
	DB	00H
	DB	00H
	DB	00H
	DB	00H
	DB	00H
	DB	00H
	DB	080H
	DB	0ffH
	DB	0ffH
	DB	0ffH
	DB	0ffH
	DB	0ffH
	DB	0ffH
	DB	0ffH
	DB	07fH
	ORG $+7
Subtruct_out_data_8_5 DB 01H
	DB	01H
	DB	00H
	DB	00H
	DB	00H
	DB	00H
	DB	00H
	DB	00H
	DB	080H
	ORG $+7
Subtruct_out_data_8_6 DB 01H
	DB	00H
	DB	00H
	DB	00H
	DB	00H
	DB	00H
	DB	00H
	DB	00H
	DB	080H
	ORG $+7
Subtruct_out_data_8_9 DB 03H
	DB	0ffH
	DB	0ffH
	DB	0ffH
	DB	0ffH
	DB	0feH
	DB	0ffH
	DB	0ffH
	DB	07fH
	ORG $+7
Subtruct_out_data_8_10 DB 03H
	DB	00H
	DB	00H
	DB	00H
	DB	00H
	DB	0ffH
	DB	0ffH
	DB	0ffH
	DB	07fH
	ORG $+7
Subtruct_out_data_8_11 DB 03H
	DB	0ffH
	DB	0ffH
	DB	0ffH
	DB	07fH
	DB	0ffH
	DB	0ffH
	DB	0ffH
	DB	07fH
	ORG $+7
Subtruct_out_data_8_12 DB 03H
	DB	00H
	DB	00H
	DB	00H
	DB	080H
	DB	0ffH
	DB	0ffH
	DB	0ffH
	DB	07fH
	ORG $+7
Subtruct_out_data_8_13 DB 03H
	DB	0feH
	DB	0ffH
	DB	0ffH
	DB	0ffH
	DB	0ffH
	DB	0ffH
	DB	0ffH
	DB	07fH
	ORG $+7
Subtruct_out_data_8_14 DB 03H
	DB	0ffH
	DB	0ffH
	DB	0ffH
	DB	0ffH
	DB	0ffH
	DB	0ffH
	DB	0ffH
	DB	07fH
	ORG $+7
Subtruct_out_data_8_15 DB 03H
	DB	00H
	DB	00H
	DB	00H
	DB	00H
	DB	00H
	DB	00H
	DB	00H
	DB	080H
	ORG $+7
Subtruct_out_data_8_16 DB 03H
	DB	0feH
	DB	0ffH
	DB	0ffH
	DB	07fH
	DB	00H
	DB	00H
	DB	00H
	DB	080H
	ORG $+7
Subtruct_out_data_8_17 DB 03H
	DB	0ffH
	DB	0ffH
	DB	0ffH
	DB	07fH
	DB	00H
	DB	00H
	DB	00H
	DB	080H
	ORG $+7
Subtruct_out_data_8_18 DB 03H
	DB	0feH
	DB	0ffH
	DB	0ffH
	DB	0ffH
	DB	00H
	DB	00H
	DB	00H
	DB	080H
	ORG $+7
Subtruct_out_data_8_19 DB 03H
	DB	0ffH
	DB	0ffH
	DB	0ffH
	DB	0ffH
	DB	00H
	DB	00H
	DB	00H
	DB	080H
	ORG $+7
Subtruct_out_data_8_20 DB 03H
	DB	0feH
	DB	0ffH
	DB	0ffH
	DB	0ffH
	DB	0ffH
	DB	0ffH
	DB	0ffH
	DB	0ffH
	ORG $+7
Subtruct_out_data_8_21 DB 03H
	DB	0ffH
	DB	0ffH
	DB	0ffH
	DB	0ffH
	DB	0ffH
	DB	0ffH
	DB	0ffH
	DB	0ffH
	ORG $+7
Subtruct_out_data_8_22 DB 03H
	DB	0feH
	DB	0ffH
	DB	0ffH
	DB	0ffH
	DB	0ffH
	DB	0ffH
	DB	0ffH
	DB	07fH
	DB	01H
	ORG $+6
Subtruct_out_data_8_23 DB 03H
	DB	0ffH
	DB	0ffH
	DB	0ffH
	DB	0ffH
	DB	0ffH
	DB	0ffH
	DB	0ffH
	DB	07fH
	DB	01H
	ORG $+6
Subtruct_out_data_8_24 DB 03H
	DB	0feH
	DB	0ffH
	DB	0ffH
	DB	0ffH
	DB	0ffH
	DB	0ffH
	DB	0ffH
	DB	07fH
	DB	00H
	DB	00H
	DB	00H
	DB	00H
	DB	00H
	DB	00H
	DB	00H
	DB	080H
	ORG $+7
Subtruct_out_data_8_25 DB 03H
	DB	0ffH
	DB	0ffH
	DB	0ffH
	DB	0ffH
	DB	0ffH
	DB	0ffH
	DB	0ffH
	DB	07fH
	DB	00H
	DB	00H
	DB	00H
	DB	00H
	DB	00H
	DB	00H
	DB	00H
	DB	080H
	ORG $+7
Subtruct_out_data_8_26 DB 03H
	DB	0feH
	DB	0ffH
	DB	0ffH
	DB	0ffH
	DB	0ffH
	DB	0ffH
	DB	0ffH
	DB	07fH
	DB	00H
	DB	00H
	DB	00H
	DB	00H
	DB	00H
	DB	00H
	DB	00H
	DB	00H
	DB	01H
	ORG $+6
Subtruct_out_data_8_27 DB 03H
	DB	0ffH
	DB	0ffH
	DB	0ffH
	DB	0ffH
	DB	0ffH
	DB	0ffH
	DB	0ffH
	DB	07fH
	DB	00H
	DB	00H
	DB	00H
	DB	00H
	DB	00H
	DB	00H
	DB	00H
	DB	00H
	DB	01H
	ORG $+6
Subtruct_out_data_9_1 DB 01H
	DB	00H
	DB	00H
	DB	00H
	DB	00H
	DB	0ffH
	DB	0ffH
	DB	0ffH
	DB	0ffH
	DB	0ffH
	DB	0ffH
	DB	0ffH
	DB	0ffH
	DB	0ffH
	DB	0ffH
	DB	0ffH
	DB	0ffH
	ORG $+7
Subtruct_out_data_9_2 DB 01H
	DB	0ffH
	DB	0ffH
	DB	0ffH
	DB	0ffH
	DB	0feH
	DB	0ffH
	DB	0ffH
	DB	0ffH
	DB	0ffH
	DB	0ffH
	DB	0ffH
	DB	0ffH
	DB	0ffH
	DB	0ffH
	DB	0ffH
	DB	0ffH
	ORG $+7
Subtruct_out_data_9_3 DB 01H
	DB	00H
	DB	00H
	DB	00H
	DB	00H
	DB	0ffH
	DB	0ffH
	DB	0ffH
	DB	0ffH
	DB	0ffH
	DB	0ffH
	DB	0ffH
	DB	0ffH
	DB	0ffH
	DB	0ffH
	DB	0ffH
	DB	07fH
	ORG $+7
Subtruct_out_data_9_4 DB 01H
	DB	0ffH
	DB	0ffH
	DB	0ffH
	DB	0ffH
	DB	0feH
	DB	0ffH
	DB	0ffH
	DB	0ffH
	DB	0ffH
	DB	0ffH
	DB	0ffH
	DB	0ffH
	DB	0ffH
	DB	0ffH
	DB	0ffH
	DB	07fH
	ORG $+7
Subtruct_out_data_9_5 DB 01H
	DB	00H
	DB	00H
	DB	00H
	DB	00H
	DB	0ffH
	DB	0ffH
	DB	0ffH
	DB	0ffH
	ORG $+7
Subtruct_out_data_9_6 DB 01H
	DB	0ffH
	DB	0ffH
	DB	0ffH
	DB	0ffH
	DB	0feH
	DB	0ffH
	DB	0ffH
	DB	0ffH
	ORG $+7
Subtruct_out_data_9_7 DB 01H
	DB	00H
	DB	00H
	DB	00H
	DB	00H
	DB	0ffH
	DB	0ffH
	DB	0ffH
	DB	07fH
	ORG $+7
Subtruct_out_data_9_8 DB 01H
	DB	0ffH
	DB	0ffH
	DB	0ffH
	DB	0ffH
	DB	0feH
	DB	0ffH
	DB	0ffH
	DB	07fH
	ORG $+3
Subtruct_out_data_9_11 DB 03H
	DB	00H
	DB	00H
	DB	00H
	DB	080H
	ORG $+3
Subtruct_out_data_9_12 DB 03H
	DB	01H
	DB	00H
	DB	00H
	DB	080H
	ORG $+3
Subtruct_out_data_9_13 DB 03H
	DB	0ffH
	DB	0ffH
	DB	0ffH
	DB	0ffH
	ORG $+3
Subtruct_out_data_9_14 DB 03H
	DB	00H
	DB	00H
	DB	00H
	DB	00H
	DB	01H
	ORG $+2
Subtruct_out_data_9_15 DB 03H
	DB	01H
	DB	00H
	DB	00H
	DB	00H
	DB	01H
	ORG $+2
Subtruct_out_data_9_16 DB 03H
	DB	0ffH
	DB	0ffH
	DB	0ffH
	DB	07fH
	DB	01H
	ORG $+2
Subtruct_out_data_9_17 DB 03H
	DB	00H
	DB	00H
	DB	00H
	DB	080H
	DB	01H
	ORG $+2
Subtruct_out_data_9_18 DB 03H
	DB	0ffH
	DB	0ffH
	DB	0ffH
	DB	0ffH
	DB	01H
	ORG $+2
Subtruct_out_data_9_19 DB 03H
	DB	00H
	DB	00H
	DB	00H
	DB	00H
	DB	02H
	ORG $+6
Subtruct_out_data_9_20 DB 03H
	DB	0ffH
	DB	0ffH
	DB	0ffH
	DB	0ffH
	DB	00H
	DB	00H
	DB	00H
	DB	080H
	ORG $+7
Subtruct_out_data_9_21 DB 03H
	DB	00H
	DB	00H
	DB	00H
	DB	00H
	DB	01H
	DB	00H
	DB	00H
	DB	080H
	ORG $+7
Subtruct_out_data_9_22 DB 03H
	DB	0ffH
	DB	0ffH
	DB	0ffH
	DB	0ffH
	DB	00H
	DB	00H
	DB	00H
	DB	00H
	DB	01H
	ORG $+6
Subtruct_out_data_9_23 DB 03H
	DB	00H
	DB	00H
	DB	00H
	DB	00H
	DB	01H
	DB	00H
	DB	00H
	DB	00H
	DB	01H
	ORG $+6
Subtruct_out_data_9_24 DB 03H
	DB	0ffH
	DB	0ffH
	DB	0ffH
	DB	0ffH
	DB	00H
	DB	00H
	DB	00H
	DB	00H
	DB	00H
	DB	00H
	DB	00H
	DB	00H
	DB	00H
	DB	00H
	DB	00H
	DB	080H
	ORG $+7
Subtruct_out_data_9_25 DB 03H
	DB	00H
	DB	00H
	DB	00H
	DB	00H
	DB	01H
	DB	00H
	DB	00H
	DB	00H
	DB	00H
	DB	00H
	DB	00H
	DB	00H
	DB	00H
	DB	00H
	DB	00H
	DB	080H
	ORG $+7
Subtruct_out_data_9_26 DB 03H
	DB	0ffH
	DB	0ffH
	DB	0ffH
	DB	0ffH
	DB	00H
	DB	00H
	DB	00H
	DB	00H
	DB	00H
	DB	00H
	DB	00H
	DB	00H
	DB	00H
	DB	00H
	DB	00H
	DB	00H
	DB	01H
	ORG $+6
Subtruct_out_data_9_27 DB 03H
	DB	00H
	DB	00H
	DB	00H
	DB	00H
	DB	01H
	DB	00H
	DB	00H
	DB	00H
	DB	00H
	DB	00H
	DB	00H
	DB	00H
	DB	00H
	DB	00H
	DB	00H
	DB	00H
	DB	01H
	ORG $+6
Subtruct_out_data_10_1 DB 01H
	DB	01H
	DB	00H
	DB	00H
	DB	00H
	DB	0ffH
	DB	0ffH
	DB	0ffH
	DB	0ffH
	DB	0ffH
	DB	0ffH
	DB	0ffH
	DB	0ffH
	DB	0ffH
	DB	0ffH
	DB	0ffH
	DB	0ffH
	ORG $+7
Subtruct_out_data_10_2 DB 01H
	DB	00H
	DB	00H
	DB	00H
	DB	00H
	DB	0ffH
	DB	0ffH
	DB	0ffH
	DB	0ffH
	DB	0ffH
	DB	0ffH
	DB	0ffH
	DB	0ffH
	DB	0ffH
	DB	0ffH
	DB	0ffH
	DB	0ffH
	ORG $+7
Subtruct_out_data_10_3 DB 01H
	DB	01H
	DB	00H
	DB	00H
	DB	00H
	DB	0ffH
	DB	0ffH
	DB	0ffH
	DB	0ffH
	DB	0ffH
	DB	0ffH
	DB	0ffH
	DB	0ffH
	DB	0ffH
	DB	0ffH
	DB	0ffH
	DB	07fH
	ORG $+7
Subtruct_out_data_10_4 DB 01H
	DB	00H
	DB	00H
	DB	00H
	DB	00H
	DB	0ffH
	DB	0ffH
	DB	0ffH
	DB	0ffH
	DB	0ffH
	DB	0ffH
	DB	0ffH
	DB	0ffH
	DB	0ffH
	DB	0ffH
	DB	0ffH
	DB	07fH
	ORG $+7
Subtruct_out_data_10_5 DB 01H
	DB	01H
	DB	00H
	DB	00H
	DB	00H
	DB	0ffH
	DB	0ffH
	DB	0ffH
	DB	0ffH
	ORG $+7
Subtruct_out_data_10_6 DB 01H
	DB	00H
	DB	00H
	DB	00H
	DB	00H
	DB	0ffH
	DB	0ffH
	DB	0ffH
	DB	0ffH
	ORG $+7
Subtruct_out_data_10_7 DB 01H
	DB	01H
	DB	00H
	DB	00H
	DB	00H
	DB	0ffH
	DB	0ffH
	DB	0ffH
	DB	07fH
	ORG $+7
Subtruct_out_data_10_8 DB 01H
	DB	00H
	DB	00H
	DB	00H
	DB	00H
	DB	0ffH
	DB	0ffH
	DB	0ffH
	DB	07fH
	ORG $+3
Subtruct_out_data_10_11 DB 03H
	DB	0ffH
	DB	0ffH
	DB	0ffH
	DB	07fH
	ORG $+3
Subtruct_out_data_10_12 DB 03H
	DB	00H
	DB	00H
	DB	00H
	DB	080H
	ORG $+3
Subtruct_out_data_10_13 DB 03H
	DB	0feH
	DB	0ffH
	DB	0ffH
	DB	0ffH
	ORG $+3
Subtruct_out_data_10_14 DB 03H
	DB	0ffH
	DB	0ffH
	DB	0ffH
	DB	0ffH
	ORG $+3
Subtruct_out_data_10_15 DB 03H
	DB	00H
	DB	00H
	DB	00H
	DB	00H
	DB	01H
	ORG $+2
Subtruct_out_data_10_16 DB 03H
	DB	0feH
	DB	0ffH
	DB	0ffH
	DB	07fH
	DB	01H
	ORG $+2
Subtruct_out_data_10_17 DB 03H
	DB	0ffH
	DB	0ffH
	DB	0ffH
	DB	07fH
	DB	01H
	ORG $+2
Subtruct_out_data_10_18 DB 03H
	DB	0feH
	DB	0ffH
	DB	0ffH
	DB	0ffH
	DB	01H
	ORG $+2
Subtruct_out_data_10_19 DB 03H
	DB	0ffH
	DB	0ffH
	DB	0ffH
	DB	0ffH
	DB	01H
	ORG $+6
Subtruct_out_data_10_20 DB 03H
	DB	0feH
	DB	0ffH
	DB	0ffH
	DB	0ffH
	DB	00H
	DB	00H
	DB	00H
	DB	080H
	ORG $+7
Subtruct_out_data_10_21 DB 03H
	DB	0ffH
	DB	0ffH
	DB	0ffH
	DB	0ffH
	DB	00H
	DB	00H
	DB	00H
	DB	080H
	ORG $+7
Subtruct_out_data_10_22 DB 03H
	DB	0feH
	DB	0ffH
	DB	0ffH
	DB	0ffH
	DB	00H
	DB	00H
	DB	00H
	DB	00H
	DB	01H
	ORG $+6
Subtruct_out_data_10_23 DB 03H
	DB	0ffH
	DB	0ffH
	DB	0ffH
	DB	0ffH
	DB	00H
	DB	00H
	DB	00H
	DB	00H
	DB	01H
	ORG $+6
Subtruct_out_data_10_24 DB 03H
	DB	0feH
	DB	0ffH
	DB	0ffH
	DB	0ffH
	DB	00H
	DB	00H
	DB	00H
	DB	00H
	DB	00H
	DB	00H
	DB	00H
	DB	00H
	DB	00H
	DB	00H
	DB	00H
	DB	080H
	ORG $+7
Subtruct_out_data_10_25 DB 03H
	DB	0ffH
	DB	0ffH
	DB	0ffH
	DB	0ffH
	DB	00H
	DB	00H
	DB	00H
	DB	00H
	DB	00H
	DB	00H
	DB	00H
	DB	00H
	DB	00H
	DB	00H
	DB	00H
	DB	080H
	ORG $+7
Subtruct_out_data_10_26 DB 03H
	DB	0feH
	DB	0ffH
	DB	0ffH
	DB	0ffH
	DB	00H
	DB	00H
	DB	00H
	DB	00H
	DB	00H
	DB	00H
	DB	00H
	DB	00H
	DB	00H
	DB	00H
	DB	00H
	DB	00H
	DB	01H
	ORG $+6
Subtruct_out_data_10_27 DB 03H
	DB	0ffH
	DB	0ffH
	DB	0ffH
	DB	0ffH
	DB	00H
	DB	00H
	DB	00H
	DB	00H
	DB	00H
	DB	00H
	DB	00H
	DB	00H
	DB	00H
	DB	00H
	DB	00H
	DB	00H
	DB	01H
	ORG $+6
Subtruct_out_data_11_1 DB 01H
	DB	00H
	DB	00H
	DB	00H
	DB	080H
	DB	0ffH
	DB	0ffH
	DB	0ffH
	DB	0ffH
	DB	0ffH
	DB	0ffH
	DB	0ffH
	DB	0ffH
	DB	0ffH
	DB	0ffH
	DB	0ffH
	DB	0ffH
	ORG $+7
Subtruct_out_data_11_2 DB 01H
	DB	0ffH
	DB	0ffH
	DB	0ffH
	DB	07fH
	DB	0ffH
	DB	0ffH
	DB	0ffH
	DB	0ffH
	DB	0ffH
	DB	0ffH
	DB	0ffH
	DB	0ffH
	DB	0ffH
	DB	0ffH
	DB	0ffH
	DB	0ffH
	ORG $+7
Subtruct_out_data_11_3 DB 01H
	DB	00H
	DB	00H
	DB	00H
	DB	080H
	DB	0ffH
	DB	0ffH
	DB	0ffH
	DB	0ffH
	DB	0ffH
	DB	0ffH
	DB	0ffH
	DB	0ffH
	DB	0ffH
	DB	0ffH
	DB	0ffH
	DB	07fH
	ORG $+7
Subtruct_out_data_11_4 DB 01H
	DB	0ffH
	DB	0ffH
	DB	0ffH
	DB	07fH
	DB	0ffH
	DB	0ffH
	DB	0ffH
	DB	0ffH
	DB	0ffH
	DB	0ffH
	DB	0ffH
	DB	0ffH
	DB	0ffH
	DB	0ffH
	DB	0ffH
	DB	07fH
	ORG $+7
Subtruct_out_data_11_5 DB 01H
	DB	00H
	DB	00H
	DB	00H
	DB	080H
	DB	0ffH
	DB	0ffH
	DB	0ffH
	DB	0ffH
	ORG $+7
Subtruct_out_data_11_6 DB 01H
	DB	0ffH
	DB	0ffH
	DB	0ffH
	DB	07fH
	DB	0ffH
	DB	0ffH
	DB	0ffH
	DB	0ffH
	ORG $+7
Subtruct_out_data_11_7 DB 01H
	DB	00H
	DB	00H
	DB	00H
	DB	080H
	DB	0ffH
	DB	0ffH
	DB	0ffH
	DB	07fH
	ORG $+7
Subtruct_out_data_11_8 DB 01H
	DB	0ffH
	DB	0ffH
	DB	0ffH
	DB	07fH
	DB	0ffH
	DB	0ffH
	DB	0ffH
	DB	07fH
	ORG $+3
Subtruct_out_data_11_9 DB 01H
	DB	00H
	DB	00H
	DB	00H
	DB	080H
	ORG $+3
Subtruct_out_data_11_10 DB 01H
	DB	0ffH
	DB	0ffH
	DB	0ffH
	DB	07fH
	ORG $+3
Subtruct_out_data_11_13 DB 03H
	DB	0ffH
	DB	0ffH
	DB	0ffH
	DB	07fH
	ORG $+3
Subtruct_out_data_11_14 DB 03H
	DB	00H
	DB	00H
	DB	00H
	DB	080H
	ORG $+3
Subtruct_out_data_11_15 DB 03H
	DB	01H
	DB	00H
	DB	00H
	DB	080H
	ORG $+3
Subtruct_out_data_11_16 DB 03H
	DB	0ffH
	DB	0ffH
	DB	0ffH
	DB	0ffH
	ORG $+3
Subtruct_out_data_11_17 DB 03H
	DB	00H
	DB	00H
	DB	00H
	DB	00H
	DB	01H
	ORG $+2
Subtruct_out_data_11_18 DB 03H
	DB	0ffH
	DB	0ffH
	DB	0ffH
	DB	07fH
	DB	01H
	ORG $+2
Subtruct_out_data_11_19 DB 03H
	DB	00H
	DB	00H
	DB	00H
	DB	080H
	DB	01H
	ORG $+6
Subtruct_out_data_11_20 DB 03H
	DB	0ffH
	DB	0ffH
	DB	0ffH
	DB	07fH
	DB	00H
	DB	00H
	DB	00H
	DB	080H
	ORG $+7
Subtruct_out_data_11_21 DB 03H
	DB	00H
	DB	00H
	DB	00H
	DB	080H
	DB	00H
	DB	00H
	DB	00H
	DB	080H
	ORG $+7
Subtruct_out_data_11_22 DB 03H
	DB	0ffH
	DB	0ffH
	DB	0ffH
	DB	07fH
	DB	00H
	DB	00H
	DB	00H
	DB	00H
	DB	01H
	ORG $+6
Subtruct_out_data_11_23 DB 03H
	DB	00H
	DB	00H
	DB	00H
	DB	080H
	DB	00H
	DB	00H
	DB	00H
	DB	00H
	DB	01H
	ORG $+6
Subtruct_out_data_11_24 DB 03H
	DB	0ffH
	DB	0ffH
	DB	0ffH
	DB	07fH
	DB	00H
	DB	00H
	DB	00H
	DB	00H
	DB	00H
	DB	00H
	DB	00H
	DB	00H
	DB	00H
	DB	00H
	DB	00H
	DB	080H
	ORG $+7
Subtruct_out_data_11_25 DB 03H
	DB	00H
	DB	00H
	DB	00H
	DB	080H
	DB	00H
	DB	00H
	DB	00H
	DB	00H
	DB	00H
	DB	00H
	DB	00H
	DB	00H
	DB	00H
	DB	00H
	DB	00H
	DB	080H
	ORG $+7
Subtruct_out_data_11_26 DB 03H
	DB	0ffH
	DB	0ffH
	DB	0ffH
	DB	07fH
	DB	00H
	DB	00H
	DB	00H
	DB	00H
	DB	00H
	DB	00H
	DB	00H
	DB	00H
	DB	00H
	DB	00H
	DB	00H
	DB	00H
	DB	01H
	ORG $+6
Subtruct_out_data_11_27 DB 03H
	DB	00H
	DB	00H
	DB	00H
	DB	080H
	DB	00H
	DB	00H
	DB	00H
	DB	00H
	DB	00H
	DB	00H
	DB	00H
	DB	00H
	DB	00H
	DB	00H
	DB	00H
	DB	00H
	DB	01H
	ORG $+6
Subtruct_out_data_12_1 DB 01H
	DB	01H
	DB	00H
	DB	00H
	DB	080H
	DB	0ffH
	DB	0ffH
	DB	0ffH
	DB	0ffH
	DB	0ffH
	DB	0ffH
	DB	0ffH
	DB	0ffH
	DB	0ffH
	DB	0ffH
	DB	0ffH
	DB	0ffH
	ORG $+7
Subtruct_out_data_12_2 DB 01H
	DB	00H
	DB	00H
	DB	00H
	DB	080H
	DB	0ffH
	DB	0ffH
	DB	0ffH
	DB	0ffH
	DB	0ffH
	DB	0ffH
	DB	0ffH
	DB	0ffH
	DB	0ffH
	DB	0ffH
	DB	0ffH
	DB	0ffH
	ORG $+7
Subtruct_out_data_12_3 DB 01H
	DB	01H
	DB	00H
	DB	00H
	DB	080H
	DB	0ffH
	DB	0ffH
	DB	0ffH
	DB	0ffH
	DB	0ffH
	DB	0ffH
	DB	0ffH
	DB	0ffH
	DB	0ffH
	DB	0ffH
	DB	0ffH
	DB	07fH
	ORG $+7
Subtruct_out_data_12_4 DB 01H
	DB	00H
	DB	00H
	DB	00H
	DB	080H
	DB	0ffH
	DB	0ffH
	DB	0ffH
	DB	0ffH
	DB	0ffH
	DB	0ffH
	DB	0ffH
	DB	0ffH
	DB	0ffH
	DB	0ffH
	DB	0ffH
	DB	07fH
	ORG $+7
Subtruct_out_data_12_5 DB 01H
	DB	01H
	DB	00H
	DB	00H
	DB	080H
	DB	0ffH
	DB	0ffH
	DB	0ffH
	DB	0ffH
	ORG $+7
Subtruct_out_data_12_6 DB 01H
	DB	00H
	DB	00H
	DB	00H
	DB	080H
	DB	0ffH
	DB	0ffH
	DB	0ffH
	DB	0ffH
	ORG $+7
Subtruct_out_data_12_7 DB 01H
	DB	01H
	DB	00H
	DB	00H
	DB	080H
	DB	0ffH
	DB	0ffH
	DB	0ffH
	DB	07fH
	ORG $+7
Subtruct_out_data_12_8 DB 01H
	DB	00H
	DB	00H
	DB	00H
	DB	080H
	DB	0ffH
	DB	0ffH
	DB	0ffH
	DB	07fH
	ORG $+3
Subtruct_out_data_12_9 DB 01H
	DB	01H
	DB	00H
	DB	00H
	DB	080H
	ORG $+3
Subtruct_out_data_12_10 DB 01H
	DB	00H
	DB	00H
	DB	00H
	DB	080H
	ORG $+3
Subtruct_out_data_12_13 DB 03H
	DB	0feH
	DB	0ffH
	DB	0ffH
	DB	07fH
	ORG $+3
Subtruct_out_data_12_14 DB 03H
	DB	0ffH
	DB	0ffH
	DB	0ffH
	DB	07fH
	ORG $+3
Subtruct_out_data_12_15 DB 03H
	DB	00H
	DB	00H
	DB	00H
	DB	080H
	ORG $+3
Subtruct_out_data_12_16 DB 03H
	DB	0feH
	DB	0ffH
	DB	0ffH
	DB	0ffH
	ORG $+3
Subtruct_out_data_12_17 DB 03H
	DB	0ffH
	DB	0ffH
	DB	0ffH
	DB	0ffH
	ORG $+3
Subtruct_out_data_12_18 DB 03H
	DB	0feH
	DB	0ffH
	DB	0ffH
	DB	07fH
	DB	01H
	ORG $+2
Subtruct_out_data_12_19 DB 03H
	DB	0ffH
	DB	0ffH
	DB	0ffH
	DB	07fH
	DB	01H
	ORG $+6
Subtruct_out_data_12_20 DB 03H
	DB	0feH
	DB	0ffH
	DB	0ffH
	DB	07fH
	DB	00H
	DB	00H
	DB	00H
	DB	080H
	ORG $+7
Subtruct_out_data_12_21 DB 03H
	DB	0ffH
	DB	0ffH
	DB	0ffH
	DB	07fH
	DB	00H
	DB	00H
	DB	00H
	DB	080H
	ORG $+7
Subtruct_out_data_12_22 DB 03H
	DB	0feH
	DB	0ffH
	DB	0ffH
	DB	07fH
	DB	00H
	DB	00H
	DB	00H
	DB	00H
	DB	01H
	ORG $+6
Subtruct_out_data_12_23 DB 03H
	DB	0ffH
	DB	0ffH
	DB	0ffH
	DB	07fH
	DB	00H
	DB	00H
	DB	00H
	DB	00H
	DB	01H
	ORG $+6
Subtruct_out_data_12_24 DB 03H
	DB	0feH
	DB	0ffH
	DB	0ffH
	DB	07fH
	DB	00H
	DB	00H
	DB	00H
	DB	00H
	DB	00H
	DB	00H
	DB	00H
	DB	00H
	DB	00H
	DB	00H
	DB	00H
	DB	080H
	ORG $+7
Subtruct_out_data_12_25 DB 03H
	DB	0ffH
	DB	0ffH
	DB	0ffH
	DB	07fH
	DB	00H
	DB	00H
	DB	00H
	DB	00H
	DB	00H
	DB	00H
	DB	00H
	DB	00H
	DB	00H
	DB	00H
	DB	00H
	DB	080H
	ORG $+7
Subtruct_out_data_12_26 DB 03H
	DB	0feH
	DB	0ffH
	DB	0ffH
	DB	07fH
	DB	00H
	DB	00H
	DB	00H
	DB	00H
	DB	00H
	DB	00H
	DB	00H
	DB	00H
	DB	00H
	DB	00H
	DB	00H
	DB	00H
	DB	01H
	ORG $+6
Subtruct_out_data_12_27 DB 03H
	DB	0ffH
	DB	0ffH
	DB	0ffH
	DB	07fH
	DB	00H
	DB	00H
	DB	00H
	DB	00H
	DB	00H
	DB	00H
	DB	00H
	DB	00H
	DB	00H
	DB	00H
	DB	00H
	DB	00H
	DB	01H
	ORG $+6
Subtruct_out_data_13_1 DB 01H
	DB	0ffH
	DB	0ffH
	DB	0ffH
	DB	0ffH
	DB	0ffH
	DB	0ffH
	DB	0ffH
	DB	0ffH
	DB	0ffH
	DB	0ffH
	DB	0ffH
	DB	0ffH
	DB	0ffH
	DB	0ffH
	DB	0ffH
	DB	0ffH
	ORG $+7
Subtruct_out_data_13_2 DB 01H
	DB	0feH
	DB	0ffH
	DB	0ffH
	DB	0ffH
	DB	0ffH
	DB	0ffH
	DB	0ffH
	DB	0ffH
	DB	0ffH
	DB	0ffH
	DB	0ffH
	DB	0ffH
	DB	0ffH
	DB	0ffH
	DB	0ffH
	DB	0ffH
	ORG $+7
Subtruct_out_data_13_3 DB 01H
	DB	0ffH
	DB	0ffH
	DB	0ffH
	DB	0ffH
	DB	0ffH
	DB	0ffH
	DB	0ffH
	DB	0ffH
	DB	0ffH
	DB	0ffH
	DB	0ffH
	DB	0ffH
	DB	0ffH
	DB	0ffH
	DB	0ffH
	DB	07fH
	ORG $+7
Subtruct_out_data_13_4 DB 01H
	DB	0feH
	DB	0ffH
	DB	0ffH
	DB	0ffH
	DB	0ffH
	DB	0ffH
	DB	0ffH
	DB	0ffH
	DB	0ffH
	DB	0ffH
	DB	0ffH
	DB	0ffH
	DB	0ffH
	DB	0ffH
	DB	0ffH
	DB	07fH
	ORG $+7
Subtruct_out_data_13_5 DB 01H
	DB	0ffH
	DB	0ffH
	DB	0ffH
	DB	0ffH
	DB	0ffH
	DB	0ffH
	DB	0ffH
	DB	0ffH
	ORG $+7
Subtruct_out_data_13_6 DB 01H
	DB	0feH
	DB	0ffH
	DB	0ffH
	DB	0ffH
	DB	0ffH
	DB	0ffH
	DB	0ffH
	DB	0ffH
	ORG $+7
Subtruct_out_data_13_7 DB 01H
	DB	0ffH
	DB	0ffH
	DB	0ffH
	DB	0ffH
	DB	0ffH
	DB	0ffH
	DB	0ffH
	DB	07fH
	ORG $+7
Subtruct_out_data_13_8 DB 01H
	DB	0feH
	DB	0ffH
	DB	0ffH
	DB	0ffH
	DB	0ffH
	DB	0ffH
	DB	0ffH
	DB	07fH
	ORG $+3
Subtruct_out_data_13_9 DB 01H
	DB	0ffH
	DB	0ffH
	DB	0ffH
	DB	0ffH
	ORG $+3
Subtruct_out_data_13_10 DB 01H
	DB	0feH
	DB	0ffH
	DB	0ffH
	DB	0ffH
	ORG $+3
Subtruct_out_data_13_11 DB 01H
	DB	0ffH
	DB	0ffH
	DB	0ffH
	DB	07fH
	ORG $+3
Subtruct_out_data_13_12 DB 01H
	DB	0feH
	DB	0ffH
	DB	0ffH
	DB	07fH
	ORG $+3
Subtruct_out_data_13_16 DB 03H
	DB	00H
	DB	00H
	DB	00H
	DB	080H
	ORG $+3
Subtruct_out_data_13_17 DB 03H
	DB	01H
	DB	00H
	DB	00H
	DB	080H
	ORG $+3
Subtruct_out_data_13_18 DB 03H
	DB	00H
	DB	00H
	DB	00H
	DB	00H
	DB	01H
	ORG $+2
Subtruct_out_data_13_19 DB 03H
	DB	01H
	DB	00H
	DB	00H
	DB	00H
	DB	01H
	ORG $+6
Subtruct_out_data_13_20 DB 03H
	DB	00H
	DB	00H
	DB	00H
	DB	00H
	DB	00H
	DB	00H
	DB	00H
	DB	080H
	ORG $+7
Subtruct_out_data_13_21 DB 03H
	DB	01H
	DB	00H
	DB	00H
	DB	00H
	DB	00H
	DB	00H
	DB	00H
	DB	080H
	ORG $+7
Subtruct_out_data_13_22 DB 03H
	DB	00H
	DB	00H
	DB	00H
	DB	00H
	DB	00H
	DB	00H
	DB	00H
	DB	00H
	DB	01H
	ORG $+6
Subtruct_out_data_13_23 DB 03H
	DB	01H
	DB	00H
	DB	00H
	DB	00H
	DB	00H
	DB	00H
	DB	00H
	DB	00H
	DB	01H
	ORG $+6
Subtruct_out_data_13_24 DB 03H
	DB	00H
	DB	00H
	DB	00H
	DB	00H
	DB	00H
	DB	00H
	DB	00H
	DB	00H
	DB	00H
	DB	00H
	DB	00H
	DB	00H
	DB	00H
	DB	00H
	DB	00H
	DB	080H
	ORG $+7
Subtruct_out_data_13_25 DB 03H
	DB	01H
	DB	00H
	DB	00H
	DB	00H
	DB	00H
	DB	00H
	DB	00H
	DB	00H
	DB	00H
	DB	00H
	DB	00H
	DB	00H
	DB	00H
	DB	00H
	DB	00H
	DB	080H
	ORG $+7
Subtruct_out_data_13_26 DB 03H
	DB	00H
	DB	00H
	DB	00H
	DB	00H
	DB	00H
	DB	00H
	DB	00H
	DB	00H
	DB	00H
	DB	00H
	DB	00H
	DB	00H
	DB	00H
	DB	00H
	DB	00H
	DB	00H
	DB	01H
	ORG $+6
Subtruct_out_data_13_27 DB 03H
	DB	01H
	DB	00H
	DB	00H
	DB	00H
	DB	00H
	DB	00H
	DB	00H
	DB	00H
	DB	00H
	DB	00H
	DB	00H
	DB	00H
	DB	00H
	DB	00H
	DB	00H
	DB	00H
	DB	01H
	ORG $+6
Subtruct_out_data_14_1 DB 01H
	DB	00H
	DB	00H
	DB	00H
	DB	00H
	DB	00H
	DB	00H
	DB	00H
	DB	00H
	DB	00H
	DB	00H
	DB	00H
	DB	00H
	DB	00H
	DB	00H
	DB	00H
	DB	00H
	DB	01H
	ORG $+6
Subtruct_out_data_14_2 DB 01H
	DB	0ffH
	DB	0ffH
	DB	0ffH
	DB	0ffH
	DB	0ffH
	DB	0ffH
	DB	0ffH
	DB	0ffH
	DB	0ffH
	DB	0ffH
	DB	0ffH
	DB	0ffH
	DB	0ffH
	DB	0ffH
	DB	0ffH
	DB	0ffH
	ORG $+7
Subtruct_out_data_14_3 DB 01H
	DB	00H
	DB	00H
	DB	00H
	DB	00H
	DB	00H
	DB	00H
	DB	00H
	DB	00H
	DB	00H
	DB	00H
	DB	00H
	DB	00H
	DB	00H
	DB	00H
	DB	00H
	DB	080H
	ORG $+7
Subtruct_out_data_14_4 DB 01H
	DB	0ffH
	DB	0ffH
	DB	0ffH
	DB	0ffH
	DB	0ffH
	DB	0ffH
	DB	0ffH
	DB	0ffH
	DB	0ffH
	DB	0ffH
	DB	0ffH
	DB	0ffH
	DB	0ffH
	DB	0ffH
	DB	0ffH
	DB	07fH
	ORG $+7
Subtruct_out_data_14_5 DB 01H
	DB	00H
	DB	00H
	DB	00H
	DB	00H
	DB	00H
	DB	00H
	DB	00H
	DB	00H
	DB	01H
	ORG $+6
Subtruct_out_data_14_6 DB 01H
	DB	0ffH
	DB	0ffH
	DB	0ffH
	DB	0ffH
	DB	0ffH
	DB	0ffH
	DB	0ffH
	DB	0ffH
	ORG $+7
Subtruct_out_data_14_7 DB 01H
	DB	00H
	DB	00H
	DB	00H
	DB	00H
	DB	00H
	DB	00H
	DB	00H
	DB	080H
	ORG $+7
Subtruct_out_data_14_8 DB 01H
	DB	0ffH
	DB	0ffH
	DB	0ffH
	DB	0ffH
	DB	0ffH
	DB	0ffH
	DB	0ffH
	DB	07fH
	ORG $+3
Subtruct_out_data_14_9 DB 01H
	DB	00H
	DB	00H
	DB	00H
	DB	00H
	DB	01H
	ORG $+2
Subtruct_out_data_14_10 DB 01H
	DB	0ffH
	DB	0ffH
	DB	0ffH
	DB	0ffH
	ORG $+3
Subtruct_out_data_14_11 DB 01H
	DB	00H
	DB	00H
	DB	00H
	DB	080H
	ORG $+3
Subtruct_out_data_14_12 DB 01H
	DB	0ffH
	DB	0ffH
	DB	0ffH
	DB	07fH
	ORG $+3
Subtruct_out_data_14_16 DB 03H
	DB	0ffH
	DB	0ffH
	DB	0ffH
	DB	07fH
	ORG $+3
Subtruct_out_data_14_17 DB 03H
	DB	00H
	DB	00H
	DB	00H
	DB	080H
	ORG $+3
Subtruct_out_data_14_18 DB 03H
	DB	0ffH
	DB	0ffH
	DB	0ffH
	DB	0ffH
	ORG $+3
Subtruct_out_data_14_19 DB 03H
	DB	00H
	DB	00H
	DB	00H
	DB	00H
	DB	01H
	ORG $+6
Subtruct_out_data_14_20 DB 03H
	DB	0ffH
	DB	0ffH
	DB	0ffH
	DB	0ffH
	DB	0ffH
	DB	0ffH
	DB	0ffH
	DB	07fH
	ORG $+7
Subtruct_out_data_14_21 DB 03H
	DB	00H
	DB	00H
	DB	00H
	DB	00H
	DB	00H
	DB	00H
	DB	00H
	DB	080H
	ORG $+7
Subtruct_out_data_14_22 DB 03H
	DB	0ffH
	DB	0ffH
	DB	0ffH
	DB	0ffH
	DB	0ffH
	DB	0ffH
	DB	0ffH
	DB	0ffH
	ORG $+7
Subtruct_out_data_14_23 DB 03H
	DB	00H
	DB	00H
	DB	00H
	DB	00H
	DB	00H
	DB	00H
	DB	00H
	DB	00H
	DB	01H
	ORG $+6
Subtruct_out_data_14_24 DB 03H
	DB	0ffH
	DB	0ffH
	DB	0ffH
	DB	0ffH
	DB	0ffH
	DB	0ffH
	DB	0ffH
	DB	0ffH
	DB	0ffH
	DB	0ffH
	DB	0ffH
	DB	0ffH
	DB	0ffH
	DB	0ffH
	DB	0ffH
	DB	07fH
	ORG $+7
Subtruct_out_data_14_25 DB 03H
	DB	00H
	DB	00H
	DB	00H
	DB	00H
	DB	00H
	DB	00H
	DB	00H
	DB	00H
	DB	00H
	DB	00H
	DB	00H
	DB	00H
	DB	00H
	DB	00H
	DB	00H
	DB	080H
	ORG $+7
Subtruct_out_data_14_26 DB 03H
	DB	0ffH
	DB	0ffH
	DB	0ffH
	DB	0ffH
	DB	0ffH
	DB	0ffH
	DB	0ffH
	DB	0ffH
	DB	0ffH
	DB	0ffH
	DB	0ffH
	DB	0ffH
	DB	0ffH
	DB	0ffH
	DB	0ffH
	DB	0ffH
	ORG $+7
Subtruct_out_data_14_27 DB 03H
	DB	00H
	DB	00H
	DB	00H
	DB	00H
	DB	00H
	DB	00H
	DB	00H
	DB	00H
	DB	00H
	DB	00H
	DB	00H
	DB	00H
	DB	00H
	DB	00H
	DB	00H
	DB	00H
	DB	01H
	ORG $+6
Subtruct_out_data_15_1 DB 01H
	DB	01H
	DB	00H
	DB	00H
	DB	00H
	DB	00H
	DB	00H
	DB	00H
	DB	00H
	DB	00H
	DB	00H
	DB	00H
	DB	00H
	DB	00H
	DB	00H
	DB	00H
	DB	00H
	DB	01H
	ORG $+6
Subtruct_out_data_15_2 DB 01H
	DB	00H
	DB	00H
	DB	00H
	DB	00H
	DB	00H
	DB	00H
	DB	00H
	DB	00H
	DB	00H
	DB	00H
	DB	00H
	DB	00H
	DB	00H
	DB	00H
	DB	00H
	DB	00H
	DB	01H
	ORG $+6
Subtruct_out_data_15_3 DB 01H
	DB	01H
	DB	00H
	DB	00H
	DB	00H
	DB	00H
	DB	00H
	DB	00H
	DB	00H
	DB	00H
	DB	00H
	DB	00H
	DB	00H
	DB	00H
	DB	00H
	DB	00H
	DB	080H
	ORG $+7
Subtruct_out_data_15_4 DB 01H
	DB	00H
	DB	00H
	DB	00H
	DB	00H
	DB	00H
	DB	00H
	DB	00H
	DB	00H
	DB	00H
	DB	00H
	DB	00H
	DB	00H
	DB	00H
	DB	00H
	DB	00H
	DB	080H
	ORG $+7
Subtruct_out_data_15_5 DB 01H
	DB	01H
	DB	00H
	DB	00H
	DB	00H
	DB	00H
	DB	00H
	DB	00H
	DB	00H
	DB	01H
	ORG $+6
Subtruct_out_data_15_6 DB 01H
	DB	00H
	DB	00H
	DB	00H
	DB	00H
	DB	00H
	DB	00H
	DB	00H
	DB	00H
	DB	01H
	ORG $+6
Subtruct_out_data_15_7 DB 01H
	DB	01H
	DB	00H
	DB	00H
	DB	00H
	DB	00H
	DB	00H
	DB	00H
	DB	080H
	ORG $+7
Subtruct_out_data_15_8 DB 01H
	DB	00H
	DB	00H
	DB	00H
	DB	00H
	DB	00H
	DB	00H
	DB	00H
	DB	080H
	ORG $+3
Subtruct_out_data_15_9 DB 01H
	DB	01H
	DB	00H
	DB	00H
	DB	00H
	DB	01H
	ORG $+2
Subtruct_out_data_15_10 DB 01H
	DB	00H
	DB	00H
	DB	00H
	DB	00H
	DB	01H
	ORG $+2
Subtruct_out_data_15_11 DB 01H
	DB	01H
	DB	00H
	DB	00H
	DB	080H
	ORG $+3
Subtruct_out_data_15_12 DB 01H
	DB	00H
	DB	00H
	DB	00H
	DB	080H
	ORG $+3
Subtruct_out_data_15_16 DB 03H
	DB	0feH
	DB	0ffH
	DB	0ffH
	DB	07fH
	ORG $+3
Subtruct_out_data_15_17 DB 03H
	DB	0ffH
	DB	0ffH
	DB	0ffH
	DB	07fH
	ORG $+3
Subtruct_out_data_15_18 DB 03H
	DB	0feH
	DB	0ffH
	DB	0ffH
	DB	0ffH
	ORG $+3
Subtruct_out_data_15_19 DB 03H
	DB	0ffH
	DB	0ffH
	DB	0ffH
	DB	0ffH
	ORG $+7
Subtruct_out_data_15_20 DB 03H
	DB	0feH
	DB	0ffH
	DB	0ffH
	DB	0ffH
	DB	0ffH
	DB	0ffH
	DB	0ffH
	DB	07fH
	ORG $+7
Subtruct_out_data_15_21 DB 03H
	DB	0ffH
	DB	0ffH
	DB	0ffH
	DB	0ffH
	DB	0ffH
	DB	0ffH
	DB	0ffH
	DB	07fH
	ORG $+7
Subtruct_out_data_15_22 DB 03H
	DB	0feH
	DB	0ffH
	DB	0ffH
	DB	0ffH
	DB	0ffH
	DB	0ffH
	DB	0ffH
	DB	0ffH
	ORG $+7
Subtruct_out_data_15_23 DB 03H
	DB	0ffH
	DB	0ffH
	DB	0ffH
	DB	0ffH
	DB	0ffH
	DB	0ffH
	DB	0ffH
	DB	0ffH
	ORG $+7
Subtruct_out_data_15_24 DB 03H
	DB	0feH
	DB	0ffH
	DB	0ffH
	DB	0ffH
	DB	0ffH
	DB	0ffH
	DB	0ffH
	DB	0ffH
	DB	0ffH
	DB	0ffH
	DB	0ffH
	DB	0ffH
	DB	0ffH
	DB	0ffH
	DB	0ffH
	DB	07fH
	ORG $+7
Subtruct_out_data_15_25 DB 03H
	DB	0ffH
	DB	0ffH
	DB	0ffH
	DB	0ffH
	DB	0ffH
	DB	0ffH
	DB	0ffH
	DB	0ffH
	DB	0ffH
	DB	0ffH
	DB	0ffH
	DB	0ffH
	DB	0ffH
	DB	0ffH
	DB	0ffH
	DB	07fH
	ORG $+7
Subtruct_out_data_15_26 DB 03H
	DB	0feH
	DB	0ffH
	DB	0ffH
	DB	0ffH
	DB	0ffH
	DB	0ffH
	DB	0ffH
	DB	0ffH
	DB	0ffH
	DB	0ffH
	DB	0ffH
	DB	0ffH
	DB	0ffH
	DB	0ffH
	DB	0ffH
	DB	0ffH
	ORG $+7
Subtruct_out_data_15_27 DB 03H
	DB	0ffH
	DB	0ffH
	DB	0ffH
	DB	0ffH
	DB	0ffH
	DB	0ffH
	DB	0ffH
	DB	0ffH
	DB	0ffH
	DB	0ffH
	DB	0ffH
	DB	0ffH
	DB	0ffH
	DB	0ffH
	DB	0ffH
	DB	0ffH
	ORG $+7
Subtruct_out_data_16_1 DB 01H
	DB	0ffH
	DB	0ffH
	DB	0ffH
	DB	07fH
	DB	00H
	DB	00H
	DB	00H
	DB	00H
	DB	00H
	DB	00H
	DB	00H
	DB	00H
	DB	00H
	DB	00H
	DB	00H
	DB	00H
	DB	01H
	ORG $+6
Subtruct_out_data_16_2 DB 01H
	DB	0feH
	DB	0ffH
	DB	0ffH
	DB	07fH
	DB	00H
	DB	00H
	DB	00H
	DB	00H
	DB	00H
	DB	00H
	DB	00H
	DB	00H
	DB	00H
	DB	00H
	DB	00H
	DB	00H
	DB	01H
	ORG $+6
Subtruct_out_data_16_3 DB 01H
	DB	0ffH
	DB	0ffH
	DB	0ffH
	DB	07fH
	DB	00H
	DB	00H
	DB	00H
	DB	00H
	DB	00H
	DB	00H
	DB	00H
	DB	00H
	DB	00H
	DB	00H
	DB	00H
	DB	080H
	ORG $+7
Subtruct_out_data_16_4 DB 01H
	DB	0feH
	DB	0ffH
	DB	0ffH
	DB	07fH
	DB	00H
	DB	00H
	DB	00H
	DB	00H
	DB	00H
	DB	00H
	DB	00H
	DB	00H
	DB	00H
	DB	00H
	DB	00H
	DB	080H
	ORG $+7
Subtruct_out_data_16_5 DB 01H
	DB	0ffH
	DB	0ffH
	DB	0ffH
	DB	07fH
	DB	00H
	DB	00H
	DB	00H
	DB	00H
	DB	01H
	ORG $+6
Subtruct_out_data_16_6 DB 01H
	DB	0feH
	DB	0ffH
	DB	0ffH
	DB	07fH
	DB	00H
	DB	00H
	DB	00H
	DB	00H
	DB	01H
	ORG $+6
Subtruct_out_data_16_7 DB 01H
	DB	0ffH
	DB	0ffH
	DB	0ffH
	DB	07fH
	DB	00H
	DB	00H
	DB	00H
	DB	080H
	ORG $+7
Subtruct_out_data_16_8 DB 01H
	DB	0feH
	DB	0ffH
	DB	0ffH
	DB	07fH
	DB	00H
	DB	00H
	DB	00H
	DB	080H
	ORG $+3
Subtruct_out_data_16_9 DB 01H
	DB	0ffH
	DB	0ffH
	DB	0ffH
	DB	07fH
	DB	01H
	ORG $+2
Subtruct_out_data_16_10 DB 01H
	DB	0feH
	DB	0ffH
	DB	0ffH
	DB	07fH
	DB	01H
	ORG $+2
Subtruct_out_data_16_11 DB 01H
	DB	0ffH
	DB	0ffH
	DB	0ffH
	DB	0ffH
	ORG $+3
Subtruct_out_data_16_12 DB 01H
	DB	0feH
	DB	0ffH
	DB	0ffH
	DB	0ffH
	ORG $+3
Subtruct_out_data_16_13 DB 01H
	DB	00H
	DB	00H
	DB	00H
	DB	080H
	ORG $+3
Subtruct_out_data_16_14 DB 01H
	DB	0ffH
	DB	0ffH
	DB	0ffH
	DB	07fH
	ORG $+3
Subtruct_out_data_16_15 DB 01H
	DB	0feH
	DB	0ffH
	DB	0ffH
	DB	07fH
	ORG $+3
Subtruct_out_data_16_18 DB 03H
	DB	00H
	DB	00H
	DB	00H
	DB	080H
	ORG $+3
Subtruct_out_data_16_19 DB 03H
	DB	01H
	DB	00H
	DB	00H
	DB	080H
	ORG $+7
Subtruct_out_data_16_20 DB 03H
	DB	00H
	DB	00H
	DB	00H
	DB	080H
	DB	0ffH
	DB	0ffH
	DB	0ffH
	DB	07fH
	ORG $+7
Subtruct_out_data_16_21 DB 03H
	DB	01H
	DB	00H
	DB	00H
	DB	080H
	DB	0ffH
	DB	0ffH
	DB	0ffH
	DB	07fH
	ORG $+7
Subtruct_out_data_16_22 DB 03H
	DB	00H
	DB	00H
	DB	00H
	DB	080H
	DB	0ffH
	DB	0ffH
	DB	0ffH
	DB	0ffH
	ORG $+7
Subtruct_out_data_16_23 DB 03H
	DB	01H
	DB	00H
	DB	00H
	DB	080H
	DB	0ffH
	DB	0ffH
	DB	0ffH
	DB	0ffH
	ORG $+7
Subtruct_out_data_16_24 DB 03H
	DB	00H
	DB	00H
	DB	00H
	DB	080H
	DB	0ffH
	DB	0ffH
	DB	0ffH
	DB	0ffH
	DB	0ffH
	DB	0ffH
	DB	0ffH
	DB	0ffH
	DB	0ffH
	DB	0ffH
	DB	0ffH
	DB	07fH
	ORG $+7
Subtruct_out_data_16_25 DB 03H
	DB	01H
	DB	00H
	DB	00H
	DB	080H
	DB	0ffH
	DB	0ffH
	DB	0ffH
	DB	0ffH
	DB	0ffH
	DB	0ffH
	DB	0ffH
	DB	0ffH
	DB	0ffH
	DB	0ffH
	DB	0ffH
	DB	07fH
	ORG $+7
Subtruct_out_data_16_26 DB 03H
	DB	00H
	DB	00H
	DB	00H
	DB	080H
	DB	0ffH
	DB	0ffH
	DB	0ffH
	DB	0ffH
	DB	0ffH
	DB	0ffH
	DB	0ffH
	DB	0ffH
	DB	0ffH
	DB	0ffH
	DB	0ffH
	DB	0ffH
	ORG $+7
Subtruct_out_data_16_27 DB 03H
	DB	01H
	DB	00H
	DB	00H
	DB	080H
	DB	0ffH
	DB	0ffH
	DB	0ffH
	DB	0ffH
	DB	0ffH
	DB	0ffH
	DB	0ffH
	DB	0ffH
	DB	0ffH
	DB	0ffH
	DB	0ffH
	DB	0ffH
	ORG $+7
Subtruct_out_data_17_1 DB 01H
	DB	00H
	DB	00H
	DB	00H
	DB	080H
	DB	00H
	DB	00H
	DB	00H
	DB	00H
	DB	00H
	DB	00H
	DB	00H
	DB	00H
	DB	00H
	DB	00H
	DB	00H
	DB	00H
	DB	01H
	ORG $+6
Subtruct_out_data_17_2 DB 01H
	DB	0ffH
	DB	0ffH
	DB	0ffH
	DB	07fH
	DB	00H
	DB	00H
	DB	00H
	DB	00H
	DB	00H
	DB	00H
	DB	00H
	DB	00H
	DB	00H
	DB	00H
	DB	00H
	DB	00H
	DB	01H
	ORG $+6
Subtruct_out_data_17_3 DB 01H
	DB	00H
	DB	00H
	DB	00H
	DB	080H
	DB	00H
	DB	00H
	DB	00H
	DB	00H
	DB	00H
	DB	00H
	DB	00H
	DB	00H
	DB	00H
	DB	00H
	DB	00H
	DB	080H
	ORG $+7
Subtruct_out_data_17_4 DB 01H
	DB	0ffH
	DB	0ffH
	DB	0ffH
	DB	07fH
	DB	00H
	DB	00H
	DB	00H
	DB	00H
	DB	00H
	DB	00H
	DB	00H
	DB	00H
	DB	00H
	DB	00H
	DB	00H
	DB	080H
	ORG $+7
Subtruct_out_data_17_5 DB 01H
	DB	00H
	DB	00H
	DB	00H
	DB	080H
	DB	00H
	DB	00H
	DB	00H
	DB	00H
	DB	01H
	ORG $+6
Subtruct_out_data_17_6 DB 01H
	DB	0ffH
	DB	0ffH
	DB	0ffH
	DB	07fH
	DB	00H
	DB	00H
	DB	00H
	DB	00H
	DB	01H
	ORG $+6
Subtruct_out_data_17_7 DB 01H
	DB	00H
	DB	00H
	DB	00H
	DB	080H
	DB	00H
	DB	00H
	DB	00H
	DB	080H
	ORG $+7
Subtruct_out_data_17_8 DB 01H
	DB	0ffH
	DB	0ffH
	DB	0ffH
	DB	07fH
	DB	00H
	DB	00H
	DB	00H
	DB	080H
	ORG $+3
Subtruct_out_data_17_9 DB 01H
	DB	00H
	DB	00H
	DB	00H
	DB	080H
	DB	01H
	ORG $+2
Subtruct_out_data_17_10 DB 01H
	DB	0ffH
	DB	0ffH
	DB	0ffH
	DB	07fH
	DB	01H
	ORG $+2
Subtruct_out_data_17_11 DB 01H
	DB	00H
	DB	00H
	DB	00H
	DB	00H
	DB	01H
	ORG $+2
Subtruct_out_data_17_12 DB 01H
	DB	0ffH
	DB	0ffH
	DB	0ffH
	DB	0ffH
	ORG $+3
Subtruct_out_data_17_13 DB 01H
	DB	01H
	DB	00H
	DB	00H
	DB	080H
	ORG $+3
Subtruct_out_data_17_14 DB 01H
	DB	00H
	DB	00H
	DB	00H
	DB	080H
	ORG $+3
Subtruct_out_data_17_15 DB 01H
	DB	0ffH
	DB	0ffH
	DB	0ffH
	DB	07fH
	ORG $+3
Subtruct_out_data_17_18 DB 03H
	DB	0ffH
	DB	0ffH
	DB	0ffH
	DB	07fH
	ORG $+3
Subtruct_out_data_17_19 DB 03H
	DB	00H
	DB	00H
	DB	00H
	DB	080H
	ORG $+7
Subtruct_out_data_17_20 DB 03H
	DB	0ffH
	DB	0ffH
	DB	0ffH
	DB	07fH
	DB	0ffH
	DB	0ffH
	DB	0ffH
	DB	07fH
	ORG $+7
Subtruct_out_data_17_21 DB 03H
	DB	00H
	DB	00H
	DB	00H
	DB	080H
	DB	0ffH
	DB	0ffH
	DB	0ffH
	DB	07fH
	ORG $+7
Subtruct_out_data_17_22 DB 03H
	DB	0ffH
	DB	0ffH
	DB	0ffH
	DB	07fH
	DB	0ffH
	DB	0ffH
	DB	0ffH
	DB	0ffH
	ORG $+7
Subtruct_out_data_17_23 DB 03H
	DB	00H
	DB	00H
	DB	00H
	DB	080H
	DB	0ffH
	DB	0ffH
	DB	0ffH
	DB	0ffH
	ORG $+7
Subtruct_out_data_17_24 DB 03H
	DB	0ffH
	DB	0ffH
	DB	0ffH
	DB	07fH
	DB	0ffH
	DB	0ffH
	DB	0ffH
	DB	0ffH
	DB	0ffH
	DB	0ffH
	DB	0ffH
	DB	0ffH
	DB	0ffH
	DB	0ffH
	DB	0ffH
	DB	07fH
	ORG $+7
Subtruct_out_data_17_25 DB 03H
	DB	00H
	DB	00H
	DB	00H
	DB	080H
	DB	0ffH
	DB	0ffH
	DB	0ffH
	DB	0ffH
	DB	0ffH
	DB	0ffH
	DB	0ffH
	DB	0ffH
	DB	0ffH
	DB	0ffH
	DB	0ffH
	DB	07fH
	ORG $+7
Subtruct_out_data_17_26 DB 03H
	DB	0ffH
	DB	0ffH
	DB	0ffH
	DB	07fH
	DB	0ffH
	DB	0ffH
	DB	0ffH
	DB	0ffH
	DB	0ffH
	DB	0ffH
	DB	0ffH
	DB	0ffH
	DB	0ffH
	DB	0ffH
	DB	0ffH
	DB	0ffH
	ORG $+7
Subtruct_out_data_17_27 DB 03H
	DB	00H
	DB	00H
	DB	00H
	DB	080H
	DB	0ffH
	DB	0ffH
	DB	0ffH
	DB	0ffH
	DB	0ffH
	DB	0ffH
	DB	0ffH
	DB	0ffH
	DB	0ffH
	DB	0ffH
	DB	0ffH
	DB	0ffH
	ORG $+7
Subtruct_out_data_18_1 DB 01H
	DB	0ffH
	DB	0ffH
	DB	0ffH
	DB	0ffH
	DB	00H
	DB	00H
	DB	00H
	DB	00H
	DB	00H
	DB	00H
	DB	00H
	DB	00H
	DB	00H
	DB	00H
	DB	00H
	DB	00H
	DB	01H
	ORG $+6
Subtruct_out_data_18_2 DB 01H
	DB	0feH
	DB	0ffH
	DB	0ffH
	DB	0ffH
	DB	00H
	DB	00H
	DB	00H
	DB	00H
	DB	00H
	DB	00H
	DB	00H
	DB	00H
	DB	00H
	DB	00H
	DB	00H
	DB	00H
	DB	01H
	ORG $+6
Subtruct_out_data_18_3 DB 01H
	DB	0ffH
	DB	0ffH
	DB	0ffH
	DB	0ffH
	DB	00H
	DB	00H
	DB	00H
	DB	00H
	DB	00H
	DB	00H
	DB	00H
	DB	00H
	DB	00H
	DB	00H
	DB	00H
	DB	080H
	ORG $+7
Subtruct_out_data_18_4 DB 01H
	DB	0feH
	DB	0ffH
	DB	0ffH
	DB	0ffH
	DB	00H
	DB	00H
	DB	00H
	DB	00H
	DB	00H
	DB	00H
	DB	00H
	DB	00H
	DB	00H
	DB	00H
	DB	00H
	DB	080H
	ORG $+7
Subtruct_out_data_18_5 DB 01H
	DB	0ffH
	DB	0ffH
	DB	0ffH
	DB	0ffH
	DB	00H
	DB	00H
	DB	00H
	DB	00H
	DB	01H
	ORG $+6
Subtruct_out_data_18_6 DB 01H
	DB	0feH
	DB	0ffH
	DB	0ffH
	DB	0ffH
	DB	00H
	DB	00H
	DB	00H
	DB	00H
	DB	01H
	ORG $+6
Subtruct_out_data_18_7 DB 01H
	DB	0ffH
	DB	0ffH
	DB	0ffH
	DB	0ffH
	DB	00H
	DB	00H
	DB	00H
	DB	080H
	ORG $+7
Subtruct_out_data_18_8 DB 01H
	DB	0feH
	DB	0ffH
	DB	0ffH
	DB	0ffH
	DB	00H
	DB	00H
	DB	00H
	DB	080H
	ORG $+3
Subtruct_out_data_18_9 DB 01H
	DB	0ffH
	DB	0ffH
	DB	0ffH
	DB	0ffH
	DB	01H
	ORG $+2
Subtruct_out_data_18_10 DB 01H
	DB	0feH
	DB	0ffH
	DB	0ffH
	DB	0ffH
	DB	01H
	ORG $+2
Subtruct_out_data_18_11 DB 01H
	DB	0ffH
	DB	0ffH
	DB	0ffH
	DB	07fH
	DB	01H
	ORG $+2
Subtruct_out_data_18_12 DB 01H
	DB	0feH
	DB	0ffH
	DB	0ffH
	DB	07fH
	DB	01H
	ORG $+2
Subtruct_out_data_18_13 DB 01H
	DB	00H
	DB	00H
	DB	00H
	DB	00H
	DB	01H
	ORG $+2
Subtruct_out_data_18_14 DB 01H
	DB	0ffH
	DB	0ffH
	DB	0ffH
	DB	0ffH
	ORG $+3
Subtruct_out_data_18_15 DB 01H
	DB	0feH
	DB	0ffH
	DB	0ffH
	DB	0ffH
	ORG $+3
Subtruct_out_data_18_16 DB 01H
	DB	00H
	DB	00H
	DB	00H
	DB	080H
	ORG $+3
Subtruct_out_data_18_17 DB 01H
	DB	0ffH
	DB	0ffH
	DB	0ffH
	DB	07fH
	ORG $+7
Subtruct_out_data_18_20 DB 03H
	DB	00H
	DB	00H
	DB	00H
	DB	00H
	DB	0ffH
	DB	0ffH
	DB	0ffH
	DB	07fH
	ORG $+7
Subtruct_out_data_18_21 DB 03H
	DB	01H
	DB	00H
	DB	00H
	DB	00H
	DB	0ffH
	DB	0ffH
	DB	0ffH
	DB	07fH
	ORG $+7
Subtruct_out_data_18_22 DB 03H
	DB	00H
	DB	00H
	DB	00H
	DB	00H
	DB	0ffH
	DB	0ffH
	DB	0ffH
	DB	0ffH
	ORG $+7
Subtruct_out_data_18_23 DB 03H
	DB	01H
	DB	00H
	DB	00H
	DB	00H
	DB	0ffH
	DB	0ffH
	DB	0ffH
	DB	0ffH
	ORG $+7
Subtruct_out_data_18_24 DB 03H
	DB	00H
	DB	00H
	DB	00H
	DB	00H
	DB	0ffH
	DB	0ffH
	DB	0ffH
	DB	0ffH
	DB	0ffH
	DB	0ffH
	DB	0ffH
	DB	0ffH
	DB	0ffH
	DB	0ffH
	DB	0ffH
	DB	07fH
	ORG $+7
Subtruct_out_data_18_25 DB 03H
	DB	01H
	DB	00H
	DB	00H
	DB	00H
	DB	0ffH
	DB	0ffH
	DB	0ffH
	DB	0ffH
	DB	0ffH
	DB	0ffH
	DB	0ffH
	DB	0ffH
	DB	0ffH
	DB	0ffH
	DB	0ffH
	DB	07fH
	ORG $+7
Subtruct_out_data_18_26 DB 03H
	DB	00H
	DB	00H
	DB	00H
	DB	00H
	DB	0ffH
	DB	0ffH
	DB	0ffH
	DB	0ffH
	DB	0ffH
	DB	0ffH
	DB	0ffH
	DB	0ffH
	DB	0ffH
	DB	0ffH
	DB	0ffH
	DB	0ffH
	ORG $+7
Subtruct_out_data_18_27 DB 03H
	DB	01H
	DB	00H
	DB	00H
	DB	00H
	DB	0ffH
	DB	0ffH
	DB	0ffH
	DB	0ffH
	DB	0ffH
	DB	0ffH
	DB	0ffH
	DB	0ffH
	DB	0ffH
	DB	0ffH
	DB	0ffH
	DB	0ffH
	ORG $+7
Subtruct_out_data_19_1 DB 01H
	DB	00H
	DB	00H
	DB	00H
	DB	00H
	DB	01H
	DB	00H
	DB	00H
	DB	00H
	DB	00H
	DB	00H
	DB	00H
	DB	00H
	DB	00H
	DB	00H
	DB	00H
	DB	00H
	DB	01H
	ORG $+6
Subtruct_out_data_19_2 DB 01H
	DB	0ffH
	DB	0ffH
	DB	0ffH
	DB	0ffH
	DB	00H
	DB	00H
	DB	00H
	DB	00H
	DB	00H
	DB	00H
	DB	00H
	DB	00H
	DB	00H
	DB	00H
	DB	00H
	DB	00H
	DB	01H
	ORG $+6
Subtruct_out_data_19_3 DB 01H
	DB	00H
	DB	00H
	DB	00H
	DB	00H
	DB	01H
	DB	00H
	DB	00H
	DB	00H
	DB	00H
	DB	00H
	DB	00H
	DB	00H
	DB	00H
	DB	00H
	DB	00H
	DB	080H
	ORG $+7
Subtruct_out_data_19_4 DB 01H
	DB	0ffH
	DB	0ffH
	DB	0ffH
	DB	0ffH
	DB	00H
	DB	00H
	DB	00H
	DB	00H
	DB	00H
	DB	00H
	DB	00H
	DB	00H
	DB	00H
	DB	00H
	DB	00H
	DB	080H
	ORG $+7
Subtruct_out_data_19_5 DB 01H
	DB	00H
	DB	00H
	DB	00H
	DB	00H
	DB	01H
	DB	00H
	DB	00H
	DB	00H
	DB	01H
	ORG $+6
Subtruct_out_data_19_6 DB 01H
	DB	0ffH
	DB	0ffH
	DB	0ffH
	DB	0ffH
	DB	00H
	DB	00H
	DB	00H
	DB	00H
	DB	01H
	ORG $+6
Subtruct_out_data_19_7 DB 01H
	DB	00H
	DB	00H
	DB	00H
	DB	00H
	DB	01H
	DB	00H
	DB	00H
	DB	080H
	ORG $+7
Subtruct_out_data_19_8 DB 01H
	DB	0ffH
	DB	0ffH
	DB	0ffH
	DB	0ffH
	DB	00H
	DB	00H
	DB	00H
	DB	080H
	ORG $+3
Subtruct_out_data_19_9 DB 01H
	DB	00H
	DB	00H
	DB	00H
	DB	00H
	DB	02H
	ORG $+2
Subtruct_out_data_19_10 DB 01H
	DB	0ffH
	DB	0ffH
	DB	0ffH
	DB	0ffH
	DB	01H
	ORG $+2
Subtruct_out_data_19_11 DB 01H
	DB	00H
	DB	00H
	DB	00H
	DB	080H
	DB	01H
	ORG $+2
Subtruct_out_data_19_12 DB 01H
	DB	0ffH
	DB	0ffH
	DB	0ffH
	DB	07fH
	DB	01H
	ORG $+2
Subtruct_out_data_19_13 DB 01H
	DB	01H
	DB	00H
	DB	00H
	DB	00H
	DB	01H
	ORG $+2
Subtruct_out_data_19_14 DB 01H
	DB	00H
	DB	00H
	DB	00H
	DB	00H
	DB	01H
	ORG $+2
Subtruct_out_data_19_15 DB 01H
	DB	0ffH
	DB	0ffH
	DB	0ffH
	DB	0ffH
	ORG $+3
Subtruct_out_data_19_16 DB 01H
	DB	01H
	DB	00H
	DB	00H
	DB	080H
	ORG $+3
Subtruct_out_data_19_17 DB 01H
	DB	00H
	DB	00H
	DB	00H
	DB	080H
	ORG $+7
Subtruct_out_data_19_20 DB 03H
	DB	0ffH
	DB	0ffH
	DB	0ffH
	DB	0ffH
	DB	0feH
	DB	0ffH
	DB	0ffH
	DB	07fH
	ORG $+7
Subtruct_out_data_19_21 DB 03H
	DB	00H
	DB	00H
	DB	00H
	DB	00H
	DB	0ffH
	DB	0ffH
	DB	0ffH
	DB	07fH
	ORG $+7
Subtruct_out_data_19_22 DB 03H
	DB	0ffH
	DB	0ffH
	DB	0ffH
	DB	0ffH
	DB	0feH
	DB	0ffH
	DB	0ffH
	DB	0ffH
	ORG $+7
Subtruct_out_data_19_23 DB 03H
	DB	00H
	DB	00H
	DB	00H
	DB	00H
	DB	0ffH
	DB	0ffH
	DB	0ffH
	DB	0ffH
	ORG $+7
Subtruct_out_data_19_24 DB 03H
	DB	0ffH
	DB	0ffH
	DB	0ffH
	DB	0ffH
	DB	0feH
	DB	0ffH
	DB	0ffH
	DB	0ffH
	DB	0ffH
	DB	0ffH
	DB	0ffH
	DB	0ffH
	DB	0ffH
	DB	0ffH
	DB	0ffH
	DB	07fH
	ORG $+7
Subtruct_out_data_19_25 DB 03H
	DB	00H
	DB	00H
	DB	00H
	DB	00H
	DB	0ffH
	DB	0ffH
	DB	0ffH
	DB	0ffH
	DB	0ffH
	DB	0ffH
	DB	0ffH
	DB	0ffH
	DB	0ffH
	DB	0ffH
	DB	0ffH
	DB	07fH
	ORG $+7
Subtruct_out_data_19_26 DB 03H
	DB	0ffH
	DB	0ffH
	DB	0ffH
	DB	0ffH
	DB	0feH
	DB	0ffH
	DB	0ffH
	DB	0ffH
	DB	0ffH
	DB	0ffH
	DB	0ffH
	DB	0ffH
	DB	0ffH
	DB	0ffH
	DB	0ffH
	DB	0ffH
	ORG $+7
Subtruct_out_data_19_27 DB 03H
	DB	00H
	DB	00H
	DB	00H
	DB	00H
	DB	0ffH
	DB	0ffH
	DB	0ffH
	DB	0ffH
	DB	0ffH
	DB	0ffH
	DB	0ffH
	DB	0ffH
	DB	0ffH
	DB	0ffH
	DB	0ffH
	DB	0ffH
	ORG $+7
Subtruct_out_data_20_1 DB 01H
	DB	0ffH
	DB	0ffH
	DB	0ffH
	DB	0ffH
	DB	0ffH
	DB	0ffH
	DB	0ffH
	DB	07fH
	DB	00H
	DB	00H
	DB	00H
	DB	00H
	DB	00H
	DB	00H
	DB	00H
	DB	00H
	DB	01H
	ORG $+6
Subtruct_out_data_20_2 DB 01H
	DB	0feH
	DB	0ffH
	DB	0ffH
	DB	0ffH
	DB	0ffH
	DB	0ffH
	DB	0ffH
	DB	07fH
	DB	00H
	DB	00H
	DB	00H
	DB	00H
	DB	00H
	DB	00H
	DB	00H
	DB	00H
	DB	01H
	ORG $+6
Subtruct_out_data_20_3 DB 01H
	DB	0ffH
	DB	0ffH
	DB	0ffH
	DB	0ffH
	DB	0ffH
	DB	0ffH
	DB	0ffH
	DB	07fH
	DB	00H
	DB	00H
	DB	00H
	DB	00H
	DB	00H
	DB	00H
	DB	00H
	DB	080H
	ORG $+7
Subtruct_out_data_20_4 DB 01H
	DB	0feH
	DB	0ffH
	DB	0ffH
	DB	0ffH
	DB	0ffH
	DB	0ffH
	DB	0ffH
	DB	07fH
	DB	00H
	DB	00H
	DB	00H
	DB	00H
	DB	00H
	DB	00H
	DB	00H
	DB	080H
	ORG $+7
Subtruct_out_data_20_5 DB 01H
	DB	0ffH
	DB	0ffH
	DB	0ffH
	DB	0ffH
	DB	0ffH
	DB	0ffH
	DB	0ffH
	DB	07fH
	DB	01H
	ORG $+6
Subtruct_out_data_20_6 DB 01H
	DB	0feH
	DB	0ffH
	DB	0ffH
	DB	0ffH
	DB	0ffH
	DB	0ffH
	DB	0ffH
	DB	07fH
	DB	01H
	ORG $+6
Subtruct_out_data_20_7 DB 01H
	DB	0ffH
	DB	0ffH
	DB	0ffH
	DB	0ffH
	DB	0ffH
	DB	0ffH
	DB	0ffH
	DB	0ffH
	ORG $+7
Subtruct_out_data_20_8 DB 01H
	DB	0feH
	DB	0ffH
	DB	0ffH
	DB	0ffH
	DB	0ffH
	DB	0ffH
	DB	0ffH
	DB	0ffH
	ORG $+7
Subtruct_out_data_20_9 DB 01H
	DB	0ffH
	DB	0ffH
	DB	0ffH
	DB	0ffH
	DB	00H
	DB	00H
	DB	00H
	DB	080H
	ORG $+7
Subtruct_out_data_20_10 DB 01H
	DB	0feH
	DB	0ffH
	DB	0ffH
	DB	0ffH
	DB	00H
	DB	00H
	DB	00H
	DB	080H
	ORG $+7
Subtruct_out_data_20_11 DB 01H
	DB	0ffH
	DB	0ffH
	DB	0ffH
	DB	07fH
	DB	00H
	DB	00H
	DB	00H
	DB	080H
	ORG $+7
Subtruct_out_data_20_12 DB 01H
	DB	0feH
	DB	0ffH
	DB	0ffH
	DB	07fH
	DB	00H
	DB	00H
	DB	00H
	DB	080H
	ORG $+7
Subtruct_out_data_20_13 DB 01H
	DB	00H
	DB	00H
	DB	00H
	DB	00H
	DB	00H
	DB	00H
	DB	00H
	DB	080H
	ORG $+7
Subtruct_out_data_20_14 DB 01H
	DB	0ffH
	DB	0ffH
	DB	0ffH
	DB	0ffH
	DB	0ffH
	DB	0ffH
	DB	0ffH
	DB	07fH
	ORG $+7
Subtruct_out_data_20_15 DB 01H
	DB	0feH
	DB	0ffH
	DB	0ffH
	DB	0ffH
	DB	0ffH
	DB	0ffH
	DB	0ffH
	DB	07fH
	ORG $+7
Subtruct_out_data_20_16 DB 01H
	DB	00H
	DB	00H
	DB	00H
	DB	080H
	DB	0ffH
	DB	0ffH
	DB	0ffH
	DB	07fH
	ORG $+7
Subtruct_out_data_20_17 DB 01H
	DB	0ffH
	DB	0ffH
	DB	0ffH
	DB	07fH
	DB	0ffH
	DB	0ffH
	DB	0ffH
	DB	07fH
	ORG $+7
Subtruct_out_data_20_18 DB 01H
	DB	00H
	DB	00H
	DB	00H
	DB	00H
	DB	0ffH
	DB	0ffH
	DB	0ffH
	DB	07fH
	ORG $+7
Subtruct_out_data_20_19 DB 01H
	DB	0ffH
	DB	0ffH
	DB	0ffH
	DB	0ffH
	DB	0feH
	DB	0ffH
	DB	0ffH
	DB	07fH
	ORG $+7
Subtruct_out_data_20_22 DB 03H
	DB	00H
	DB	00H
	DB	00H
	DB	00H
	DB	00H
	DB	00H
	DB	00H
	DB	080H
	ORG $+7
Subtruct_out_data_20_23 DB 03H
	DB	01H
	DB	00H
	DB	00H
	DB	00H
	DB	00H
	DB	00H
	DB	00H
	DB	080H
	ORG $+7
Subtruct_out_data_20_24 DB 03H
	DB	00H
	DB	00H
	DB	00H
	DB	00H
	DB	00H
	DB	00H
	DB	00H
	DB	080H
	DB	0ffH
	DB	0ffH
	DB	0ffH
	DB	0ffH
	DB	0ffH
	DB	0ffH
	DB	0ffH
	DB	07fH
	ORG $+7
Subtruct_out_data_20_25 DB 03H
	DB	01H
	DB	00H
	DB	00H
	DB	00H
	DB	00H
	DB	00H
	DB	00H
	DB	080H
	DB	0ffH
	DB	0ffH
	DB	0ffH
	DB	0ffH
	DB	0ffH
	DB	0ffH
	DB	0ffH
	DB	07fH
	ORG $+7
Subtruct_out_data_20_26 DB 03H
	DB	00H
	DB	00H
	DB	00H
	DB	00H
	DB	00H
	DB	00H
	DB	00H
	DB	080H
	DB	0ffH
	DB	0ffH
	DB	0ffH
	DB	0ffH
	DB	0ffH
	DB	0ffH
	DB	0ffH
	DB	0ffH
	ORG $+7
Subtruct_out_data_20_27 DB 03H
	DB	01H
	DB	00H
	DB	00H
	DB	00H
	DB	00H
	DB	00H
	DB	00H
	DB	080H
	DB	0ffH
	DB	0ffH
	DB	0ffH
	DB	0ffH
	DB	0ffH
	DB	0ffH
	DB	0ffH
	DB	0ffH
	ORG $+7
Subtruct_out_data_21_1 DB 01H
	DB	00H
	DB	00H
	DB	00H
	DB	00H
	DB	00H
	DB	00H
	DB	00H
	DB	080H
	DB	00H
	DB	00H
	DB	00H
	DB	00H
	DB	00H
	DB	00H
	DB	00H
	DB	00H
	DB	01H
	ORG $+6
Subtruct_out_data_21_2 DB 01H
	DB	0ffH
	DB	0ffH
	DB	0ffH
	DB	0ffH
	DB	0ffH
	DB	0ffH
	DB	0ffH
	DB	07fH
	DB	00H
	DB	00H
	DB	00H
	DB	00H
	DB	00H
	DB	00H
	DB	00H
	DB	00H
	DB	01H
	ORG $+6
Subtruct_out_data_21_3 DB 01H
	DB	00H
	DB	00H
	DB	00H
	DB	00H
	DB	00H
	DB	00H
	DB	00H
	DB	080H
	DB	00H
	DB	00H
	DB	00H
	DB	00H
	DB	00H
	DB	00H
	DB	00H
	DB	080H
	ORG $+7
Subtruct_out_data_21_4 DB 01H
	DB	0ffH
	DB	0ffH
	DB	0ffH
	DB	0ffH
	DB	0ffH
	DB	0ffH
	DB	0ffH
	DB	07fH
	DB	00H
	DB	00H
	DB	00H
	DB	00H
	DB	00H
	DB	00H
	DB	00H
	DB	080H
	ORG $+7
Subtruct_out_data_21_5 DB 01H
	DB	00H
	DB	00H
	DB	00H
	DB	00H
	DB	00H
	DB	00H
	DB	00H
	DB	080H
	DB	01H
	ORG $+6
Subtruct_out_data_21_6 DB 01H
	DB	0ffH
	DB	0ffH
	DB	0ffH
	DB	0ffH
	DB	0ffH
	DB	0ffH
	DB	0ffH
	DB	07fH
	DB	01H
	ORG $+6
Subtruct_out_data_21_7 DB 01H
	DB	00H
	DB	00H
	DB	00H
	DB	00H
	DB	00H
	DB	00H
	DB	00H
	DB	00H
	DB	01H
	ORG $+6
Subtruct_out_data_21_8 DB 01H
	DB	0ffH
	DB	0ffH
	DB	0ffH
	DB	0ffH
	DB	0ffH
	DB	0ffH
	DB	0ffH
	DB	0ffH
	ORG $+7
Subtruct_out_data_21_9 DB 01H
	DB	00H
	DB	00H
	DB	00H
	DB	00H
	DB	01H
	DB	00H
	DB	00H
	DB	080H
	ORG $+7
Subtruct_out_data_21_10 DB 01H
	DB	0ffH
	DB	0ffH
	DB	0ffH
	DB	0ffH
	DB	00H
	DB	00H
	DB	00H
	DB	080H
	ORG $+7
Subtruct_out_data_21_11 DB 01H
	DB	00H
	DB	00H
	DB	00H
	DB	080H
	DB	00H
	DB	00H
	DB	00H
	DB	080H
	ORG $+7
Subtruct_out_data_21_12 DB 01H
	DB	0ffH
	DB	0ffH
	DB	0ffH
	DB	07fH
	DB	00H
	DB	00H
	DB	00H
	DB	080H
	ORG $+7
Subtruct_out_data_21_13 DB 01H
	DB	01H
	DB	00H
	DB	00H
	DB	00H
	DB	00H
	DB	00H
	DB	00H
	DB	080H
	ORG $+7
Subtruct_out_data_21_14 DB 01H
	DB	00H
	DB	00H
	DB	00H
	DB	00H
	DB	00H
	DB	00H
	DB	00H
	DB	080H
	ORG $+7
Subtruct_out_data_21_15 DB 01H
	DB	0ffH
	DB	0ffH
	DB	0ffH
	DB	0ffH
	DB	0ffH
	DB	0ffH
	DB	0ffH
	DB	07fH
	ORG $+7
Subtruct_out_data_21_16 DB 01H
	DB	01H
	DB	00H
	DB	00H
	DB	080H
	DB	0ffH
	DB	0ffH
	DB	0ffH
	DB	07fH
	ORG $+7
Subtruct_out_data_21_17 DB 01H
	DB	00H
	DB	00H
	DB	00H
	DB	080H
	DB	0ffH
	DB	0ffH
	DB	0ffH
	DB	07fH
	ORG $+7
Subtruct_out_data_21_18 DB 01H
	DB	01H
	DB	00H
	DB	00H
	DB	00H
	DB	0ffH
	DB	0ffH
	DB	0ffH
	DB	07fH
	ORG $+7
Subtruct_out_data_21_19 DB 01H
	DB	00H
	DB	00H
	DB	00H
	DB	00H
	DB	0ffH
	DB	0ffH
	DB	0ffH
	DB	07fH
	ORG $+7
Subtruct_out_data_21_22 DB 03H
	DB	0ffH
	DB	0ffH
	DB	0ffH
	DB	0ffH
	DB	0ffH
	DB	0ffH
	DB	0ffH
	DB	07fH
	ORG $+7
Subtruct_out_data_21_23 DB 03H
	DB	00H
	DB	00H
	DB	00H
	DB	00H
	DB	00H
	DB	00H
	DB	00H
	DB	080H
	ORG $+7
Subtruct_out_data_21_24 DB 03H
	DB	0ffH
	DB	0ffH
	DB	0ffH
	DB	0ffH
	DB	0ffH
	DB	0ffH
	DB	0ffH
	DB	07fH
	DB	0ffH
	DB	0ffH
	DB	0ffH
	DB	0ffH
	DB	0ffH
	DB	0ffH
	DB	0ffH
	DB	07fH
	ORG $+7
Subtruct_out_data_21_25 DB 03H
	DB	00H
	DB	00H
	DB	00H
	DB	00H
	DB	00H
	DB	00H
	DB	00H
	DB	080H
	DB	0ffH
	DB	0ffH
	DB	0ffH
	DB	0ffH
	DB	0ffH
	DB	0ffH
	DB	0ffH
	DB	07fH
	ORG $+7
Subtruct_out_data_21_26 DB 03H
	DB	0ffH
	DB	0ffH
	DB	0ffH
	DB	0ffH
	DB	0ffH
	DB	0ffH
	DB	0ffH
	DB	07fH
	DB	0ffH
	DB	0ffH
	DB	0ffH
	DB	0ffH
	DB	0ffH
	DB	0ffH
	DB	0ffH
	DB	0ffH
	ORG $+7
Subtruct_out_data_21_27 DB 03H
	DB	00H
	DB	00H
	DB	00H
	DB	00H
	DB	00H
	DB	00H
	DB	00H
	DB	080H
	DB	0ffH
	DB	0ffH
	DB	0ffH
	DB	0ffH
	DB	0ffH
	DB	0ffH
	DB	0ffH
	DB	0ffH
	ORG $+7
Subtruct_out_data_22_1 DB 01H
	DB	0ffH
	DB	0ffH
	DB	0ffH
	DB	0ffH
	DB	0ffH
	DB	0ffH
	DB	0ffH
	DB	0ffH
	DB	00H
	DB	00H
	DB	00H
	DB	00H
	DB	00H
	DB	00H
	DB	00H
	DB	00H
	DB	01H
	ORG $+6
Subtruct_out_data_22_2 DB 01H
	DB	0feH
	DB	0ffH
	DB	0ffH
	DB	0ffH
	DB	0ffH
	DB	0ffH
	DB	0ffH
	DB	0ffH
	DB	00H
	DB	00H
	DB	00H
	DB	00H
	DB	00H
	DB	00H
	DB	00H
	DB	00H
	DB	01H
	ORG $+6
Subtruct_out_data_22_3 DB 01H
	DB	0ffH
	DB	0ffH
	DB	0ffH
	DB	0ffH
	DB	0ffH
	DB	0ffH
	DB	0ffH
	DB	0ffH
	DB	00H
	DB	00H
	DB	00H
	DB	00H
	DB	00H
	DB	00H
	DB	00H
	DB	080H
	ORG $+7
Subtruct_out_data_22_4 DB 01H
	DB	0feH
	DB	0ffH
	DB	0ffH
	DB	0ffH
	DB	0ffH
	DB	0ffH
	DB	0ffH
	DB	0ffH
	DB	00H
	DB	00H
	DB	00H
	DB	00H
	DB	00H
	DB	00H
	DB	00H
	DB	080H
	ORG $+7
Subtruct_out_data_22_5 DB 01H
	DB	0ffH
	DB	0ffH
	DB	0ffH
	DB	0ffH
	DB	0ffH
	DB	0ffH
	DB	0ffH
	DB	0ffH
	DB	01H
	ORG $+6
Subtruct_out_data_22_6 DB 01H
	DB	0feH
	DB	0ffH
	DB	0ffH
	DB	0ffH
	DB	0ffH
	DB	0ffH
	DB	0ffH
	DB	0ffH
	DB	01H
	ORG $+6
Subtruct_out_data_22_7 DB 01H
	DB	0ffH
	DB	0ffH
	DB	0ffH
	DB	0ffH
	DB	0ffH
	DB	0ffH
	DB	0ffH
	DB	07fH
	DB	01H
	ORG $+6
Subtruct_out_data_22_8 DB 01H
	DB	0feH
	DB	0ffH
	DB	0ffH
	DB	0ffH
	DB	0ffH
	DB	0ffH
	DB	0ffH
	DB	07fH
	DB	01H
	ORG $+6
Subtruct_out_data_22_9 DB 01H
	DB	0ffH
	DB	0ffH
	DB	0ffH
	DB	0ffH
	DB	00H
	DB	00H
	DB	00H
	DB	00H
	DB	01H
	ORG $+6
Subtruct_out_data_22_10 DB 01H
	DB	0feH
	DB	0ffH
	DB	0ffH
	DB	0ffH
	DB	00H
	DB	00H
	DB	00H
	DB	00H
	DB	01H
	ORG $+6
Subtruct_out_data_22_11 DB 01H
	DB	0ffH
	DB	0ffH
	DB	0ffH
	DB	07fH
	DB	00H
	DB	00H
	DB	00H
	DB	00H
	DB	01H
	ORG $+6
Subtruct_out_data_22_12 DB 01H
	DB	0feH
	DB	0ffH
	DB	0ffH
	DB	07fH
	DB	00H
	DB	00H
	DB	00H
	DB	00H
	DB	01H
	ORG $+6
Subtruct_out_data_22_13 DB 01H
	DB	00H
	DB	00H
	DB	00H
	DB	00H
	DB	00H
	DB	00H
	DB	00H
	DB	00H
	DB	01H
	ORG $+6
Subtruct_out_data_22_14 DB 01H
	DB	0ffH
	DB	0ffH
	DB	0ffH
	DB	0ffH
	DB	0ffH
	DB	0ffH
	DB	0ffH
	DB	0ffH
	ORG $+7
Subtruct_out_data_22_15 DB 01H
	DB	0feH
	DB	0ffH
	DB	0ffH
	DB	0ffH
	DB	0ffH
	DB	0ffH
	DB	0ffH
	DB	0ffH
	ORG $+7
Subtruct_out_data_22_16 DB 01H
	DB	00H
	DB	00H
	DB	00H
	DB	080H
	DB	0ffH
	DB	0ffH
	DB	0ffH
	DB	0ffH
	ORG $+7
Subtruct_out_data_22_17 DB 01H
	DB	0ffH
	DB	0ffH
	DB	0ffH
	DB	07fH
	DB	0ffH
	DB	0ffH
	DB	0ffH
	DB	0ffH
	ORG $+7
Subtruct_out_data_22_18 DB 01H
	DB	00H
	DB	00H
	DB	00H
	DB	00H
	DB	0ffH
	DB	0ffH
	DB	0ffH
	DB	0ffH
	ORG $+7
Subtruct_out_data_22_19 DB 01H
	DB	0ffH
	DB	0ffH
	DB	0ffH
	DB	0ffH
	DB	0feH
	DB	0ffH
	DB	0ffH
	DB	0ffH
	ORG $+7
Subtruct_out_data_22_20 DB 01H
	DB	00H
	DB	00H
	DB	00H
	DB	00H
	DB	00H
	DB	00H
	DB	00H
	DB	080H
	ORG $+7
Subtruct_out_data_22_21 DB 01H
	DB	0ffH
	DB	0ffH
	DB	0ffH
	DB	0ffH
	DB	0ffH
	DB	0ffH
	DB	0ffH
	DB	07fH
	ORG $+7
Subtruct_out_data_22_24 DB 03H
	DB	00H
	DB	00H
	DB	00H
	DB	00H
	DB	00H
	DB	00H
	DB	00H
	DB	00H
	DB	0ffH
	DB	0ffH
	DB	0ffH
	DB	0ffH
	DB	0ffH
	DB	0ffH
	DB	0ffH
	DB	07fH
	ORG $+7
Subtruct_out_data_22_25 DB 03H
	DB	01H
	DB	00H
	DB	00H
	DB	00H
	DB	00H
	DB	00H
	DB	00H
	DB	00H
	DB	0ffH
	DB	0ffH
	DB	0ffH
	DB	0ffH
	DB	0ffH
	DB	0ffH
	DB	0ffH
	DB	07fH
	ORG $+7
Subtruct_out_data_22_26 DB 03H
	DB	00H
	DB	00H
	DB	00H
	DB	00H
	DB	00H
	DB	00H
	DB	00H
	DB	00H
	DB	0ffH
	DB	0ffH
	DB	0ffH
	DB	0ffH
	DB	0ffH
	DB	0ffH
	DB	0ffH
	DB	0ffH
	ORG $+7
Subtruct_out_data_22_27 DB 03H
	DB	01H
	DB	00H
	DB	00H
	DB	00H
	DB	00H
	DB	00H
	DB	00H
	DB	00H
	DB	0ffH
	DB	0ffH
	DB	0ffH
	DB	0ffH
	DB	0ffH
	DB	0ffH
	DB	0ffH
	DB	0ffH
	ORG $+7
Subtruct_out_data_23_1 DB 01H
	DB	00H
	DB	00H
	DB	00H
	DB	00H
	DB	00H
	DB	00H
	DB	00H
	DB	00H
	DB	01H
	DB	00H
	DB	00H
	DB	00H
	DB	00H
	DB	00H
	DB	00H
	DB	00H
	DB	01H
	ORG $+6
Subtruct_out_data_23_2 DB 01H
	DB	0ffH
	DB	0ffH
	DB	0ffH
	DB	0ffH
	DB	0ffH
	DB	0ffH
	DB	0ffH
	DB	0ffH
	DB	00H
	DB	00H
	DB	00H
	DB	00H
	DB	00H
	DB	00H
	DB	00H
	DB	00H
	DB	01H
	ORG $+6
Subtruct_out_data_23_3 DB 01H
	DB	00H
	DB	00H
	DB	00H
	DB	00H
	DB	00H
	DB	00H
	DB	00H
	DB	00H
	DB	01H
	DB	00H
	DB	00H
	DB	00H
	DB	00H
	DB	00H
	DB	00H
	DB	080H
	ORG $+7
Subtruct_out_data_23_4 DB 01H
	DB	0ffH
	DB	0ffH
	DB	0ffH
	DB	0ffH
	DB	0ffH
	DB	0ffH
	DB	0ffH
	DB	0ffH
	DB	00H
	DB	00H
	DB	00H
	DB	00H
	DB	00H
	DB	00H
	DB	00H
	DB	080H
	ORG $+7
Subtruct_out_data_23_5 DB 01H
	DB	00H
	DB	00H
	DB	00H
	DB	00H
	DB	00H
	DB	00H
	DB	00H
	DB	00H
	DB	02H
	ORG $+6
Subtruct_out_data_23_6 DB 01H
	DB	0ffH
	DB	0ffH
	DB	0ffH
	DB	0ffH
	DB	0ffH
	DB	0ffH
	DB	0ffH
	DB	0ffH
	DB	01H
	ORG $+6
Subtruct_out_data_23_7 DB 01H
	DB	00H
	DB	00H
	DB	00H
	DB	00H
	DB	00H
	DB	00H
	DB	00H
	DB	080H
	DB	01H
	ORG $+6
Subtruct_out_data_23_8 DB 01H
	DB	0ffH
	DB	0ffH
	DB	0ffH
	DB	0ffH
	DB	0ffH
	DB	0ffH
	DB	0ffH
	DB	07fH
	DB	01H
	ORG $+6
Subtruct_out_data_23_9 DB 01H
	DB	00H
	DB	00H
	DB	00H
	DB	00H
	DB	01H
	DB	00H
	DB	00H
	DB	00H
	DB	01H
	ORG $+6
Subtruct_out_data_23_10 DB 01H
	DB	0ffH
	DB	0ffH
	DB	0ffH
	DB	0ffH
	DB	00H
	DB	00H
	DB	00H
	DB	00H
	DB	01H
	ORG $+6
Subtruct_out_data_23_11 DB 01H
	DB	00H
	DB	00H
	DB	00H
	DB	080H
	DB	00H
	DB	00H
	DB	00H
	DB	00H
	DB	01H
	ORG $+6
Subtruct_out_data_23_12 DB 01H
	DB	0ffH
	DB	0ffH
	DB	0ffH
	DB	07fH
	DB	00H
	DB	00H
	DB	00H
	DB	00H
	DB	01H
	ORG $+6
Subtruct_out_data_23_13 DB 01H
	DB	01H
	DB	00H
	DB	00H
	DB	00H
	DB	00H
	DB	00H
	DB	00H
	DB	00H
	DB	01H
	ORG $+6
Subtruct_out_data_23_14 DB 01H
	DB	00H
	DB	00H
	DB	00H
	DB	00H
	DB	00H
	DB	00H
	DB	00H
	DB	00H
	DB	01H
	ORG $+6
Subtruct_out_data_23_15 DB 01H
	DB	0ffH
	DB	0ffH
	DB	0ffH
	DB	0ffH
	DB	0ffH
	DB	0ffH
	DB	0ffH
	DB	0ffH
	ORG $+7
Subtruct_out_data_23_16 DB 01H
	DB	01H
	DB	00H
	DB	00H
	DB	080H
	DB	0ffH
	DB	0ffH
	DB	0ffH
	DB	0ffH
	ORG $+7
Subtruct_out_data_23_17 DB 01H
	DB	00H
	DB	00H
	DB	00H
	DB	080H
	DB	0ffH
	DB	0ffH
	DB	0ffH
	DB	0ffH
	ORG $+7
Subtruct_out_data_23_18 DB 01H
	DB	01H
	DB	00H
	DB	00H
	DB	00H
	DB	0ffH
	DB	0ffH
	DB	0ffH
	DB	0ffH
	ORG $+7
Subtruct_out_data_23_19 DB 01H
	DB	00H
	DB	00H
	DB	00H
	DB	00H
	DB	0ffH
	DB	0ffH
	DB	0ffH
	DB	0ffH
	ORG $+7
Subtruct_out_data_23_20 DB 01H
	DB	01H
	DB	00H
	DB	00H
	DB	00H
	DB	00H
	DB	00H
	DB	00H
	DB	080H
	ORG $+7
Subtruct_out_data_23_21 DB 01H
	DB	00H
	DB	00H
	DB	00H
	DB	00H
	DB	00H
	DB	00H
	DB	00H
	DB	080H
	ORG $+7
Subtruct_out_data_23_24 DB 03H
	DB	0ffH
	DB	0ffH
	DB	0ffH
	DB	0ffH
	DB	0ffH
	DB	0ffH
	DB	0ffH
	DB	0ffH
	DB	0feH
	DB	0ffH
	DB	0ffH
	DB	0ffH
	DB	0ffH
	DB	0ffH
	DB	0ffH
	DB	07fH
	ORG $+7
Subtruct_out_data_23_25 DB 03H
	DB	00H
	DB	00H
	DB	00H
	DB	00H
	DB	00H
	DB	00H
	DB	00H
	DB	00H
	DB	0ffH
	DB	0ffH
	DB	0ffH
	DB	0ffH
	DB	0ffH
	DB	0ffH
	DB	0ffH
	DB	07fH
	ORG $+7
Subtruct_out_data_23_26 DB 03H
	DB	0ffH
	DB	0ffH
	DB	0ffH
	DB	0ffH
	DB	0ffH
	DB	0ffH
	DB	0ffH
	DB	0ffH
	DB	0feH
	DB	0ffH
	DB	0ffH
	DB	0ffH
	DB	0ffH
	DB	0ffH
	DB	0ffH
	DB	0ffH
	ORG $+7
Subtruct_out_data_23_27 DB 03H
	DB	00H
	DB	00H
	DB	00H
	DB	00H
	DB	00H
	DB	00H
	DB	00H
	DB	00H
	DB	0ffH
	DB	0ffH
	DB	0ffH
	DB	0ffH
	DB	0ffH
	DB	0ffH
	DB	0ffH
	DB	0ffH
	ORG $+7
Subtruct_out_data_24_1 DB 01H
	DB	0ffH
	DB	0ffH
	DB	0ffH
	DB	0ffH
	DB	0ffH
	DB	0ffH
	DB	0ffH
	DB	0ffH
	DB	0ffH
	DB	0ffH
	DB	0ffH
	DB	0ffH
	DB	0ffH
	DB	0ffH
	DB	0ffH
	DB	07fH
	DB	01H
	ORG $+6
Subtruct_out_data_24_2 DB 01H
	DB	0feH
	DB	0ffH
	DB	0ffH
	DB	0ffH
	DB	0ffH
	DB	0ffH
	DB	0ffH
	DB	0ffH
	DB	0ffH
	DB	0ffH
	DB	0ffH
	DB	0ffH
	DB	0ffH
	DB	0ffH
	DB	0ffH
	DB	07fH
	DB	01H
	ORG $+6
Subtruct_out_data_24_3 DB 01H
	DB	0ffH
	DB	0ffH
	DB	0ffH
	DB	0ffH
	DB	0ffH
	DB	0ffH
	DB	0ffH
	DB	0ffH
	DB	0ffH
	DB	0ffH
	DB	0ffH
	DB	0ffH
	DB	0ffH
	DB	0ffH
	DB	0ffH
	DB	0ffH
	ORG $+7
Subtruct_out_data_24_4 DB 01H
	DB	0feH
	DB	0ffH
	DB	0ffH
	DB	0ffH
	DB	0ffH
	DB	0ffH
	DB	0ffH
	DB	0ffH
	DB	0ffH
	DB	0ffH
	DB	0ffH
	DB	0ffH
	DB	0ffH
	DB	0ffH
	DB	0ffH
	DB	0ffH
	ORG $+7
Subtruct_out_data_24_5 DB 01H
	DB	0ffH
	DB	0ffH
	DB	0ffH
	DB	0ffH
	DB	0ffH
	DB	0ffH
	DB	0ffH
	DB	0ffH
	DB	00H
	DB	00H
	DB	00H
	DB	00H
	DB	00H
	DB	00H
	DB	00H
	DB	080H
	ORG $+7
Subtruct_out_data_24_6 DB 01H
	DB	0feH
	DB	0ffH
	DB	0ffH
	DB	0ffH
	DB	0ffH
	DB	0ffH
	DB	0ffH
	DB	0ffH
	DB	00H
	DB	00H
	DB	00H
	DB	00H
	DB	00H
	DB	00H
	DB	00H
	DB	080H
	ORG $+7
Subtruct_out_data_24_7 DB 01H
	DB	0ffH
	DB	0ffH
	DB	0ffH
	DB	0ffH
	DB	0ffH
	DB	0ffH
	DB	0ffH
	DB	07fH
	DB	00H
	DB	00H
	DB	00H
	DB	00H
	DB	00H
	DB	00H
	DB	00H
	DB	080H
	ORG $+7
Subtruct_out_data_24_8 DB 01H
	DB	0feH
	DB	0ffH
	DB	0ffH
	DB	0ffH
	DB	0ffH
	DB	0ffH
	DB	0ffH
	DB	07fH
	DB	00H
	DB	00H
	DB	00H
	DB	00H
	DB	00H
	DB	00H
	DB	00H
	DB	080H
	ORG $+7
Subtruct_out_data_24_9 DB 01H
	DB	0ffH
	DB	0ffH
	DB	0ffH
	DB	0ffH
	DB	00H
	DB	00H
	DB	00H
	DB	00H
	DB	00H
	DB	00H
	DB	00H
	DB	00H
	DB	00H
	DB	00H
	DB	00H
	DB	080H
	ORG $+7
Subtruct_out_data_24_10 DB 01H
	DB	0feH
	DB	0ffH
	DB	0ffH
	DB	0ffH
	DB	00H
	DB	00H
	DB	00H
	DB	00H
	DB	00H
	DB	00H
	DB	00H
	DB	00H
	DB	00H
	DB	00H
	DB	00H
	DB	080H
	ORG $+7
Subtruct_out_data_24_11 DB 01H
	DB	0ffH
	DB	0ffH
	DB	0ffH
	DB	07fH
	DB	00H
	DB	00H
	DB	00H
	DB	00H
	DB	00H
	DB	00H
	DB	00H
	DB	00H
	DB	00H
	DB	00H
	DB	00H
	DB	080H
	ORG $+7
Subtruct_out_data_24_12 DB 01H
	DB	0feH
	DB	0ffH
	DB	0ffH
	DB	07fH
	DB	00H
	DB	00H
	DB	00H
	DB	00H
	DB	00H
	DB	00H
	DB	00H
	DB	00H
	DB	00H
	DB	00H
	DB	00H
	DB	080H
	ORG $+7
Subtruct_out_data_24_13 DB 01H
	DB	00H
	DB	00H
	DB	00H
	DB	00H
	DB	00H
	DB	00H
	DB	00H
	DB	00H
	DB	00H
	DB	00H
	DB	00H
	DB	00H
	DB	00H
	DB	00H
	DB	00H
	DB	080H
	ORG $+7
Subtruct_out_data_24_14 DB 01H
	DB	0ffH
	DB	0ffH
	DB	0ffH
	DB	0ffH
	DB	0ffH
	DB	0ffH
	DB	0ffH
	DB	0ffH
	DB	0ffH
	DB	0ffH
	DB	0ffH
	DB	0ffH
	DB	0ffH
	DB	0ffH
	DB	0ffH
	DB	07fH
	ORG $+7
Subtruct_out_data_24_15 DB 01H
	DB	0feH
	DB	0ffH
	DB	0ffH
	DB	0ffH
	DB	0ffH
	DB	0ffH
	DB	0ffH
	DB	0ffH
	DB	0ffH
	DB	0ffH
	DB	0ffH
	DB	0ffH
	DB	0ffH
	DB	0ffH
	DB	0ffH
	DB	07fH
	ORG $+7
Subtruct_out_data_24_16 DB 01H
	DB	00H
	DB	00H
	DB	00H
	DB	080H
	DB	0ffH
	DB	0ffH
	DB	0ffH
	DB	0ffH
	DB	0ffH
	DB	0ffH
	DB	0ffH
	DB	0ffH
	DB	0ffH
	DB	0ffH
	DB	0ffH
	DB	07fH
	ORG $+7
Subtruct_out_data_24_17 DB 01H
	DB	0ffH
	DB	0ffH
	DB	0ffH
	DB	07fH
	DB	0ffH
	DB	0ffH
	DB	0ffH
	DB	0ffH
	DB	0ffH
	DB	0ffH
	DB	0ffH
	DB	0ffH
	DB	0ffH
	DB	0ffH
	DB	0ffH
	DB	07fH
	ORG $+7
Subtruct_out_data_24_18 DB 01H
	DB	00H
	DB	00H
	DB	00H
	DB	00H
	DB	0ffH
	DB	0ffH
	DB	0ffH
	DB	0ffH
	DB	0ffH
	DB	0ffH
	DB	0ffH
	DB	0ffH
	DB	0ffH
	DB	0ffH
	DB	0ffH
	DB	07fH
	ORG $+7
Subtruct_out_data_24_19 DB 01H
	DB	0ffH
	DB	0ffH
	DB	0ffH
	DB	0ffH
	DB	0feH
	DB	0ffH
	DB	0ffH
	DB	0ffH
	DB	0ffH
	DB	0ffH
	DB	0ffH
	DB	0ffH
	DB	0ffH
	DB	0ffH
	DB	0ffH
	DB	07fH
	ORG $+7
Subtruct_out_data_24_20 DB 01H
	DB	00H
	DB	00H
	DB	00H
	DB	00H
	DB	00H
	DB	00H
	DB	00H
	DB	080H
	DB	0ffH
	DB	0ffH
	DB	0ffH
	DB	0ffH
	DB	0ffH
	DB	0ffH
	DB	0ffH
	DB	07fH
	ORG $+7
Subtruct_out_data_24_21 DB 01H
	DB	0ffH
	DB	0ffH
	DB	0ffH
	DB	0ffH
	DB	0ffH
	DB	0ffH
	DB	0ffH
	DB	07fH
	DB	0ffH
	DB	0ffH
	DB	0ffH
	DB	0ffH
	DB	0ffH
	DB	0ffH
	DB	0ffH
	DB	07fH
	ORG $+7
Subtruct_out_data_24_22 DB 01H
	DB	00H
	DB	00H
	DB	00H
	DB	00H
	DB	00H
	DB	00H
	DB	00H
	DB	00H
	DB	0ffH
	DB	0ffH
	DB	0ffH
	DB	0ffH
	DB	0ffH
	DB	0ffH
	DB	0ffH
	DB	07fH
	ORG $+7
Subtruct_out_data_24_23 DB 01H
	DB	0ffH
	DB	0ffH
	DB	0ffH
	DB	0ffH
	DB	0ffH
	DB	0ffH
	DB	0ffH
	DB	0ffH
	DB	0feH
	DB	0ffH
	DB	0ffH
	DB	0ffH
	DB	0ffH
	DB	0ffH
	DB	0ffH
	DB	07fH
	ORG $+7
Subtruct_out_data_24_26 DB 03H
	DB	00H
	DB	00H
	DB	00H
	DB	00H
	DB	00H
	DB	00H
	DB	00H
	DB	00H
	DB	00H
	DB	00H
	DB	00H
	DB	00H
	DB	00H
	DB	00H
	DB	00H
	DB	080H
	ORG $+7
Subtruct_out_data_24_27 DB 03H
	DB	01H
	DB	00H
	DB	00H
	DB	00H
	DB	00H
	DB	00H
	DB	00H
	DB	00H
	DB	00H
	DB	00H
	DB	00H
	DB	00H
	DB	00H
	DB	00H
	DB	00H
	DB	080H
	ORG $+7
Subtruct_out_data_25_1 DB 01H
	DB	00H
	DB	00H
	DB	00H
	DB	00H
	DB	00H
	DB	00H
	DB	00H
	DB	00H
	DB	00H
	DB	00H
	DB	00H
	DB	00H
	DB	00H
	DB	00H
	DB	00H
	DB	080H
	DB	01H
	ORG $+6
Subtruct_out_data_25_2 DB 01H
	DB	0ffH
	DB	0ffH
	DB	0ffH
	DB	0ffH
	DB	0ffH
	DB	0ffH
	DB	0ffH
	DB	0ffH
	DB	0ffH
	DB	0ffH
	DB	0ffH
	DB	0ffH
	DB	0ffH
	DB	0ffH
	DB	0ffH
	DB	07fH
	DB	01H
	ORG $+6
Subtruct_out_data_25_3 DB 01H
	DB	00H
	DB	00H
	DB	00H
	DB	00H
	DB	00H
	DB	00H
	DB	00H
	DB	00H
	DB	00H
	DB	00H
	DB	00H
	DB	00H
	DB	00H
	DB	00H
	DB	00H
	DB	00H
	DB	01H
	ORG $+6
Subtruct_out_data_25_4 DB 01H
	DB	0ffH
	DB	0ffH
	DB	0ffH
	DB	0ffH
	DB	0ffH
	DB	0ffH
	DB	0ffH
	DB	0ffH
	DB	0ffH
	DB	0ffH
	DB	0ffH
	DB	0ffH
	DB	0ffH
	DB	0ffH
	DB	0ffH
	DB	0ffH
	ORG $+7
Subtruct_out_data_25_5 DB 01H
	DB	00H
	DB	00H
	DB	00H
	DB	00H
	DB	00H
	DB	00H
	DB	00H
	DB	00H
	DB	01H
	DB	00H
	DB	00H
	DB	00H
	DB	00H
	DB	00H
	DB	00H
	DB	080H
	ORG $+7
Subtruct_out_data_25_6 DB 01H
	DB	0ffH
	DB	0ffH
	DB	0ffH
	DB	0ffH
	DB	0ffH
	DB	0ffH
	DB	0ffH
	DB	0ffH
	DB	00H
	DB	00H
	DB	00H
	DB	00H
	DB	00H
	DB	00H
	DB	00H
	DB	080H
	ORG $+7
Subtruct_out_data_25_7 DB 01H
	DB	00H
	DB	00H
	DB	00H
	DB	00H
	DB	00H
	DB	00H
	DB	00H
	DB	080H
	DB	00H
	DB	00H
	DB	00H
	DB	00H
	DB	00H
	DB	00H
	DB	00H
	DB	080H
	ORG $+7
Subtruct_out_data_25_8 DB 01H
	DB	0ffH
	DB	0ffH
	DB	0ffH
	DB	0ffH
	DB	0ffH
	DB	0ffH
	DB	0ffH
	DB	07fH
	DB	00H
	DB	00H
	DB	00H
	DB	00H
	DB	00H
	DB	00H
	DB	00H
	DB	080H
	ORG $+7
Subtruct_out_data_25_9 DB 01H
	DB	00H
	DB	00H
	DB	00H
	DB	00H
	DB	01H
	DB	00H
	DB	00H
	DB	00H
	DB	00H
	DB	00H
	DB	00H
	DB	00H
	DB	00H
	DB	00H
	DB	00H
	DB	080H
	ORG $+7
Subtruct_out_data_25_10 DB 01H
	DB	0ffH
	DB	0ffH
	DB	0ffH
	DB	0ffH
	DB	00H
	DB	00H
	DB	00H
	DB	00H
	DB	00H
	DB	00H
	DB	00H
	DB	00H
	DB	00H
	DB	00H
	DB	00H
	DB	080H
	ORG $+7
Subtruct_out_data_25_11 DB 01H
	DB	00H
	DB	00H
	DB	00H
	DB	080H
	DB	00H
	DB	00H
	DB	00H
	DB	00H
	DB	00H
	DB	00H
	DB	00H
	DB	00H
	DB	00H
	DB	00H
	DB	00H
	DB	080H
	ORG $+7
Subtruct_out_data_25_12 DB 01H
	DB	0ffH
	DB	0ffH
	DB	0ffH
	DB	07fH
	DB	00H
	DB	00H
	DB	00H
	DB	00H
	DB	00H
	DB	00H
	DB	00H
	DB	00H
	DB	00H
	DB	00H
	DB	00H
	DB	080H
	ORG $+7
Subtruct_out_data_25_13 DB 01H
	DB	01H
	DB	00H
	DB	00H
	DB	00H
	DB	00H
	DB	00H
	DB	00H
	DB	00H
	DB	00H
	DB	00H
	DB	00H
	DB	00H
	DB	00H
	DB	00H
	DB	00H
	DB	080H
	ORG $+7
Subtruct_out_data_25_14 DB 01H
	DB	00H
	DB	00H
	DB	00H
	DB	00H
	DB	00H
	DB	00H
	DB	00H
	DB	00H
	DB	00H
	DB	00H
	DB	00H
	DB	00H
	DB	00H
	DB	00H
	DB	00H
	DB	080H
	ORG $+7
Subtruct_out_data_25_15 DB 01H
	DB	0ffH
	DB	0ffH
	DB	0ffH
	DB	0ffH
	DB	0ffH
	DB	0ffH
	DB	0ffH
	DB	0ffH
	DB	0ffH
	DB	0ffH
	DB	0ffH
	DB	0ffH
	DB	0ffH
	DB	0ffH
	DB	0ffH
	DB	07fH
	ORG $+7
Subtruct_out_data_25_16 DB 01H
	DB	01H
	DB	00H
	DB	00H
	DB	080H
	DB	0ffH
	DB	0ffH
	DB	0ffH
	DB	0ffH
	DB	0ffH
	DB	0ffH
	DB	0ffH
	DB	0ffH
	DB	0ffH
	DB	0ffH
	DB	0ffH
	DB	07fH
	ORG $+7
Subtruct_out_data_25_17 DB 01H
	DB	00H
	DB	00H
	DB	00H
	DB	080H
	DB	0ffH
	DB	0ffH
	DB	0ffH
	DB	0ffH
	DB	0ffH
	DB	0ffH
	DB	0ffH
	DB	0ffH
	DB	0ffH
	DB	0ffH
	DB	0ffH
	DB	07fH
	ORG $+7
Subtruct_out_data_25_18 DB 01H
	DB	01H
	DB	00H
	DB	00H
	DB	00H
	DB	0ffH
	DB	0ffH
	DB	0ffH
	DB	0ffH
	DB	0ffH
	DB	0ffH
	DB	0ffH
	DB	0ffH
	DB	0ffH
	DB	0ffH
	DB	0ffH
	DB	07fH
	ORG $+7
Subtruct_out_data_25_19 DB 01H
	DB	00H
	DB	00H
	DB	00H
	DB	00H
	DB	0ffH
	DB	0ffH
	DB	0ffH
	DB	0ffH
	DB	0ffH
	DB	0ffH
	DB	0ffH
	DB	0ffH
	DB	0ffH
	DB	0ffH
	DB	0ffH
	DB	07fH
	ORG $+7
Subtruct_out_data_25_20 DB 01H
	DB	01H
	DB	00H
	DB	00H
	DB	00H
	DB	00H
	DB	00H
	DB	00H
	DB	080H
	DB	0ffH
	DB	0ffH
	DB	0ffH
	DB	0ffH
	DB	0ffH
	DB	0ffH
	DB	0ffH
	DB	07fH
	ORG $+7
Subtruct_out_data_25_21 DB 01H
	DB	00H
	DB	00H
	DB	00H
	DB	00H
	DB	00H
	DB	00H
	DB	00H
	DB	080H
	DB	0ffH
	DB	0ffH
	DB	0ffH
	DB	0ffH
	DB	0ffH
	DB	0ffH
	DB	0ffH
	DB	07fH
	ORG $+7
Subtruct_out_data_25_22 DB 01H
	DB	01H
	DB	00H
	DB	00H
	DB	00H
	DB	00H
	DB	00H
	DB	00H
	DB	00H
	DB	0ffH
	DB	0ffH
	DB	0ffH
	DB	0ffH
	DB	0ffH
	DB	0ffH
	DB	0ffH
	DB	07fH
	ORG $+7
Subtruct_out_data_25_23 DB 01H
	DB	00H
	DB	00H
	DB	00H
	DB	00H
	DB	00H
	DB	00H
	DB	00H
	DB	00H
	DB	0ffH
	DB	0ffH
	DB	0ffH
	DB	0ffH
	DB	0ffH
	DB	0ffH
	DB	0ffH
	DB	07fH
	ORG $+7
Subtruct_out_data_25_26 DB 03H
	DB	0ffH
	DB	0ffH
	DB	0ffH
	DB	0ffH
	DB	0ffH
	DB	0ffH
	DB	0ffH
	DB	0ffH
	DB	0ffH
	DB	0ffH
	DB	0ffH
	DB	0ffH
	DB	0ffH
	DB	0ffH
	DB	0ffH
	DB	07fH
	ORG $+7
Subtruct_out_data_25_27 DB 03H
	DB	00H
	DB	00H
	DB	00H
	DB	00H
	DB	00H
	DB	00H
	DB	00H
	DB	00H
	DB	00H
	DB	00H
	DB	00H
	DB	00H
	DB	00H
	DB	00H
	DB	00H
	DB	080H
	ORG $+7
Subtruct_out_data_26_1 DB 01H
	DB	0ffH
	DB	0ffH
	DB	0ffH
	DB	0ffH
	DB	0ffH
	DB	0ffH
	DB	0ffH
	DB	0ffH
	DB	0ffH
	DB	0ffH
	DB	0ffH
	DB	0ffH
	DB	0ffH
	DB	0ffH
	DB	0ffH
	DB	0ffH
	DB	01H
	ORG $+6
Subtruct_out_data_26_2 DB 01H
	DB	0feH
	DB	0ffH
	DB	0ffH
	DB	0ffH
	DB	0ffH
	DB	0ffH
	DB	0ffH
	DB	0ffH
	DB	0ffH
	DB	0ffH
	DB	0ffH
	DB	0ffH
	DB	0ffH
	DB	0ffH
	DB	0ffH
	DB	0ffH
	DB	01H
	ORG $+6
Subtruct_out_data_26_3 DB 01H
	DB	0ffH
	DB	0ffH
	DB	0ffH
	DB	0ffH
	DB	0ffH
	DB	0ffH
	DB	0ffH
	DB	0ffH
	DB	0ffH
	DB	0ffH
	DB	0ffH
	DB	0ffH
	DB	0ffH
	DB	0ffH
	DB	0ffH
	DB	07fH
	DB	01H
	ORG $+6
Subtruct_out_data_26_4 DB 01H
	DB	0feH
	DB	0ffH
	DB	0ffH
	DB	0ffH
	DB	0ffH
	DB	0ffH
	DB	0ffH
	DB	0ffH
	DB	0ffH
	DB	0ffH
	DB	0ffH
	DB	0ffH
	DB	0ffH
	DB	0ffH
	DB	0ffH
	DB	07fH
	DB	01H
	ORG $+6
Subtruct_out_data_26_5 DB 01H
	DB	0ffH
	DB	0ffH
	DB	0ffH
	DB	0ffH
	DB	0ffH
	DB	0ffH
	DB	0ffH
	DB	0ffH
	DB	00H
	DB	00H
	DB	00H
	DB	00H
	DB	00H
	DB	00H
	DB	00H
	DB	00H
	DB	01H
	ORG $+6
Subtruct_out_data_26_6 DB 01H
	DB	0feH
	DB	0ffH
	DB	0ffH
	DB	0ffH
	DB	0ffH
	DB	0ffH
	DB	0ffH
	DB	0ffH
	DB	00H
	DB	00H
	DB	00H
	DB	00H
	DB	00H
	DB	00H
	DB	00H
	DB	00H
	DB	01H
	ORG $+6
Subtruct_out_data_26_7 DB 01H
	DB	0ffH
	DB	0ffH
	DB	0ffH
	DB	0ffH
	DB	0ffH
	DB	0ffH
	DB	0ffH
	DB	07fH
	DB	00H
	DB	00H
	DB	00H
	DB	00H
	DB	00H
	DB	00H
	DB	00H
	DB	00H
	DB	01H
	ORG $+6
Subtruct_out_data_26_8 DB 01H
	DB	0feH
	DB	0ffH
	DB	0ffH
	DB	0ffH
	DB	0ffH
	DB	0ffH
	DB	0ffH
	DB	07fH
	DB	00H
	DB	00H
	DB	00H
	DB	00H
	DB	00H
	DB	00H
	DB	00H
	DB	00H
	DB	01H
	ORG $+6
Subtruct_out_data_26_9 DB 01H
	DB	0ffH
	DB	0ffH
	DB	0ffH
	DB	0ffH
	DB	00H
	DB	00H
	DB	00H
	DB	00H
	DB	00H
	DB	00H
	DB	00H
	DB	00H
	DB	00H
	DB	00H
	DB	00H
	DB	00H
	DB	01H
	ORG $+6
Subtruct_out_data_26_10 DB 01H
	DB	0feH
	DB	0ffH
	DB	0ffH
	DB	0ffH
	DB	00H
	DB	00H
	DB	00H
	DB	00H
	DB	00H
	DB	00H
	DB	00H
	DB	00H
	DB	00H
	DB	00H
	DB	00H
	DB	00H
	DB	01H
	ORG $+6
Subtruct_out_data_26_11 DB 01H
	DB	0ffH
	DB	0ffH
	DB	0ffH
	DB	07fH
	DB	00H
	DB	00H
	DB	00H
	DB	00H
	DB	00H
	DB	00H
	DB	00H
	DB	00H
	DB	00H
	DB	00H
	DB	00H
	DB	00H
	DB	01H
	ORG $+6
Subtruct_out_data_26_12 DB 01H
	DB	0feH
	DB	0ffH
	DB	0ffH
	DB	07fH
	DB	00H
	DB	00H
	DB	00H
	DB	00H
	DB	00H
	DB	00H
	DB	00H
	DB	00H
	DB	00H
	DB	00H
	DB	00H
	DB	00H
	DB	01H
	ORG $+6
Subtruct_out_data_26_13 DB 01H
	DB	00H
	DB	00H
	DB	00H
	DB	00H
	DB	00H
	DB	00H
	DB	00H
	DB	00H
	DB	00H
	DB	00H
	DB	00H
	DB	00H
	DB	00H
	DB	00H
	DB	00H
	DB	00H
	DB	01H
	ORG $+6
Subtruct_out_data_26_14 DB 01H
	DB	0ffH
	DB	0ffH
	DB	0ffH
	DB	0ffH
	DB	0ffH
	DB	0ffH
	DB	0ffH
	DB	0ffH
	DB	0ffH
	DB	0ffH
	DB	0ffH
	DB	0ffH
	DB	0ffH
	DB	0ffH
	DB	0ffH
	DB	0ffH
	ORG $+7
Subtruct_out_data_26_15 DB 01H
	DB	0feH
	DB	0ffH
	DB	0ffH
	DB	0ffH
	DB	0ffH
	DB	0ffH
	DB	0ffH
	DB	0ffH
	DB	0ffH
	DB	0ffH
	DB	0ffH
	DB	0ffH
	DB	0ffH
	DB	0ffH
	DB	0ffH
	DB	0ffH
	ORG $+7
Subtruct_out_data_26_16 DB 01H
	DB	00H
	DB	00H
	DB	00H
	DB	080H
	DB	0ffH
	DB	0ffH
	DB	0ffH
	DB	0ffH
	DB	0ffH
	DB	0ffH
	DB	0ffH
	DB	0ffH
	DB	0ffH
	DB	0ffH
	DB	0ffH
	DB	0ffH
	ORG $+7
Subtruct_out_data_26_17 DB 01H
	DB	0ffH
	DB	0ffH
	DB	0ffH
	DB	07fH
	DB	0ffH
	DB	0ffH
	DB	0ffH
	DB	0ffH
	DB	0ffH
	DB	0ffH
	DB	0ffH
	DB	0ffH
	DB	0ffH
	DB	0ffH
	DB	0ffH
	DB	0ffH
	ORG $+7
Subtruct_out_data_26_18 DB 01H
	DB	00H
	DB	00H
	DB	00H
	DB	00H
	DB	0ffH
	DB	0ffH
	DB	0ffH
	DB	0ffH
	DB	0ffH
	DB	0ffH
	DB	0ffH
	DB	0ffH
	DB	0ffH
	DB	0ffH
	DB	0ffH
	DB	0ffH
	ORG $+7
Subtruct_out_data_26_19 DB 01H
	DB	0ffH
	DB	0ffH
	DB	0ffH
	DB	0ffH
	DB	0feH
	DB	0ffH
	DB	0ffH
	DB	0ffH
	DB	0ffH
	DB	0ffH
	DB	0ffH
	DB	0ffH
	DB	0ffH
	DB	0ffH
	DB	0ffH
	DB	0ffH
	ORG $+7
Subtruct_out_data_26_20 DB 01H
	DB	00H
	DB	00H
	DB	00H
	DB	00H
	DB	00H
	DB	00H
	DB	00H
	DB	080H
	DB	0ffH
	DB	0ffH
	DB	0ffH
	DB	0ffH
	DB	0ffH
	DB	0ffH
	DB	0ffH
	DB	0ffH
	ORG $+7
Subtruct_out_data_26_21 DB 01H
	DB	0ffH
	DB	0ffH
	DB	0ffH
	DB	0ffH
	DB	0ffH
	DB	0ffH
	DB	0ffH
	DB	07fH
	DB	0ffH
	DB	0ffH
	DB	0ffH
	DB	0ffH
	DB	0ffH
	DB	0ffH
	DB	0ffH
	DB	0ffH
	ORG $+7
Subtruct_out_data_26_22 DB 01H
	DB	00H
	DB	00H
	DB	00H
	DB	00H
	DB	00H
	DB	00H
	DB	00H
	DB	00H
	DB	0ffH
	DB	0ffH
	DB	0ffH
	DB	0ffH
	DB	0ffH
	DB	0ffH
	DB	0ffH
	DB	0ffH
	ORG $+7
Subtruct_out_data_26_23 DB 01H
	DB	0ffH
	DB	0ffH
	DB	0ffH
	DB	0ffH
	DB	0ffH
	DB	0ffH
	DB	0ffH
	DB	0ffH
	DB	0feH
	DB	0ffH
	DB	0ffH
	DB	0ffH
	DB	0ffH
	DB	0ffH
	DB	0ffH
	DB	0ffH
	ORG $+7
Subtruct_out_data_26_24 DB 01H
	DB	00H
	DB	00H
	DB	00H
	DB	00H
	DB	00H
	DB	00H
	DB	00H
	DB	00H
	DB	00H
	DB	00H
	DB	00H
	DB	00H
	DB	00H
	DB	00H
	DB	00H
	DB	080H
	ORG $+7
Subtruct_out_data_26_25 DB 01H
	DB	0ffH
	DB	0ffH
	DB	0ffH
	DB	0ffH
	DB	0ffH
	DB	0ffH
	DB	0ffH
	DB	0ffH
	DB	0ffH
	DB	0ffH
	DB	0ffH
	DB	0ffH
	DB	0ffH
	DB	0ffH
	DB	0ffH
	DB	07fH
	ORG $+7
Subtruct_out_data_27_1 DB 01H
	DB	00H
	DB	00H
	DB	00H
	DB	00H
	DB	00H
	DB	00H
	DB	00H
	DB	00H
	DB	00H
	DB	00H
	DB	00H
	DB	00H
	DB	00H
	DB	00H
	DB	00H
	DB	00H
	DB	02H
	ORG $+6
Subtruct_out_data_27_2 DB 01H
	DB	0ffH
	DB	0ffH
	DB	0ffH
	DB	0ffH
	DB	0ffH
	DB	0ffH
	DB	0ffH
	DB	0ffH
	DB	0ffH
	DB	0ffH
	DB	0ffH
	DB	0ffH
	DB	0ffH
	DB	0ffH
	DB	0ffH
	DB	0ffH
	DB	01H
	ORG $+6
Subtruct_out_data_27_3 DB 01H
	DB	00H
	DB	00H
	DB	00H
	DB	00H
	DB	00H
	DB	00H
	DB	00H
	DB	00H
	DB	00H
	DB	00H
	DB	00H
	DB	00H
	DB	00H
	DB	00H
	DB	00H
	DB	080H
	DB	01H
	ORG $+6
Subtruct_out_data_27_4 DB 01H
	DB	0ffH
	DB	0ffH
	DB	0ffH
	DB	0ffH
	DB	0ffH
	DB	0ffH
	DB	0ffH
	DB	0ffH
	DB	0ffH
	DB	0ffH
	DB	0ffH
	DB	0ffH
	DB	0ffH
	DB	0ffH
	DB	0ffH
	DB	07fH
	DB	01H
	ORG $+6
Subtruct_out_data_27_5 DB 01H
	DB	00H
	DB	00H
	DB	00H
	DB	00H
	DB	00H
	DB	00H
	DB	00H
	DB	00H
	DB	01H
	DB	00H
	DB	00H
	DB	00H
	DB	00H
	DB	00H
	DB	00H
	DB	00H
	DB	01H
	ORG $+6
Subtruct_out_data_27_6 DB 01H
	DB	0ffH
	DB	0ffH
	DB	0ffH
	DB	0ffH
	DB	0ffH
	DB	0ffH
	DB	0ffH
	DB	0ffH
	DB	00H
	DB	00H
	DB	00H
	DB	00H
	DB	00H
	DB	00H
	DB	00H
	DB	00H
	DB	01H
	ORG $+6
Subtruct_out_data_27_7 DB 01H
	DB	00H
	DB	00H
	DB	00H
	DB	00H
	DB	00H
	DB	00H
	DB	00H
	DB	080H
	DB	00H
	DB	00H
	DB	00H
	DB	00H
	DB	00H
	DB	00H
	DB	00H
	DB	00H
	DB	01H
	ORG $+6
Subtruct_out_data_27_8 DB 01H
	DB	0ffH
	DB	0ffH
	DB	0ffH
	DB	0ffH
	DB	0ffH
	DB	0ffH
	DB	0ffH
	DB	07fH
	DB	00H
	DB	00H
	DB	00H
	DB	00H
	DB	00H
	DB	00H
	DB	00H
	DB	00H
	DB	01H
	ORG $+6
Subtruct_out_data_27_9 DB 01H
	DB	00H
	DB	00H
	DB	00H
	DB	00H
	DB	01H
	DB	00H
	DB	00H
	DB	00H
	DB	00H
	DB	00H
	DB	00H
	DB	00H
	DB	00H
	DB	00H
	DB	00H
	DB	00H
	DB	01H
	ORG $+6
Subtruct_out_data_27_10 DB 01H
	DB	0ffH
	DB	0ffH
	DB	0ffH
	DB	0ffH
	DB	00H
	DB	00H
	DB	00H
	DB	00H
	DB	00H
	DB	00H
	DB	00H
	DB	00H
	DB	00H
	DB	00H
	DB	00H
	DB	00H
	DB	01H
	ORG $+6
Subtruct_out_data_27_11 DB 01H
	DB	00H
	DB	00H
	DB	00H
	DB	080H
	DB	00H
	DB	00H
	DB	00H
	DB	00H
	DB	00H
	DB	00H
	DB	00H
	DB	00H
	DB	00H
	DB	00H
	DB	00H
	DB	00H
	DB	01H
	ORG $+6
Subtruct_out_data_27_12 DB 01H
	DB	0ffH
	DB	0ffH
	DB	0ffH
	DB	07fH
	DB	00H
	DB	00H
	DB	00H
	DB	00H
	DB	00H
	DB	00H
	DB	00H
	DB	00H
	DB	00H
	DB	00H
	DB	00H
	DB	00H
	DB	01H
	ORG $+6
Subtruct_out_data_27_13 DB 01H
	DB	01H
	DB	00H
	DB	00H
	DB	00H
	DB	00H
	DB	00H
	DB	00H
	DB	00H
	DB	00H
	DB	00H
	DB	00H
	DB	00H
	DB	00H
	DB	00H
	DB	00H
	DB	00H
	DB	01H
	ORG $+6
Subtruct_out_data_27_14 DB 01H
	DB	00H
	DB	00H
	DB	00H
	DB	00H
	DB	00H
	DB	00H
	DB	00H
	DB	00H
	DB	00H
	DB	00H
	DB	00H
	DB	00H
	DB	00H
	DB	00H
	DB	00H
	DB	00H
	DB	01H
	ORG $+6
Subtruct_out_data_27_15 DB 01H
	DB	0ffH
	DB	0ffH
	DB	0ffH
	DB	0ffH
	DB	0ffH
	DB	0ffH
	DB	0ffH
	DB	0ffH
	DB	0ffH
	DB	0ffH
	DB	0ffH
	DB	0ffH
	DB	0ffH
	DB	0ffH
	DB	0ffH
	DB	0ffH
	ORG $+7
Subtruct_out_data_27_16 DB 01H
	DB	01H
	DB	00H
	DB	00H
	DB	080H
	DB	0ffH
	DB	0ffH
	DB	0ffH
	DB	0ffH
	DB	0ffH
	DB	0ffH
	DB	0ffH
	DB	0ffH
	DB	0ffH
	DB	0ffH
	DB	0ffH
	DB	0ffH
	ORG $+7
Subtruct_out_data_27_17 DB 01H
	DB	00H
	DB	00H
	DB	00H
	DB	080H
	DB	0ffH
	DB	0ffH
	DB	0ffH
	DB	0ffH
	DB	0ffH
	DB	0ffH
	DB	0ffH
	DB	0ffH
	DB	0ffH
	DB	0ffH
	DB	0ffH
	DB	0ffH
	ORG $+7
Subtruct_out_data_27_18 DB 01H
	DB	01H
	DB	00H
	DB	00H
	DB	00H
	DB	0ffH
	DB	0ffH
	DB	0ffH
	DB	0ffH
	DB	0ffH
	DB	0ffH
	DB	0ffH
	DB	0ffH
	DB	0ffH
	DB	0ffH
	DB	0ffH
	DB	0ffH
	ORG $+7
Subtruct_out_data_27_19 DB 01H
	DB	00H
	DB	00H
	DB	00H
	DB	00H
	DB	0ffH
	DB	0ffH
	DB	0ffH
	DB	0ffH
	DB	0ffH
	DB	0ffH
	DB	0ffH
	DB	0ffH
	DB	0ffH
	DB	0ffH
	DB	0ffH
	DB	0ffH
	ORG $+7
Subtruct_out_data_27_20 DB 01H
	DB	01H
	DB	00H
	DB	00H
	DB	00H
	DB	00H
	DB	00H
	DB	00H
	DB	080H
	DB	0ffH
	DB	0ffH
	DB	0ffH
	DB	0ffH
	DB	0ffH
	DB	0ffH
	DB	0ffH
	DB	0ffH
	ORG $+7
Subtruct_out_data_27_21 DB 01H
	DB	00H
	DB	00H
	DB	00H
	DB	00H
	DB	00H
	DB	00H
	DB	00H
	DB	080H
	DB	0ffH
	DB	0ffH
	DB	0ffH
	DB	0ffH
	DB	0ffH
	DB	0ffH
	DB	0ffH
	DB	0ffH
	ORG $+7
Subtruct_out_data_27_22 DB 01H
	DB	01H
	DB	00H
	DB	00H
	DB	00H
	DB	00H
	DB	00H
	DB	00H
	DB	00H
	DB	0ffH
	DB	0ffH
	DB	0ffH
	DB	0ffH
	DB	0ffH
	DB	0ffH
	DB	0ffH
	DB	0ffH
	ORG $+7
Subtruct_out_data_27_23 DB 01H
	DB	00H
	DB	00H
	DB	00H
	DB	00H
	DB	00H
	DB	00H
	DB	00H
	DB	00H
	DB	0ffH
	DB	0ffH
	DB	0ffH
	DB	0ffH
	DB	0ffH
	DB	0ffH
	DB	0ffH
	DB	0ffH
	ORG $+7
Subtruct_out_data_27_24 DB 01H
	DB	01H
	DB	00H
	DB	00H
	DB	00H
	DB	00H
	DB	00H
	DB	00H
	DB	00H
	DB	00H
	DB	00H
	DB	00H
	DB	00H
	DB	00H
	DB	00H
	DB	00H
	DB	080H
	ORG $+7
Subtruct_out_data_27_25 DB 01H
	DB	00H
	DB	00H
	DB	00H
	DB	00H
	DB	00H
	DB	00H
	DB	00H
	DB	00H
	DB	00H
	DB	00H
	DB	00H
	DB	00H
	DB	00H
	DB	00H
	DB	00H
	DB	080H
	ORG $+7
To_in_data_1 DB	03H
	DB	00H
	DB	00H
	DB	00H
	DB	00H
	DB	00H
	DB	00H
	DB	00H
	DB	00H
	DB	00H
	DB	00H
	DB	00H
	DB	00H
	DB	00H
	DB	00H
	DB	00H
	DB	00H
	DB	01H
	ORG $+6
To_in_data_2 DB	03H
	DB	0ffH
	DB	0ffH
	DB	0ffH
	DB	0ffH
	DB	0ffH
	DB	0ffH
	DB	0ffH
	DB	0ffH
	DB	0ffH
	DB	0ffH
	DB	0ffH
	DB	0ffH
	DB	0ffH
	DB	0ffH
	DB	0ffH
	DB	0ffH
	ORG $+7
To_in_data_3 DB	03H
	DB	00H
	DB	00H
	DB	00H
	DB	00H
	DB	00H
	DB	00H
	DB	00H
	DB	00H
	DB	00H
	DB	00H
	DB	00H
	DB	00H
	DB	00H
	DB	00H
	DB	00H
	DB	080H
	ORG $+7
To_in_data_4 DB	03H
	DB	0ffH
	DB	0ffH
	DB	0ffH
	DB	0ffH
	DB	0ffH
	DB	0ffH
	DB	0ffH
	DB	0ffH
	DB	0ffH
	DB	0ffH
	DB	0ffH
	DB	0ffH
	DB	0ffH
	DB	0ffH
	DB	0ffH
	DB	07fH
	ORG $+7
To_in_data_5 DB	03H
	DB	00H
	DB	00H
	DB	00H
	DB	00H
	DB	00H
	DB	00H
	DB	00H
	DB	00H
	DB	01H
	ORG $+6
To_in_data_6 DB	03H
	DB	0ffH
	DB	0ffH
	DB	0ffH
	DB	0ffH
	DB	0ffH
	DB	0ffH
	DB	0ffH
	DB	0ffH
	ORG $+7
To_in_data_7 DB	03H
	DB	00H
	DB	00H
	DB	00H
	DB	00H
	DB	00H
	DB	00H
	DB	00H
	DB	080H
	ORG $+7
To_in_data_8 DB	03H
	DB	0ffH
	DB	0ffH
	DB	0ffH
	DB	0ffH
	DB	0ffH
	DB	0ffH
	DB	0ffH
	DB	07fH
	ORG $+3
To_in_data_9 DB	03H
	DB	00H
	DB	00H
	DB	00H
	DB	00H
	DB	01H
	ORG $+2
To_in_data_10 DB 03H
	DB	0ffH
	DB	0ffH
	DB	0ffH
	DB	0ffH
	ORG $+3
To_in_data_11 DB 03H
	DB	00H
	DB	00H
	DB	00H
	DB	080H
	ORG $+3
To_in_data_12 DB 03H
	DB	0ffH
	DB	0ffH
	DB	0ffH
	DB	07fH
	ORG $+3
To_in_data_16 DB 01H
	DB	0ffH
	DB	0ffH
	DB	0ffH
	DB	07fH
	ORG $+3
To_in_data_17 DB 01H
	DB	00H
	DB	00H
	DB	00H
	DB	080H
	ORG $+3
To_in_data_18 DB 01H
	DB	0ffH
	DB	0ffH
	DB	0ffH
	DB	0ffH
	ORG $+3
To_in_data_19 DB 01H
	DB	00H
	DB	00H
	DB	00H
	DB	00H
	DB	01H
	ORG $+6
To_in_data_20 DB 01H
	DB	0ffH
	DB	0ffH
	DB	0ffH
	DB	0ffH
	DB	0ffH
	DB	0ffH
	DB	0ffH
	DB	07fH
	ORG $+7
To_in_data_21 DB 01H
	DB	00H
	DB	00H
	DB	00H
	DB	00H
	DB	00H
	DB	00H
	DB	00H
	DB	080H
	ORG $+7
To_in_data_22 DB 01H
	DB	0ffH
	DB	0ffH
	DB	0ffH
	DB	0ffH
	DB	0ffH
	DB	0ffH
	DB	0ffH
	DB	0ffH
	ORG $+7
To_in_data_23 DB 01H
	DB	00H
	DB	00H
	DB	00H
	DB	00H
	DB	00H
	DB	00H
	DB	00H
	DB	00H
	DB	01H
	ORG $+6
To_in_data_24 DB 01H
	DB	0ffH
	DB	0ffH
	DB	0ffH
	DB	0ffH
	DB	0ffH
	DB	0ffH
	DB	0ffH
	DB	0ffH
	DB	0ffH
	DB	0ffH
	DB	0ffH
	DB	0ffH
	DB	0ffH
	DB	0ffH
	DB	0ffH
	DB	07fH
	ORG $+7
To_in_data_25 DB 01H
	DB	00H
	DB	00H
	DB	00H
	DB	00H
	DB	00H
	DB	00H
	DB	00H
	DB	00H
	DB	00H
	DB	00H
	DB	00H
	DB	00H
	DB	00H
	DB	00H
	DB	00H
	DB	080H
	ORG $+7
To_in_data_26 DB 01H
	DB	0ffH
	DB	0ffH
	DB	0ffH
	DB	0ffH
	DB	0ffH
	DB	0ffH
	DB	0ffH
	DB	0ffH
	DB	0ffH
	DB	0ffH
	DB	0ffH
	DB	0ffH
	DB	0ffH
	DB	0ffH
	DB	0ffH
	DB	0ffH
	ORG $+7
To_in_data_27 DB 01H
	DB	00H
	DB	00H
	DB	00H
	DB	00H
	DB	00H
	DB	00H
	DB	00H
	DB	00H
	DB	00H
	DB	00H
	DB	00H
	DB	00H
	DB	00H
	DB	00H
	DB	00H
	DB	00H
	DB	01H
_DATA	ENDS
;	COMDAT xdata
xdata	SEGMENT
$unwind$TEST_autogenerated DD 055052f01H
	DD	01135318H
	DD	0700c0023H
	DD	0500bH
xdata	ENDS
; Function compile flags: /Odt
;	COMDAT __JustMyCode_Default
_TEXT	SEGMENT
__JustMyCode_Default PROC				; COMDAT
	ret	0
__JustMyCode_Default ENDP
_TEXT	ENDS
; Function compile flags: /Odtp /RTCsu /ZI
; File z:\sources\lunor\repos\rougemeilland\palmtree.math.core.sint\palmtree.math.core.sint\test_autogenerated.c
;	COMDAT TEST_autogenerated
_TEXT	SEGMENT
env$ = 224
ep$ = 232
TEST_autogenerated PROC					; COMDAT

; 1753 : {

$LN3:
	mov	QWORD PTR [rsp+16], rdx
	mov	QWORD PTR [rsp+8], rcx
	push	rbp
	push	rdi
	sub	rsp, 280				; 00000118H
	lea	rbp, QWORD PTR [rsp+80]
	mov	rdi, rsp
	mov	ecx, 70					; 00000046H
	mov	eax, -858993460				; ccccccccH
	rep stosd
	mov	rcx, QWORD PTR [rsp+312]
	lea	rcx, OFFSET FLAT:__5155C79D_test_autogenerated@c
	call	__CheckForDebuggerJustMyCode

; 1754 :     TEST_Add_I_X(env, ep, 1, (-2147483647 - 1), Add_in_data_1, sizeof(Add_in_data_1), Add_out_data_11_1, sizeof(Add_out_data_11_1));

	mov	QWORD PTR [rsp+56], 18
	lea	rax, OFFSET FLAT:Add_out_data_11_1
	mov	QWORD PTR [rsp+48], rax
	mov	QWORD PTR [rsp+40], 18
	lea	rax, OFFSET FLAT:Add_in_data_1
	mov	QWORD PTR [rsp+32], rax
	mov	r9d, -2147483648			; ffffffff80000000H
	mov	r8d, 1
	mov	rdx, QWORD PTR ep$[rbp]
	mov	rcx, QWORD PTR env$[rbp]
	call	TEST_Add_I_X

; 1755 :     TEST_Add_I_X(env, ep, 2, (-2147483647 - 1), Add_in_data_2, sizeof(Add_in_data_2), Add_out_data_11_2, sizeof(Add_out_data_11_2));

	mov	QWORD PTR [rsp+56], 18
	lea	rax, OFFSET FLAT:Add_out_data_11_2
	mov	QWORD PTR [rsp+48], rax
	mov	QWORD PTR [rsp+40], 17
	lea	rax, OFFSET FLAT:Add_in_data_2
	mov	QWORD PTR [rsp+32], rax
	mov	r9d, -2147483648			; ffffffff80000000H
	mov	r8d, 2
	mov	rdx, QWORD PTR ep$[rbp]
	mov	rcx, QWORD PTR env$[rbp]
	call	TEST_Add_I_X

; 1756 :     TEST_Add_I_X(env, ep, 3, (-2147483647 - 1), Add_in_data_3, sizeof(Add_in_data_3), Add_out_data_11_3, sizeof(Add_out_data_11_3));

	mov	QWORD PTR [rsp+56], 17
	lea	rax, OFFSET FLAT:Add_out_data_11_3
	mov	QWORD PTR [rsp+48], rax
	mov	QWORD PTR [rsp+40], 17
	lea	rax, OFFSET FLAT:Add_in_data_3
	mov	QWORD PTR [rsp+32], rax
	mov	r9d, -2147483648			; ffffffff80000000H
	mov	r8d, 3
	mov	rdx, QWORD PTR ep$[rbp]
	mov	rcx, QWORD PTR env$[rbp]
	call	TEST_Add_I_X

; 1757 :     TEST_Add_I_X(env, ep, 4, (-2147483647 - 1), Add_in_data_4, sizeof(Add_in_data_4), Add_out_data_11_4, sizeof(Add_out_data_11_4));

	mov	QWORD PTR [rsp+56], 17
	lea	rax, OFFSET FLAT:Add_out_data_11_4
	mov	QWORD PTR [rsp+48], rax
	mov	QWORD PTR [rsp+40], 17
	lea	rax, OFFSET FLAT:Add_in_data_4
	mov	QWORD PTR [rsp+32], rax
	mov	r9d, -2147483648			; ffffffff80000000H
	mov	r8d, 4
	mov	rdx, QWORD PTR ep$[rbp]
	mov	rcx, QWORD PTR env$[rbp]
	call	TEST_Add_I_X

; 1758 :     TEST_Add_I_X(env, ep, 5, (-2147483647 - 1), Add_in_data_5, sizeof(Add_in_data_5), Add_out_data_11_5, sizeof(Add_out_data_11_5));

	mov	QWORD PTR [rsp+56], 10
	lea	rax, OFFSET FLAT:Add_out_data_11_5
	mov	QWORD PTR [rsp+48], rax
	mov	QWORD PTR [rsp+40], 10
	lea	rax, OFFSET FLAT:Add_in_data_5
	mov	QWORD PTR [rsp+32], rax
	mov	r9d, -2147483648			; ffffffff80000000H
	mov	r8d, 5
	mov	rdx, QWORD PTR ep$[rbp]
	mov	rcx, QWORD PTR env$[rbp]
	call	TEST_Add_I_X

; 1759 :     TEST_Add_I_X(env, ep, 6, (-2147483647 - 1), Add_in_data_6, sizeof(Add_in_data_6), Add_out_data_11_6, sizeof(Add_out_data_11_6));

	mov	QWORD PTR [rsp+56], 10
	lea	rax, OFFSET FLAT:Add_out_data_11_6
	mov	QWORD PTR [rsp+48], rax
	mov	QWORD PTR [rsp+40], 9
	lea	rax, OFFSET FLAT:Add_in_data_6
	mov	QWORD PTR [rsp+32], rax
	mov	r9d, -2147483648			; ffffffff80000000H
	mov	r8d, 6
	mov	rdx, QWORD PTR ep$[rbp]
	mov	rcx, QWORD PTR env$[rbp]
	call	TEST_Add_I_X

; 1760 :     TEST_Add_I_X(env, ep, 7, (-2147483647 - 1), Add_in_data_7, sizeof(Add_in_data_7), Add_out_data_11_7, sizeof(Add_out_data_11_7));

	mov	QWORD PTR [rsp+56], 9
	lea	rax, OFFSET FLAT:Add_out_data_11_7
	mov	QWORD PTR [rsp+48], rax
	mov	QWORD PTR [rsp+40], 9
	lea	rax, OFFSET FLAT:Add_in_data_7
	mov	QWORD PTR [rsp+32], rax
	mov	r9d, -2147483648			; ffffffff80000000H
	mov	r8d, 7
	mov	rdx, QWORD PTR ep$[rbp]
	mov	rcx, QWORD PTR env$[rbp]
	call	TEST_Add_I_X

; 1761 :     TEST_Add_I_X(env, ep, 8, (-2147483647 - 1), Add_in_data_8, sizeof(Add_in_data_8), Add_out_data_11_8, sizeof(Add_out_data_11_8));

	mov	QWORD PTR [rsp+56], 9
	lea	rax, OFFSET FLAT:Add_out_data_11_8
	mov	QWORD PTR [rsp+48], rax
	mov	QWORD PTR [rsp+40], 9
	lea	rax, OFFSET FLAT:Add_in_data_8
	mov	QWORD PTR [rsp+32], rax
	mov	r9d, -2147483648			; ffffffff80000000H
	mov	r8d, 8
	mov	rdx, QWORD PTR ep$[rbp]
	mov	rcx, QWORD PTR env$[rbp]
	call	TEST_Add_I_X

; 1762 :     TEST_Add_I_X(env, ep, 9, (-2147483647 - 1), Add_in_data_9, sizeof(Add_in_data_9), Add_out_data_11_9, sizeof(Add_out_data_11_9));

	mov	QWORD PTR [rsp+56], 6
	lea	rax, OFFSET FLAT:Add_out_data_11_9
	mov	QWORD PTR [rsp+48], rax
	mov	QWORD PTR [rsp+40], 6
	lea	rax, OFFSET FLAT:Add_in_data_9
	mov	QWORD PTR [rsp+32], rax
	mov	r9d, -2147483648			; ffffffff80000000H
	mov	r8d, 9
	mov	rdx, QWORD PTR ep$[rbp]
	mov	rcx, QWORD PTR env$[rbp]
	call	TEST_Add_I_X

; 1763 :     TEST_Add_I_X(env, ep, 10, (-2147483647 - 1), Add_in_data_10, sizeof(Add_in_data_10), Add_out_data_11_10, sizeof(Add_out_data_11_10));

	mov	QWORD PTR [rsp+56], 6
	lea	rax, OFFSET FLAT:Add_out_data_11_10
	mov	QWORD PTR [rsp+48], rax
	mov	QWORD PTR [rsp+40], 5
	lea	rax, OFFSET FLAT:Add_in_data_10
	mov	QWORD PTR [rsp+32], rax
	mov	r9d, -2147483648			; ffffffff80000000H
	mov	r8d, 10
	mov	rdx, QWORD PTR ep$[rbp]
	mov	rcx, QWORD PTR env$[rbp]
	call	TEST_Add_I_X

; 1764 :     TEST_Add_I_X(env, ep, 11, (-2147483647 - 1), Add_in_data_11, sizeof(Add_in_data_11), Add_out_data_11_11, sizeof(Add_out_data_11_11));

	mov	QWORD PTR [rsp+56], 6
	lea	rax, OFFSET FLAT:Add_out_data_11_11
	mov	QWORD PTR [rsp+48], rax
	mov	QWORD PTR [rsp+40], 5
	lea	rax, OFFSET FLAT:Add_in_data_11
	mov	QWORD PTR [rsp+32], rax
	mov	r9d, -2147483648			; ffffffff80000000H
	mov	r8d, 11
	mov	rdx, QWORD PTR ep$[rbp]
	mov	rcx, QWORD PTR env$[rbp]
	call	TEST_Add_I_X

; 1765 :     TEST_Add_I_X(env, ep, 12, (-2147483647 - 1), Add_in_data_12, sizeof(Add_in_data_12), Add_out_data_11_12, sizeof(Add_out_data_11_12));

	mov	QWORD PTR [rsp+56], 5
	lea	rax, OFFSET FLAT:Add_out_data_11_12
	mov	QWORD PTR [rsp+48], rax
	mov	QWORD PTR [rsp+40], 5
	lea	rax, OFFSET FLAT:Add_in_data_12
	mov	QWORD PTR [rsp+32], rax
	mov	r9d, -2147483648			; ffffffff80000000H
	mov	r8d, 12
	mov	rdx, QWORD PTR ep$[rbp]
	mov	rcx, QWORD PTR env$[rbp]
	call	TEST_Add_I_X

; 1766 :     TEST_Add_I_X(env, ep, 13, (-2147483647 - 1), Add_in_data_13, sizeof(Add_in_data_13), Add_out_data_11_13, sizeof(Add_out_data_11_13));

	mov	QWORD PTR [rsp+56], 5
	lea	rax, OFFSET FLAT:Add_out_data_11_13
	mov	QWORD PTR [rsp+48], rax
	mov	QWORD PTR [rsp+40], 2
	lea	rax, OFFSET FLAT:Add_in_data_13
	mov	QWORD PTR [rsp+32], rax
	mov	r9d, -2147483648			; ffffffff80000000H
	mov	r8d, 13
	mov	rdx, QWORD PTR ep$[rbp]
	mov	rcx, QWORD PTR env$[rbp]
	call	TEST_Add_I_X

; 1767 :     TEST_Add_I_X(env, ep, 14, (-2147483647 - 1), Add_in_data_14, sizeof(Add_in_data_14), Add_out_data_11_14, sizeof(Add_out_data_11_14));

	mov	QWORD PTR [rsp+56], 5
	lea	rax, OFFSET FLAT:Add_out_data_11_14
	mov	QWORD PTR [rsp+48], rax
	mov	QWORD PTR [rsp+40], 1
	lea	rax, OFFSET FLAT:Add_in_data_14
	mov	QWORD PTR [rsp+32], rax
	mov	r9d, -2147483648			; ffffffff80000000H
	mov	r8d, 14
	mov	rdx, QWORD PTR ep$[rbp]
	mov	rcx, QWORD PTR env$[rbp]
	call	TEST_Add_I_X

; 1768 :     TEST_Add_I_X(env, ep, 15, (-2147483647 - 1), Add_in_data_15, sizeof(Add_in_data_15), Add_out_data_11_15, sizeof(Add_out_data_11_15));

	mov	QWORD PTR [rsp+56], 5
	lea	rax, OFFSET FLAT:Add_out_data_11_15
	mov	QWORD PTR [rsp+48], rax
	mov	QWORD PTR [rsp+40], 2
	lea	rax, OFFSET FLAT:Add_in_data_15
	mov	QWORD PTR [rsp+32], rax
	mov	r9d, -2147483648			; ffffffff80000000H
	mov	r8d, 15
	mov	rdx, QWORD PTR ep$[rbp]
	mov	rcx, QWORD PTR env$[rbp]
	call	TEST_Add_I_X

; 1769 :     TEST_Add_I_X(env, ep, 16, (-2147483647 - 1), Add_in_data_16, sizeof(Add_in_data_16), Add_out_data_11_16, sizeof(Add_out_data_11_16));

	mov	QWORD PTR [rsp+56], 2
	lea	rax, OFFSET FLAT:Add_out_data_11_16
	mov	QWORD PTR [rsp+48], rax
	mov	QWORD PTR [rsp+40], 5
	lea	rax, OFFSET FLAT:Add_in_data_16
	mov	QWORD PTR [rsp+32], rax
	mov	r9d, -2147483648			; ffffffff80000000H
	mov	r8d, 16
	mov	rdx, QWORD PTR ep$[rbp]
	mov	rcx, QWORD PTR env$[rbp]
	call	TEST_Add_I_X

; 1770 :     TEST_Add_I_X(env, ep, 17, (-2147483647 - 1), Add_in_data_17, sizeof(Add_in_data_17), Add_out_data_11_17, sizeof(Add_out_data_11_17));

	mov	QWORD PTR [rsp+56], 1
	lea	rax, OFFSET FLAT:Add_out_data_11_17
	mov	QWORD PTR [rsp+48], rax
	mov	QWORD PTR [rsp+40], 5
	lea	rax, OFFSET FLAT:Add_in_data_17
	mov	QWORD PTR [rsp+32], rax
	mov	r9d, -2147483648			; ffffffff80000000H
	mov	r8d, 17
	mov	rdx, QWORD PTR ep$[rbp]
	mov	rcx, QWORD PTR env$[rbp]
	call	TEST_Add_I_X

; 1771 :     TEST_Add_I_X(env, ep, 18, (-2147483647 - 1), Add_in_data_18, sizeof(Add_in_data_18), Add_out_data_11_18, sizeof(Add_out_data_11_18));

	mov	QWORD PTR [rsp+56], 5
	lea	rax, OFFSET FLAT:Add_out_data_11_18
	mov	QWORD PTR [rsp+48], rax
	mov	QWORD PTR [rsp+40], 5
	lea	rax, OFFSET FLAT:Add_in_data_18
	mov	QWORD PTR [rsp+32], rax
	mov	r9d, -2147483648			; ffffffff80000000H
	mov	r8d, 18
	mov	rdx, QWORD PTR ep$[rbp]
	mov	rcx, QWORD PTR env$[rbp]
	call	TEST_Add_I_X

; 1772 :     TEST_Add_I_X(env, ep, 19, (-2147483647 - 1), Add_in_data_19, sizeof(Add_in_data_19), Add_out_data_11_19, sizeof(Add_out_data_11_19));

	mov	QWORD PTR [rsp+56], 5
	lea	rax, OFFSET FLAT:Add_out_data_11_19
	mov	QWORD PTR [rsp+48], rax
	mov	QWORD PTR [rsp+40], 6
	lea	rax, OFFSET FLAT:Add_in_data_19
	mov	QWORD PTR [rsp+32], rax
	mov	r9d, -2147483648			; ffffffff80000000H
	mov	r8d, 19
	mov	rdx, QWORD PTR ep$[rbp]
	mov	rcx, QWORD PTR env$[rbp]
	call	TEST_Add_I_X

; 1773 :     TEST_Add_I_X(env, ep, 20, (-2147483647 - 1), Add_in_data_20, sizeof(Add_in_data_20), Add_out_data_11_20, sizeof(Add_out_data_11_20));

	mov	QWORD PTR [rsp+56], 9
	lea	rax, OFFSET FLAT:Add_out_data_11_20
	mov	QWORD PTR [rsp+48], rax
	mov	QWORD PTR [rsp+40], 9
	lea	rax, OFFSET FLAT:Add_in_data_20
	mov	QWORD PTR [rsp+32], rax
	mov	r9d, -2147483648			; ffffffff80000000H
	mov	r8d, 20
	mov	rdx, QWORD PTR ep$[rbp]
	mov	rcx, QWORD PTR env$[rbp]
	call	TEST_Add_I_X

; 1774 :     TEST_Add_I_X(env, ep, 21, (-2147483647 - 1), Add_in_data_21, sizeof(Add_in_data_21), Add_out_data_11_21, sizeof(Add_out_data_11_21));

	mov	QWORD PTR [rsp+56], 9
	lea	rax, OFFSET FLAT:Add_out_data_11_21
	mov	QWORD PTR [rsp+48], rax
	mov	QWORD PTR [rsp+40], 9
	lea	rax, OFFSET FLAT:Add_in_data_21
	mov	QWORD PTR [rsp+32], rax
	mov	r9d, -2147483648			; ffffffff80000000H
	mov	r8d, 21
	mov	rdx, QWORD PTR ep$[rbp]
	mov	rcx, QWORD PTR env$[rbp]
	call	TEST_Add_I_X

; 1775 :     TEST_Add_I_X(env, ep, 22, (-2147483647 - 1), Add_in_data_22, sizeof(Add_in_data_22), Add_out_data_11_22, sizeof(Add_out_data_11_22));

	mov	QWORD PTR [rsp+56], 9
	lea	rax, OFFSET FLAT:Add_out_data_11_22
	mov	QWORD PTR [rsp+48], rax
	mov	QWORD PTR [rsp+40], 9
	lea	rax, OFFSET FLAT:Add_in_data_22
	mov	QWORD PTR [rsp+32], rax
	mov	r9d, -2147483648			; ffffffff80000000H
	mov	r8d, 22
	mov	rdx, QWORD PTR ep$[rbp]
	mov	rcx, QWORD PTR env$[rbp]
	call	TEST_Add_I_X

; 1776 :     TEST_Add_I_X(env, ep, 23, (-2147483647 - 1), Add_in_data_23, sizeof(Add_in_data_23), Add_out_data_11_23, sizeof(Add_out_data_11_23));

	mov	QWORD PTR [rsp+56], 9
	lea	rax, OFFSET FLAT:Add_out_data_11_23
	mov	QWORD PTR [rsp+48], rax
	mov	QWORD PTR [rsp+40], 10
	lea	rax, OFFSET FLAT:Add_in_data_23
	mov	QWORD PTR [rsp+32], rax
	mov	r9d, -2147483648			; ffffffff80000000H
	mov	r8d, 23
	mov	rdx, QWORD PTR ep$[rbp]
	mov	rcx, QWORD PTR env$[rbp]
	call	TEST_Add_I_X

; 1777 :     TEST_Add_I_X(env, ep, 24, (-2147483647 - 1), Add_in_data_24, sizeof(Add_in_data_24), Add_out_data_11_24, sizeof(Add_out_data_11_24));

	mov	QWORD PTR [rsp+56], 17
	lea	rax, OFFSET FLAT:Add_out_data_11_24
	mov	QWORD PTR [rsp+48], rax
	mov	QWORD PTR [rsp+40], 17
	lea	rax, OFFSET FLAT:Add_in_data_24
	mov	QWORD PTR [rsp+32], rax
	mov	r9d, -2147483648			; ffffffff80000000H
	mov	r8d, 24
	mov	rdx, QWORD PTR ep$[rbp]
	mov	rcx, QWORD PTR env$[rbp]
	call	TEST_Add_I_X

; 1778 :     TEST_Add_I_X(env, ep, 25, (-2147483647 - 1), Add_in_data_25, sizeof(Add_in_data_25), Add_out_data_11_25, sizeof(Add_out_data_11_25));

	mov	QWORD PTR [rsp+56], 17
	lea	rax, OFFSET FLAT:Add_out_data_11_25
	mov	QWORD PTR [rsp+48], rax
	mov	QWORD PTR [rsp+40], 17
	lea	rax, OFFSET FLAT:Add_in_data_25
	mov	QWORD PTR [rsp+32], rax
	mov	r9d, -2147483648			; ffffffff80000000H
	mov	r8d, 25
	mov	rdx, QWORD PTR ep$[rbp]
	mov	rcx, QWORD PTR env$[rbp]
	call	TEST_Add_I_X

; 1779 :     TEST_Add_I_X(env, ep, 26, (-2147483647 - 1), Add_in_data_26, sizeof(Add_in_data_26), Add_out_data_11_26, sizeof(Add_out_data_11_26));

	mov	QWORD PTR [rsp+56], 17
	lea	rax, OFFSET FLAT:Add_out_data_11_26
	mov	QWORD PTR [rsp+48], rax
	mov	QWORD PTR [rsp+40], 17
	lea	rax, OFFSET FLAT:Add_in_data_26
	mov	QWORD PTR [rsp+32], rax
	mov	r9d, -2147483648			; ffffffff80000000H
	mov	r8d, 26
	mov	rdx, QWORD PTR ep$[rbp]
	mov	rcx, QWORD PTR env$[rbp]
	call	TEST_Add_I_X

; 1780 :     TEST_Add_I_X(env, ep, 27, (-2147483647 - 1), Add_in_data_27, sizeof(Add_in_data_27), Add_out_data_11_27, sizeof(Add_out_data_11_27));

	mov	QWORD PTR [rsp+56], 17
	lea	rax, OFFSET FLAT:Add_out_data_11_27
	mov	QWORD PTR [rsp+48], rax
	mov	QWORD PTR [rsp+40], 18
	lea	rax, OFFSET FLAT:Add_in_data_27
	mov	QWORD PTR [rsp+32], rax
	mov	r9d, -2147483648			; ffffffff80000000H
	mov	r8d, 27
	mov	rdx, QWORD PTR ep$[rbp]
	mov	rcx, QWORD PTR env$[rbp]
	call	TEST_Add_I_X

; 1781 :     TEST_Add_I_X(env, ep, 28, -2147483647, Add_in_data_1, sizeof(Add_in_data_1), Add_out_data_12_1, sizeof(Add_out_data_12_1));

	mov	QWORD PTR [rsp+56], 18
	lea	rax, OFFSET FLAT:Add_out_data_12_1
	mov	QWORD PTR [rsp+48], rax
	mov	QWORD PTR [rsp+40], 18
	lea	rax, OFFSET FLAT:Add_in_data_1
	mov	QWORD PTR [rsp+32], rax
	mov	r9d, -2147483647			; ffffffff80000001H
	mov	r8d, 28
	mov	rdx, QWORD PTR ep$[rbp]
	mov	rcx, QWORD PTR env$[rbp]
	call	TEST_Add_I_X

; 1782 :     TEST_Add_I_X(env, ep, 29, -2147483647, Add_in_data_2, sizeof(Add_in_data_2), Add_out_data_12_2, sizeof(Add_out_data_12_2));

	mov	QWORD PTR [rsp+56], 18
	lea	rax, OFFSET FLAT:Add_out_data_12_2
	mov	QWORD PTR [rsp+48], rax
	mov	QWORD PTR [rsp+40], 17
	lea	rax, OFFSET FLAT:Add_in_data_2
	mov	QWORD PTR [rsp+32], rax
	mov	r9d, -2147483647			; ffffffff80000001H
	mov	r8d, 29
	mov	rdx, QWORD PTR ep$[rbp]
	mov	rcx, QWORD PTR env$[rbp]
	call	TEST_Add_I_X

; 1783 :     TEST_Add_I_X(env, ep, 30, -2147483647, Add_in_data_3, sizeof(Add_in_data_3), Add_out_data_12_3, sizeof(Add_out_data_12_3));

	mov	QWORD PTR [rsp+56], 17
	lea	rax, OFFSET FLAT:Add_out_data_12_3
	mov	QWORD PTR [rsp+48], rax
	mov	QWORD PTR [rsp+40], 17
	lea	rax, OFFSET FLAT:Add_in_data_3
	mov	QWORD PTR [rsp+32], rax
	mov	r9d, -2147483647			; ffffffff80000001H
	mov	r8d, 30
	mov	rdx, QWORD PTR ep$[rbp]
	mov	rcx, QWORD PTR env$[rbp]
	call	TEST_Add_I_X

; 1784 :     TEST_Add_I_X(env, ep, 31, -2147483647, Add_in_data_4, sizeof(Add_in_data_4), Add_out_data_12_4, sizeof(Add_out_data_12_4));

	mov	QWORD PTR [rsp+56], 17
	lea	rax, OFFSET FLAT:Add_out_data_12_4
	mov	QWORD PTR [rsp+48], rax
	mov	QWORD PTR [rsp+40], 17
	lea	rax, OFFSET FLAT:Add_in_data_4
	mov	QWORD PTR [rsp+32], rax
	mov	r9d, -2147483647			; ffffffff80000001H
	mov	r8d, 31
	mov	rdx, QWORD PTR ep$[rbp]
	mov	rcx, QWORD PTR env$[rbp]
	call	TEST_Add_I_X

; 1785 :     TEST_Add_I_X(env, ep, 32, -2147483647, Add_in_data_5, sizeof(Add_in_data_5), Add_out_data_12_5, sizeof(Add_out_data_12_5));

	mov	QWORD PTR [rsp+56], 10
	lea	rax, OFFSET FLAT:Add_out_data_12_5
	mov	QWORD PTR [rsp+48], rax
	mov	QWORD PTR [rsp+40], 10
	lea	rax, OFFSET FLAT:Add_in_data_5
	mov	QWORD PTR [rsp+32], rax
	mov	r9d, -2147483647			; ffffffff80000001H
	mov	r8d, 32					; 00000020H
	mov	rdx, QWORD PTR ep$[rbp]
	mov	rcx, QWORD PTR env$[rbp]
	call	TEST_Add_I_X

; 1786 :     TEST_Add_I_X(env, ep, 33, -2147483647, Add_in_data_6, sizeof(Add_in_data_6), Add_out_data_12_6, sizeof(Add_out_data_12_6));

	mov	QWORD PTR [rsp+56], 10
	lea	rax, OFFSET FLAT:Add_out_data_12_6
	mov	QWORD PTR [rsp+48], rax
	mov	QWORD PTR [rsp+40], 9
	lea	rax, OFFSET FLAT:Add_in_data_6
	mov	QWORD PTR [rsp+32], rax
	mov	r9d, -2147483647			; ffffffff80000001H
	mov	r8d, 33					; 00000021H
	mov	rdx, QWORD PTR ep$[rbp]
	mov	rcx, QWORD PTR env$[rbp]
	call	TEST_Add_I_X

; 1787 :     TEST_Add_I_X(env, ep, 34, -2147483647, Add_in_data_7, sizeof(Add_in_data_7), Add_out_data_12_7, sizeof(Add_out_data_12_7));

	mov	QWORD PTR [rsp+56], 9
	lea	rax, OFFSET FLAT:Add_out_data_12_7
	mov	QWORD PTR [rsp+48], rax
	mov	QWORD PTR [rsp+40], 9
	lea	rax, OFFSET FLAT:Add_in_data_7
	mov	QWORD PTR [rsp+32], rax
	mov	r9d, -2147483647			; ffffffff80000001H
	mov	r8d, 34					; 00000022H
	mov	rdx, QWORD PTR ep$[rbp]
	mov	rcx, QWORD PTR env$[rbp]
	call	TEST_Add_I_X

; 1788 :     TEST_Add_I_X(env, ep, 35, -2147483647, Add_in_data_8, sizeof(Add_in_data_8), Add_out_data_12_8, sizeof(Add_out_data_12_8));

	mov	QWORD PTR [rsp+56], 9
	lea	rax, OFFSET FLAT:Add_out_data_12_8
	mov	QWORD PTR [rsp+48], rax
	mov	QWORD PTR [rsp+40], 9
	lea	rax, OFFSET FLAT:Add_in_data_8
	mov	QWORD PTR [rsp+32], rax
	mov	r9d, -2147483647			; ffffffff80000001H
	mov	r8d, 35					; 00000023H
	mov	rdx, QWORD PTR ep$[rbp]
	mov	rcx, QWORD PTR env$[rbp]
	call	TEST_Add_I_X

; 1789 :     TEST_Add_I_X(env, ep, 36, -2147483647, Add_in_data_9, sizeof(Add_in_data_9), Add_out_data_12_9, sizeof(Add_out_data_12_9));

	mov	QWORD PTR [rsp+56], 6
	lea	rax, OFFSET FLAT:Add_out_data_12_9
	mov	QWORD PTR [rsp+48], rax
	mov	QWORD PTR [rsp+40], 6
	lea	rax, OFFSET FLAT:Add_in_data_9
	mov	QWORD PTR [rsp+32], rax
	mov	r9d, -2147483647			; ffffffff80000001H
	mov	r8d, 36					; 00000024H
	mov	rdx, QWORD PTR ep$[rbp]
	mov	rcx, QWORD PTR env$[rbp]
	call	TEST_Add_I_X

; 1790 :     TEST_Add_I_X(env, ep, 37, -2147483647, Add_in_data_10, sizeof(Add_in_data_10), Add_out_data_12_10, sizeof(Add_out_data_12_10));

	mov	QWORD PTR [rsp+56], 6
	lea	rax, OFFSET FLAT:Add_out_data_12_10
	mov	QWORD PTR [rsp+48], rax
	mov	QWORD PTR [rsp+40], 5
	lea	rax, OFFSET FLAT:Add_in_data_10
	mov	QWORD PTR [rsp+32], rax
	mov	r9d, -2147483647			; ffffffff80000001H
	mov	r8d, 37					; 00000025H
	mov	rdx, QWORD PTR ep$[rbp]
	mov	rcx, QWORD PTR env$[rbp]
	call	TEST_Add_I_X

; 1791 :     TEST_Add_I_X(env, ep, 38, -2147483647, Add_in_data_11, sizeof(Add_in_data_11), Add_out_data_12_11, sizeof(Add_out_data_12_11));

	mov	QWORD PTR [rsp+56], 5
	lea	rax, OFFSET FLAT:Add_out_data_12_11
	mov	QWORD PTR [rsp+48], rax
	mov	QWORD PTR [rsp+40], 5
	lea	rax, OFFSET FLAT:Add_in_data_11
	mov	QWORD PTR [rsp+32], rax
	mov	r9d, -2147483647			; ffffffff80000001H
	mov	r8d, 38					; 00000026H
	mov	rdx, QWORD PTR ep$[rbp]
	mov	rcx, QWORD PTR env$[rbp]
	call	TEST_Add_I_X

; 1792 :     TEST_Add_I_X(env, ep, 39, -2147483647, Add_in_data_12, sizeof(Add_in_data_12), Add_out_data_12_12, sizeof(Add_out_data_12_12));

	mov	QWORD PTR [rsp+56], 5
	lea	rax, OFFSET FLAT:Add_out_data_12_12
	mov	QWORD PTR [rsp+48], rax
	mov	QWORD PTR [rsp+40], 5
	lea	rax, OFFSET FLAT:Add_in_data_12
	mov	QWORD PTR [rsp+32], rax
	mov	r9d, -2147483647			; ffffffff80000001H
	mov	r8d, 39					; 00000027H
	mov	rdx, QWORD PTR ep$[rbp]
	mov	rcx, QWORD PTR env$[rbp]
	call	TEST_Add_I_X

; 1793 :     TEST_Add_I_X(env, ep, 40, -2147483647, Add_in_data_13, sizeof(Add_in_data_13), Add_out_data_12_13, sizeof(Add_out_data_12_13));

	mov	QWORD PTR [rsp+56], 5
	lea	rax, OFFSET FLAT:Add_out_data_12_13
	mov	QWORD PTR [rsp+48], rax
	mov	QWORD PTR [rsp+40], 2
	lea	rax, OFFSET FLAT:Add_in_data_13
	mov	QWORD PTR [rsp+32], rax
	mov	r9d, -2147483647			; ffffffff80000001H
	mov	r8d, 40					; 00000028H
	mov	rdx, QWORD PTR ep$[rbp]
	mov	rcx, QWORD PTR env$[rbp]
	call	TEST_Add_I_X

; 1794 :     TEST_Add_I_X(env, ep, 41, -2147483647, Add_in_data_14, sizeof(Add_in_data_14), Add_out_data_12_14, sizeof(Add_out_data_12_14));

	mov	QWORD PTR [rsp+56], 5
	lea	rax, OFFSET FLAT:Add_out_data_12_14
	mov	QWORD PTR [rsp+48], rax
	mov	QWORD PTR [rsp+40], 1
	lea	rax, OFFSET FLAT:Add_in_data_14
	mov	QWORD PTR [rsp+32], rax
	mov	r9d, -2147483647			; ffffffff80000001H
	mov	r8d, 41					; 00000029H
	mov	rdx, QWORD PTR ep$[rbp]
	mov	rcx, QWORD PTR env$[rbp]
	call	TEST_Add_I_X

; 1795 :     TEST_Add_I_X(env, ep, 42, -2147483647, Add_in_data_15, sizeof(Add_in_data_15), Add_out_data_12_15, sizeof(Add_out_data_12_15));

	mov	QWORD PTR [rsp+56], 5
	lea	rax, OFFSET FLAT:Add_out_data_12_15
	mov	QWORD PTR [rsp+48], rax
	mov	QWORD PTR [rsp+40], 2
	lea	rax, OFFSET FLAT:Add_in_data_15
	mov	QWORD PTR [rsp+32], rax
	mov	r9d, -2147483647			; ffffffff80000001H
	mov	r8d, 42					; 0000002aH
	mov	rdx, QWORD PTR ep$[rbp]
	mov	rcx, QWORD PTR env$[rbp]
	call	TEST_Add_I_X

; 1796 :     TEST_Add_I_X(env, ep, 43, -2147483647, Add_in_data_16, sizeof(Add_in_data_16), Add_out_data_12_16, sizeof(Add_out_data_12_16));

	mov	QWORD PTR [rsp+56], 1
	lea	rax, OFFSET FLAT:Add_out_data_12_16
	mov	QWORD PTR [rsp+48], rax
	mov	QWORD PTR [rsp+40], 5
	lea	rax, OFFSET FLAT:Add_in_data_16
	mov	QWORD PTR [rsp+32], rax
	mov	r9d, -2147483647			; ffffffff80000001H
	mov	r8d, 43					; 0000002bH
	mov	rdx, QWORD PTR ep$[rbp]
	mov	rcx, QWORD PTR env$[rbp]
	call	TEST_Add_I_X

; 1797 :     TEST_Add_I_X(env, ep, 44, -2147483647, Add_in_data_17, sizeof(Add_in_data_17), Add_out_data_12_17, sizeof(Add_out_data_12_17));

	mov	QWORD PTR [rsp+56], 2
	lea	rax, OFFSET FLAT:Add_out_data_12_17
	mov	QWORD PTR [rsp+48], rax
	mov	QWORD PTR [rsp+40], 5
	lea	rax, OFFSET FLAT:Add_in_data_17
	mov	QWORD PTR [rsp+32], rax
	mov	r9d, -2147483647			; ffffffff80000001H
	mov	r8d, 44					; 0000002cH
	mov	rdx, QWORD PTR ep$[rbp]
	mov	rcx, QWORD PTR env$[rbp]
	call	TEST_Add_I_X

; 1798 :     TEST_Add_I_X(env, ep, 45, -2147483647, Add_in_data_18, sizeof(Add_in_data_18), Add_out_data_12_18, sizeof(Add_out_data_12_18));

	mov	QWORD PTR [rsp+56], 5
	lea	rax, OFFSET FLAT:Add_out_data_12_18
	mov	QWORD PTR [rsp+48], rax
	mov	QWORD PTR [rsp+40], 5
	lea	rax, OFFSET FLAT:Add_in_data_18
	mov	QWORD PTR [rsp+32], rax
	mov	r9d, -2147483647			; ffffffff80000001H
	mov	r8d, 45					; 0000002dH
	mov	rdx, QWORD PTR ep$[rbp]
	mov	rcx, QWORD PTR env$[rbp]
	call	TEST_Add_I_X

; 1799 :     TEST_Add_I_X(env, ep, 46, -2147483647, Add_in_data_19, sizeof(Add_in_data_19), Add_out_data_12_19, sizeof(Add_out_data_12_19));

	mov	QWORD PTR [rsp+56], 5
	lea	rax, OFFSET FLAT:Add_out_data_12_19
	mov	QWORD PTR [rsp+48], rax
	mov	QWORD PTR [rsp+40], 6
	lea	rax, OFFSET FLAT:Add_in_data_19
	mov	QWORD PTR [rsp+32], rax
	mov	r9d, -2147483647			; ffffffff80000001H
	mov	r8d, 46					; 0000002eH
	mov	rdx, QWORD PTR ep$[rbp]
	mov	rcx, QWORD PTR env$[rbp]
	call	TEST_Add_I_X

; 1800 :     TEST_Add_I_X(env, ep, 47, -2147483647, Add_in_data_20, sizeof(Add_in_data_20), Add_out_data_12_20, sizeof(Add_out_data_12_20));

	mov	QWORD PTR [rsp+56], 9
	lea	rax, OFFSET FLAT:Add_out_data_12_20
	mov	QWORD PTR [rsp+48], rax
	mov	QWORD PTR [rsp+40], 9
	lea	rax, OFFSET FLAT:Add_in_data_20
	mov	QWORD PTR [rsp+32], rax
	mov	r9d, -2147483647			; ffffffff80000001H
	mov	r8d, 47					; 0000002fH
	mov	rdx, QWORD PTR ep$[rbp]
	mov	rcx, QWORD PTR env$[rbp]
	call	TEST_Add_I_X

; 1801 :     TEST_Add_I_X(env, ep, 48, -2147483647, Add_in_data_21, sizeof(Add_in_data_21), Add_out_data_12_21, sizeof(Add_out_data_12_21));

	mov	QWORD PTR [rsp+56], 9
	lea	rax, OFFSET FLAT:Add_out_data_12_21
	mov	QWORD PTR [rsp+48], rax
	mov	QWORD PTR [rsp+40], 9
	lea	rax, OFFSET FLAT:Add_in_data_21
	mov	QWORD PTR [rsp+32], rax
	mov	r9d, -2147483647			; ffffffff80000001H
	mov	r8d, 48					; 00000030H
	mov	rdx, QWORD PTR ep$[rbp]
	mov	rcx, QWORD PTR env$[rbp]
	call	TEST_Add_I_X

; 1802 :     TEST_Add_I_X(env, ep, 49, -2147483647, Add_in_data_22, sizeof(Add_in_data_22), Add_out_data_12_22, sizeof(Add_out_data_12_22));

	mov	QWORD PTR [rsp+56], 9
	lea	rax, OFFSET FLAT:Add_out_data_12_22
	mov	QWORD PTR [rsp+48], rax
	mov	QWORD PTR [rsp+40], 9
	lea	rax, OFFSET FLAT:Add_in_data_22
	mov	QWORD PTR [rsp+32], rax
	mov	r9d, -2147483647			; ffffffff80000001H
	mov	r8d, 49					; 00000031H
	mov	rdx, QWORD PTR ep$[rbp]
	mov	rcx, QWORD PTR env$[rbp]
	call	TEST_Add_I_X

; 1803 :     TEST_Add_I_X(env, ep, 50, -2147483647, Add_in_data_23, sizeof(Add_in_data_23), Add_out_data_12_23, sizeof(Add_out_data_12_23));

	mov	QWORD PTR [rsp+56], 9
	lea	rax, OFFSET FLAT:Add_out_data_12_23
	mov	QWORD PTR [rsp+48], rax
	mov	QWORD PTR [rsp+40], 10
	lea	rax, OFFSET FLAT:Add_in_data_23
	mov	QWORD PTR [rsp+32], rax
	mov	r9d, -2147483647			; ffffffff80000001H
	mov	r8d, 50					; 00000032H
	mov	rdx, QWORD PTR ep$[rbp]
	mov	rcx, QWORD PTR env$[rbp]
	call	TEST_Add_I_X

; 1804 :     TEST_Add_I_X(env, ep, 51, -2147483647, Add_in_data_24, sizeof(Add_in_data_24), Add_out_data_12_24, sizeof(Add_out_data_12_24));

	mov	QWORD PTR [rsp+56], 17
	lea	rax, OFFSET FLAT:Add_out_data_12_24
	mov	QWORD PTR [rsp+48], rax
	mov	QWORD PTR [rsp+40], 17
	lea	rax, OFFSET FLAT:Add_in_data_24
	mov	QWORD PTR [rsp+32], rax
	mov	r9d, -2147483647			; ffffffff80000001H
	mov	r8d, 51					; 00000033H
	mov	rdx, QWORD PTR ep$[rbp]
	mov	rcx, QWORD PTR env$[rbp]
	call	TEST_Add_I_X

; 1805 :     TEST_Add_I_X(env, ep, 52, -2147483647, Add_in_data_25, sizeof(Add_in_data_25), Add_out_data_12_25, sizeof(Add_out_data_12_25));

	mov	QWORD PTR [rsp+56], 17
	lea	rax, OFFSET FLAT:Add_out_data_12_25
	mov	QWORD PTR [rsp+48], rax
	mov	QWORD PTR [rsp+40], 17
	lea	rax, OFFSET FLAT:Add_in_data_25
	mov	QWORD PTR [rsp+32], rax
	mov	r9d, -2147483647			; ffffffff80000001H
	mov	r8d, 52					; 00000034H
	mov	rdx, QWORD PTR ep$[rbp]
	mov	rcx, QWORD PTR env$[rbp]
	call	TEST_Add_I_X

; 1806 :     TEST_Add_I_X(env, ep, 53, -2147483647, Add_in_data_26, sizeof(Add_in_data_26), Add_out_data_12_26, sizeof(Add_out_data_12_26));

	mov	QWORD PTR [rsp+56], 17
	lea	rax, OFFSET FLAT:Add_out_data_12_26
	mov	QWORD PTR [rsp+48], rax
	mov	QWORD PTR [rsp+40], 17
	lea	rax, OFFSET FLAT:Add_in_data_26
	mov	QWORD PTR [rsp+32], rax
	mov	r9d, -2147483647			; ffffffff80000001H
	mov	r8d, 53					; 00000035H
	mov	rdx, QWORD PTR ep$[rbp]
	mov	rcx, QWORD PTR env$[rbp]
	call	TEST_Add_I_X

; 1807 :     TEST_Add_I_X(env, ep, 54, -2147483647, Add_in_data_27, sizeof(Add_in_data_27), Add_out_data_12_27, sizeof(Add_out_data_12_27));

	mov	QWORD PTR [rsp+56], 17
	lea	rax, OFFSET FLAT:Add_out_data_12_27
	mov	QWORD PTR [rsp+48], rax
	mov	QWORD PTR [rsp+40], 18
	lea	rax, OFFSET FLAT:Add_in_data_27
	mov	QWORD PTR [rsp+32], rax
	mov	r9d, -2147483647			; ffffffff80000001H
	mov	r8d, 54					; 00000036H
	mov	rdx, QWORD PTR ep$[rbp]
	mov	rcx, QWORD PTR env$[rbp]
	call	TEST_Add_I_X

; 1808 :     TEST_Add_I_X(env, ep, 55, -1, Add_in_data_1, sizeof(Add_in_data_1), Add_out_data_13_1, sizeof(Add_out_data_13_1));

	mov	QWORD PTR [rsp+56], 18
	lea	rax, OFFSET FLAT:Add_out_data_13_1
	mov	QWORD PTR [rsp+48], rax
	mov	QWORD PTR [rsp+40], 18
	lea	rax, OFFSET FLAT:Add_in_data_1
	mov	QWORD PTR [rsp+32], rax
	mov	r9d, -1
	mov	r8d, 55					; 00000037H
	mov	rdx, QWORD PTR ep$[rbp]
	mov	rcx, QWORD PTR env$[rbp]
	call	TEST_Add_I_X

; 1809 :     TEST_Add_I_X(env, ep, 56, -1, Add_in_data_2, sizeof(Add_in_data_2), Add_out_data_13_2, sizeof(Add_out_data_13_2));

	mov	QWORD PTR [rsp+56], 18
	lea	rax, OFFSET FLAT:Add_out_data_13_2
	mov	QWORD PTR [rsp+48], rax
	mov	QWORD PTR [rsp+40], 17
	lea	rax, OFFSET FLAT:Add_in_data_2
	mov	QWORD PTR [rsp+32], rax
	mov	r9d, -1
	mov	r8d, 56					; 00000038H
	mov	rdx, QWORD PTR ep$[rbp]
	mov	rcx, QWORD PTR env$[rbp]
	call	TEST_Add_I_X

; 1810 :     TEST_Add_I_X(env, ep, 57, -1, Add_in_data_3, sizeof(Add_in_data_3), Add_out_data_13_3, sizeof(Add_out_data_13_3));

	mov	QWORD PTR [rsp+56], 17
	lea	rax, OFFSET FLAT:Add_out_data_13_3
	mov	QWORD PTR [rsp+48], rax
	mov	QWORD PTR [rsp+40], 17
	lea	rax, OFFSET FLAT:Add_in_data_3
	mov	QWORD PTR [rsp+32], rax
	mov	r9d, -1
	mov	r8d, 57					; 00000039H
	mov	rdx, QWORD PTR ep$[rbp]
	mov	rcx, QWORD PTR env$[rbp]
	call	TEST_Add_I_X

; 1811 :     TEST_Add_I_X(env, ep, 58, -1, Add_in_data_4, sizeof(Add_in_data_4), Add_out_data_13_4, sizeof(Add_out_data_13_4));

	mov	QWORD PTR [rsp+56], 17
	lea	rax, OFFSET FLAT:Add_out_data_13_4
	mov	QWORD PTR [rsp+48], rax
	mov	QWORD PTR [rsp+40], 17
	lea	rax, OFFSET FLAT:Add_in_data_4
	mov	QWORD PTR [rsp+32], rax
	mov	r9d, -1
	mov	r8d, 58					; 0000003aH
	mov	rdx, QWORD PTR ep$[rbp]
	mov	rcx, QWORD PTR env$[rbp]
	call	TEST_Add_I_X

; 1812 :     TEST_Add_I_X(env, ep, 59, -1, Add_in_data_5, sizeof(Add_in_data_5), Add_out_data_13_5, sizeof(Add_out_data_13_5));

	mov	QWORD PTR [rsp+56], 10
	lea	rax, OFFSET FLAT:Add_out_data_13_5
	mov	QWORD PTR [rsp+48], rax
	mov	QWORD PTR [rsp+40], 10
	lea	rax, OFFSET FLAT:Add_in_data_5
	mov	QWORD PTR [rsp+32], rax
	mov	r9d, -1
	mov	r8d, 59					; 0000003bH
	mov	rdx, QWORD PTR ep$[rbp]
	mov	rcx, QWORD PTR env$[rbp]
	call	TEST_Add_I_X

; 1813 :     TEST_Add_I_X(env, ep, 60, -1, Add_in_data_6, sizeof(Add_in_data_6), Add_out_data_13_6, sizeof(Add_out_data_13_6));

	mov	QWORD PTR [rsp+56], 10
	lea	rax, OFFSET FLAT:Add_out_data_13_6
	mov	QWORD PTR [rsp+48], rax
	mov	QWORD PTR [rsp+40], 9
	lea	rax, OFFSET FLAT:Add_in_data_6
	mov	QWORD PTR [rsp+32], rax
	mov	r9d, -1
	mov	r8d, 60					; 0000003cH
	mov	rdx, QWORD PTR ep$[rbp]
	mov	rcx, QWORD PTR env$[rbp]
	call	TEST_Add_I_X

; 1814 :     TEST_Add_I_X(env, ep, 61, -1, Add_in_data_7, sizeof(Add_in_data_7), Add_out_data_13_7, sizeof(Add_out_data_13_7));

	mov	QWORD PTR [rsp+56], 9
	lea	rax, OFFSET FLAT:Add_out_data_13_7
	mov	QWORD PTR [rsp+48], rax
	mov	QWORD PTR [rsp+40], 9
	lea	rax, OFFSET FLAT:Add_in_data_7
	mov	QWORD PTR [rsp+32], rax
	mov	r9d, -1
	mov	r8d, 61					; 0000003dH
	mov	rdx, QWORD PTR ep$[rbp]
	mov	rcx, QWORD PTR env$[rbp]
	call	TEST_Add_I_X

; 1815 :     TEST_Add_I_X(env, ep, 62, -1, Add_in_data_8, sizeof(Add_in_data_8), Add_out_data_13_8, sizeof(Add_out_data_13_8));

	mov	QWORD PTR [rsp+56], 9
	lea	rax, OFFSET FLAT:Add_out_data_13_8
	mov	QWORD PTR [rsp+48], rax
	mov	QWORD PTR [rsp+40], 9
	lea	rax, OFFSET FLAT:Add_in_data_8
	mov	QWORD PTR [rsp+32], rax
	mov	r9d, -1
	mov	r8d, 62					; 0000003eH
	mov	rdx, QWORD PTR ep$[rbp]
	mov	rcx, QWORD PTR env$[rbp]
	call	TEST_Add_I_X

; 1816 :     TEST_Add_I_X(env, ep, 63, -1, Add_in_data_9, sizeof(Add_in_data_9), Add_out_data_13_9, sizeof(Add_out_data_13_9));

	mov	QWORD PTR [rsp+56], 6
	lea	rax, OFFSET FLAT:Add_out_data_13_9
	mov	QWORD PTR [rsp+48], rax
	mov	QWORD PTR [rsp+40], 6
	lea	rax, OFFSET FLAT:Add_in_data_9
	mov	QWORD PTR [rsp+32], rax
	mov	r9d, -1
	mov	r8d, 63					; 0000003fH
	mov	rdx, QWORD PTR ep$[rbp]
	mov	rcx, QWORD PTR env$[rbp]
	call	TEST_Add_I_X

; 1817 :     TEST_Add_I_X(env, ep, 64, -1, Add_in_data_10, sizeof(Add_in_data_10), Add_out_data_13_10, sizeof(Add_out_data_13_10));

	mov	QWORD PTR [rsp+56], 6
	lea	rax, OFFSET FLAT:Add_out_data_13_10
	mov	QWORD PTR [rsp+48], rax
	mov	QWORD PTR [rsp+40], 5
	lea	rax, OFFSET FLAT:Add_in_data_10
	mov	QWORD PTR [rsp+32], rax
	mov	r9d, -1
	mov	r8d, 64					; 00000040H
	mov	rdx, QWORD PTR ep$[rbp]
	mov	rcx, QWORD PTR env$[rbp]
	call	TEST_Add_I_X

; 1818 :     TEST_Add_I_X(env, ep, 65, -1, Add_in_data_11, sizeof(Add_in_data_11), Add_out_data_13_11, sizeof(Add_out_data_13_11));

	mov	QWORD PTR [rsp+56], 5
	lea	rax, OFFSET FLAT:Add_out_data_13_11
	mov	QWORD PTR [rsp+48], rax
	mov	QWORD PTR [rsp+40], 5
	lea	rax, OFFSET FLAT:Add_in_data_11
	mov	QWORD PTR [rsp+32], rax
	mov	r9d, -1
	mov	r8d, 65					; 00000041H
	mov	rdx, QWORD PTR ep$[rbp]
	mov	rcx, QWORD PTR env$[rbp]
	call	TEST_Add_I_X

; 1819 :     TEST_Add_I_X(env, ep, 66, -1, Add_in_data_12, sizeof(Add_in_data_12), Add_out_data_13_12, sizeof(Add_out_data_13_12));

	mov	QWORD PTR [rsp+56], 5
	lea	rax, OFFSET FLAT:Add_out_data_13_12
	mov	QWORD PTR [rsp+48], rax
	mov	QWORD PTR [rsp+40], 5
	lea	rax, OFFSET FLAT:Add_in_data_12
	mov	QWORD PTR [rsp+32], rax
	mov	r9d, -1
	mov	r8d, 66					; 00000042H
	mov	rdx, QWORD PTR ep$[rbp]
	mov	rcx, QWORD PTR env$[rbp]
	call	TEST_Add_I_X

; 1820 :     TEST_Add_I_X(env, ep, 67, -1, Add_in_data_13, sizeof(Add_in_data_13), Add_out_data_13_13, sizeof(Add_out_data_13_13));

	mov	QWORD PTR [rsp+56], 2
	lea	rax, OFFSET FLAT:Add_out_data_13_13
	mov	QWORD PTR [rsp+48], rax
	mov	QWORD PTR [rsp+40], 2
	lea	rax, OFFSET FLAT:Add_in_data_13
	mov	QWORD PTR [rsp+32], rax
	mov	r9d, -1
	mov	r8d, 67					; 00000043H
	mov	rdx, QWORD PTR ep$[rbp]
	mov	rcx, QWORD PTR env$[rbp]
	call	TEST_Add_I_X

; 1821 :     TEST_Add_I_X(env, ep, 68, -1, Add_in_data_14, sizeof(Add_in_data_14), Add_out_data_13_14, sizeof(Add_out_data_13_14));

	mov	QWORD PTR [rsp+56], 2
	lea	rax, OFFSET FLAT:Add_out_data_13_14
	mov	QWORD PTR [rsp+48], rax
	mov	QWORD PTR [rsp+40], 1
	lea	rax, OFFSET FLAT:Add_in_data_14
	mov	QWORD PTR [rsp+32], rax
	mov	r9d, -1
	mov	r8d, 68					; 00000044H
	mov	rdx, QWORD PTR ep$[rbp]
	mov	rcx, QWORD PTR env$[rbp]
	call	TEST_Add_I_X

; 1822 :     TEST_Add_I_X(env, ep, 69, -1, Add_in_data_15, sizeof(Add_in_data_15), Add_out_data_13_15, sizeof(Add_out_data_13_15));

	mov	QWORD PTR [rsp+56], 1
	lea	rax, OFFSET FLAT:Add_out_data_13_15
	mov	QWORD PTR [rsp+48], rax
	mov	QWORD PTR [rsp+40], 2
	lea	rax, OFFSET FLAT:Add_in_data_15
	mov	QWORD PTR [rsp+32], rax
	mov	r9d, -1
	mov	r8d, 69					; 00000045H
	mov	rdx, QWORD PTR ep$[rbp]
	mov	rcx, QWORD PTR env$[rbp]
	call	TEST_Add_I_X

