; Listing generated by Microsoft (R) Optimizing Compiler Version 19.16.27026.1 

include listing.inc

INCLUDELIB MSVCRTD
INCLUDELIB OLDNAMES

_DATA	SEGMENT
COMM	uint_number_zero:QWORD
COMM	uint_number_one:QWORD
_DATA	ENDS
msvcjmc	SEGMENT
__7B7A869E_ctype@h DB 01H
__457DD326_basetsd@h DB 01H
__4384A2D9_corecrt_memcpy_s@h DB 01H
__4E51A221_corecrt_wstring@h DB 01H
__2140C079_string@h DB 01H
__1887E595_winnt@h DB 01H
__9FC7C64B_processthreadsapi@h DB 01H
__FA470AEC_memoryapi@h DB 01H
__F37DAFF1_winerror@h DB 01H
__7A450CCC_winbase@h DB 01H
__B4B40122_winioctl@h DB 01H
__86261D59_stralign@h DB 01H
__059414E1_pmc_sint_debug@h DB 01H
__3B9431F8_test_op_from_to@c DB 01H
msvcjmc	ENDS
PUBLIC	TEST_From_I
PUBLIC	TEST_From_L
PUBLIC	TEST_To_X_I
PUBLIC	TEST_To_X_L
PUBLIC	__JustMyCode_Default
PUBLIC	??_C@_1DE@FDJGGNN@?$AAF?$AAr?$AAo?$AAm?$AA_?$AAI?$AAn?$PP?$KJ?$AA0?$PP?$LD?$PP?$PM?$PP?I?$AAL?$AA?$BP?$PP?$IF@ ; `string'
PUBLIC	??_C@_1BO@IOIOCDHF@?$AAF?$AAr?$AAo?$AAm?$AA_?$AAI?$AA?5?$AA?$CI?$AA?$CF?$AAd?$AA?4?$AA?$CF?$AAd?$AA?$CJ@ ; `string'
PUBLIC	??_C@_1DO@DOHJEMND@?$AAT?$AAo?$AAB?$AAy?$AAt?$AAe?$AAA?$AAr?$AAr?$AAa?$AAy?$AAn?$PP?$KJ?$AA0?$PP?$LD@ ; `string'
PUBLIC	??_C@_1BK@CBDJCOBM@?$PP?G?$PP?$PM?$PP?$LP?$AAn?$PP?$IF?$PP?$LJ?$AAL?$AA?$AA?$PP?t?$AAW?$AAj?$AAD@ ; `string'
PUBLIC	??_C@_1DE@ENHFPLEI@?$AAF?$AAr?$AAo?$AAm?$AA_?$AAL?$AAn?$PP?$KJ?$AA0?$PP?$LD?$PP?$PM?$PP?I?$AAL?$AA?$BP?$PP?$IF@ ; `string'
PUBLIC	??_C@_1BO@KFAEPDGK@?$AAF?$AAr?$AAo?$AAm?$AA_?$AAL?$AA?5?$AA?$CI?$AA?$CF?$AAd?$AA?4?$AA?$CF?$AAd?$AA?$CJ@ ; `string'
PUBLIC	??_C@_1EC@NPMCAPKO@?$AAF?$AAr?$AAo?$AAm?$AAB?$AAy?$AAt?$AAe?$AAA?$AAr?$AAr?$AAa?$AAy?$AAn?$PP?$KJ@ ; `string'
PUBLIC	??_C@_1BO@NLCIHIMA@?$AAT?$AAo?$AA_?$AAX?$AA_?$AAI?$AA?5?$AA?$CI?$AA?$CF?$AAd?$AA?4?$AA?$CF?$AAd?$AA?$CJ@ ; `string'
PUBLIC	??_C@_1DE@FEDCALLC@?$AAT?$AAo?$AA_?$AAX?$AA_?$AAI?$AAn?$PP?$KJ?$AA0?$PP?$LD?$PP?$PM?$PP?I?$AAL?$AA?$BP?$PP?$IF@ ; `string'
PUBLIC	??_C@_1BO@PAKCKINP@?$AAT?$AAo?$AA_?$AAX?$AA_?$AAL?$AA?5?$AA?$CI?$AA?$CF?$AAd?$AA?4?$AA?$CF?$AAd?$AA?$CJ@ ; `string'
EXTRN	TEST_Assert:PROC
EXTRN	FormatTestLabel:PROC
EXTRN	FormatTestMesssage:PROC
EXTRN	_RTC_CheckStackVars:PROC
EXTRN	_RTC_InitBase:PROC
EXTRN	_RTC_Shutdown:PROC
EXTRN	__CheckForDebuggerJustMyCode:PROC
EXTRN	__GSHandlerCheck:PROC
EXTRN	__security_check_cookie:PROC
EXTRN	__security_cookie:QWORD
;	COMDAT pdata
pdata	SEGMENT
$pdata$TEST_From_I DD imagerel $LN10
	DD	imagerel $LN10+555
	DD	imagerel $unwind$TEST_From_I
pdata	ENDS
;	COMDAT pdata
pdata	SEGMENT
$pdata$TEST_From_L DD imagerel $LN10
	DD	imagerel $LN10+556
	DD	imagerel $unwind$TEST_From_L
pdata	ENDS
;	COMDAT pdata
pdata	SEGMENT
$pdata$TEST_To_X_I DD imagerel $LN11
	DD	imagerel $LN11+520
	DD	imagerel $unwind$TEST_To_X_I
pdata	ENDS
;	COMDAT pdata
pdata	SEGMENT
$pdata$TEST_To_X_L DD imagerel $LN11
	DD	imagerel $LN11+522
	DD	imagerel $unwind$TEST_To_X_L
pdata	ENDS
;	COMDAT pdata
pdata	SEGMENT
$pdata$_EQUALS_MEMORY DD imagerel _EQUALS_MEMORY
	DD	imagerel _EQUALS_MEMORY+198
	DD	imagerel $unwind$_EQUALS_MEMORY
pdata	ENDS
;	COMDAT rtc$TMZ
rtc$TMZ	SEGMENT
_RTC_Shutdown.rtc$TMZ DQ FLAT:_RTC_Shutdown
rtc$TMZ	ENDS
;	COMDAT rtc$IMZ
rtc$IMZ	SEGMENT
_RTC_InitBase.rtc$IMZ DQ FLAT:_RTC_InitBase
rtc$IMZ	ENDS
;	COMDAT ??_C@_1BO@PAKCKINP@?$AAT?$AAo?$AA_?$AAX?$AA_?$AAL?$AA?5?$AA?$CI?$AA?$CF?$AAd?$AA?4?$AA?$CF?$AAd?$AA?$CJ@
CONST	SEGMENT
??_C@_1BO@PAKCKINP@?$AAT?$AAo?$AA_?$AAX?$AA_?$AAL?$AA?5?$AA?$CI?$AA?$CF?$AAd?$AA?4?$AA?$CF?$AAd?$AA?$CJ@ DB 'T'
	DB	00H, 'o', 00H, '_', 00H, 'X', 00H, '_', 00H, 'L', 00H, ' ', 00H
	DB	'(', 00H, '%', 00H, 'd', 00H, '.', 00H, '%', 00H, 'd', 00H, ')'
	DB	00H, 00H, 00H				; `string'
CONST	ENDS
;	COMDAT ??_C@_1DE@FEDCALLC@?$AAT?$AAo?$AA_?$AAX?$AA_?$AAI?$AAn?$PP?$KJ?$AA0?$PP?$LD?$PP?$PM?$PP?I?$AAL?$AA?$BP?$PP?$IF@
CONST	SEGMENT
??_C@_1DE@FEDCALLC@?$AAT?$AAo?$AA_?$AAX?$AA_?$AAI?$AAn?$PP?$KJ?$AA0?$PP?$LD?$PP?$PM?$PP?I?$AAL?$AA?$BP?$PP?$IF@ DB 'T'
	DB	00H, 'o', 00H, '_', 00H, 'X', 00H, '_', 00H, 'I', 00H, 'n0', 0a9H
	DB	'_0^', 0b3H, '0', 0fcH, '0', 0c9H, '0L0', 01fH, 'g', 085H, '_', 01aH
	DB	090H, 08aH, '0g0o0j0D0(', 00H, '%', 00H, 'd', 00H, ')', 00H, 00H
	DB	00H						; `string'
CONST	ENDS
;	COMDAT ??_C@_1BO@NLCIHIMA@?$AAT?$AAo?$AA_?$AAX?$AA_?$AAI?$AA?5?$AA?$CI?$AA?$CF?$AAd?$AA?4?$AA?$CF?$AAd?$AA?$CJ@
CONST	SEGMENT
??_C@_1BO@NLCIHIMA@?$AAT?$AAo?$AA_?$AAX?$AA_?$AAI?$AA?5?$AA?$CI?$AA?$CF?$AAd?$AA?4?$AA?$CF?$AAd?$AA?$CJ@ DB 'T'
	DB	00H, 'o', 00H, '_', 00H, 'X', 00H, '_', 00H, 'I', 00H, ' ', 00H
	DB	'(', 00H, '%', 00H, 'd', 00H, '.', 00H, '%', 00H, 'd', 00H, ')'
	DB	00H, 00H, 00H				; `string'
CONST	ENDS
;	COMDAT ??_C@_1EC@NPMCAPKO@?$AAF?$AAr?$AAo?$AAm?$AAB?$AAy?$AAt?$AAe?$AAA?$AAr?$AAr?$AAa?$AAy?$AAn?$PP?$KJ@
CONST	SEGMENT
??_C@_1EC@NPMCAPKO@?$AAF?$AAr?$AAo?$AAm?$AAB?$AAy?$AAt?$AAe?$AAA?$AAr?$AAr?$AAa?$AAy?$AAn?$PP?$KJ@ DB 'F'
	DB	00H, 'r', 00H, 'o', 00H, 'm', 00H, 'B', 00H, 'y', 00H, 't', 00H
	DB	'e', 00H, 'A', 00H, 'r', 00H, 'r', 00H, 'a', 00H, 'y', 00H, 'n'
	DB	'0', 0a9H, '_0^', 0b3H, '0', 0fcH, '0', 0c9H, '0L0', 01fH, 'g', 085H
	DB	'_', 01aH, 090H, 08aH, '0g0o0j0D0(', 00H, '%', 00H, 'd', 00H, ')'
	DB	00H, 00H, 00H				; `string'
CONST	ENDS
;	COMDAT ??_C@_1BO@KFAEPDGK@?$AAF?$AAr?$AAo?$AAm?$AA_?$AAL?$AA?5?$AA?$CI?$AA?$CF?$AAd?$AA?4?$AA?$CF?$AAd?$AA?$CJ@
CONST	SEGMENT
??_C@_1BO@KFAEPDGK@?$AAF?$AAr?$AAo?$AAm?$AA_?$AAL?$AA?5?$AA?$CI?$AA?$CF?$AAd?$AA?4?$AA?$CF?$AAd?$AA?$CJ@ DB 'F'
	DB	00H, 'r', 00H, 'o', 00H, 'm', 00H, '_', 00H, 'L', 00H, ' ', 00H
	DB	'(', 00H, '%', 00H, 'd', 00H, '.', 00H, '%', 00H, 'd', 00H, ')'
	DB	00H, 00H, 00H				; `string'
CONST	ENDS
;	COMDAT ??_C@_1DE@ENHFPLEI@?$AAF?$AAr?$AAo?$AAm?$AA_?$AAL?$AAn?$PP?$KJ?$AA0?$PP?$LD?$PP?$PM?$PP?I?$AAL?$AA?$BP?$PP?$IF@
CONST	SEGMENT
??_C@_1DE@ENHFPLEI@?$AAF?$AAr?$AAo?$AAm?$AA_?$AAL?$AAn?$PP?$KJ?$AA0?$PP?$LD?$PP?$PM?$PP?I?$AAL?$AA?$BP?$PP?$IF@ DB 'F'
	DB	00H, 'r', 00H, 'o', 00H, 'm', 00H, '_', 00H, 'L', 00H, 'n0', 0a9H
	DB	'_0^', 0b3H, '0', 0fcH, '0', 0c9H, '0L0', 01fH, 'g', 085H, '_', 01aH
	DB	090H, 08aH, '0g0o0j0D0(', 00H, '%', 00H, 'd', 00H, ')', 00H, 00H
	DB	00H						; `string'
CONST	ENDS
;	COMDAT ??_C@_1BK@CBDJCOBM@?$PP?G?$PP?$PM?$PP?$LP?$AAn?$PP?$IF?$PP?$LJ?$AAL?$AA?$AA?$PP?t?$AAW?$AAj?$AAD@
CONST	SEGMENT
??_C@_1BK@CBDJCOBM@?$PP?G?$PP?$PM?$PP?$LP?$AAn?$PP?$IF?$PP?$LJ?$AAL?$AA?$AA?$PP?t?$AAW?$AAj?$AAD@ DB 0c7H
	DB	'0', 0fcH, '0', 0bfH, '0n0', 085H, 'Q', 0b9H, '[L0', 00H, 'N', 0f4H
	DB	081H, 'W0j0D0', 00H, 00H			; `string'
CONST	ENDS
;	COMDAT ??_C@_1DO@DOHJEMND@?$AAT?$AAo?$AAB?$AAy?$AAt?$AAe?$AAA?$AAr?$AAr?$AAa?$AAy?$AAn?$PP?$KJ?$AA0?$PP?$LD@
CONST	SEGMENT
??_C@_1DO@DOHJEMND@?$AAT?$AAo?$AAB?$AAy?$AAt?$AAe?$AAA?$AAr?$AAr?$AAa?$AAy?$AAn?$PP?$KJ?$AA0?$PP?$LD@ DB 'T'
	DB	00H, 'o', 00H, 'B', 00H, 'y', 00H, 't', 00H, 'e', 00H, 'A', 00H
	DB	'r', 00H, 'r', 00H, 'a', 00H, 'y', 00H, 'n0', 0a9H, '_0^', 0b3H
	DB	'0', 0fcH, '0', 0c9H, '0L0', 01fH, 'g', 085H, '_', 01aH, 090H, 08aH
	DB	'0g0o0j0D0(', 00H, '%', 00H, 'd', 00H, ')', 00H, 00H, 00H ; `string'
CONST	ENDS
;	COMDAT ??_C@_1BO@IOIOCDHF@?$AAF?$AAr?$AAo?$AAm?$AA_?$AAI?$AA?5?$AA?$CI?$AA?$CF?$AAd?$AA?4?$AA?$CF?$AAd?$AA?$CJ@
CONST	SEGMENT
??_C@_1BO@IOIOCDHF@?$AAF?$AAr?$AAo?$AAm?$AA_?$AAI?$AA?5?$AA?$CI?$AA?$CF?$AAd?$AA?4?$AA?$CF?$AAd?$AA?$CJ@ DB 'F'
	DB	00H, 'r', 00H, 'o', 00H, 'm', 00H, '_', 00H, 'I', 00H, ' ', 00H
	DB	'(', 00H, '%', 00H, 'd', 00H, '.', 00H, '%', 00H, 'd', 00H, ')'
	DB	00H, 00H, 00H				; `string'
CONST	ENDS
;	COMDAT ??_C@_1DE@FDJGGNN@?$AAF?$AAr?$AAo?$AAm?$AA_?$AAI?$AAn?$PP?$KJ?$AA0?$PP?$LD?$PP?$PM?$PP?I?$AAL?$AA?$BP?$PP?$IF@
CONST	SEGMENT
??_C@_1DE@FDJGGNN@?$AAF?$AAr?$AAo?$AAm?$AA_?$AAI?$AAn?$PP?$KJ?$AA0?$PP?$LD?$PP?$PM?$PP?I?$AAL?$AA?$BP?$PP?$IF@ DB 'F'
	DB	00H, 'r', 00H, 'o', 00H, 'm', 00H, '_', 00H, 'I', 00H, 'n0', 0a9H
	DB	'_0^', 0b3H, '0', 0fcH, '0', 0c9H, '0L0', 01fH, 'g', 085H, '_', 01aH
	DB	090H, 08aH, '0g0o0j0D0(', 00H, '%', 00H, 'd', 00H, ')', 00H, 00H
	DB	00H						; `string'
CONST	ENDS
;	COMDAT xdata
xdata	SEGMENT
$unwind$_EQUALS_MEMORY DD 025053901H
	DD	011d2322H
	DD	07016001dH
	DD	05015H
xdata	ENDS
;	COMDAT xdata
xdata	SEGMENT
$unwind$TEST_To_X_L DD 025054a19H
	DD	011d2322H
	DD	07016002fH
	DD	05015H
	DD	imagerel __GSHandlerCheck
	DD	0160H
xdata	ENDS
;	COMDAT CONST
CONST	SEGMENT
TEST_To_X_L$rtcName$0 DB 078H
	DB	00H
	ORG $+2
TEST_To_X_L$rtcName$1 DB 072H
	DB	076H
	DB	061H
	DB	06cH
	DB	075H
	DB	065H
	DB	00H
	ORG $+5
TEST_To_X_L$rtcVarDesc DD 048H
	DD	08H
	DQ	FLAT:TEST_To_X_L$rtcName$1
	DD	028H
	DD	08H
	DQ	FLAT:TEST_To_X_L$rtcName$0
	ORG $+96
TEST_To_X_L$rtcFrameData DD 02H
	DD	00H
	DQ	FLAT:TEST_To_X_L$rtcVarDesc
CONST	ENDS
;	COMDAT xdata
xdata	SEGMENT
$unwind$TEST_To_X_I DD 025054a19H
	DD	011d2322H
	DD	07016002fH
	DD	05015H
	DD	imagerel __GSHandlerCheck
	DD	0160H
xdata	ENDS
;	COMDAT CONST
CONST	SEGMENT
TEST_To_X_I$rtcName$0 DB 078H
	DB	00H
	ORG $+2
TEST_To_X_I$rtcName$1 DB 072H
	DB	076H
	DB	061H
	DB	06cH
	DB	075H
	DB	065H
	DB	00H
	ORG $+5
TEST_To_X_I$rtcVarDesc DD 044H
	DD	04H
	DQ	FLAT:TEST_To_X_I$rtcName$1
	DD	028H
	DD	08H
	DQ	FLAT:TEST_To_X_I$rtcName$0
	ORG $+96
TEST_To_X_I$rtcFrameData DD 02H
	DD	00H
	DQ	FLAT:TEST_To_X_I$rtcVarDesc
CONST	ENDS
;	COMDAT xdata
xdata	SEGMENT
$unwind$TEST_From_L DD 025054a19H
	DD	011d2322H
	DD	070160053H
	DD	05015H
	DD	imagerel __GSHandlerCheck
	DD	0280H
xdata	ENDS
;	COMDAT CONST
CONST	SEGMENT
TEST_From_L$rtcName$0 DB 078H
	DB	00H
	ORG $+6
TEST_From_L$rtcName$1 DB 072H
	DB	062H
	DB	075H
	DB	066H
	DB	066H
	DB	065H
	DB	072H
	DB	00H
TEST_From_L$rtcName$2 DB 072H
	DB	06cH
	DB	065H
	DB	06eH
	DB	067H
	DB	074H
	DB	068H
	DB	00H
	ORG $+8
TEST_From_L$rtcVarDesc DD 0168H
	DD	08H
	DQ	FLAT:TEST_From_L$rtcName$2
	DD	050H
	DD	0100H
	DQ	FLAT:TEST_From_L$rtcName$1
	DD	028H
	DD	08H
	DQ	FLAT:TEST_From_L$rtcName$0
	ORG $+144
TEST_From_L$rtcFrameData DD 03H
	DD	00H
	DQ	FLAT:TEST_From_L$rtcVarDesc
CONST	ENDS
;	COMDAT xdata
xdata	SEGMENT
$unwind$TEST_From_I DD 025054a19H
	DD	011d2322H
	DD	070160053H
	DD	05015H
	DD	imagerel __GSHandlerCheck
	DD	0280H
xdata	ENDS
;	COMDAT CONST
CONST	SEGMENT
TEST_From_I$rtcName$0 DB 078H
	DB	00H
	ORG $+6
TEST_From_I$rtcName$1 DB 072H
	DB	062H
	DB	075H
	DB	066H
	DB	066H
	DB	065H
	DB	072H
	DB	00H
TEST_From_I$rtcName$2 DB 072H
	DB	06cH
	DB	065H
	DB	06eH
	DB	067H
	DB	074H
	DB	068H
	DB	00H
	ORG $+8
TEST_From_I$rtcVarDesc DD 0168H
	DD	08H
	DQ	FLAT:TEST_From_I$rtcName$2
	DD	050H
	DD	0100H
	DQ	FLAT:TEST_From_I$rtcName$1
	DD	028H
	DD	08H
	DQ	FLAT:TEST_From_I$rtcName$0
	ORG $+144
TEST_From_I$rtcFrameData DD 03H
	DD	00H
	DQ	FLAT:TEST_From_I$rtcVarDesc
CONST	ENDS
; Function compile flags: /Odt
;	COMDAT __JustMyCode_Default
_TEXT	SEGMENT
__JustMyCode_Default PROC				; COMDAT
	ret	0
__JustMyCode_Default ENDP
_TEXT	ENDS
; Function compile flags: /Odtp /RTCsu /ZI
; File z:\sources\lunor\repos\rougemeilland\palmtree.math.core.sint\palmtree.math.core.sint\pmc_sint_debug.h
;	COMDAT _EQUALS_MEMORY
_TEXT	SEGMENT
buffer1$ = 224
count1$ = 232
buffer2$ = 240
count2$ = 248
_EQUALS_MEMORY PROC					; COMDAT

; 138  : {

	mov	QWORD PTR [rsp+32], r9
	mov	QWORD PTR [rsp+24], r8
	mov	QWORD PTR [rsp+16], rdx
	mov	QWORD PTR [rsp+8], rcx
	push	rbp
	push	rdi
	sub	rsp, 232				; 000000e8H
	lea	rbp, QWORD PTR [rsp+32]
	mov	rdi, rsp
	mov	ecx, 58					; 0000003aH
	mov	eax, -858993460				; ccccccccH
	rep stosd
	mov	rcx, QWORD PTR [rsp+264]
	lea	rcx, OFFSET FLAT:__059414E1_pmc_sint_debug@h
	call	__CheckForDebuggerJustMyCode

; 139  :     if (count1 != count2)

	mov	rax, QWORD PTR count2$[rbp]
	cmp	QWORD PTR count1$[rbp], rax
	je	SHORT $LN4@EQUALS_MEM

; 140  :         return (-1);

	mov	eax, -1
	jmp	SHORT $LN1@EQUALS_MEM
$LN4@EQUALS_MEM:
$LN2@EQUALS_MEM:

; 141  :     while (count1 > 0)

	cmp	QWORD PTR count1$[rbp], 0
	jbe	SHORT $LN3@EQUALS_MEM

; 142  :     {
; 143  :         if (*buffer1 != *buffer2)

	mov	rax, QWORD PTR buffer1$[rbp]
	movzx	eax, BYTE PTR [rax]
	mov	rcx, QWORD PTR buffer2$[rbp]
	movzx	ecx, BYTE PTR [rcx]
	cmp	eax, ecx
	je	SHORT $LN5@EQUALS_MEM

; 144  :             return (-1);

	mov	eax, -1
	jmp	SHORT $LN1@EQUALS_MEM
$LN5@EQUALS_MEM:

; 145  :         ++buffer1;

	mov	rax, QWORD PTR buffer1$[rbp]
	inc	rax
	mov	QWORD PTR buffer1$[rbp], rax

; 146  :         ++buffer2;

	mov	rax, QWORD PTR buffer2$[rbp]
	inc	rax
	mov	QWORD PTR buffer2$[rbp], rax

; 147  :         --count1;

	mov	rax, QWORD PTR count1$[rbp]
	dec	rax
	mov	QWORD PTR count1$[rbp], rax

; 148  :     }

	jmp	SHORT $LN2@EQUALS_MEM
$LN3@EQUALS_MEM:

; 149  :     return (0);

	xor	eax, eax
$LN1@EQUALS_MEM:

; 150  : }

	lea	rsp, QWORD PTR [rbp+200]
	pop	rdi
	pop	rbp
	ret	0
_EQUALS_MEMORY ENDP
_TEXT	ENDS
; Function compile flags: /Odtp /RTCsu /ZI
; File z:\sources\lunor\repos\rougemeilland\palmtree.math.core.sint\palmtree.math.core.sint\test_op_from_to.c
;	COMDAT TEST_To_X_L
_TEXT	SEGMENT
x$ = 8
rvalue$ = 40
result$ = 68
x_result$ = 100
tv134 = 308
tv91 = 308
tv74 = 308
tv82 = 312
tv64 = 312
__$ArrayPad$ = 320
env$ = 368
ep$ = 376
no$ = 384
buf$ = 392
buf_size$ = 400
desired_result_code$ = 408
desired_rvalue$ = 416
TEST_To_X_L PROC					; COMDAT

; 74   : {

$LN11:
	mov	QWORD PTR [rsp+32], r9
	mov	DWORD PTR [rsp+24], r8d
	mov	QWORD PTR [rsp+16], rdx
	mov	QWORD PTR [rsp+8], rcx
	push	rbp
	push	rdi
	sub	rsp, 376				; 00000178H
	lea	rbp, QWORD PTR [rsp+32]
	mov	rdi, rsp
	mov	ecx, 94					; 0000005eH
	mov	eax, -858993460				; ccccccccH
	rep stosd
	mov	rcx, QWORD PTR [rsp+408]
	mov	rax, QWORD PTR __security_cookie
	xor	rax, rbp
	mov	QWORD PTR __$ArrayPad$[rbp], rax
	lea	rcx, OFFSET FLAT:__3B9431F8_test_op_from_to@c
	call	__CheckForDebuggerJustMyCode

; 75   :     PMC_HANDLE_SINT x;
; 76   :     __int64 rvalue;
; 77   :     PMC_STATUS_CODE result;
; 78   :     PMC_STATUS_CODE x_result;
; 79   :     TEST_Assert(env, FormatTestLabel(L"To_X_L (%d.%d)", no, 1), (x_result = ep->FromByteArray(buf, buf_size, &x)) == PMC_STATUS_OK, FormatTestMesssage(L"FromByteArrayの復帰コードが期待通りではない(%d)", x_result));

	lea	r8, QWORD PTR x$[rbp]
	mov	rdx, QWORD PTR buf_size$[rbp]
	mov	rcx, QWORD PTR buf$[rbp]
	mov	rax, QWORD PTR ep$[rbp]
	call	QWORD PTR [rax+600]
	mov	DWORD PTR x_result$[rbp], eax
	cmp	DWORD PTR x_result$[rbp], 0
	jne	SHORT $LN5@TEST_To_X_
	mov	DWORD PTR tv74[rbp], 1
	jmp	SHORT $LN6@TEST_To_X_
$LN5@TEST_To_X_:
	mov	DWORD PTR tv74[rbp], 0
$LN6@TEST_To_X_:
	mov	edx, DWORD PTR x_result$[rbp]
	lea	rcx, OFFSET FLAT:??_C@_1EC@NPMCAPKO@?$AAF?$AAr?$AAo?$AAm?$AAB?$AAy?$AAt?$AAe?$AAA?$AAr?$AAr?$AAa?$AAy?$AAn?$PP?$KJ@
	call	FormatTestMesssage
	mov	QWORD PTR tv64[rbp], rax
	mov	r8d, 1
	mov	edx, DWORD PTR no$[rbp]
	lea	rcx, OFFSET FLAT:??_C@_1BO@PAKCKINP@?$AAT?$AAo?$AA_?$AAX?$AA_?$AAL?$AA?5?$AA?$CI?$AA?$CF?$AAd?$AA?4?$AA?$CF?$AAd?$AA?$CJ@
	call	FormatTestLabel
	mov	rcx, QWORD PTR tv64[rbp]
	mov	r9, rcx
	mov	r8d, DWORD PTR tv74[rbp]
	mov	rdx, rax
	mov	rcx, QWORD PTR env$[rbp]
	call	TEST_Assert

; 80   :     TEST_Assert(env, FormatTestLabel(L"To_X_L (%d.%d)", no, 2), (result = ep->To_X_L(x, &rvalue)) == desired_result_code, FormatTestMesssage(L"To_X_Iの復帰コードが期待通りではない(%d)", result));

	lea	rdx, QWORD PTR rvalue$[rbp]
	mov	rcx, QWORD PTR x$[rbp]
	mov	rax, QWORD PTR ep$[rbp]
	call	QWORD PTR [rax+632]
	mov	DWORD PTR result$[rbp], eax
	mov	eax, DWORD PTR desired_result_code$[rbp]
	cmp	DWORD PTR result$[rbp], eax
	jne	SHORT $LN7@TEST_To_X_
	mov	DWORD PTR tv91[rbp], 1
	jmp	SHORT $LN8@TEST_To_X_
$LN7@TEST_To_X_:
	mov	DWORD PTR tv91[rbp], 0
$LN8@TEST_To_X_:
	mov	edx, DWORD PTR result$[rbp]
	lea	rcx, OFFSET FLAT:??_C@_1DE@FEDCALLC@?$AAT?$AAo?$AA_?$AAX?$AA_?$AAI?$AAn?$PP?$KJ?$AA0?$PP?$LD?$PP?$PM?$PP?I?$AAL?$AA?$BP?$PP?$IF@
	call	FormatTestMesssage
	mov	QWORD PTR tv82[rbp], rax
	mov	r8d, 2
	mov	edx, DWORD PTR no$[rbp]
	lea	rcx, OFFSET FLAT:??_C@_1BO@PAKCKINP@?$AAT?$AAo?$AA_?$AAX?$AA_?$AAL?$AA?5?$AA?$CI?$AA?$CF?$AAd?$AA?4?$AA?$CF?$AAd?$AA?$CJ@
	call	FormatTestLabel
	mov	rcx, QWORD PTR tv82[rbp]
	mov	r9, rcx
	mov	r8d, DWORD PTR tv91[rbp]
	mov	rdx, rax
	mov	rcx, QWORD PTR env$[rbp]
	call	TEST_Assert

; 81   :     if (desired_result_code == PMC_STATUS_OK)

	cmp	DWORD PTR desired_result_code$[rbp], 0
	jne	SHORT $LN2@TEST_To_X_

; 82   :         TEST_Assert(env, FormatTestLabel(L"To_X_L (%d.%d)", no, 3), rvalue == desired_rvalue, L"データの内容が一致しない");

	mov	rax, QWORD PTR desired_rvalue$[rbp]
	cmp	QWORD PTR rvalue$[rbp], rax
	jne	SHORT $LN9@TEST_To_X_
	mov	DWORD PTR tv134[rbp], 1
	jmp	SHORT $LN10@TEST_To_X_
$LN9@TEST_To_X_:
	mov	DWORD PTR tv134[rbp], 0
$LN10@TEST_To_X_:
	mov	r8d, 3
	mov	edx, DWORD PTR no$[rbp]
	lea	rcx, OFFSET FLAT:??_C@_1BO@PAKCKINP@?$AAT?$AAo?$AA_?$AAX?$AA_?$AAL?$AA?5?$AA?$CI?$AA?$CF?$AAd?$AA?4?$AA?$CF?$AAd?$AA?$CJ@
	call	FormatTestLabel
	lea	r9, OFFSET FLAT:??_C@_1BK@CBDJCOBM@?$PP?G?$PP?$PM?$PP?$LP?$AAn?$PP?$IF?$PP?$LJ?$AAL?$AA?$AA?$PP?t?$AAW?$AAj?$AAD@
	mov	r8d, DWORD PTR tv134[rbp]
	mov	rdx, rax
	mov	rcx, QWORD PTR env$[rbp]
	call	TEST_Assert
$LN2@TEST_To_X_:

; 83   :     if (x_result == PMC_STATUS_OK)

	cmp	DWORD PTR x_result$[rbp], 0
	jne	SHORT $LN3@TEST_To_X_

; 84   :         ep->Dispose(x);

	mov	rcx, QWORD PTR x$[rbp]
	mov	rax, QWORD PTR ep$[rbp]
	call	QWORD PTR [rax+584]
$LN3@TEST_To_X_:

; 85   : }

	lea	rcx, QWORD PTR [rbp-32]
	lea	rdx, OFFSET FLAT:TEST_To_X_L$rtcFrameData
	call	_RTC_CheckStackVars
	mov	rcx, QWORD PTR __$ArrayPad$[rbp]
	xor	rcx, rbp
	call	__security_check_cookie
	lea	rsp, QWORD PTR [rbp+344]
	pop	rdi
	pop	rbp
	ret	0
TEST_To_X_L ENDP
_TEXT	ENDS
; Function compile flags: /Odtp /RTCsu /ZI
; File z:\sources\lunor\repos\rougemeilland\palmtree.math.core.sint\palmtree.math.core.sint\test_op_from_to.c
;	COMDAT TEST_To_X_I
_TEXT	SEGMENT
x$ = 8
rvalue$ = 36
result$ = 68
x_result$ = 100
tv134 = 308
tv91 = 308
tv74 = 308
tv82 = 312
tv64 = 312
__$ArrayPad$ = 320
env$ = 368
ep$ = 376
no$ = 384
buf$ = 392
buf_size$ = 400
desired_result_code$ = 408
desired_rvalue$ = 416
TEST_To_X_I PROC					; COMDAT

; 60   : {

$LN11:
	mov	QWORD PTR [rsp+32], r9
	mov	DWORD PTR [rsp+24], r8d
	mov	QWORD PTR [rsp+16], rdx
	mov	QWORD PTR [rsp+8], rcx
	push	rbp
	push	rdi
	sub	rsp, 376				; 00000178H
	lea	rbp, QWORD PTR [rsp+32]
	mov	rdi, rsp
	mov	ecx, 94					; 0000005eH
	mov	eax, -858993460				; ccccccccH
	rep stosd
	mov	rcx, QWORD PTR [rsp+408]
	mov	rax, QWORD PTR __security_cookie
	xor	rax, rbp
	mov	QWORD PTR __$ArrayPad$[rbp], rax
	lea	rcx, OFFSET FLAT:__3B9431F8_test_op_from_to@c
	call	__CheckForDebuggerJustMyCode

; 61   :     PMC_HANDLE_SINT x;
; 62   :     __int32 rvalue;
; 63   :     PMC_STATUS_CODE result;
; 64   :     PMC_STATUS_CODE x_result;
; 65   :     TEST_Assert(env, FormatTestLabel(L"To_X_I (%d.%d)", no, 1), (x_result = ep->FromByteArray(buf, buf_size, &x)) == PMC_STATUS_OK, FormatTestMesssage(L"FromByteArrayの復帰コードが期待通りではない(%d)", x_result));

	lea	r8, QWORD PTR x$[rbp]
	mov	rdx, QWORD PTR buf_size$[rbp]
	mov	rcx, QWORD PTR buf$[rbp]
	mov	rax, QWORD PTR ep$[rbp]
	call	QWORD PTR [rax+600]
	mov	DWORD PTR x_result$[rbp], eax
	cmp	DWORD PTR x_result$[rbp], 0
	jne	SHORT $LN5@TEST_To_X_
	mov	DWORD PTR tv74[rbp], 1
	jmp	SHORT $LN6@TEST_To_X_
$LN5@TEST_To_X_:
	mov	DWORD PTR tv74[rbp], 0
$LN6@TEST_To_X_:
	mov	edx, DWORD PTR x_result$[rbp]
	lea	rcx, OFFSET FLAT:??_C@_1EC@NPMCAPKO@?$AAF?$AAr?$AAo?$AAm?$AAB?$AAy?$AAt?$AAe?$AAA?$AAr?$AAr?$AAa?$AAy?$AAn?$PP?$KJ@
	call	FormatTestMesssage
	mov	QWORD PTR tv64[rbp], rax
	mov	r8d, 1
	mov	edx, DWORD PTR no$[rbp]
	lea	rcx, OFFSET FLAT:??_C@_1BO@NLCIHIMA@?$AAT?$AAo?$AA_?$AAX?$AA_?$AAI?$AA?5?$AA?$CI?$AA?$CF?$AAd?$AA?4?$AA?$CF?$AAd?$AA?$CJ@
	call	FormatTestLabel
	mov	rcx, QWORD PTR tv64[rbp]
	mov	r9, rcx
	mov	r8d, DWORD PTR tv74[rbp]
	mov	rdx, rax
	mov	rcx, QWORD PTR env$[rbp]
	call	TEST_Assert

; 66   :     TEST_Assert(env, FormatTestLabel(L"To_X_I (%d.%d)", no, 2), (result = ep->To_X_I(x, &rvalue)) == desired_result_code, FormatTestMesssage(L"To_X_Iの復帰コードが期待通りではない(%d)", result));

	lea	rdx, QWORD PTR rvalue$[rbp]
	mov	rcx, QWORD PTR x$[rbp]
	mov	rax, QWORD PTR ep$[rbp]
	call	QWORD PTR [rax+624]
	mov	DWORD PTR result$[rbp], eax
	mov	eax, DWORD PTR desired_result_code$[rbp]
	cmp	DWORD PTR result$[rbp], eax
	jne	SHORT $LN7@TEST_To_X_
	mov	DWORD PTR tv91[rbp], 1
	jmp	SHORT $LN8@TEST_To_X_
$LN7@TEST_To_X_:
	mov	DWORD PTR tv91[rbp], 0
$LN8@TEST_To_X_:
	mov	edx, DWORD PTR result$[rbp]
	lea	rcx, OFFSET FLAT:??_C@_1DE@FEDCALLC@?$AAT?$AAo?$AA_?$AAX?$AA_?$AAI?$AAn?$PP?$KJ?$AA0?$PP?$LD?$PP?$PM?$PP?I?$AAL?$AA?$BP?$PP?$IF@
	call	FormatTestMesssage
	mov	QWORD PTR tv82[rbp], rax
	mov	r8d, 2
	mov	edx, DWORD PTR no$[rbp]
	lea	rcx, OFFSET FLAT:??_C@_1BO@NLCIHIMA@?$AAT?$AAo?$AA_?$AAX?$AA_?$AAI?$AA?5?$AA?$CI?$AA?$CF?$AAd?$AA?4?$AA?$CF?$AAd?$AA?$CJ@
	call	FormatTestLabel
	mov	rcx, QWORD PTR tv82[rbp]
	mov	r9, rcx
	mov	r8d, DWORD PTR tv91[rbp]
	mov	rdx, rax
	mov	rcx, QWORD PTR env$[rbp]
	call	TEST_Assert

; 67   :     if (desired_result_code == PMC_STATUS_OK)

	cmp	DWORD PTR desired_result_code$[rbp], 0
	jne	SHORT $LN2@TEST_To_X_

; 68   :         TEST_Assert(env, FormatTestLabel(L"To_X_I (%d.%d)", no, 3), rvalue == desired_rvalue, L"データの内容が一致しない");

	mov	eax, DWORD PTR desired_rvalue$[rbp]
	cmp	DWORD PTR rvalue$[rbp], eax
	jne	SHORT $LN9@TEST_To_X_
	mov	DWORD PTR tv134[rbp], 1
	jmp	SHORT $LN10@TEST_To_X_
$LN9@TEST_To_X_:
	mov	DWORD PTR tv134[rbp], 0
$LN10@TEST_To_X_:
	mov	r8d, 3
	mov	edx, DWORD PTR no$[rbp]
	lea	rcx, OFFSET FLAT:??_C@_1BO@NLCIHIMA@?$AAT?$AAo?$AA_?$AAX?$AA_?$AAI?$AA?5?$AA?$CI?$AA?$CF?$AAd?$AA?4?$AA?$CF?$AAd?$AA?$CJ@
	call	FormatTestLabel
	lea	r9, OFFSET FLAT:??_C@_1BK@CBDJCOBM@?$PP?G?$PP?$PM?$PP?$LP?$AAn?$PP?$IF?$PP?$LJ?$AAL?$AA?$AA?$PP?t?$AAW?$AAj?$AAD@
	mov	r8d, DWORD PTR tv134[rbp]
	mov	rdx, rax
	mov	rcx, QWORD PTR env$[rbp]
	call	TEST_Assert
$LN2@TEST_To_X_:

; 69   :     if (x_result == PMC_STATUS_OK)

	cmp	DWORD PTR x_result$[rbp], 0
	jne	SHORT $LN3@TEST_To_X_

; 70   :         ep->Dispose(x);

	mov	rcx, QWORD PTR x$[rbp]
	mov	rax, QWORD PTR ep$[rbp]
	call	QWORD PTR [rax+584]
$LN3@TEST_To_X_:

; 71   : }

	lea	rcx, QWORD PTR [rbp-32]
	lea	rdx, OFFSET FLAT:TEST_To_X_I$rtcFrameData
	call	_RTC_CheckStackVars
	mov	rcx, QWORD PTR __$ArrayPad$[rbp]
	xor	rcx, rbp
	call	__security_check_cookie
	lea	rsp, QWORD PTR [rbp+344]
	pop	rdi
	pop	rbp
	ret	0
TEST_To_X_I ENDP
_TEXT	ENDS
; Function compile flags: /Odtp /RTCsu /ZI
; File z:\sources\lunor\repos\rougemeilland\palmtree.math.core.sint\palmtree.math.core.sint\test_op_from_to.c
;	COMDAT TEST_From_L
_TEXT	SEGMENT
x$ = 8
rbuffer$ = 48
rlength$ = 328
result$ = 356
x_result$ = 388
tv139 = 596
tv92 = 596
tv73 = 596
tv81 = 600
tv64 = 600
__$ArrayPad$ = 608
env$ = 656
ep$ = 664
no$ = 672
v$ = 680
buf$ = 688
buf_size$ = 696
TEST_From_L PROC					; COMDAT

; 46   : {

$LN10:
	mov	QWORD PTR [rsp+32], r9
	mov	DWORD PTR [rsp+24], r8d
	mov	QWORD PTR [rsp+16], rdx
	mov	QWORD PTR [rsp+8], rcx
	push	rbp
	push	rdi
	sub	rsp, 664				; 00000298H
	lea	rbp, QWORD PTR [rsp+32]
	mov	rdi, rsp
	mov	ecx, 166				; 000000a6H
	mov	eax, -858993460				; ccccccccH
	rep stosd
	mov	rcx, QWORD PTR [rsp+696]
	mov	rax, QWORD PTR __security_cookie
	xor	rax, rbp
	mov	QWORD PTR __$ArrayPad$[rbp], rax
	lea	rcx, OFFSET FLAT:__3B9431F8_test_op_from_to@c
	call	__CheckForDebuggerJustMyCode

; 47   :     PMC_HANDLE_SINT x;
; 48   :     unsigned char rbuffer[256];
; 49   :     size_t rlength;
; 50   :     PMC_STATUS_CODE result;
; 51   :     PMC_STATUS_CODE x_result;
; 52   :     TEST_Assert(env, FormatTestLabel(L"From_L (%d.%d)", no, 1), (x_result = ep->From_L(v, &x)) == PMC_STATUS_OK, FormatTestMesssage(L"From_Lの復帰コードが期待通りではない(%d)", x_result));

	lea	rdx, QWORD PTR x$[rbp]
	mov	rcx, QWORD PTR v$[rbp]
	mov	rax, QWORD PTR ep$[rbp]
	call	QWORD PTR [rax+576]
	mov	DWORD PTR x_result$[rbp], eax
	cmp	DWORD PTR x_result$[rbp], 0
	jne	SHORT $LN4@TEST_From_
	mov	DWORD PTR tv73[rbp], 1
	jmp	SHORT $LN5@TEST_From_
$LN4@TEST_From_:
	mov	DWORD PTR tv73[rbp], 0
$LN5@TEST_From_:
	mov	edx, DWORD PTR x_result$[rbp]
	lea	rcx, OFFSET FLAT:??_C@_1DE@ENHFPLEI@?$AAF?$AAr?$AAo?$AAm?$AA_?$AAL?$AAn?$PP?$KJ?$AA0?$PP?$LD?$PP?$PM?$PP?I?$AAL?$AA?$BP?$PP?$IF@
	call	FormatTestMesssage
	mov	QWORD PTR tv64[rbp], rax
	mov	r8d, 1
	mov	edx, DWORD PTR no$[rbp]
	lea	rcx, OFFSET FLAT:??_C@_1BO@KFAEPDGK@?$AAF?$AAr?$AAo?$AAm?$AA_?$AAL?$AA?5?$AA?$CI?$AA?$CF?$AAd?$AA?4?$AA?$CF?$AAd?$AA?$CJ@
	call	FormatTestLabel
	mov	rcx, QWORD PTR tv64[rbp]
	mov	r9, rcx
	mov	r8d, DWORD PTR tv73[rbp]
	mov	rdx, rax
	mov	rcx, QWORD PTR env$[rbp]
	call	TEST_Assert

; 53   :     TEST_Assert(env, FormatTestLabel(L"From_L (%d.%d)", no, 2), (result = ep->ToByteArray(x, rbuffer, sizeof(rbuffer), &rlength)) == PMC_STATUS_OK, FormatTestMesssage(L"ToByteArrayの復帰コードが期待通りではない(%d)", result));

	lea	r9, QWORD PTR rlength$[rbp]
	mov	r8d, 256				; 00000100H
	lea	rdx, QWORD PTR rbuffer$[rbp]
	mov	rcx, QWORD PTR x$[rbp]
	mov	rax, QWORD PTR ep$[rbp]
	call	QWORD PTR [rax+608]
	mov	DWORD PTR result$[rbp], eax
	cmp	DWORD PTR result$[rbp], 0
	jne	SHORT $LN6@TEST_From_
	mov	DWORD PTR tv92[rbp], 1
	jmp	SHORT $LN7@TEST_From_
$LN6@TEST_From_:
	mov	DWORD PTR tv92[rbp], 0
$LN7@TEST_From_:
	mov	edx, DWORD PTR result$[rbp]
	lea	rcx, OFFSET FLAT:??_C@_1DO@DOHJEMND@?$AAT?$AAo?$AAB?$AAy?$AAt?$AAe?$AAA?$AAr?$AAr?$AAa?$AAy?$AAn?$PP?$KJ?$AA0?$PP?$LD@
	call	FormatTestMesssage
	mov	QWORD PTR tv81[rbp], rax
	mov	r8d, 2
	mov	edx, DWORD PTR no$[rbp]
	lea	rcx, OFFSET FLAT:??_C@_1BO@KFAEPDGK@?$AAF?$AAr?$AAo?$AAm?$AA_?$AAL?$AA?5?$AA?$CI?$AA?$CF?$AAd?$AA?4?$AA?$CF?$AAd?$AA?$CJ@
	call	FormatTestLabel
	mov	rcx, QWORD PTR tv81[rbp]
	mov	r9, rcx
	mov	r8d, DWORD PTR tv92[rbp]
	mov	rdx, rax
	mov	rcx, QWORD PTR env$[rbp]
	call	TEST_Assert

; 54   :     TEST_Assert(env, FormatTestLabel(L"From_L (%d.%d)", no, 3), _EQUALS_MEMORY(rbuffer, rlength, buf, buf_size) == 0, L"データの内容が一致しない");

	mov	r9, QWORD PTR buf_size$[rbp]
	mov	r8, QWORD PTR buf$[rbp]
	mov	rdx, QWORD PTR rlength$[rbp]
	lea	rcx, QWORD PTR rbuffer$[rbp]
	call	_EQUALS_MEMORY
	test	eax, eax
	jne	SHORT $LN8@TEST_From_
	mov	DWORD PTR tv139[rbp], 1
	jmp	SHORT $LN9@TEST_From_
$LN8@TEST_From_:
	mov	DWORD PTR tv139[rbp], 0
$LN9@TEST_From_:
	mov	r8d, 3
	mov	edx, DWORD PTR no$[rbp]
	lea	rcx, OFFSET FLAT:??_C@_1BO@KFAEPDGK@?$AAF?$AAr?$AAo?$AAm?$AA_?$AAL?$AA?5?$AA?$CI?$AA?$CF?$AAd?$AA?4?$AA?$CF?$AAd?$AA?$CJ@
	call	FormatTestLabel
	lea	r9, OFFSET FLAT:??_C@_1BK@CBDJCOBM@?$PP?G?$PP?$PM?$PP?$LP?$AAn?$PP?$IF?$PP?$LJ?$AAL?$AA?$AA?$PP?t?$AAW?$AAj?$AAD@
	mov	r8d, DWORD PTR tv139[rbp]
	mov	rdx, rax
	mov	rcx, QWORD PTR env$[rbp]
	call	TEST_Assert

; 55   :     if (x_result == PMC_STATUS_OK)

	cmp	DWORD PTR x_result$[rbp], 0
	jne	SHORT $LN2@TEST_From_

; 56   :         ep->Dispose(x);

	mov	rcx, QWORD PTR x$[rbp]
	mov	rax, QWORD PTR ep$[rbp]
	call	QWORD PTR [rax+584]
$LN2@TEST_From_:

; 57   : }

	lea	rcx, QWORD PTR [rbp-32]
	lea	rdx, OFFSET FLAT:TEST_From_L$rtcFrameData
	call	_RTC_CheckStackVars
	mov	rcx, QWORD PTR __$ArrayPad$[rbp]
	xor	rcx, rbp
	call	__security_check_cookie
	lea	rsp, QWORD PTR [rbp+632]
	pop	rdi
	pop	rbp
	ret	0
TEST_From_L ENDP
_TEXT	ENDS
; Function compile flags: /Odtp /RTCsu /ZI
; File z:\sources\lunor\repos\rougemeilland\palmtree.math.core.sint\palmtree.math.core.sint\test_op_from_to.c
;	COMDAT TEST_From_I
_TEXT	SEGMENT
x$ = 8
rbuffer$ = 48
rlength$ = 328
result$ = 356
x_result$ = 388
tv139 = 596
tv92 = 596
tv73 = 596
tv81 = 600
tv64 = 600
__$ArrayPad$ = 608
env$ = 656
ep$ = 664
no$ = 672
v$ = 680
buf$ = 688
buf_size$ = 696
TEST_From_I PROC					; COMDAT

; 32   : {

$LN10:
	mov	DWORD PTR [rsp+32], r9d
	mov	DWORD PTR [rsp+24], r8d
	mov	QWORD PTR [rsp+16], rdx
	mov	QWORD PTR [rsp+8], rcx
	push	rbp
	push	rdi
	sub	rsp, 664				; 00000298H
	lea	rbp, QWORD PTR [rsp+32]
	mov	rdi, rsp
	mov	ecx, 166				; 000000a6H
	mov	eax, -858993460				; ccccccccH
	rep stosd
	mov	rcx, QWORD PTR [rsp+696]
	mov	rax, QWORD PTR __security_cookie
	xor	rax, rbp
	mov	QWORD PTR __$ArrayPad$[rbp], rax
	lea	rcx, OFFSET FLAT:__3B9431F8_test_op_from_to@c
	call	__CheckForDebuggerJustMyCode

; 33   :     PMC_HANDLE_SINT x;
; 34   :     unsigned char rbuffer[256];
; 35   :     size_t rlength;
; 36   :     PMC_STATUS_CODE result;
; 37   :     PMC_STATUS_CODE x_result;
; 38   :     TEST_Assert(env, FormatTestLabel(L"From_I (%d.%d)", no, 1), (x_result = ep->From_I(v, &x)) == PMC_STATUS_OK, FormatTestMesssage(L"From_Iの復帰コードが期待通りではない(%d)", x_result));

	lea	rdx, QWORD PTR x$[rbp]
	mov	ecx, DWORD PTR v$[rbp]
	mov	rax, QWORD PTR ep$[rbp]
	call	QWORD PTR [rax+568]
	mov	DWORD PTR x_result$[rbp], eax
	cmp	DWORD PTR x_result$[rbp], 0
	jne	SHORT $LN4@TEST_From_
	mov	DWORD PTR tv73[rbp], 1
	jmp	SHORT $LN5@TEST_From_
$LN4@TEST_From_:
	mov	DWORD PTR tv73[rbp], 0
$LN5@TEST_From_:
	mov	edx, DWORD PTR x_result$[rbp]
	lea	rcx, OFFSET FLAT:??_C@_1DE@FDJGGNN@?$AAF?$AAr?$AAo?$AAm?$AA_?$AAI?$AAn?$PP?$KJ?$AA0?$PP?$LD?$PP?$PM?$PP?I?$AAL?$AA?$BP?$PP?$IF@
	call	FormatTestMesssage
	mov	QWORD PTR tv64[rbp], rax
	mov	r8d, 1
	mov	edx, DWORD PTR no$[rbp]
	lea	rcx, OFFSET FLAT:??_C@_1BO@IOIOCDHF@?$AAF?$AAr?$AAo?$AAm?$AA_?$AAI?$AA?5?$AA?$CI?$AA?$CF?$AAd?$AA?4?$AA?$CF?$AAd?$AA?$CJ@
	call	FormatTestLabel
	mov	rcx, QWORD PTR tv64[rbp]
	mov	r9, rcx
	mov	r8d, DWORD PTR tv73[rbp]
	mov	rdx, rax
	mov	rcx, QWORD PTR env$[rbp]
	call	TEST_Assert

; 39   :     TEST_Assert(env, FormatTestLabel(L"From_I (%d.%d)", no, 2), (result = ep->ToByteArray(x, rbuffer, sizeof(rbuffer), &rlength)) == PMC_STATUS_OK, FormatTestMesssage(L"ToByteArrayの復帰コードが期待通りではない(%d)", result));

	lea	r9, QWORD PTR rlength$[rbp]
	mov	r8d, 256				; 00000100H
	lea	rdx, QWORD PTR rbuffer$[rbp]
	mov	rcx, QWORD PTR x$[rbp]
	mov	rax, QWORD PTR ep$[rbp]
	call	QWORD PTR [rax+608]
	mov	DWORD PTR result$[rbp], eax
	cmp	DWORD PTR result$[rbp], 0
	jne	SHORT $LN6@TEST_From_
	mov	DWORD PTR tv92[rbp], 1
	jmp	SHORT $LN7@TEST_From_
$LN6@TEST_From_:
	mov	DWORD PTR tv92[rbp], 0
$LN7@TEST_From_:
	mov	edx, DWORD PTR result$[rbp]
	lea	rcx, OFFSET FLAT:??_C@_1DO@DOHJEMND@?$AAT?$AAo?$AAB?$AAy?$AAt?$AAe?$AAA?$AAr?$AAr?$AAa?$AAy?$AAn?$PP?$KJ?$AA0?$PP?$LD@
	call	FormatTestMesssage
	mov	QWORD PTR tv81[rbp], rax
	mov	r8d, 2
	mov	edx, DWORD PTR no$[rbp]
	lea	rcx, OFFSET FLAT:??_C@_1BO@IOIOCDHF@?$AAF?$AAr?$AAo?$AAm?$AA_?$AAI?$AA?5?$AA?$CI?$AA?$CF?$AAd?$AA?4?$AA?$CF?$AAd?$AA?$CJ@
	call	FormatTestLabel
	mov	rcx, QWORD PTR tv81[rbp]
	mov	r9, rcx
	mov	r8d, DWORD PTR tv92[rbp]
	mov	rdx, rax
	mov	rcx, QWORD PTR env$[rbp]
	call	TEST_Assert

; 40   :     TEST_Assert(env, FormatTestLabel(L"From_I (%d.%d)", no, 3), _EQUALS_MEMORY(rbuffer, rlength, buf, buf_size) == 0, L"データの内容が一致しない");

	mov	r9, QWORD PTR buf_size$[rbp]
	mov	r8, QWORD PTR buf$[rbp]
	mov	rdx, QWORD PTR rlength$[rbp]
	lea	rcx, QWORD PTR rbuffer$[rbp]
	call	_EQUALS_MEMORY
	test	eax, eax
	jne	SHORT $LN8@TEST_From_
	mov	DWORD PTR tv139[rbp], 1
	jmp	SHORT $LN9@TEST_From_
$LN8@TEST_From_:
	mov	DWORD PTR tv139[rbp], 0
$LN9@TEST_From_:
	mov	r8d, 3
	mov	edx, DWORD PTR no$[rbp]
	lea	rcx, OFFSET FLAT:??_C@_1BO@IOIOCDHF@?$AAF?$AAr?$AAo?$AAm?$AA_?$AAI?$AA?5?$AA?$CI?$AA?$CF?$AAd?$AA?4?$AA?$CF?$AAd?$AA?$CJ@
	call	FormatTestLabel
	lea	r9, OFFSET FLAT:??_C@_1BK@CBDJCOBM@?$PP?G?$PP?$PM?$PP?$LP?$AAn?$PP?$IF?$PP?$LJ?$AAL?$AA?$AA?$PP?t?$AAW?$AAj?$AAD@
	mov	r8d, DWORD PTR tv139[rbp]
	mov	rdx, rax
	mov	rcx, QWORD PTR env$[rbp]
	call	TEST_Assert

; 41   :     if (x_result == PMC_STATUS_OK)

	cmp	DWORD PTR x_result$[rbp], 0
	jne	SHORT $LN2@TEST_From_

; 42   :         ep->Dispose(x);

	mov	rcx, QWORD PTR x$[rbp]
	mov	rax, QWORD PTR ep$[rbp]
	call	QWORD PTR [rax+584]
$LN2@TEST_From_:

; 43   : }

	lea	rcx, QWORD PTR [rbp-32]
	lea	rdx, OFFSET FLAT:TEST_From_I$rtcFrameData
	call	_RTC_CheckStackVars
	mov	rcx, QWORD PTR __$ArrayPad$[rbp]
	xor	rcx, rbp
	call	__security_check_cookie
	lea	rsp, QWORD PTR [rbp+632]
	pop	rdi
	pop	rbp
	ret	0
TEST_From_I ENDP
_TEXT	ENDS
END
