; Listing generated by Microsoft (R) Optimizing Compiler Version 19.16.27026.1 

include listing.inc

INCLUDELIB MSVCRTD
INCLUDELIB OLDNAMES

_DATA	SEGMENT
COMM	uint_number_zero:QWORD
COMM	uint_number_one:QWORD
_DATA	ENDS
msvcjmc	SEGMENT
__7B7A869E_ctype@h DB 01H
__457DD326_basetsd@h DB 01H
__4384A2D9_corecrt_memcpy_s@h DB 01H
__4E51A221_corecrt_wstring@h DB 01H
__2140C079_string@h DB 01H
__1887E595_winnt@h DB 01H
__9FC7C64B_processthreadsapi@h DB 01H
__FA470AEC_memoryapi@h DB 01H
__F37DAFF1_winerror@h DB 01H
__7A450CCC_winbase@h DB 01H
__B4B40122_winioctl@h DB 01H
__86261D59_stralign@h DB 01H
__059414E1_pmc_sint_debug@h DB 01H
__BFDCEF3B_test_op_remainder@c DB 01H
msvcjmc	ENDS
PUBLIC	TEST_Remainder_I_X
PUBLIC	TEST_Remainder_L_X
PUBLIC	TEST_Remainder_UX_X
PUBLIC	TEST_Remainder_X_I
PUBLIC	TEST_Remainder_X_L
PUBLIC	TEST_Remainder_X_UX
PUBLIC	TEST_Remainder_X_X
PUBLIC	__JustMyCode_Default
PUBLIC	??_C@_1EC@NPMCAPKO@?$AAF?$AAr?$AAo?$AAm?$AAB?$AAy?$AAt?$AAe?$AAA?$AAr?$AAr?$AAa?$AAy?$AAn?$PP?$KJ@ ; `string'
PUBLIC	??_C@_1CM@HAMIPOFK@?$AAR?$AAe?$AAm?$AAa?$AAi?$AAn?$AAd?$AAe?$AAr?$AA_?$AAI?$AA_?$AAX?$AA?5?$AA?$CI@ ; `string'
PUBLIC	??_C@_1DM@FPONPMLK@?$AAD?$AAi?$AAv?$AAR?$AAe?$AAm?$AA_?$AAI?$AA_?$AAX?$AAn?$PP?$KJ?$AA0?$PP?$LD?$PP?$PM@ ; `string'
PUBLIC	??_C@_1DO@DOHJEMND@?$AAT?$AAo?$AAB?$AAy?$AAt?$AAe?$AAA?$AAr?$AAr?$AAa?$AAy?$AAn?$PP?$KJ?$AA0?$PP?$LD@ ; `string'
PUBLIC	??_C@_1BG@BPGLFLF@?$AAp?$AAY?$AAn?$AA$?$AAL?$AA?$AA?$PP?t?$AAW?$AAj?$AAD@ ; `string'
PUBLIC	??_C@_1CM@JIOLAFCC@?$AAR?$AAe?$AAm?$AAa?$AAi?$AAn?$AAd?$AAe?$AAr?$AA_?$AAL?$AA_?$AAX?$AA?5?$AA?$CI@ ; `string'
PUBLIC	??_C@_1DM@EHDAPCE@?$AAD?$AAi?$AAv?$AAR?$AAe?$AAm?$AA_?$AAL?$AA_?$AAX?$AAn?$PP?$KJ?$AA0?$PP?$LD?$PP?$PM@ ; `string'
PUBLIC	??_C@_1CO@KCLEBLGL@?$AAR?$AAe?$AAm?$AAa?$AAi?$AAn?$AAd?$AAe?$AAr?$AA_?$AAU?$AAX?$AA_?$AAX?$AA?5@ ; `string'
PUBLIC	??_C@_1DO@DHNBEMIM@?$AAD?$AAi?$AAv?$AAR?$AAe?$AAm?$AA_?$AAU?$AAX?$AA_?$AAX?$AAn?$PP?$KJ?$AA0?$PP?$LD@ ; `string'
PUBLIC	??_C@_1CM@LCHHECD@?$AAR?$AAe?$AAm?$AAa?$AAi?$AAn?$AAd?$AAe?$AAr?$AA_?$AAX?$AA_?$AAI?$AA?5?$AA?$CI@ ; `string'
PUBLIC	??_C@_1DM@DHGCKJN@?$AAD?$AAi?$AAv?$AAR?$AAe?$AAm?$AA_?$AAX?$AA_?$AAI?$AAn?$PP?$KJ?$AA0?$PP?$LD?$PP?$PM@ ; `string'
PUBLIC	??_C@_1CM@CAKNKEDM@?$AAR?$AAe?$AAm?$AAa?$AAi?$AAn?$AAd?$AAe?$AAr?$AA_?$AAX?$AA_?$AAL?$AA?5?$AA?$CI@ ; `string'
PUBLIC	??_C@_1DM@ELDKLHAI@?$AAD?$AAi?$AAv?$AAR?$AAe?$AAm?$AA_?$AAX?$AA_?$AAL?$AAn?$PP?$KJ?$AA0?$PP?$LD?$PP?$PM@ ; `string'
PUBLIC	??_C@_1CO@JMBPNOGJ@?$AAR?$AAe?$AAm?$AAa?$AAi?$AAn?$AAd?$AAe?$AAr?$AA_?$AAX?$AA_?$AAU?$AAX?$AA?5@ ; `string'
PUBLIC	??_C@_1DO@LADEACKM@?$AAD?$AAi?$AAv?$AAR?$AAe?$AAm?$AA_?$AAX?$AA_?$AAU?$AAX?$AAn?$PP?$KJ?$AA0?$PP?$LD@ ; `string'
PUBLIC	??_C@_1CM@IOIGOEEA@?$AAR?$AAe?$AAm?$AAa?$AAi?$AAn?$AAd?$AAe?$AAr?$AA_?$AAX?$AA_?$AAX?$AA?5?$AA?$CI@ ; `string'
PUBLIC	??_C@_1DM@LBHJMHBN@?$AAD?$AAi?$AAv?$AAR?$AAe?$AAm?$AA_?$AAX?$AA_?$AAX?$AAn?$PP?$KJ?$AA0?$PP?$LD?$PP?$PM@ ; `string'
EXTRN	TEST_Assert:PROC
EXTRN	FormatTestLabel:PROC
EXTRN	FormatTestMesssage:PROC
EXTRN	_RTC_CheckStackVars:PROC
EXTRN	_RTC_InitBase:PROC
EXTRN	_RTC_Shutdown:PROC
EXTRN	__CheckForDebuggerJustMyCode:PROC
EXTRN	__GSHandlerCheck:PROC
EXTRN	__security_check_cookie:PROC
EXTRN	__security_cookie:QWORD
;	COMDAT pdata
pdata	SEGMENT
$pdata$TEST_Remainder_I_X DD imagerel $LN14
	DD	imagerel $LN14+755
	DD	imagerel $unwind$TEST_Remainder_I_X
pdata	ENDS
;	COMDAT pdata
pdata	SEGMENT
$pdata$TEST_Remainder_L_X DD imagerel $LN14
	DD	imagerel $LN14+756
	DD	imagerel $unwind$TEST_Remainder_L_X
pdata	ENDS
;	COMDAT pdata
pdata	SEGMENT
$pdata$TEST_Remainder_UX_X DD imagerel $LN17
	DD	imagerel $LN17+916
	DD	imagerel $unwind$TEST_Remainder_UX_X
pdata	ENDS
;	COMDAT pdata
pdata	SEGMENT
$pdata$TEST_Remainder_X_I DD imagerel $LN11
	DD	imagerel $LN11+529
	DD	imagerel $unwind$TEST_Remainder_X_I
pdata	ENDS
;	COMDAT pdata
pdata	SEGMENT
$pdata$TEST_Remainder_X_L DD imagerel $LN11
	DD	imagerel $LN11+532
	DD	imagerel $unwind$TEST_Remainder_X_L
pdata	ENDS
;	COMDAT pdata
pdata	SEGMENT
$pdata$TEST_Remainder_X_UX DD imagerel $LN17
	DD	imagerel $LN17+922
	DD	imagerel $unwind$TEST_Remainder_X_UX
pdata	ENDS
;	COMDAT pdata
pdata	SEGMENT
$pdata$TEST_Remainder_X_X DD imagerel $LN17
	DD	imagerel $LN17+928
	DD	imagerel $unwind$TEST_Remainder_X_X
pdata	ENDS
;	COMDAT pdata
pdata	SEGMENT
$pdata$_EQUALS_MEMORY DD imagerel _EQUALS_MEMORY
	DD	imagerel _EQUALS_MEMORY+198
	DD	imagerel $unwind$_EQUALS_MEMORY
pdata	ENDS
;	COMDAT rtc$TMZ
rtc$TMZ	SEGMENT
_RTC_Shutdown.rtc$TMZ DQ FLAT:_RTC_Shutdown
rtc$TMZ	ENDS
;	COMDAT rtc$IMZ
rtc$IMZ	SEGMENT
_RTC_InitBase.rtc$IMZ DQ FLAT:_RTC_InitBase
rtc$IMZ	ENDS
;	COMDAT ??_C@_1DM@LBHJMHBN@?$AAD?$AAi?$AAv?$AAR?$AAe?$AAm?$AA_?$AAX?$AA_?$AAX?$AAn?$PP?$KJ?$AA0?$PP?$LD?$PP?$PM@
CONST	SEGMENT
??_C@_1DM@LBHJMHBN@?$AAD?$AAi?$AAv?$AAR?$AAe?$AAm?$AA_?$AAX?$AA_?$AAX?$AAn?$PP?$KJ?$AA0?$PP?$LD?$PP?$PM@ DB 'D'
	DB	00H, 'i', 00H, 'v', 00H, 'R', 00H, 'e', 00H, 'm', 00H, '_', 00H
	DB	'X', 00H, '_', 00H, 'X', 00H, 'n0', 0a9H, '_0^', 0b3H, '0', 0fcH
	DB	'0', 0c9H, '0L0', 01fH, 'g', 085H, '_', 01aH, 090H, 08aH, '0g0'
	DB	'o0j0D0(', 00H, '%', 00H, 'd', 00H, ')', 00H, 00H, 00H ; `string'
CONST	ENDS
;	COMDAT ??_C@_1CM@IOIGOEEA@?$AAR?$AAe?$AAm?$AAa?$AAi?$AAn?$AAd?$AAe?$AAr?$AA_?$AAX?$AA_?$AAX?$AA?5?$AA?$CI@
CONST	SEGMENT
??_C@_1CM@IOIGOEEA@?$AAR?$AAe?$AAm?$AAa?$AAi?$AAn?$AAd?$AAe?$AAr?$AA_?$AAX?$AA_?$AAX?$AA?5?$AA?$CI@ DB 'R'
	DB	00H, 'e', 00H, 'm', 00H, 'a', 00H, 'i', 00H, 'n', 00H, 'd', 00H
	DB	'e', 00H, 'r', 00H, '_', 00H, 'X', 00H, '_', 00H, 'X', 00H, ' '
	DB	00H, '(', 00H, '%', 00H, 'd', 00H, '.', 00H, '%', 00H, 'd', 00H
	DB	')', 00H, 00H, 00H				; `string'
CONST	ENDS
;	COMDAT ??_C@_1DO@LADEACKM@?$AAD?$AAi?$AAv?$AAR?$AAe?$AAm?$AA_?$AAX?$AA_?$AAU?$AAX?$AAn?$PP?$KJ?$AA0?$PP?$LD@
CONST	SEGMENT
??_C@_1DO@LADEACKM@?$AAD?$AAi?$AAv?$AAR?$AAe?$AAm?$AA_?$AAX?$AA_?$AAU?$AAX?$AAn?$PP?$KJ?$AA0?$PP?$LD@ DB 'D'
	DB	00H, 'i', 00H, 'v', 00H, 'R', 00H, 'e', 00H, 'm', 00H, '_', 00H
	DB	'X', 00H, '_', 00H, 'U', 00H, 'X', 00H, 'n0', 0a9H, '_0^', 0b3H
	DB	'0', 0fcH, '0', 0c9H, '0L0', 01fH, 'g', 085H, '_', 01aH, 090H, 08aH
	DB	'0g0o0j0D0(', 00H, '%', 00H, 'd', 00H, ')', 00H, 00H, 00H ; `string'
CONST	ENDS
;	COMDAT ??_C@_1CO@JMBPNOGJ@?$AAR?$AAe?$AAm?$AAa?$AAi?$AAn?$AAd?$AAe?$AAr?$AA_?$AAX?$AA_?$AAU?$AAX?$AA?5@
CONST	SEGMENT
??_C@_1CO@JMBPNOGJ@?$AAR?$AAe?$AAm?$AAa?$AAi?$AAn?$AAd?$AAe?$AAr?$AA_?$AAX?$AA_?$AAU?$AAX?$AA?5@ DB 'R'
	DB	00H, 'e', 00H, 'm', 00H, 'a', 00H, 'i', 00H, 'n', 00H, 'd', 00H
	DB	'e', 00H, 'r', 00H, '_', 00H, 'X', 00H, '_', 00H, 'U', 00H, 'X'
	DB	00H, ' ', 00H, '(', 00H, '%', 00H, 'd', 00H, '.', 00H, '%', 00H
	DB	'd', 00H, ')', 00H, 00H, 00H			; `string'
CONST	ENDS
;	COMDAT ??_C@_1DM@ELDKLHAI@?$AAD?$AAi?$AAv?$AAR?$AAe?$AAm?$AA_?$AAX?$AA_?$AAL?$AAn?$PP?$KJ?$AA0?$PP?$LD?$PP?$PM@
CONST	SEGMENT
??_C@_1DM@ELDKLHAI@?$AAD?$AAi?$AAv?$AAR?$AAe?$AAm?$AA_?$AAX?$AA_?$AAL?$AAn?$PP?$KJ?$AA0?$PP?$LD?$PP?$PM@ DB 'D'
	DB	00H, 'i', 00H, 'v', 00H, 'R', 00H, 'e', 00H, 'm', 00H, '_', 00H
	DB	'X', 00H, '_', 00H, 'L', 00H, 'n0', 0a9H, '_0^', 0b3H, '0', 0fcH
	DB	'0', 0c9H, '0L0', 01fH, 'g', 085H, '_', 01aH, 090H, 08aH, '0g0'
	DB	'o0j0D0(', 00H, '%', 00H, 'd', 00H, ')', 00H, 00H, 00H ; `string'
CONST	ENDS
;	COMDAT ??_C@_1CM@CAKNKEDM@?$AAR?$AAe?$AAm?$AAa?$AAi?$AAn?$AAd?$AAe?$AAr?$AA_?$AAX?$AA_?$AAL?$AA?5?$AA?$CI@
CONST	SEGMENT
??_C@_1CM@CAKNKEDM@?$AAR?$AAe?$AAm?$AAa?$AAi?$AAn?$AAd?$AAe?$AAr?$AA_?$AAX?$AA_?$AAL?$AA?5?$AA?$CI@ DB 'R'
	DB	00H, 'e', 00H, 'm', 00H, 'a', 00H, 'i', 00H, 'n', 00H, 'd', 00H
	DB	'e', 00H, 'r', 00H, '_', 00H, 'X', 00H, '_', 00H, 'L', 00H, ' '
	DB	00H, '(', 00H, '%', 00H, 'd', 00H, '.', 00H, '%', 00H, 'd', 00H
	DB	')', 00H, 00H, 00H				; `string'
CONST	ENDS
;	COMDAT ??_C@_1DM@DHGCKJN@?$AAD?$AAi?$AAv?$AAR?$AAe?$AAm?$AA_?$AAX?$AA_?$AAI?$AAn?$PP?$KJ?$AA0?$PP?$LD?$PP?$PM@
CONST	SEGMENT
??_C@_1DM@DHGCKJN@?$AAD?$AAi?$AAv?$AAR?$AAe?$AAm?$AA_?$AAX?$AA_?$AAI?$AAn?$PP?$KJ?$AA0?$PP?$LD?$PP?$PM@ DB 'D'
	DB	00H, 'i', 00H, 'v', 00H, 'R', 00H, 'e', 00H, 'm', 00H, '_', 00H
	DB	'X', 00H, '_', 00H, 'I', 00H, 'n0', 0a9H, '_0^', 0b3H, '0', 0fcH
	DB	'0', 0c9H, '0L0', 01fH, 'g', 085H, '_', 01aH, 090H, 08aH, '0g0'
	DB	'o0j0D0(', 00H, '%', 00H, 'd', 00H, ')', 00H, 00H, 00H ; `string'
CONST	ENDS
;	COMDAT ??_C@_1CM@LCHHECD@?$AAR?$AAe?$AAm?$AAa?$AAi?$AAn?$AAd?$AAe?$AAr?$AA_?$AAX?$AA_?$AAI?$AA?5?$AA?$CI@
CONST	SEGMENT
??_C@_1CM@LCHHECD@?$AAR?$AAe?$AAm?$AAa?$AAi?$AAn?$AAd?$AAe?$AAr?$AA_?$AAX?$AA_?$AAI?$AA?5?$AA?$CI@ DB 'R'
	DB	00H, 'e', 00H, 'm', 00H, 'a', 00H, 'i', 00H, 'n', 00H, 'd', 00H
	DB	'e', 00H, 'r', 00H, '_', 00H, 'X', 00H, '_', 00H, 'I', 00H, ' '
	DB	00H, '(', 00H, '%', 00H, 'd', 00H, '.', 00H, '%', 00H, 'd', 00H
	DB	')', 00H, 00H, 00H				; `string'
CONST	ENDS
;	COMDAT ??_C@_1DO@DHNBEMIM@?$AAD?$AAi?$AAv?$AAR?$AAe?$AAm?$AA_?$AAU?$AAX?$AA_?$AAX?$AAn?$PP?$KJ?$AA0?$PP?$LD@
CONST	SEGMENT
??_C@_1DO@DHNBEMIM@?$AAD?$AAi?$AAv?$AAR?$AAe?$AAm?$AA_?$AAU?$AAX?$AA_?$AAX?$AAn?$PP?$KJ?$AA0?$PP?$LD@ DB 'D'
	DB	00H, 'i', 00H, 'v', 00H, 'R', 00H, 'e', 00H, 'm', 00H, '_', 00H
	DB	'U', 00H, 'X', 00H, '_', 00H, 'X', 00H, 'n0', 0a9H, '_0^', 0b3H
	DB	'0', 0fcH, '0', 0c9H, '0L0', 01fH, 'g', 085H, '_', 01aH, 090H, 08aH
	DB	'0g0o0j0D0(', 00H, '%', 00H, 'd', 00H, ')', 00H, 00H, 00H ; `string'
CONST	ENDS
;	COMDAT ??_C@_1CO@KCLEBLGL@?$AAR?$AAe?$AAm?$AAa?$AAi?$AAn?$AAd?$AAe?$AAr?$AA_?$AAU?$AAX?$AA_?$AAX?$AA?5@
CONST	SEGMENT
??_C@_1CO@KCLEBLGL@?$AAR?$AAe?$AAm?$AAa?$AAi?$AAn?$AAd?$AAe?$AAr?$AA_?$AAU?$AAX?$AA_?$AAX?$AA?5@ DB 'R'
	DB	00H, 'e', 00H, 'm', 00H, 'a', 00H, 'i', 00H, 'n', 00H, 'd', 00H
	DB	'e', 00H, 'r', 00H, '_', 00H, 'U', 00H, 'X', 00H, '_', 00H, 'X'
	DB	00H, ' ', 00H, '(', 00H, '%', 00H, 'd', 00H, '.', 00H, '%', 00H
	DB	'd', 00H, ')', 00H, 00H, 00H			; `string'
CONST	ENDS
;	COMDAT ??_C@_1DM@EHDAPCE@?$AAD?$AAi?$AAv?$AAR?$AAe?$AAm?$AA_?$AAL?$AA_?$AAX?$AAn?$PP?$KJ?$AA0?$PP?$LD?$PP?$PM@
CONST	SEGMENT
??_C@_1DM@EHDAPCE@?$AAD?$AAi?$AAv?$AAR?$AAe?$AAm?$AA_?$AAL?$AA_?$AAX?$AAn?$PP?$KJ?$AA0?$PP?$LD?$PP?$PM@ DB 'D'
	DB	00H, 'i', 00H, 'v', 00H, 'R', 00H, 'e', 00H, 'm', 00H, '_', 00H
	DB	'L', 00H, '_', 00H, 'X', 00H, 'n0', 0a9H, '_0^', 0b3H, '0', 0fcH
	DB	'0', 0c9H, '0L0', 01fH, 'g', 085H, '_', 01aH, 090H, 08aH, '0g0'
	DB	'o0j0D0(', 00H, '%', 00H, 'd', 00H, ')', 00H, 00H, 00H ; `string'
CONST	ENDS
;	COMDAT ??_C@_1CM@JIOLAFCC@?$AAR?$AAe?$AAm?$AAa?$AAi?$AAn?$AAd?$AAe?$AAr?$AA_?$AAL?$AA_?$AAX?$AA?5?$AA?$CI@
CONST	SEGMENT
??_C@_1CM@JIOLAFCC@?$AAR?$AAe?$AAm?$AAa?$AAi?$AAn?$AAd?$AAe?$AAr?$AA_?$AAL?$AA_?$AAX?$AA?5?$AA?$CI@ DB 'R'
	DB	00H, 'e', 00H, 'm', 00H, 'a', 00H, 'i', 00H, 'n', 00H, 'd', 00H
	DB	'e', 00H, 'r', 00H, '_', 00H, 'L', 00H, '_', 00H, 'X', 00H, ' '
	DB	00H, '(', 00H, '%', 00H, 'd', 00H, '.', 00H, '%', 00H, 'd', 00H
	DB	')', 00H, 00H, 00H				; `string'
CONST	ENDS
;	COMDAT ??_C@_1BG@BPGLFLF@?$AAp?$AAY?$AAn?$AA$?$AAL?$AA?$AA?$PP?t?$AAW?$AAj?$AAD@
CONST	SEGMENT
??_C@_1BG@BPGLFLF@?$AAp?$AAY?$AAn?$AA$?$AAL?$AA?$AA?$PP?t?$AAW?$AAj?$AAD@ DB 'p'
	DB	'RYOn0$PL0', 00H, 'N', 0f4H, 081H, 'W0j0D0', 00H, 00H ; `string'
CONST	ENDS
;	COMDAT ??_C@_1DO@DOHJEMND@?$AAT?$AAo?$AAB?$AAy?$AAt?$AAe?$AAA?$AAr?$AAr?$AAa?$AAy?$AAn?$PP?$KJ?$AA0?$PP?$LD@
CONST	SEGMENT
??_C@_1DO@DOHJEMND@?$AAT?$AAo?$AAB?$AAy?$AAt?$AAe?$AAA?$AAr?$AAr?$AAa?$AAy?$AAn?$PP?$KJ?$AA0?$PP?$LD@ DB 'T'
	DB	00H, 'o', 00H, 'B', 00H, 'y', 00H, 't', 00H, 'e', 00H, 'A', 00H
	DB	'r', 00H, 'r', 00H, 'a', 00H, 'y', 00H, 'n0', 0a9H, '_0^', 0b3H
	DB	'0', 0fcH, '0', 0c9H, '0L0', 01fH, 'g', 085H, '_', 01aH, 090H, 08aH
	DB	'0g0o0j0D0(', 00H, '%', 00H, 'd', 00H, ')', 00H, 00H, 00H ; `string'
CONST	ENDS
;	COMDAT ??_C@_1DM@FPONPMLK@?$AAD?$AAi?$AAv?$AAR?$AAe?$AAm?$AA_?$AAI?$AA_?$AAX?$AAn?$PP?$KJ?$AA0?$PP?$LD?$PP?$PM@
CONST	SEGMENT
??_C@_1DM@FPONPMLK@?$AAD?$AAi?$AAv?$AAR?$AAe?$AAm?$AA_?$AAI?$AA_?$AAX?$AAn?$PP?$KJ?$AA0?$PP?$LD?$PP?$PM@ DB 'D'
	DB	00H, 'i', 00H, 'v', 00H, 'R', 00H, 'e', 00H, 'm', 00H, '_', 00H
	DB	'I', 00H, '_', 00H, 'X', 00H, 'n0', 0a9H, '_0^', 0b3H, '0', 0fcH
	DB	'0', 0c9H, '0L0', 01fH, 'g', 085H, '_', 01aH, 090H, 08aH, '0g0'
	DB	'o0j0D0(', 00H, '%', 00H, 'd', 00H, ')', 00H, 00H, 00H ; `string'
CONST	ENDS
;	COMDAT ??_C@_1CM@HAMIPOFK@?$AAR?$AAe?$AAm?$AAa?$AAi?$AAn?$AAd?$AAe?$AAr?$AA_?$AAI?$AA_?$AAX?$AA?5?$AA?$CI@
CONST	SEGMENT
??_C@_1CM@HAMIPOFK@?$AAR?$AAe?$AAm?$AAa?$AAi?$AAn?$AAd?$AAe?$AAr?$AA_?$AAI?$AA_?$AAX?$AA?5?$AA?$CI@ DB 'R'
	DB	00H, 'e', 00H, 'm', 00H, 'a', 00H, 'i', 00H, 'n', 00H, 'd', 00H
	DB	'e', 00H, 'r', 00H, '_', 00H, 'I', 00H, '_', 00H, 'X', 00H, ' '
	DB	00H, '(', 00H, '%', 00H, 'd', 00H, '.', 00H, '%', 00H, 'd', 00H
	DB	')', 00H, 00H, 00H				; `string'
CONST	ENDS
;	COMDAT ??_C@_1EC@NPMCAPKO@?$AAF?$AAr?$AAo?$AAm?$AAB?$AAy?$AAt?$AAe?$AAA?$AAr?$AAr?$AAa?$AAy?$AAn?$PP?$KJ@
CONST	SEGMENT
??_C@_1EC@NPMCAPKO@?$AAF?$AAr?$AAo?$AAm?$AAB?$AAy?$AAt?$AAe?$AAA?$AAr?$AAr?$AAa?$AAy?$AAn?$PP?$KJ@ DB 'F'
	DB	00H, 'r', 00H, 'o', 00H, 'm', 00H, 'B', 00H, 'y', 00H, 't', 00H
	DB	'e', 00H, 'A', 00H, 'r', 00H, 'r', 00H, 'a', 00H, 'y', 00H, 'n'
	DB	'0', 0a9H, '_0^', 0b3H, '0', 0fcH, '0', 0c9H, '0L0', 01fH, 'g', 085H
	DB	'_', 01aH, 090H, 08aH, '0g0o0j0D0(', 00H, '%', 00H, 'd', 00H, ')'
	DB	00H, 00H, 00H				; `string'
CONST	ENDS
;	COMDAT xdata
xdata	SEGMENT
$unwind$_EQUALS_MEMORY DD 025053901H
	DD	011d2322H
	DD	07016001dH
	DD	05015H
xdata	ENDS
;	COMDAT xdata
xdata	SEGMENT
$unwind$TEST_Remainder_X_X DD 025054a19H
	DD	011d2322H
	DD	07016007bH
	DD	05015H
	DD	imagerel __GSHandlerCheck
	DD	03c0H
xdata	ENDS
;	COMDAT CONST
CONST	SEGMENT
TEST_Remainder_X_X$rtcName$0 DB 075H
	DB	00H
	ORG $+2
TEST_Remainder_X_X$rtcName$1 DB 076H
	DB	00H
	ORG $+2
TEST_Remainder_X_X$rtcName$2 DB 072H
	DB	00H
	ORG $+6
TEST_Remainder_X_X$rtcName$3 DB 061H
	DB	063H
	DB	074H
	DB	075H
	DB	061H
	DB	06cH
	DB	05fH
	DB	072H
	DB	05fH
	DB	062H
	DB	075H
	DB	066H
	DB	00H
	ORG $+3
TEST_Remainder_X_X$rtcName$4 DB 061H
	DB	063H
	DB	074H
	DB	075H
	DB	061H
	DB	06cH
	DB	05fH
	DB	072H
	DB	05fH
	DB	062H
	DB	075H
	DB	066H
	DB	05fH
	DB	073H
	DB	069H
	DB	07aH
	DB	065H
	DB	00H
	ORG $+14
TEST_Remainder_X_X$rtcVarDesc DD 01a8H
	DD	08H
	DQ	FLAT:TEST_Remainder_X_X$rtcName$4
	DD	090H
	DD	0100H
	DQ	FLAT:TEST_Remainder_X_X$rtcName$3
	DD	068H
	DD	08H
	DQ	FLAT:TEST_Remainder_X_X$rtcName$2
	DD	048H
	DD	08H
	DQ	FLAT:TEST_Remainder_X_X$rtcName$1
	DD	028H
	DD	08H
	DQ	FLAT:TEST_Remainder_X_X$rtcName$0
	ORG $+240
TEST_Remainder_X_X$rtcFrameData DD 05H
	DD	00H
	DQ	FLAT:TEST_Remainder_X_X$rtcVarDesc
CONST	ENDS
;	COMDAT xdata
xdata	SEGMENT
$unwind$TEST_Remainder_X_UX DD 025054a19H
	DD	011d2322H
	DD	07016007bH
	DD	05015H
	DD	imagerel __GSHandlerCheck
	DD	03c0H
xdata	ENDS
;	COMDAT CONST
CONST	SEGMENT
TEST_Remainder_X_UX$rtcName$0 DB 075H
	DB	00H
	ORG $+2
TEST_Remainder_X_UX$rtcName$1 DB 076H
	DB	00H
	ORG $+2
TEST_Remainder_X_UX$rtcName$2 DB 072H
	DB	00H
	ORG $+6
TEST_Remainder_X_UX$rtcName$3 DB 061H
	DB	063H
	DB	074H
	DB	075H
	DB	061H
	DB	06cH
	DB	05fH
	DB	072H
	DB	05fH
	DB	062H
	DB	075H
	DB	066H
	DB	00H
	ORG $+3
TEST_Remainder_X_UX$rtcName$4 DB 061H
	DB	063H
	DB	074H
	DB	075H
	DB	061H
	DB	06cH
	DB	05fH
	DB	072H
	DB	05fH
	DB	062H
	DB	075H
	DB	066H
	DB	05fH
	DB	073H
	DB	069H
	DB	07aH
	DB	065H
	DB	00H
	ORG $+14
TEST_Remainder_X_UX$rtcVarDesc DD 01a8H
	DD	08H
	DQ	FLAT:TEST_Remainder_X_UX$rtcName$4
	DD	090H
	DD	0100H
	DQ	FLAT:TEST_Remainder_X_UX$rtcName$3
	DD	068H
	DD	08H
	DQ	FLAT:TEST_Remainder_X_UX$rtcName$2
	DD	048H
	DD	08H
	DQ	FLAT:TEST_Remainder_X_UX$rtcName$1
	DD	028H
	DD	08H
	DQ	FLAT:TEST_Remainder_X_UX$rtcName$0
	ORG $+240
TEST_Remainder_X_UX$rtcFrameData DD 05H
	DD	00H
	DQ	FLAT:TEST_Remainder_X_UX$rtcVarDesc
CONST	ENDS
;	COMDAT xdata
xdata	SEGMENT
$unwind$TEST_Remainder_X_L DD 025054a19H
	DD	011d2322H
	DD	07016002fH
	DD	05015H
	DD	imagerel __GSHandlerCheck
	DD	0160H
xdata	ENDS
;	COMDAT CONST
CONST	SEGMENT
TEST_Remainder_X_L$rtcName$0 DB 075H
	DB	00H
	ORG $+6
TEST_Remainder_X_L$rtcName$1 DB 061H
	DB	063H
	DB	074H
	DB	075H
	DB	061H
	DB	06cH
	DB	05fH
	DB	072H
	DB	00H
	ORG $+15
TEST_Remainder_X_L$rtcVarDesc DD 048H
	DD	08H
	DQ	FLAT:TEST_Remainder_X_L$rtcName$1
	DD	028H
	DD	08H
	DQ	FLAT:TEST_Remainder_X_L$rtcName$0
	ORG $+96
TEST_Remainder_X_L$rtcFrameData DD 02H
	DD	00H
	DQ	FLAT:TEST_Remainder_X_L$rtcVarDesc
CONST	ENDS
;	COMDAT xdata
xdata	SEGMENT
$unwind$TEST_Remainder_X_I DD 025054a19H
	DD	011d2322H
	DD	07016002fH
	DD	05015H
	DD	imagerel __GSHandlerCheck
	DD	0160H
xdata	ENDS
;	COMDAT CONST
CONST	SEGMENT
TEST_Remainder_X_I$rtcName$0 DB 075H
	DB	00H
	ORG $+6
TEST_Remainder_X_I$rtcName$1 DB 061H
	DB	063H
	DB	074H
	DB	075H
	DB	061H
	DB	06cH
	DB	05fH
	DB	072H
	DB	00H
	ORG $+15
TEST_Remainder_X_I$rtcVarDesc DD 044H
	DD	04H
	DQ	FLAT:TEST_Remainder_X_I$rtcName$1
	DD	028H
	DD	08H
	DQ	FLAT:TEST_Remainder_X_I$rtcName$0
	ORG $+96
TEST_Remainder_X_I$rtcFrameData DD 02H
	DD	00H
	DQ	FLAT:TEST_Remainder_X_I$rtcVarDesc
CONST	ENDS
;	COMDAT xdata
xdata	SEGMENT
$unwind$TEST_Remainder_UX_X DD 025054a19H
	DD	011d2322H
	DD	07016007bH
	DD	05015H
	DD	imagerel __GSHandlerCheck
	DD	03c0H
xdata	ENDS
;	COMDAT CONST
CONST	SEGMENT
TEST_Remainder_UX_X$rtcName$0 DB 075H
	DB	00H
	ORG $+2
TEST_Remainder_UX_X$rtcName$1 DB 076H
	DB	00H
	ORG $+2
TEST_Remainder_UX_X$rtcName$2 DB 072H
	DB	00H
	ORG $+6
TEST_Remainder_UX_X$rtcName$3 DB 061H
	DB	063H
	DB	074H
	DB	075H
	DB	061H
	DB	06cH
	DB	05fH
	DB	072H
	DB	05fH
	DB	062H
	DB	075H
	DB	066H
	DB	00H
	ORG $+3
TEST_Remainder_UX_X$rtcName$4 DB 061H
	DB	063H
	DB	074H
	DB	075H
	DB	061H
	DB	06cH
	DB	05fH
	DB	072H
	DB	05fH
	DB	062H
	DB	075H
	DB	066H
	DB	05fH
	DB	073H
	DB	069H
	DB	07aH
	DB	065H
	DB	00H
	ORG $+14
TEST_Remainder_UX_X$rtcVarDesc DD 01a8H
	DD	08H
	DQ	FLAT:TEST_Remainder_UX_X$rtcName$4
	DD	090H
	DD	0100H
	DQ	FLAT:TEST_Remainder_UX_X$rtcName$3
	DD	068H
	DD	08H
	DQ	FLAT:TEST_Remainder_UX_X$rtcName$2
	DD	048H
	DD	08H
	DQ	FLAT:TEST_Remainder_UX_X$rtcName$1
	DD	028H
	DD	08H
	DQ	FLAT:TEST_Remainder_UX_X$rtcName$0
	ORG $+240
TEST_Remainder_UX_X$rtcFrameData DD 05H
	DD	00H
	DQ	FLAT:TEST_Remainder_UX_X$rtcVarDesc
CONST	ENDS
;	COMDAT xdata
xdata	SEGMENT
$unwind$TEST_Remainder_L_X DD 025054a19H
	DD	011d2322H
	DD	07016005bH
	DD	05015H
	DD	imagerel __GSHandlerCheck
	DD	02c0H
xdata	ENDS
;	COMDAT CONST
CONST	SEGMENT
TEST_Remainder_L_X$rtcName$0 DB 076H
	DB	00H
	ORG $+2
TEST_Remainder_L_X$rtcName$1 DB 072H
	DB	00H
	ORG $+2
TEST_Remainder_L_X$rtcName$2 DB 061H
	DB	063H
	DB	074H
	DB	075H
	DB	061H
	DB	06cH
	DB	05fH
	DB	072H
	DB	05fH
	DB	062H
	DB	075H
	DB	066H
	DB	00H
	ORG $+3
TEST_Remainder_L_X$rtcName$3 DB 061H
	DB	063H
	DB	074H
	DB	075H
	DB	061H
	DB	06cH
	DB	05fH
	DB	072H
	DB	05fH
	DB	062H
	DB	075H
	DB	066H
	DB	05fH
	DB	073H
	DB	069H
	DB	07aH
	DB	065H
	DB	00H
	ORG $+6
TEST_Remainder_L_X$rtcVarDesc DD 0188H
	DD	08H
	DQ	FLAT:TEST_Remainder_L_X$rtcName$3
	DD	070H
	DD	0100H
	DQ	FLAT:TEST_Remainder_L_X$rtcName$2
	DD	048H
	DD	08H
	DQ	FLAT:TEST_Remainder_L_X$rtcName$1
	DD	028H
	DD	08H
	DQ	FLAT:TEST_Remainder_L_X$rtcName$0
	ORG $+192
TEST_Remainder_L_X$rtcFrameData DD 04H
	DD	00H
	DQ	FLAT:TEST_Remainder_L_X$rtcVarDesc
CONST	ENDS
;	COMDAT xdata
xdata	SEGMENT
$unwind$TEST_Remainder_I_X DD 025054a19H
	DD	011d2322H
	DD	07016005bH
	DD	05015H
	DD	imagerel __GSHandlerCheck
	DD	02c0H
xdata	ENDS
;	COMDAT CONST
CONST	SEGMENT
TEST_Remainder_I_X$rtcName$0 DB 076H
	DB	00H
	ORG $+2
TEST_Remainder_I_X$rtcName$1 DB 072H
	DB	00H
	ORG $+2
TEST_Remainder_I_X$rtcName$2 DB 061H
	DB	063H
	DB	074H
	DB	075H
	DB	061H
	DB	06cH
	DB	05fH
	DB	072H
	DB	05fH
	DB	062H
	DB	075H
	DB	066H
	DB	00H
	ORG $+3
TEST_Remainder_I_X$rtcName$3 DB 061H
	DB	063H
	DB	074H
	DB	075H
	DB	061H
	DB	06cH
	DB	05fH
	DB	072H
	DB	05fH
	DB	062H
	DB	075H
	DB	066H
	DB	05fH
	DB	073H
	DB	069H
	DB	07aH
	DB	065H
	DB	00H
	ORG $+6
TEST_Remainder_I_X$rtcVarDesc DD 0188H
	DD	08H
	DQ	FLAT:TEST_Remainder_I_X$rtcName$3
	DD	070H
	DD	0100H
	DQ	FLAT:TEST_Remainder_I_X$rtcName$2
	DD	048H
	DD	08H
	DQ	FLAT:TEST_Remainder_I_X$rtcName$1
	DD	028H
	DD	08H
	DQ	FLAT:TEST_Remainder_I_X$rtcName$0
	ORG $+192
TEST_Remainder_I_X$rtcFrameData DD 04H
	DD	00H
	DQ	FLAT:TEST_Remainder_I_X$rtcVarDesc
CONST	ENDS
; Function compile flags: /Odt
;	COMDAT __JustMyCode_Default
_TEXT	SEGMENT
__JustMyCode_Default PROC				; COMDAT
	ret	0
__JustMyCode_Default ENDP
_TEXT	ENDS
; Function compile flags: /Odtp /RTCsu /ZI
; File z:\sources\lunor\repos\rougemeilland\palmtree.math.core.sint\palmtree.math.core.sint\pmc_sint_debug.h
;	COMDAT _EQUALS_MEMORY
_TEXT	SEGMENT
buffer1$ = 224
count1$ = 232
buffer2$ = 240
count2$ = 248
_EQUALS_MEMORY PROC					; COMDAT

; 138  : {

	mov	QWORD PTR [rsp+32], r9
	mov	QWORD PTR [rsp+24], r8
	mov	QWORD PTR [rsp+16], rdx
	mov	QWORD PTR [rsp+8], rcx
	push	rbp
	push	rdi
	sub	rsp, 232				; 000000e8H
	lea	rbp, QWORD PTR [rsp+32]
	mov	rdi, rsp
	mov	ecx, 58					; 0000003aH
	mov	eax, -858993460				; ccccccccH
	rep stosd
	mov	rcx, QWORD PTR [rsp+264]
	lea	rcx, OFFSET FLAT:__059414E1_pmc_sint_debug@h
	call	__CheckForDebuggerJustMyCode

; 139  :     if (count1 != count2)

	mov	rax, QWORD PTR count2$[rbp]
	cmp	QWORD PTR count1$[rbp], rax
	je	SHORT $LN4@EQUALS_MEM

; 140  :         return (-1);

	mov	eax, -1
	jmp	SHORT $LN1@EQUALS_MEM
$LN4@EQUALS_MEM:
$LN2@EQUALS_MEM:

; 141  :     while (count1 > 0)

	cmp	QWORD PTR count1$[rbp], 0
	jbe	SHORT $LN3@EQUALS_MEM

; 142  :     {
; 143  :         if (*buffer1 != *buffer2)

	mov	rax, QWORD PTR buffer1$[rbp]
	movzx	eax, BYTE PTR [rax]
	mov	rcx, QWORD PTR buffer2$[rbp]
	movzx	ecx, BYTE PTR [rcx]
	cmp	eax, ecx
	je	SHORT $LN5@EQUALS_MEM

; 144  :             return (-1);

	mov	eax, -1
	jmp	SHORT $LN1@EQUALS_MEM
$LN5@EQUALS_MEM:

; 145  :         ++buffer1;

	mov	rax, QWORD PTR buffer1$[rbp]
	inc	rax
	mov	QWORD PTR buffer1$[rbp], rax

; 146  :         ++buffer2;

	mov	rax, QWORD PTR buffer2$[rbp]
	inc	rax
	mov	QWORD PTR buffer2$[rbp], rax

; 147  :         --count1;

	mov	rax, QWORD PTR count1$[rbp]
	dec	rax
	mov	QWORD PTR count1$[rbp], rax

; 148  :     }

	jmp	SHORT $LN2@EQUALS_MEM
$LN3@EQUALS_MEM:

; 149  :     return (0);

	xor	eax, eax
$LN1@EQUALS_MEM:

; 150  : }

	lea	rsp, QWORD PTR [rbp+200]
	pop	rdi
	pop	rbp
	ret	0
_EQUALS_MEMORY ENDP
_TEXT	ENDS
; Function compile flags: /Odtp /RTCsu /ZI
; File z:\sources\lunor\repos\rougemeilland\palmtree.math.core.sint\palmtree.math.core.sint\test_op_remainder.c
;	COMDAT TEST_Remainder_X_X
_TEXT	SEGMENT
u$ = 8
v$ = 40
r$ = 72
actual_r_buf$ = 112
actual_r_buf_size$ = 392
result$ = 420
u_result$ = 452
v_result$ = 484
r_result$ = 516
tv178 = 916
tv163 = 916
tv143 = 916
tv92 = 916
tv74 = 916
tv152 = 920
tv132 = 920
tv82 = 920
tv64 = 920
__$ArrayPad$ = 928
env$ = 976
ep$ = 984
no$ = 992
u_buf$ = 1000
u_buf_size$ = 1008
v_buf$ = 1016
v_buf_size$ = 1024
desired_return_code$ = 1032
desired_r_buf$ = 1040
desired_r_buf_size$ = 1048
TEST_Remainder_X_X PROC					; COMDAT

; 162  : {

$LN17:
	mov	QWORD PTR [rsp+32], r9
	mov	DWORD PTR [rsp+24], r8d
	mov	QWORD PTR [rsp+16], rdx
	mov	QWORD PTR [rsp+8], rcx
	push	rbp
	push	rdi
	sub	rsp, 984				; 000003d8H
	lea	rbp, QWORD PTR [rsp+32]
	mov	rdi, rsp
	mov	ecx, 246				; 000000f6H
	mov	eax, -858993460				; ccccccccH
	rep stosd
	mov	rcx, QWORD PTR [rsp+1016]
	mov	rax, QWORD PTR __security_cookie
	xor	rax, rbp
	mov	QWORD PTR __$ArrayPad$[rbp], rax
	lea	rcx, OFFSET FLAT:__BFDCEF3B_test_op_remainder@c
	call	__CheckForDebuggerJustMyCode

; 163  :     PMC_HANDLE_SINT u;
; 164  :     PMC_HANDLE_SINT v;
; 165  :     PMC_HANDLE_SINT r;
; 166  :     unsigned char actual_r_buf[256];
; 167  :     size_t actual_r_buf_size;
; 168  :     PMC_STATUS_CODE result;
; 169  :     PMC_STATUS_CODE u_result;
; 170  :     PMC_STATUS_CODE v_result;
; 171  :     PMC_STATUS_CODE r_result;
; 172  :     TEST_Assert(env, FormatTestLabel(L"Remainder_X_X (%d.%d)", no, 1), (u_result = ep->FromByteArray(u_buf, u_buf_size, &u)) == PMC_STATUS_OK, FormatTestMesssage(L"FromByteArrayの復帰コードが期待通りではない(%d)", u_result));

	lea	r8, QWORD PTR u$[rbp]
	mov	rdx, QWORD PTR u_buf_size$[rbp]
	mov	rcx, QWORD PTR u_buf$[rbp]
	mov	rax, QWORD PTR ep$[rbp]
	call	QWORD PTR [rax+600]
	mov	DWORD PTR u_result$[rbp], eax
	cmp	DWORD PTR u_result$[rbp], 0
	jne	SHORT $LN7@TEST_Remai
	mov	DWORD PTR tv74[rbp], 1
	jmp	SHORT $LN8@TEST_Remai
$LN7@TEST_Remai:
	mov	DWORD PTR tv74[rbp], 0
$LN8@TEST_Remai:
	mov	edx, DWORD PTR u_result$[rbp]
	lea	rcx, OFFSET FLAT:??_C@_1EC@NPMCAPKO@?$AAF?$AAr?$AAo?$AAm?$AAB?$AAy?$AAt?$AAe?$AAA?$AAr?$AAr?$AAa?$AAy?$AAn?$PP?$KJ@
	call	FormatTestMesssage
	mov	QWORD PTR tv64[rbp], rax
	mov	r8d, 1
	mov	edx, DWORD PTR no$[rbp]
	lea	rcx, OFFSET FLAT:??_C@_1CM@IOIGOEEA@?$AAR?$AAe?$AAm?$AAa?$AAi?$AAn?$AAd?$AAe?$AAr?$AA_?$AAX?$AA_?$AAX?$AA?5?$AA?$CI@
	call	FormatTestLabel
	mov	rcx, QWORD PTR tv64[rbp]
	mov	r9, rcx
	mov	r8d, DWORD PTR tv74[rbp]
	mov	rdx, rax
	mov	rcx, QWORD PTR env$[rbp]
	call	TEST_Assert

; 173  :     TEST_Assert(env, FormatTestLabel(L"Remainder_X_X (%d.%d)", no, 2), (v_result = ep->FromByteArray(v_buf, v_buf_size, &v)) == PMC_STATUS_OK, FormatTestMesssage(L"FromByteArrayの復帰コードが期待通りではない(%d)", v_result));

	lea	r8, QWORD PTR v$[rbp]
	mov	rdx, QWORD PTR v_buf_size$[rbp]
	mov	rcx, QWORD PTR v_buf$[rbp]
	mov	rax, QWORD PTR ep$[rbp]
	call	QWORD PTR [rax+600]
	mov	DWORD PTR v_result$[rbp], eax
	cmp	DWORD PTR v_result$[rbp], 0
	jne	SHORT $LN9@TEST_Remai
	mov	DWORD PTR tv92[rbp], 1
	jmp	SHORT $LN10@TEST_Remai
$LN9@TEST_Remai:
	mov	DWORD PTR tv92[rbp], 0
$LN10@TEST_Remai:
	mov	edx, DWORD PTR v_result$[rbp]
	lea	rcx, OFFSET FLAT:??_C@_1EC@NPMCAPKO@?$AAF?$AAr?$AAo?$AAm?$AAB?$AAy?$AAt?$AAe?$AAA?$AAr?$AAr?$AAa?$AAy?$AAn?$PP?$KJ@
	call	FormatTestMesssage
	mov	QWORD PTR tv82[rbp], rax
	mov	r8d, 2
	mov	edx, DWORD PTR no$[rbp]
	lea	rcx, OFFSET FLAT:??_C@_1CM@IOIGOEEA@?$AAR?$AAe?$AAm?$AAa?$AAi?$AAn?$AAd?$AAe?$AAr?$AA_?$AAX?$AA_?$AAX?$AA?5?$AA?$CI@
	call	FormatTestLabel
	mov	rcx, QWORD PTR tv82[rbp]
	mov	r9, rcx
	mov	r8d, DWORD PTR tv92[rbp]
	mov	rdx, rax
	mov	rcx, QWORD PTR env$[rbp]
	call	TEST_Assert

; 174  :     TEST_Assert(env, FormatTestLabel(L"Remainder_X_X (%d.%d)", no, 3), (r_result = ep->DivRem_X_X(u, v, NULL, &r)) == desired_return_code, FormatTestMesssage(L"DivRem_X_Xの復帰コードが期待通りではない(%d)", r_result));

	lea	r9, QWORD PTR r$[rbp]
	xor	r8d, r8d
	mov	rdx, QWORD PTR v$[rbp]
	mov	rcx, QWORD PTR u$[rbp]
	mov	rax, QWORD PTR ep$[rbp]
	call	QWORD PTR [rax+872]
	mov	DWORD PTR r_result$[rbp], eax
	mov	eax, DWORD PTR desired_return_code$[rbp]
	cmp	DWORD PTR r_result$[rbp], eax
	jne	SHORT $LN11@TEST_Remai
	mov	DWORD PTR tv143[rbp], 1
	jmp	SHORT $LN12@TEST_Remai
$LN11@TEST_Remai:
	mov	DWORD PTR tv143[rbp], 0
$LN12@TEST_Remai:
	mov	edx, DWORD PTR r_result$[rbp]
	lea	rcx, OFFSET FLAT:??_C@_1DM@LBHJMHBN@?$AAD?$AAi?$AAv?$AAR?$AAe?$AAm?$AA_?$AAX?$AA_?$AAX?$AAn?$PP?$KJ?$AA0?$PP?$LD?$PP?$PM@
	call	FormatTestMesssage
	mov	QWORD PTR tv132[rbp], rax
	mov	r8d, 3
	mov	edx, DWORD PTR no$[rbp]
	lea	rcx, OFFSET FLAT:??_C@_1CM@IOIGOEEA@?$AAR?$AAe?$AAm?$AAa?$AAi?$AAn?$AAd?$AAe?$AAr?$AA_?$AAX?$AA_?$AAX?$AA?5?$AA?$CI@
	call	FormatTestLabel
	mov	rcx, QWORD PTR tv132[rbp]
	mov	r9, rcx
	mov	r8d, DWORD PTR tv143[rbp]
	mov	rdx, rax
	mov	rcx, QWORD PTR env$[rbp]
	call	TEST_Assert

; 175  :     if (desired_return_code == PMC_STATUS_OK)

	cmp	DWORD PTR desired_return_code$[rbp], 0
	jne	$LN2@TEST_Remai

; 176  :     {
; 177  :         TEST_Assert(env, FormatTestLabel(L"Remainder_X_X (%d.%d)", no, 4), (result = ep->ToByteArray(r, actual_r_buf, sizeof(actual_r_buf), &actual_r_buf_size)) == PMC_STATUS_OK, FormatTestMesssage(L"ToByteArrayの復帰コードが期待通りではない(%d)", result));

	lea	r9, QWORD PTR actual_r_buf_size$[rbp]
	mov	r8d, 256				; 00000100H
	lea	rdx, QWORD PTR actual_r_buf$[rbp]
	mov	rcx, QWORD PTR r$[rbp]
	mov	rax, QWORD PTR ep$[rbp]
	call	QWORD PTR [rax+608]
	mov	DWORD PTR result$[rbp], eax
	cmp	DWORD PTR result$[rbp], 0
	jne	SHORT $LN13@TEST_Remai
	mov	DWORD PTR tv163[rbp], 1
	jmp	SHORT $LN14@TEST_Remai
$LN13@TEST_Remai:
	mov	DWORD PTR tv163[rbp], 0
$LN14@TEST_Remai:
	mov	edx, DWORD PTR result$[rbp]
	lea	rcx, OFFSET FLAT:??_C@_1DO@DOHJEMND@?$AAT?$AAo?$AAB?$AAy?$AAt?$AAe?$AAA?$AAr?$AAr?$AAa?$AAy?$AAn?$PP?$KJ?$AA0?$PP?$LD@
	call	FormatTestMesssage
	mov	QWORD PTR tv152[rbp], rax
	mov	r8d, 4
	mov	edx, DWORD PTR no$[rbp]
	lea	rcx, OFFSET FLAT:??_C@_1CM@IOIGOEEA@?$AAR?$AAe?$AAm?$AAa?$AAi?$AAn?$AAd?$AAe?$AAr?$AA_?$AAX?$AA_?$AAX?$AA?5?$AA?$CI@
	call	FormatTestLabel
	mov	rcx, QWORD PTR tv152[rbp]
	mov	r9, rcx
	mov	r8d, DWORD PTR tv163[rbp]
	mov	rdx, rax
	mov	rcx, QWORD PTR env$[rbp]
	call	TEST_Assert

; 178  :         TEST_Assert(env, FormatTestLabel(L"Remainder_X_X (%d.%d)", no, 5), _EQUALS_MEMORY(actual_r_buf, actual_r_buf_size, desired_r_buf, desired_r_buf_size) == 0, L"剰余の値が一致しない");

	mov	r9, QWORD PTR desired_r_buf_size$[rbp]
	mov	r8, QWORD PTR desired_r_buf$[rbp]
	mov	rdx, QWORD PTR actual_r_buf_size$[rbp]
	lea	rcx, QWORD PTR actual_r_buf$[rbp]
	call	_EQUALS_MEMORY
	test	eax, eax
	jne	SHORT $LN15@TEST_Remai
	mov	DWORD PTR tv178[rbp], 1
	jmp	SHORT $LN16@TEST_Remai
$LN15@TEST_Remai:
	mov	DWORD PTR tv178[rbp], 0
$LN16@TEST_Remai:
	mov	r8d, 5
	mov	edx, DWORD PTR no$[rbp]
	lea	rcx, OFFSET FLAT:??_C@_1CM@IOIGOEEA@?$AAR?$AAe?$AAm?$AAa?$AAi?$AAn?$AAd?$AAe?$AAr?$AA_?$AAX?$AA_?$AAX?$AA?5?$AA?$CI@
	call	FormatTestLabel
	lea	r9, OFFSET FLAT:??_C@_1BG@BPGLFLF@?$AAp?$AAY?$AAn?$AA$?$AAL?$AA?$AA?$PP?t?$AAW?$AAj?$AAD@
	mov	r8d, DWORD PTR tv178[rbp]
	mov	rdx, rax
	mov	rcx, QWORD PTR env$[rbp]
	call	TEST_Assert
$LN2@TEST_Remai:

; 179  :     }
; 180  :     if (r_result == PMC_STATUS_OK)

	cmp	DWORD PTR r_result$[rbp], 0
	jne	SHORT $LN3@TEST_Remai

; 181  :         ep->Dispose(r);

	mov	rcx, QWORD PTR r$[rbp]
	mov	rax, QWORD PTR ep$[rbp]
	call	QWORD PTR [rax+584]
$LN3@TEST_Remai:

; 182  :     if (v_result == PMC_STATUS_OK)

	cmp	DWORD PTR v_result$[rbp], 0
	jne	SHORT $LN4@TEST_Remai

; 183  :         ep->Dispose(v);

	mov	rcx, QWORD PTR v$[rbp]
	mov	rax, QWORD PTR ep$[rbp]
	call	QWORD PTR [rax+584]
$LN4@TEST_Remai:

; 184  :     if (u_result == PMC_STATUS_OK)

	cmp	DWORD PTR u_result$[rbp], 0
	jne	SHORT $LN5@TEST_Remai

; 185  :         ep->Dispose(u);

	mov	rcx, QWORD PTR u$[rbp]
	mov	rax, QWORD PTR ep$[rbp]
	call	QWORD PTR [rax+584]
$LN5@TEST_Remai:

; 186  : }

	lea	rcx, QWORD PTR [rbp-32]
	lea	rdx, OFFSET FLAT:TEST_Remainder_X_X$rtcFrameData
	call	_RTC_CheckStackVars
	mov	rcx, QWORD PTR __$ArrayPad$[rbp]
	xor	rcx, rbp
	call	__security_check_cookie
	lea	rsp, QWORD PTR [rbp+952]
	pop	rdi
	pop	rbp
	ret	0
TEST_Remainder_X_X ENDP
_TEXT	ENDS
; Function compile flags: /Odtp /RTCsu /ZI
; File z:\sources\lunor\repos\rougemeilland\palmtree.math.core.sint\palmtree.math.core.sint\test_op_remainder.c
;	COMDAT TEST_Remainder_X_UX
_TEXT	SEGMENT
u$ = 8
v$ = 40
r$ = 72
actual_r_buf$ = 112
actual_r_buf_size$ = 392
result$ = 420
u_result$ = 452
v_result$ = 484
r_result$ = 516
tv178 = 916
tv163 = 916
tv143 = 916
tv92 = 916
tv74 = 916
tv152 = 920
tv132 = 920
tv82 = 920
tv64 = 920
__$ArrayPad$ = 928
env$ = 976
ep$ = 984
no$ = 992
u_buf$ = 1000
u_buf_size$ = 1008
v_buf$ = 1016
v_buf_size$ = 1024
desired_return_code$ = 1032
desired_r_buf$ = 1040
desired_r_buf_size$ = 1048
TEST_Remainder_X_UX PROC				; COMDAT

; 135  : {

$LN17:
	mov	QWORD PTR [rsp+32], r9
	mov	DWORD PTR [rsp+24], r8d
	mov	QWORD PTR [rsp+16], rdx
	mov	QWORD PTR [rsp+8], rcx
	push	rbp
	push	rdi
	sub	rsp, 984				; 000003d8H
	lea	rbp, QWORD PTR [rsp+32]
	mov	rdi, rsp
	mov	ecx, 246				; 000000f6H
	mov	eax, -858993460				; ccccccccH
	rep stosd
	mov	rcx, QWORD PTR [rsp+1016]
	mov	rax, QWORD PTR __security_cookie
	xor	rax, rbp
	mov	QWORD PTR __$ArrayPad$[rbp], rax
	lea	rcx, OFFSET FLAT:__BFDCEF3B_test_op_remainder@c
	call	__CheckForDebuggerJustMyCode

; 136  :     PMC_HANDLE_SINT u;
; 137  :     PMC_HANDLE_UINT v;
; 138  :     PMC_HANDLE_SINT r;
; 139  :     unsigned char actual_r_buf[256];
; 140  :     size_t actual_r_buf_size;
; 141  :     PMC_STATUS_CODE result;
; 142  :     PMC_STATUS_CODE u_result;
; 143  :     PMC_STATUS_CODE v_result;
; 144  :     PMC_STATUS_CODE r_result;
; 145  :     TEST_Assert(env, FormatTestLabel(L"Remainder_X_UX (%d.%d)", no, 1), (u_result = ep->FromByteArray(u_buf, u_buf_size, &u)) == PMC_STATUS_OK, FormatTestMesssage(L"FromByteArrayの復帰コードが期待通りではない(%d)", u_result));

	lea	r8, QWORD PTR u$[rbp]
	mov	rdx, QWORD PTR u_buf_size$[rbp]
	mov	rcx, QWORD PTR u_buf$[rbp]
	mov	rax, QWORD PTR ep$[rbp]
	call	QWORD PTR [rax+600]
	mov	DWORD PTR u_result$[rbp], eax
	cmp	DWORD PTR u_result$[rbp], 0
	jne	SHORT $LN7@TEST_Remai
	mov	DWORD PTR tv74[rbp], 1
	jmp	SHORT $LN8@TEST_Remai
$LN7@TEST_Remai:
	mov	DWORD PTR tv74[rbp], 0
$LN8@TEST_Remai:
	mov	edx, DWORD PTR u_result$[rbp]
	lea	rcx, OFFSET FLAT:??_C@_1EC@NPMCAPKO@?$AAF?$AAr?$AAo?$AAm?$AAB?$AAy?$AAt?$AAe?$AAA?$AAr?$AAr?$AAa?$AAy?$AAn?$PP?$KJ@
	call	FormatTestMesssage
	mov	QWORD PTR tv64[rbp], rax
	mov	r8d, 1
	mov	edx, DWORD PTR no$[rbp]
	lea	rcx, OFFSET FLAT:??_C@_1CO@JMBPNOGJ@?$AAR?$AAe?$AAm?$AAa?$AAi?$AAn?$AAd?$AAe?$AAr?$AA_?$AAX?$AA_?$AAU?$AAX?$AA?5@
	call	FormatTestLabel
	mov	rcx, QWORD PTR tv64[rbp]
	mov	r9, rcx
	mov	r8d, DWORD PTR tv74[rbp]
	mov	rdx, rax
	mov	rcx, QWORD PTR env$[rbp]
	call	TEST_Assert

; 146  :     TEST_Assert(env, FormatTestLabel(L"Remainder_X_UX (%d.%d)", no, 2), (v_result = ep->UINT_ENTRY_POINTS.FromByteArray(v_buf, v_buf_size, &v)) == PMC_STATUS_OK, FormatTestMesssage(L"FromByteArrayの復帰コードが期待通りではない(%d)", v_result));

	lea	r8, QWORD PTR v$[rbp]
	mov	rdx, QWORD PTR v_buf_size$[rbp]
	mov	rcx, QWORD PTR v_buf$[rbp]
	mov	rax, QWORD PTR ep$[rbp]
	call	QWORD PTR [rax+48]
	mov	DWORD PTR v_result$[rbp], eax
	cmp	DWORD PTR v_result$[rbp], 0
	jne	SHORT $LN9@TEST_Remai
	mov	DWORD PTR tv92[rbp], 1
	jmp	SHORT $LN10@TEST_Remai
$LN9@TEST_Remai:
	mov	DWORD PTR tv92[rbp], 0
$LN10@TEST_Remai:
	mov	edx, DWORD PTR v_result$[rbp]
	lea	rcx, OFFSET FLAT:??_C@_1EC@NPMCAPKO@?$AAF?$AAr?$AAo?$AAm?$AAB?$AAy?$AAt?$AAe?$AAA?$AAr?$AAr?$AAa?$AAy?$AAn?$PP?$KJ@
	call	FormatTestMesssage
	mov	QWORD PTR tv82[rbp], rax
	mov	r8d, 2
	mov	edx, DWORD PTR no$[rbp]
	lea	rcx, OFFSET FLAT:??_C@_1CO@JMBPNOGJ@?$AAR?$AAe?$AAm?$AAa?$AAi?$AAn?$AAd?$AAe?$AAr?$AA_?$AAX?$AA_?$AAU?$AAX?$AA?5@
	call	FormatTestLabel
	mov	rcx, QWORD PTR tv82[rbp]
	mov	r9, rcx
	mov	r8d, DWORD PTR tv92[rbp]
	mov	rdx, rax
	mov	rcx, QWORD PTR env$[rbp]
	call	TEST_Assert

; 147  :     TEST_Assert(env, FormatTestLabel(L"Remainder_X_UX (%d.%d)", no, 3), (r_result = ep->DivRem_X_UX(u, v, NULL, &r)) == desired_return_code, FormatTestMesssage(L"DivRem_X_UXの復帰コードが期待通りではない(%d)", r_result));

	lea	r9, QWORD PTR r$[rbp]
	xor	r8d, r8d
	mov	rdx, QWORD PTR v$[rbp]
	mov	rcx, QWORD PTR u$[rbp]
	mov	rax, QWORD PTR ep$[rbp]
	call	QWORD PTR [rax+864]
	mov	DWORD PTR r_result$[rbp], eax
	mov	eax, DWORD PTR desired_return_code$[rbp]
	cmp	DWORD PTR r_result$[rbp], eax
	jne	SHORT $LN11@TEST_Remai
	mov	DWORD PTR tv143[rbp], 1
	jmp	SHORT $LN12@TEST_Remai
$LN11@TEST_Remai:
	mov	DWORD PTR tv143[rbp], 0
$LN12@TEST_Remai:
	mov	edx, DWORD PTR r_result$[rbp]
	lea	rcx, OFFSET FLAT:??_C@_1DO@LADEACKM@?$AAD?$AAi?$AAv?$AAR?$AAe?$AAm?$AA_?$AAX?$AA_?$AAU?$AAX?$AAn?$PP?$KJ?$AA0?$PP?$LD@
	call	FormatTestMesssage
	mov	QWORD PTR tv132[rbp], rax
	mov	r8d, 3
	mov	edx, DWORD PTR no$[rbp]
	lea	rcx, OFFSET FLAT:??_C@_1CO@JMBPNOGJ@?$AAR?$AAe?$AAm?$AAa?$AAi?$AAn?$AAd?$AAe?$AAr?$AA_?$AAX?$AA_?$AAU?$AAX?$AA?5@
	call	FormatTestLabel
	mov	rcx, QWORD PTR tv132[rbp]
	mov	r9, rcx
	mov	r8d, DWORD PTR tv143[rbp]
	mov	rdx, rax
	mov	rcx, QWORD PTR env$[rbp]
	call	TEST_Assert

; 148  :     if (desired_return_code == PMC_STATUS_OK)

	cmp	DWORD PTR desired_return_code$[rbp], 0
	jne	$LN2@TEST_Remai

; 149  :     {
; 150  :         TEST_Assert(env, FormatTestLabel(L"Remainder_X_UX (%d.%d)", no, 5), (result = ep->ToByteArray(r, actual_r_buf, sizeof(actual_r_buf), &actual_r_buf_size)) == PMC_STATUS_OK, FormatTestMesssage(L"ToByteArrayの復帰コードが期待通りではない(%d)", result));

	lea	r9, QWORD PTR actual_r_buf_size$[rbp]
	mov	r8d, 256				; 00000100H
	lea	rdx, QWORD PTR actual_r_buf$[rbp]
	mov	rcx, QWORD PTR r$[rbp]
	mov	rax, QWORD PTR ep$[rbp]
	call	QWORD PTR [rax+608]
	mov	DWORD PTR result$[rbp], eax
	cmp	DWORD PTR result$[rbp], 0
	jne	SHORT $LN13@TEST_Remai
	mov	DWORD PTR tv163[rbp], 1
	jmp	SHORT $LN14@TEST_Remai
$LN13@TEST_Remai:
	mov	DWORD PTR tv163[rbp], 0
$LN14@TEST_Remai:
	mov	edx, DWORD PTR result$[rbp]
	lea	rcx, OFFSET FLAT:??_C@_1DO@DOHJEMND@?$AAT?$AAo?$AAB?$AAy?$AAt?$AAe?$AAA?$AAr?$AAr?$AAa?$AAy?$AAn?$PP?$KJ?$AA0?$PP?$LD@
	call	FormatTestMesssage
	mov	QWORD PTR tv152[rbp], rax
	mov	r8d, 5
	mov	edx, DWORD PTR no$[rbp]
	lea	rcx, OFFSET FLAT:??_C@_1CO@JMBPNOGJ@?$AAR?$AAe?$AAm?$AAa?$AAi?$AAn?$AAd?$AAe?$AAr?$AA_?$AAX?$AA_?$AAU?$AAX?$AA?5@
	call	FormatTestLabel
	mov	rcx, QWORD PTR tv152[rbp]
	mov	r9, rcx
	mov	r8d, DWORD PTR tv163[rbp]
	mov	rdx, rax
	mov	rcx, QWORD PTR env$[rbp]
	call	TEST_Assert

; 151  :         TEST_Assert(env, FormatTestLabel(L"Remainder_X_UX (%d.%d)", no, 7), _EQUALS_MEMORY(actual_r_buf, actual_r_buf_size, desired_r_buf, desired_r_buf_size) == 0, L"剰余の値が一致しない");

	mov	r9, QWORD PTR desired_r_buf_size$[rbp]
	mov	r8, QWORD PTR desired_r_buf$[rbp]
	mov	rdx, QWORD PTR actual_r_buf_size$[rbp]
	lea	rcx, QWORD PTR actual_r_buf$[rbp]
	call	_EQUALS_MEMORY
	test	eax, eax
	jne	SHORT $LN15@TEST_Remai
	mov	DWORD PTR tv178[rbp], 1
	jmp	SHORT $LN16@TEST_Remai
$LN15@TEST_Remai:
	mov	DWORD PTR tv178[rbp], 0
$LN16@TEST_Remai:
	mov	r8d, 7
	mov	edx, DWORD PTR no$[rbp]
	lea	rcx, OFFSET FLAT:??_C@_1CO@JMBPNOGJ@?$AAR?$AAe?$AAm?$AAa?$AAi?$AAn?$AAd?$AAe?$AAr?$AA_?$AAX?$AA_?$AAU?$AAX?$AA?5@
	call	FormatTestLabel
	lea	r9, OFFSET FLAT:??_C@_1BG@BPGLFLF@?$AAp?$AAY?$AAn?$AA$?$AAL?$AA?$AA?$PP?t?$AAW?$AAj?$AAD@
	mov	r8d, DWORD PTR tv178[rbp]
	mov	rdx, rax
	mov	rcx, QWORD PTR env$[rbp]
	call	TEST_Assert
$LN2@TEST_Remai:

; 152  :     }
; 153  :     if (r_result == PMC_STATUS_OK)

	cmp	DWORD PTR r_result$[rbp], 0
	jne	SHORT $LN3@TEST_Remai

; 154  :         ep->Dispose(r);

	mov	rcx, QWORD PTR r$[rbp]
	mov	rax, QWORD PTR ep$[rbp]
	call	QWORD PTR [rax+584]
$LN3@TEST_Remai:

; 155  :     if (v_result == PMC_STATUS_OK)

	cmp	DWORD PTR v_result$[rbp], 0
	jne	SHORT $LN4@TEST_Remai

; 156  :         ep->UINT_ENTRY_POINTS.Dispose(v);

	mov	rcx, QWORD PTR v$[rbp]
	mov	rax, QWORD PTR ep$[rbp]
	call	QWORD PTR [rax+32]
$LN4@TEST_Remai:

; 157  :     if (u_result == PMC_STATUS_OK)

	cmp	DWORD PTR u_result$[rbp], 0
	jne	SHORT $LN5@TEST_Remai

; 158  :         ep->Dispose(u);

	mov	rcx, QWORD PTR u$[rbp]
	mov	rax, QWORD PTR ep$[rbp]
	call	QWORD PTR [rax+584]
$LN5@TEST_Remai:

; 159  : }

	lea	rcx, QWORD PTR [rbp-32]
	lea	rdx, OFFSET FLAT:TEST_Remainder_X_UX$rtcFrameData
	call	_RTC_CheckStackVars
	mov	rcx, QWORD PTR __$ArrayPad$[rbp]
	xor	rcx, rbp
	call	__security_check_cookie
	lea	rsp, QWORD PTR [rbp+952]
	pop	rdi
	pop	rbp
	ret	0
TEST_Remainder_X_UX ENDP
_TEXT	ENDS
; Function compile flags: /Odtp /RTCsu /ZI
; File z:\sources\lunor\repos\rougemeilland\palmtree.math.core.sint\palmtree.math.core.sint\test_op_remainder.c
;	COMDAT TEST_Remainder_X_L
_TEXT	SEGMENT
u$ = 8
actual_r$ = 40
result$ = 68
u_result$ = 100
tv136 = 308
tv93 = 308
tv74 = 308
tv82 = 312
tv64 = 312
__$ArrayPad$ = 320
env$ = 368
ep$ = 376
no$ = 384
u_buf$ = 392
u_buf_size$ = 400
v$ = 408
desired_return_code$ = 416
desired_r$ = 424
TEST_Remainder_X_L PROC					; COMDAT

; 119  : {

$LN11:
	mov	QWORD PTR [rsp+32], r9
	mov	DWORD PTR [rsp+24], r8d
	mov	QWORD PTR [rsp+16], rdx
	mov	QWORD PTR [rsp+8], rcx
	push	rbp
	push	rdi
	sub	rsp, 376				; 00000178H
	lea	rbp, QWORD PTR [rsp+32]
	mov	rdi, rsp
	mov	ecx, 94					; 0000005eH
	mov	eax, -858993460				; ccccccccH
	rep stosd
	mov	rcx, QWORD PTR [rsp+408]
	mov	rax, QWORD PTR __security_cookie
	xor	rax, rbp
	mov	QWORD PTR __$ArrayPad$[rbp], rax
	lea	rcx, OFFSET FLAT:__BFDCEF3B_test_op_remainder@c
	call	__CheckForDebuggerJustMyCode

; 120  :     PMC_HANDLE_SINT u;
; 121  :     __int64 actual_r;
; 122  :     PMC_STATUS_CODE result;
; 123  :     PMC_STATUS_CODE u_result;
; 124  :     TEST_Assert(env, FormatTestLabel(L"Remainder_X_L (%d.%d)", no, 1), (u_result = ep->FromByteArray(u_buf, u_buf_size, &u)) == PMC_STATUS_OK, FormatTestMesssage(L"FromByteArrayの復帰コードが期待通りではない(%d)", u_result));

	lea	r8, QWORD PTR u$[rbp]
	mov	rdx, QWORD PTR u_buf_size$[rbp]
	mov	rcx, QWORD PTR u_buf$[rbp]
	mov	rax, QWORD PTR ep$[rbp]
	call	QWORD PTR [rax+600]
	mov	DWORD PTR u_result$[rbp], eax
	cmp	DWORD PTR u_result$[rbp], 0
	jne	SHORT $LN5@TEST_Remai
	mov	DWORD PTR tv74[rbp], 1
	jmp	SHORT $LN6@TEST_Remai
$LN5@TEST_Remai:
	mov	DWORD PTR tv74[rbp], 0
$LN6@TEST_Remai:
	mov	edx, DWORD PTR u_result$[rbp]
	lea	rcx, OFFSET FLAT:??_C@_1EC@NPMCAPKO@?$AAF?$AAr?$AAo?$AAm?$AAB?$AAy?$AAt?$AAe?$AAA?$AAr?$AAr?$AAa?$AAy?$AAn?$PP?$KJ@
	call	FormatTestMesssage
	mov	QWORD PTR tv64[rbp], rax
	mov	r8d, 1
	mov	edx, DWORD PTR no$[rbp]
	lea	rcx, OFFSET FLAT:??_C@_1CM@CAKNKEDM@?$AAR?$AAe?$AAm?$AAa?$AAi?$AAn?$AAd?$AAe?$AAr?$AA_?$AAX?$AA_?$AAL?$AA?5?$AA?$CI@
	call	FormatTestLabel
	mov	rcx, QWORD PTR tv64[rbp]
	mov	r9, rcx
	mov	r8d, DWORD PTR tv74[rbp]
	mov	rdx, rax
	mov	rcx, QWORD PTR env$[rbp]
	call	TEST_Assert

; 125  :     TEST_Assert(env, FormatTestLabel(L"Remainder_X_L (%d.%d)", no, 2), (result = ep->DivRem_X_L(u, v, NULL, &actual_r)) == desired_return_code, FormatTestMesssage(L"DivRem_X_Lの復帰コードが期待通りではない(%d)", result));

	lea	r9, QWORD PTR actual_r$[rbp]
	xor	r8d, r8d
	mov	rdx, QWORD PTR v$[rbp]
	mov	rcx, QWORD PTR u$[rbp]
	mov	rax, QWORD PTR ep$[rbp]
	call	QWORD PTR [rax+856]
	mov	DWORD PTR result$[rbp], eax
	mov	eax, DWORD PTR desired_return_code$[rbp]
	cmp	DWORD PTR result$[rbp], eax
	jne	SHORT $LN7@TEST_Remai
	mov	DWORD PTR tv93[rbp], 1
	jmp	SHORT $LN8@TEST_Remai
$LN7@TEST_Remai:
	mov	DWORD PTR tv93[rbp], 0
$LN8@TEST_Remai:
	mov	edx, DWORD PTR result$[rbp]
	lea	rcx, OFFSET FLAT:??_C@_1DM@ELDKLHAI@?$AAD?$AAi?$AAv?$AAR?$AAe?$AAm?$AA_?$AAX?$AA_?$AAL?$AAn?$PP?$KJ?$AA0?$PP?$LD?$PP?$PM@
	call	FormatTestMesssage
	mov	QWORD PTR tv82[rbp], rax
	mov	r8d, 2
	mov	edx, DWORD PTR no$[rbp]
	lea	rcx, OFFSET FLAT:??_C@_1CM@CAKNKEDM@?$AAR?$AAe?$AAm?$AAa?$AAi?$AAn?$AAd?$AAe?$AAr?$AA_?$AAX?$AA_?$AAL?$AA?5?$AA?$CI@
	call	FormatTestLabel
	mov	rcx, QWORD PTR tv82[rbp]
	mov	r9, rcx
	mov	r8d, DWORD PTR tv93[rbp]
	mov	rdx, rax
	mov	rcx, QWORD PTR env$[rbp]
	call	TEST_Assert

; 126  :     if (desired_return_code == PMC_STATUS_OK)

	cmp	DWORD PTR desired_return_code$[rbp], 0
	jne	SHORT $LN2@TEST_Remai

; 127  :     {
; 128  :         TEST_Assert(env, FormatTestLabel(L"Remainder_X_L (%d.%d)", no, 5), actual_r == desired_r, L"剰余の値が一致しない");

	mov	rax, QWORD PTR desired_r$[rbp]
	cmp	QWORD PTR actual_r$[rbp], rax
	jne	SHORT $LN9@TEST_Remai
	mov	DWORD PTR tv136[rbp], 1
	jmp	SHORT $LN10@TEST_Remai
$LN9@TEST_Remai:
	mov	DWORD PTR tv136[rbp], 0
$LN10@TEST_Remai:
	mov	r8d, 5
	mov	edx, DWORD PTR no$[rbp]
	lea	rcx, OFFSET FLAT:??_C@_1CM@CAKNKEDM@?$AAR?$AAe?$AAm?$AAa?$AAi?$AAn?$AAd?$AAe?$AAr?$AA_?$AAX?$AA_?$AAL?$AA?5?$AA?$CI@
	call	FormatTestLabel
	lea	r9, OFFSET FLAT:??_C@_1BG@BPGLFLF@?$AAp?$AAY?$AAn?$AA$?$AAL?$AA?$AA?$PP?t?$AAW?$AAj?$AAD@
	mov	r8d, DWORD PTR tv136[rbp]
	mov	rdx, rax
	mov	rcx, QWORD PTR env$[rbp]
	call	TEST_Assert
$LN2@TEST_Remai:

; 129  :     }
; 130  :     if (u_result == PMC_STATUS_OK)

	cmp	DWORD PTR u_result$[rbp], 0
	jne	SHORT $LN3@TEST_Remai

; 131  :         ep->Dispose(u);

	mov	rcx, QWORD PTR u$[rbp]
	mov	rax, QWORD PTR ep$[rbp]
	call	QWORD PTR [rax+584]
$LN3@TEST_Remai:

; 132  : }

	lea	rcx, QWORD PTR [rbp-32]
	lea	rdx, OFFSET FLAT:TEST_Remainder_X_L$rtcFrameData
	call	_RTC_CheckStackVars
	mov	rcx, QWORD PTR __$ArrayPad$[rbp]
	xor	rcx, rbp
	call	__security_check_cookie
	lea	rsp, QWORD PTR [rbp+344]
	pop	rdi
	pop	rbp
	ret	0
TEST_Remainder_X_L ENDP
_TEXT	ENDS
; Function compile flags: /Odtp /RTCsu /ZI
; File z:\sources\lunor\repos\rougemeilland\palmtree.math.core.sint\palmtree.math.core.sint\test_op_remainder.c
;	COMDAT TEST_Remainder_X_I
_TEXT	SEGMENT
u$ = 8
actual_r$ = 36
result$ = 68
u_result$ = 100
tv136 = 308
tv93 = 308
tv74 = 308
tv82 = 312
tv64 = 312
__$ArrayPad$ = 320
env$ = 368
ep$ = 376
no$ = 384
u_buf$ = 392
u_buf_size$ = 400
v$ = 408
desired_return_code$ = 416
desired_r$ = 424
TEST_Remainder_X_I PROC					; COMDAT

; 103  : {

$LN11:
	mov	QWORD PTR [rsp+32], r9
	mov	DWORD PTR [rsp+24], r8d
	mov	QWORD PTR [rsp+16], rdx
	mov	QWORD PTR [rsp+8], rcx
	push	rbp
	push	rdi
	sub	rsp, 376				; 00000178H
	lea	rbp, QWORD PTR [rsp+32]
	mov	rdi, rsp
	mov	ecx, 94					; 0000005eH
	mov	eax, -858993460				; ccccccccH
	rep stosd
	mov	rcx, QWORD PTR [rsp+408]
	mov	rax, QWORD PTR __security_cookie
	xor	rax, rbp
	mov	QWORD PTR __$ArrayPad$[rbp], rax
	lea	rcx, OFFSET FLAT:__BFDCEF3B_test_op_remainder@c
	call	__CheckForDebuggerJustMyCode

; 104  :     PMC_HANDLE_SINT u;
; 105  :     __int32 actual_r;
; 106  :     PMC_STATUS_CODE result;
; 107  :     PMC_STATUS_CODE u_result;
; 108  :     TEST_Assert(env, FormatTestLabel(L"Remainder_X_I (%d.%d)", no, 1), (u_result = ep->FromByteArray(u_buf, u_buf_size, &u)) == PMC_STATUS_OK, FormatTestMesssage(L"FromByteArrayの復帰コードが期待通りではない(%d)", u_result));

	lea	r8, QWORD PTR u$[rbp]
	mov	rdx, QWORD PTR u_buf_size$[rbp]
	mov	rcx, QWORD PTR u_buf$[rbp]
	mov	rax, QWORD PTR ep$[rbp]
	call	QWORD PTR [rax+600]
	mov	DWORD PTR u_result$[rbp], eax
	cmp	DWORD PTR u_result$[rbp], 0
	jne	SHORT $LN5@TEST_Remai
	mov	DWORD PTR tv74[rbp], 1
	jmp	SHORT $LN6@TEST_Remai
$LN5@TEST_Remai:
	mov	DWORD PTR tv74[rbp], 0
$LN6@TEST_Remai:
	mov	edx, DWORD PTR u_result$[rbp]
	lea	rcx, OFFSET FLAT:??_C@_1EC@NPMCAPKO@?$AAF?$AAr?$AAo?$AAm?$AAB?$AAy?$AAt?$AAe?$AAA?$AAr?$AAr?$AAa?$AAy?$AAn?$PP?$KJ@
	call	FormatTestMesssage
	mov	QWORD PTR tv64[rbp], rax
	mov	r8d, 1
	mov	edx, DWORD PTR no$[rbp]
	lea	rcx, OFFSET FLAT:??_C@_1CM@LCHHECD@?$AAR?$AAe?$AAm?$AAa?$AAi?$AAn?$AAd?$AAe?$AAr?$AA_?$AAX?$AA_?$AAI?$AA?5?$AA?$CI@
	call	FormatTestLabel
	mov	rcx, QWORD PTR tv64[rbp]
	mov	r9, rcx
	mov	r8d, DWORD PTR tv74[rbp]
	mov	rdx, rax
	mov	rcx, QWORD PTR env$[rbp]
	call	TEST_Assert

; 109  :     TEST_Assert(env, FormatTestLabel(L"Remainder_X_I (%d.%d)", no, 2), (result = ep->DivRem_X_I(u, v, NULL, &actual_r)) == desired_return_code, FormatTestMesssage(L"DivRem_X_Iの復帰コードが期待通りではない(%d)", result));

	lea	r9, QWORD PTR actual_r$[rbp]
	xor	r8d, r8d
	mov	edx, DWORD PTR v$[rbp]
	mov	rcx, QWORD PTR u$[rbp]
	mov	rax, QWORD PTR ep$[rbp]
	call	QWORD PTR [rax+848]
	mov	DWORD PTR result$[rbp], eax
	mov	eax, DWORD PTR desired_return_code$[rbp]
	cmp	DWORD PTR result$[rbp], eax
	jne	SHORT $LN7@TEST_Remai
	mov	DWORD PTR tv93[rbp], 1
	jmp	SHORT $LN8@TEST_Remai
$LN7@TEST_Remai:
	mov	DWORD PTR tv93[rbp], 0
$LN8@TEST_Remai:
	mov	edx, DWORD PTR result$[rbp]
	lea	rcx, OFFSET FLAT:??_C@_1DM@DHGCKJN@?$AAD?$AAi?$AAv?$AAR?$AAe?$AAm?$AA_?$AAX?$AA_?$AAI?$AAn?$PP?$KJ?$AA0?$PP?$LD?$PP?$PM@
	call	FormatTestMesssage
	mov	QWORD PTR tv82[rbp], rax
	mov	r8d, 2
	mov	edx, DWORD PTR no$[rbp]
	lea	rcx, OFFSET FLAT:??_C@_1CM@LCHHECD@?$AAR?$AAe?$AAm?$AAa?$AAi?$AAn?$AAd?$AAe?$AAr?$AA_?$AAX?$AA_?$AAI?$AA?5?$AA?$CI@
	call	FormatTestLabel
	mov	rcx, QWORD PTR tv82[rbp]
	mov	r9, rcx
	mov	r8d, DWORD PTR tv93[rbp]
	mov	rdx, rax
	mov	rcx, QWORD PTR env$[rbp]
	call	TEST_Assert

; 110  :     if (desired_return_code == PMC_STATUS_OK)

	cmp	DWORD PTR desired_return_code$[rbp], 0
	jne	SHORT $LN2@TEST_Remai

; 111  :     {
; 112  :         TEST_Assert(env, FormatTestLabel(L"Remainder_X_I (%d.%d)", no, 3), actual_r == desired_r, L"剰余の値が一致しない");

	mov	eax, DWORD PTR desired_r$[rbp]
	cmp	DWORD PTR actual_r$[rbp], eax
	jne	SHORT $LN9@TEST_Remai
	mov	DWORD PTR tv136[rbp], 1
	jmp	SHORT $LN10@TEST_Remai
$LN9@TEST_Remai:
	mov	DWORD PTR tv136[rbp], 0
$LN10@TEST_Remai:
	mov	r8d, 3
	mov	edx, DWORD PTR no$[rbp]
	lea	rcx, OFFSET FLAT:??_C@_1CM@LCHHECD@?$AAR?$AAe?$AAm?$AAa?$AAi?$AAn?$AAd?$AAe?$AAr?$AA_?$AAX?$AA_?$AAI?$AA?5?$AA?$CI@
	call	FormatTestLabel
	lea	r9, OFFSET FLAT:??_C@_1BG@BPGLFLF@?$AAp?$AAY?$AAn?$AA$?$AAL?$AA?$AA?$PP?t?$AAW?$AAj?$AAD@
	mov	r8d, DWORD PTR tv136[rbp]
	mov	rdx, rax
	mov	rcx, QWORD PTR env$[rbp]
	call	TEST_Assert
$LN2@TEST_Remai:

; 113  :     }
; 114  :     if (u_result == PMC_STATUS_OK)

	cmp	DWORD PTR u_result$[rbp], 0
	jne	SHORT $LN3@TEST_Remai

; 115  :         ep->Dispose(u);

	mov	rcx, QWORD PTR u$[rbp]
	mov	rax, QWORD PTR ep$[rbp]
	call	QWORD PTR [rax+584]
$LN3@TEST_Remai:

; 116  : }

	lea	rcx, QWORD PTR [rbp-32]
	lea	rdx, OFFSET FLAT:TEST_Remainder_X_I$rtcFrameData
	call	_RTC_CheckStackVars
	mov	rcx, QWORD PTR __$ArrayPad$[rbp]
	xor	rcx, rbp
	call	__security_check_cookie
	lea	rsp, QWORD PTR [rbp+344]
	pop	rdi
	pop	rbp
	ret	0
TEST_Remainder_X_I ENDP
_TEXT	ENDS
; Function compile flags: /Odtp /RTCsu /ZI
; File z:\sources\lunor\repos\rougemeilland\palmtree.math.core.sint\palmtree.math.core.sint\test_op_remainder.c
;	COMDAT TEST_Remainder_UX_X
_TEXT	SEGMENT
u$ = 8
v$ = 40
r$ = 72
actual_r_buf$ = 112
actual_r_buf_size$ = 392
result$ = 420
u_result$ = 452
v_result$ = 484
r_result$ = 516
tv178 = 916
tv163 = 916
tv143 = 916
tv92 = 916
tv74 = 916
tv152 = 920
tv132 = 920
tv82 = 920
tv64 = 920
__$ArrayPad$ = 928
env$ = 976
ep$ = 984
no$ = 992
u_buf$ = 1000
u_buf_size$ = 1008
v_buf$ = 1016
v_buf_size$ = 1024
desired_return_code$ = 1032
desired_r_buf$ = 1040
desired_r_buf_size$ = 1048
TEST_Remainder_UX_X PROC				; COMDAT

; 76   : {

$LN17:
	mov	QWORD PTR [rsp+32], r9
	mov	DWORD PTR [rsp+24], r8d
	mov	QWORD PTR [rsp+16], rdx
	mov	QWORD PTR [rsp+8], rcx
	push	rbp
	push	rdi
	sub	rsp, 984				; 000003d8H
	lea	rbp, QWORD PTR [rsp+32]
	mov	rdi, rsp
	mov	ecx, 246				; 000000f6H
	mov	eax, -858993460				; ccccccccH
	rep stosd
	mov	rcx, QWORD PTR [rsp+1016]
	mov	rax, QWORD PTR __security_cookie
	xor	rax, rbp
	mov	QWORD PTR __$ArrayPad$[rbp], rax
	lea	rcx, OFFSET FLAT:__BFDCEF3B_test_op_remainder@c
	call	__CheckForDebuggerJustMyCode

; 77   :     PMC_HANDLE_UINT u;
; 78   :     PMC_HANDLE_SINT v;
; 79   :     PMC_HANDLE_UINT r;
; 80   :     unsigned char actual_r_buf[256];
; 81   :     size_t actual_r_buf_size;
; 82   :     PMC_STATUS_CODE result;
; 83   :     PMC_STATUS_CODE u_result;
; 84   :     PMC_STATUS_CODE v_result;
; 85   :     PMC_STATUS_CODE r_result;
; 86   :     TEST_Assert(env, FormatTestLabel(L"Remainder_UX_X (%d.%d)", no, 1), (u_result = ep->UINT_ENTRY_POINTS.FromByteArray(u_buf, u_buf_size, &u)) == PMC_STATUS_OK, FormatTestMesssage(L"FromByteArrayの復帰コードが期待通りではない(%d)", u_result));

	lea	r8, QWORD PTR u$[rbp]
	mov	rdx, QWORD PTR u_buf_size$[rbp]
	mov	rcx, QWORD PTR u_buf$[rbp]
	mov	rax, QWORD PTR ep$[rbp]
	call	QWORD PTR [rax+48]
	mov	DWORD PTR u_result$[rbp], eax
	cmp	DWORD PTR u_result$[rbp], 0
	jne	SHORT $LN7@TEST_Remai
	mov	DWORD PTR tv74[rbp], 1
	jmp	SHORT $LN8@TEST_Remai
$LN7@TEST_Remai:
	mov	DWORD PTR tv74[rbp], 0
$LN8@TEST_Remai:
	mov	edx, DWORD PTR u_result$[rbp]
	lea	rcx, OFFSET FLAT:??_C@_1EC@NPMCAPKO@?$AAF?$AAr?$AAo?$AAm?$AAB?$AAy?$AAt?$AAe?$AAA?$AAr?$AAr?$AAa?$AAy?$AAn?$PP?$KJ@
	call	FormatTestMesssage
	mov	QWORD PTR tv64[rbp], rax
	mov	r8d, 1
	mov	edx, DWORD PTR no$[rbp]
	lea	rcx, OFFSET FLAT:??_C@_1CO@KCLEBLGL@?$AAR?$AAe?$AAm?$AAa?$AAi?$AAn?$AAd?$AAe?$AAr?$AA_?$AAU?$AAX?$AA_?$AAX?$AA?5@
	call	FormatTestLabel
	mov	rcx, QWORD PTR tv64[rbp]
	mov	r9, rcx
	mov	r8d, DWORD PTR tv74[rbp]
	mov	rdx, rax
	mov	rcx, QWORD PTR env$[rbp]
	call	TEST_Assert

; 87   :     TEST_Assert(env, FormatTestLabel(L"Remainder_UX_X (%d.%d)", no, 2), (v_result = ep->FromByteArray(v_buf, v_buf_size, &v)) == PMC_STATUS_OK, FormatTestMesssage(L"FromByteArrayの復帰コードが期待通りではない(%d)", v_result));

	lea	r8, QWORD PTR v$[rbp]
	mov	rdx, QWORD PTR v_buf_size$[rbp]
	mov	rcx, QWORD PTR v_buf$[rbp]
	mov	rax, QWORD PTR ep$[rbp]
	call	QWORD PTR [rax+600]
	mov	DWORD PTR v_result$[rbp], eax
	cmp	DWORD PTR v_result$[rbp], 0
	jne	SHORT $LN9@TEST_Remai
	mov	DWORD PTR tv92[rbp], 1
	jmp	SHORT $LN10@TEST_Remai
$LN9@TEST_Remai:
	mov	DWORD PTR tv92[rbp], 0
$LN10@TEST_Remai:
	mov	edx, DWORD PTR v_result$[rbp]
	lea	rcx, OFFSET FLAT:??_C@_1EC@NPMCAPKO@?$AAF?$AAr?$AAo?$AAm?$AAB?$AAy?$AAt?$AAe?$AAA?$AAr?$AAr?$AAa?$AAy?$AAn?$PP?$KJ@
	call	FormatTestMesssage
	mov	QWORD PTR tv82[rbp], rax
	mov	r8d, 2
	mov	edx, DWORD PTR no$[rbp]
	lea	rcx, OFFSET FLAT:??_C@_1CO@KCLEBLGL@?$AAR?$AAe?$AAm?$AAa?$AAi?$AAn?$AAd?$AAe?$AAr?$AA_?$AAU?$AAX?$AA_?$AAX?$AA?5@
	call	FormatTestLabel
	mov	rcx, QWORD PTR tv82[rbp]
	mov	r9, rcx
	mov	r8d, DWORD PTR tv92[rbp]
	mov	rdx, rax
	mov	rcx, QWORD PTR env$[rbp]
	call	TEST_Assert

; 88   :     TEST_Assert(env, FormatTestLabel(L"Remainder_UX_X (%d.%d)", no, 3), (r_result = ep->DivRem_UX_X(u, v, NULL, &r)) == desired_return_code, FormatTestMesssage(L"DivRem_UX_Xの復帰コードが期待通りではない(%d)", r_result));

	lea	r9, QWORD PTR r$[rbp]
	xor	r8d, r8d
	mov	rdx, QWORD PTR v$[rbp]
	mov	rcx, QWORD PTR u$[rbp]
	mov	rax, QWORD PTR ep$[rbp]
	call	QWORD PTR [rax+840]
	mov	DWORD PTR r_result$[rbp], eax
	mov	eax, DWORD PTR desired_return_code$[rbp]
	cmp	DWORD PTR r_result$[rbp], eax
	jne	SHORT $LN11@TEST_Remai
	mov	DWORD PTR tv143[rbp], 1
	jmp	SHORT $LN12@TEST_Remai
$LN11@TEST_Remai:
	mov	DWORD PTR tv143[rbp], 0
$LN12@TEST_Remai:
	mov	edx, DWORD PTR r_result$[rbp]
	lea	rcx, OFFSET FLAT:??_C@_1DO@DHNBEMIM@?$AAD?$AAi?$AAv?$AAR?$AAe?$AAm?$AA_?$AAU?$AAX?$AA_?$AAX?$AAn?$PP?$KJ?$AA0?$PP?$LD@
	call	FormatTestMesssage
	mov	QWORD PTR tv132[rbp], rax
	mov	r8d, 3
	mov	edx, DWORD PTR no$[rbp]
	lea	rcx, OFFSET FLAT:??_C@_1CO@KCLEBLGL@?$AAR?$AAe?$AAm?$AAa?$AAi?$AAn?$AAd?$AAe?$AAr?$AA_?$AAU?$AAX?$AA_?$AAX?$AA?5@
	call	FormatTestLabel
	mov	rcx, QWORD PTR tv132[rbp]
	mov	r9, rcx
	mov	r8d, DWORD PTR tv143[rbp]
	mov	rdx, rax
	mov	rcx, QWORD PTR env$[rbp]
	call	TEST_Assert

; 89   :     if (desired_return_code == PMC_STATUS_OK)

	cmp	DWORD PTR desired_return_code$[rbp], 0
	jne	$LN2@TEST_Remai

; 90   :     {
; 91   :         TEST_Assert(env, FormatTestLabel(L"Remainder_UX_X (%d.%d)", no, 4), (result = ep->UINT_ENTRY_POINTS.ToByteArray(r, actual_r_buf, sizeof(actual_r_buf), &actual_r_buf_size)) == PMC_STATUS_OK, FormatTestMesssage(L"ToByteArrayの復帰コードが期待通りではない(%d)", result));

	lea	r9, QWORD PTR actual_r_buf_size$[rbp]
	mov	r8d, 256				; 00000100H
	lea	rdx, QWORD PTR actual_r_buf$[rbp]
	mov	rcx, QWORD PTR r$[rbp]
	mov	rax, QWORD PTR ep$[rbp]
	call	QWORD PTR [rax+56]
	mov	DWORD PTR result$[rbp], eax
	cmp	DWORD PTR result$[rbp], 0
	jne	SHORT $LN13@TEST_Remai
	mov	DWORD PTR tv163[rbp], 1
	jmp	SHORT $LN14@TEST_Remai
$LN13@TEST_Remai:
	mov	DWORD PTR tv163[rbp], 0
$LN14@TEST_Remai:
	mov	edx, DWORD PTR result$[rbp]
	lea	rcx, OFFSET FLAT:??_C@_1DO@DOHJEMND@?$AAT?$AAo?$AAB?$AAy?$AAt?$AAe?$AAA?$AAr?$AAr?$AAa?$AAy?$AAn?$PP?$KJ?$AA0?$PP?$LD@
	call	FormatTestMesssage
	mov	QWORD PTR tv152[rbp], rax
	mov	r8d, 4
	mov	edx, DWORD PTR no$[rbp]
	lea	rcx, OFFSET FLAT:??_C@_1CO@KCLEBLGL@?$AAR?$AAe?$AAm?$AAa?$AAi?$AAn?$AAd?$AAe?$AAr?$AA_?$AAU?$AAX?$AA_?$AAX?$AA?5@
	call	FormatTestLabel
	mov	rcx, QWORD PTR tv152[rbp]
	mov	r9, rcx
	mov	r8d, DWORD PTR tv163[rbp]
	mov	rdx, rax
	mov	rcx, QWORD PTR env$[rbp]
	call	TEST_Assert

; 92   :         TEST_Assert(env, FormatTestLabel(L"Remainder_UX_X (%d.%d)", no, 5), _EQUALS_MEMORY(actual_r_buf, actual_r_buf_size, desired_r_buf, desired_r_buf_size) == 0, L"剰余の値が一致しない");

	mov	r9, QWORD PTR desired_r_buf_size$[rbp]
	mov	r8, QWORD PTR desired_r_buf$[rbp]
	mov	rdx, QWORD PTR actual_r_buf_size$[rbp]
	lea	rcx, QWORD PTR actual_r_buf$[rbp]
	call	_EQUALS_MEMORY
	test	eax, eax
	jne	SHORT $LN15@TEST_Remai
	mov	DWORD PTR tv178[rbp], 1
	jmp	SHORT $LN16@TEST_Remai
$LN15@TEST_Remai:
	mov	DWORD PTR tv178[rbp], 0
$LN16@TEST_Remai:
	mov	r8d, 5
	mov	edx, DWORD PTR no$[rbp]
	lea	rcx, OFFSET FLAT:??_C@_1CO@KCLEBLGL@?$AAR?$AAe?$AAm?$AAa?$AAi?$AAn?$AAd?$AAe?$AAr?$AA_?$AAU?$AAX?$AA_?$AAX?$AA?5@
	call	FormatTestLabel
	lea	r9, OFFSET FLAT:??_C@_1BG@BPGLFLF@?$AAp?$AAY?$AAn?$AA$?$AAL?$AA?$AA?$PP?t?$AAW?$AAj?$AAD@
	mov	r8d, DWORD PTR tv178[rbp]
	mov	rdx, rax
	mov	rcx, QWORD PTR env$[rbp]
	call	TEST_Assert
$LN2@TEST_Remai:

; 93   :     }
; 94   :     if (r_result == PMC_STATUS_OK)

	cmp	DWORD PTR r_result$[rbp], 0
	jne	SHORT $LN3@TEST_Remai

; 95   :         ep->UINT_ENTRY_POINTS.Dispose(r);

	mov	rcx, QWORD PTR r$[rbp]
	mov	rax, QWORD PTR ep$[rbp]
	call	QWORD PTR [rax+32]
$LN3@TEST_Remai:

; 96   :     if (v_result == PMC_STATUS_OK)

	cmp	DWORD PTR v_result$[rbp], 0
	jne	SHORT $LN4@TEST_Remai

; 97   :         ep->Dispose(v);

	mov	rcx, QWORD PTR v$[rbp]
	mov	rax, QWORD PTR ep$[rbp]
	call	QWORD PTR [rax+584]
$LN4@TEST_Remai:

; 98   :     if (u_result == PMC_STATUS_OK)

	cmp	DWORD PTR u_result$[rbp], 0
	jne	SHORT $LN5@TEST_Remai

; 99   :         ep->UINT_ENTRY_POINTS.Dispose(u);

	mov	rcx, QWORD PTR u$[rbp]
	mov	rax, QWORD PTR ep$[rbp]
	call	QWORD PTR [rax+32]
$LN5@TEST_Remai:

; 100  : }

	lea	rcx, QWORD PTR [rbp-32]
	lea	rdx, OFFSET FLAT:TEST_Remainder_UX_X$rtcFrameData
	call	_RTC_CheckStackVars
	mov	rcx, QWORD PTR __$ArrayPad$[rbp]
	xor	rcx, rbp
	call	__security_check_cookie
	lea	rsp, QWORD PTR [rbp+952]
	pop	rdi
	pop	rbp
	ret	0
TEST_Remainder_UX_X ENDP
_TEXT	ENDS
; Function compile flags: /Odtp /RTCsu /ZI
; File z:\sources\lunor\repos\rougemeilland\palmtree.math.core.sint\palmtree.math.core.sint\test_op_remainder.c
;	COMDAT TEST_Remainder_L_X
_TEXT	SEGMENT
v$ = 8
r$ = 40
actual_r_buf$ = 80
actual_r_buf_size$ = 360
result$ = 388
v_result$ = 420
r_result$ = 452
tv160 = 660
tv145 = 660
tv93 = 660
tv74 = 660
tv134 = 664
tv82 = 664
tv64 = 664
__$ArrayPad$ = 672
env$ = 720
ep$ = 728
no$ = 736
u$ = 744
v_buf$ = 752
v_buf_size$ = 760
desired_return_code$ = 768
desired_r_buf$ = 776
desired_r_buf_size$ = 784
TEST_Remainder_L_X PROC					; COMDAT

; 54   : {

$LN14:
	mov	QWORD PTR [rsp+32], r9
	mov	DWORD PTR [rsp+24], r8d
	mov	QWORD PTR [rsp+16], rdx
	mov	QWORD PTR [rsp+8], rcx
	push	rbp
	push	rdi
	sub	rsp, 728				; 000002d8H
	lea	rbp, QWORD PTR [rsp+32]
	mov	rdi, rsp
	mov	ecx, 182				; 000000b6H
	mov	eax, -858993460				; ccccccccH
	rep stosd
	mov	rcx, QWORD PTR [rsp+760]
	mov	rax, QWORD PTR __security_cookie
	xor	rax, rbp
	mov	QWORD PTR __$ArrayPad$[rbp], rax
	lea	rcx, OFFSET FLAT:__BFDCEF3B_test_op_remainder@c
	call	__CheckForDebuggerJustMyCode

; 55   :     PMC_HANDLE_SINT v;
; 56   :     PMC_HANDLE_SINT r;
; 57   :     unsigned char actual_r_buf[256];
; 58   :     size_t actual_r_buf_size;
; 59   :     PMC_STATUS_CODE result;
; 60   :     PMC_STATUS_CODE v_result;
; 61   :     PMC_STATUS_CODE r_result;
; 62   :     TEST_Assert(env, FormatTestLabel(L"Remainder_L_X (%d.%d)", no, 1), (v_result = ep->FromByteArray(v_buf, v_buf_size, &v)) == PMC_STATUS_OK, FormatTestMesssage(L"FromByteArrayの復帰コードが期待通りではない(%d)", v_result));

	lea	r8, QWORD PTR v$[rbp]
	mov	rdx, QWORD PTR v_buf_size$[rbp]
	mov	rcx, QWORD PTR v_buf$[rbp]
	mov	rax, QWORD PTR ep$[rbp]
	call	QWORD PTR [rax+600]
	mov	DWORD PTR v_result$[rbp], eax
	cmp	DWORD PTR v_result$[rbp], 0
	jne	SHORT $LN6@TEST_Remai
	mov	DWORD PTR tv74[rbp], 1
	jmp	SHORT $LN7@TEST_Remai
$LN6@TEST_Remai:
	mov	DWORD PTR tv74[rbp], 0
$LN7@TEST_Remai:
	mov	edx, DWORD PTR v_result$[rbp]
	lea	rcx, OFFSET FLAT:??_C@_1EC@NPMCAPKO@?$AAF?$AAr?$AAo?$AAm?$AAB?$AAy?$AAt?$AAe?$AAA?$AAr?$AAr?$AAa?$AAy?$AAn?$PP?$KJ@
	call	FormatTestMesssage
	mov	QWORD PTR tv64[rbp], rax
	mov	r8d, 1
	mov	edx, DWORD PTR no$[rbp]
	lea	rcx, OFFSET FLAT:??_C@_1CM@JIOLAFCC@?$AAR?$AAe?$AAm?$AAa?$AAi?$AAn?$AAd?$AAe?$AAr?$AA_?$AAL?$AA_?$AAX?$AA?5?$AA?$CI@
	call	FormatTestLabel
	mov	rcx, QWORD PTR tv64[rbp]
	mov	r9, rcx
	mov	r8d, DWORD PTR tv74[rbp]
	mov	rdx, rax
	mov	rcx, QWORD PTR env$[rbp]
	call	TEST_Assert

; 63   :     TEST_Assert(env, FormatTestLabel(L"Remainder_L_X (%d.%d)", no, 2), (r_result = ep->DivRem_L_X(u, v, NULL, &r)) == desired_return_code, FormatTestMesssage(L"DivRem_L_Xの復帰コードが期待通りではない(%d)", r_result));

	lea	r9, QWORD PTR r$[rbp]
	xor	r8d, r8d
	mov	rdx, QWORD PTR v$[rbp]
	mov	rcx, QWORD PTR u$[rbp]
	mov	rax, QWORD PTR ep$[rbp]
	call	QWORD PTR [rax+832]
	mov	DWORD PTR r_result$[rbp], eax
	mov	eax, DWORD PTR desired_return_code$[rbp]
	cmp	DWORD PTR r_result$[rbp], eax
	jne	SHORT $LN8@TEST_Remai
	mov	DWORD PTR tv93[rbp], 1
	jmp	SHORT $LN9@TEST_Remai
$LN8@TEST_Remai:
	mov	DWORD PTR tv93[rbp], 0
$LN9@TEST_Remai:
	mov	edx, DWORD PTR r_result$[rbp]
	lea	rcx, OFFSET FLAT:??_C@_1DM@EHDAPCE@?$AAD?$AAi?$AAv?$AAR?$AAe?$AAm?$AA_?$AAL?$AA_?$AAX?$AAn?$PP?$KJ?$AA0?$PP?$LD?$PP?$PM@
	call	FormatTestMesssage
	mov	QWORD PTR tv82[rbp], rax
	mov	r8d, 2
	mov	edx, DWORD PTR no$[rbp]
	lea	rcx, OFFSET FLAT:??_C@_1CM@JIOLAFCC@?$AAR?$AAe?$AAm?$AAa?$AAi?$AAn?$AAd?$AAe?$AAr?$AA_?$AAL?$AA_?$AAX?$AA?5?$AA?$CI@
	call	FormatTestLabel
	mov	rcx, QWORD PTR tv82[rbp]
	mov	r9, rcx
	mov	r8d, DWORD PTR tv93[rbp]
	mov	rdx, rax
	mov	rcx, QWORD PTR env$[rbp]
	call	TEST_Assert

; 64   :     if (desired_return_code == PMC_STATUS_OK)

	cmp	DWORD PTR desired_return_code$[rbp], 0
	jne	$LN2@TEST_Remai

; 65   :     {
; 66   :         TEST_Assert(env, FormatTestLabel(L"Remainder_L_X (%d.%d)", no, 3), (result = ep->ToByteArray(r, actual_r_buf, sizeof(actual_r_buf), &actual_r_buf_size)) == PMC_STATUS_OK, FormatTestMesssage(L"ToByteArrayの復帰コードが期待通りではない(%d)", result));

	lea	r9, QWORD PTR actual_r_buf_size$[rbp]
	mov	r8d, 256				; 00000100H
	lea	rdx, QWORD PTR actual_r_buf$[rbp]
	mov	rcx, QWORD PTR r$[rbp]
	mov	rax, QWORD PTR ep$[rbp]
	call	QWORD PTR [rax+608]
	mov	DWORD PTR result$[rbp], eax
	cmp	DWORD PTR result$[rbp], 0
	jne	SHORT $LN10@TEST_Remai
	mov	DWORD PTR tv145[rbp], 1
	jmp	SHORT $LN11@TEST_Remai
$LN10@TEST_Remai:
	mov	DWORD PTR tv145[rbp], 0
$LN11@TEST_Remai:
	mov	edx, DWORD PTR result$[rbp]
	lea	rcx, OFFSET FLAT:??_C@_1DO@DOHJEMND@?$AAT?$AAo?$AAB?$AAy?$AAt?$AAe?$AAA?$AAr?$AAr?$AAa?$AAy?$AAn?$PP?$KJ?$AA0?$PP?$LD@
	call	FormatTestMesssage
	mov	QWORD PTR tv134[rbp], rax
	mov	r8d, 3
	mov	edx, DWORD PTR no$[rbp]
	lea	rcx, OFFSET FLAT:??_C@_1CM@JIOLAFCC@?$AAR?$AAe?$AAm?$AAa?$AAi?$AAn?$AAd?$AAe?$AAr?$AA_?$AAL?$AA_?$AAX?$AA?5?$AA?$CI@
	call	FormatTestLabel
	mov	rcx, QWORD PTR tv134[rbp]
	mov	r9, rcx
	mov	r8d, DWORD PTR tv145[rbp]
	mov	rdx, rax
	mov	rcx, QWORD PTR env$[rbp]
	call	TEST_Assert

; 67   :         TEST_Assert(env, FormatTestLabel(L"Remainder_L_X (%d.%d)", no, 4), _EQUALS_MEMORY(actual_r_buf, actual_r_buf_size, desired_r_buf, desired_r_buf_size) == 0, L"剰余の値が一致しない");

	mov	r9, QWORD PTR desired_r_buf_size$[rbp]
	mov	r8, QWORD PTR desired_r_buf$[rbp]
	mov	rdx, QWORD PTR actual_r_buf_size$[rbp]
	lea	rcx, QWORD PTR actual_r_buf$[rbp]
	call	_EQUALS_MEMORY
	test	eax, eax
	jne	SHORT $LN12@TEST_Remai
	mov	DWORD PTR tv160[rbp], 1
	jmp	SHORT $LN13@TEST_Remai
$LN12@TEST_Remai:
	mov	DWORD PTR tv160[rbp], 0
$LN13@TEST_Remai:
	mov	r8d, 4
	mov	edx, DWORD PTR no$[rbp]
	lea	rcx, OFFSET FLAT:??_C@_1CM@JIOLAFCC@?$AAR?$AAe?$AAm?$AAa?$AAi?$AAn?$AAd?$AAe?$AAr?$AA_?$AAL?$AA_?$AAX?$AA?5?$AA?$CI@
	call	FormatTestLabel
	lea	r9, OFFSET FLAT:??_C@_1BG@BPGLFLF@?$AAp?$AAY?$AAn?$AA$?$AAL?$AA?$AA?$PP?t?$AAW?$AAj?$AAD@
	mov	r8d, DWORD PTR tv160[rbp]
	mov	rdx, rax
	mov	rcx, QWORD PTR env$[rbp]
	call	TEST_Assert
$LN2@TEST_Remai:

; 68   :     }
; 69   :     if (r_result == PMC_STATUS_OK)

	cmp	DWORD PTR r_result$[rbp], 0
	jne	SHORT $LN3@TEST_Remai

; 70   :         ep->Dispose(r);

	mov	rcx, QWORD PTR r$[rbp]
	mov	rax, QWORD PTR ep$[rbp]
	call	QWORD PTR [rax+584]
$LN3@TEST_Remai:

; 71   :     if (v_result == PMC_STATUS_OK)

	cmp	DWORD PTR v_result$[rbp], 0
	jne	SHORT $LN4@TEST_Remai

; 72   :         ep->Dispose(v);

	mov	rcx, QWORD PTR v$[rbp]
	mov	rax, QWORD PTR ep$[rbp]
	call	QWORD PTR [rax+584]
$LN4@TEST_Remai:

; 73   : }

	lea	rcx, QWORD PTR [rbp-32]
	lea	rdx, OFFSET FLAT:TEST_Remainder_L_X$rtcFrameData
	call	_RTC_CheckStackVars
	mov	rcx, QWORD PTR __$ArrayPad$[rbp]
	xor	rcx, rbp
	call	__security_check_cookie
	lea	rsp, QWORD PTR [rbp+696]
	pop	rdi
	pop	rbp
	ret	0
TEST_Remainder_L_X ENDP
_TEXT	ENDS
; Function compile flags: /Odtp /RTCsu /ZI
; File z:\sources\lunor\repos\rougemeilland\palmtree.math.core.sint\palmtree.math.core.sint\test_op_remainder.c
;	COMDAT TEST_Remainder_I_X
_TEXT	SEGMENT
v$ = 8
r$ = 40
actual_r_buf$ = 80
actual_r_buf_size$ = 360
result$ = 388
v_result$ = 420
r_result$ = 452
tv160 = 660
tv145 = 660
tv93 = 660
tv74 = 660
tv134 = 664
tv82 = 664
tv64 = 664
__$ArrayPad$ = 672
env$ = 720
ep$ = 728
no$ = 736
u$ = 744
v_buf$ = 752
v_buf_size$ = 760
desired_return_code$ = 768
desired_r_buf$ = 776
desired_r_buf_size$ = 784
TEST_Remainder_I_X PROC					; COMDAT

; 32   : {

$LN14:
	mov	DWORD PTR [rsp+32], r9d
	mov	DWORD PTR [rsp+24], r8d
	mov	QWORD PTR [rsp+16], rdx
	mov	QWORD PTR [rsp+8], rcx
	push	rbp
	push	rdi
	sub	rsp, 728				; 000002d8H
	lea	rbp, QWORD PTR [rsp+32]
	mov	rdi, rsp
	mov	ecx, 182				; 000000b6H
	mov	eax, -858993460				; ccccccccH
	rep stosd
	mov	rcx, QWORD PTR [rsp+760]
	mov	rax, QWORD PTR __security_cookie
	xor	rax, rbp
	mov	QWORD PTR __$ArrayPad$[rbp], rax
	lea	rcx, OFFSET FLAT:__BFDCEF3B_test_op_remainder@c
	call	__CheckForDebuggerJustMyCode

; 33   :     PMC_HANDLE_SINT v;
; 34   :     PMC_HANDLE_SINT r;
; 35   :     unsigned char actual_r_buf[256];
; 36   :     size_t actual_r_buf_size;
; 37   :     PMC_STATUS_CODE result;
; 38   :     PMC_STATUS_CODE v_result;
; 39   :     PMC_STATUS_CODE r_result;
; 40   :     TEST_Assert(env, FormatTestLabel(L"Remainder_I_X (%d.%d)", no, 1), (v_result = ep->FromByteArray(v_buf, v_buf_size, &v)) == PMC_STATUS_OK, FormatTestMesssage(L"FromByteArrayの復帰コードが期待通りではない(%d)", v_result));

	lea	r8, QWORD PTR v$[rbp]
	mov	rdx, QWORD PTR v_buf_size$[rbp]
	mov	rcx, QWORD PTR v_buf$[rbp]
	mov	rax, QWORD PTR ep$[rbp]
	call	QWORD PTR [rax+600]
	mov	DWORD PTR v_result$[rbp], eax
	cmp	DWORD PTR v_result$[rbp], 0
	jne	SHORT $LN6@TEST_Remai
	mov	DWORD PTR tv74[rbp], 1
	jmp	SHORT $LN7@TEST_Remai
$LN6@TEST_Remai:
	mov	DWORD PTR tv74[rbp], 0
$LN7@TEST_Remai:
	mov	edx, DWORD PTR v_result$[rbp]
	lea	rcx, OFFSET FLAT:??_C@_1EC@NPMCAPKO@?$AAF?$AAr?$AAo?$AAm?$AAB?$AAy?$AAt?$AAe?$AAA?$AAr?$AAr?$AAa?$AAy?$AAn?$PP?$KJ@
	call	FormatTestMesssage
	mov	QWORD PTR tv64[rbp], rax
	mov	r8d, 1
	mov	edx, DWORD PTR no$[rbp]
	lea	rcx, OFFSET FLAT:??_C@_1CM@HAMIPOFK@?$AAR?$AAe?$AAm?$AAa?$AAi?$AAn?$AAd?$AAe?$AAr?$AA_?$AAI?$AA_?$AAX?$AA?5?$AA?$CI@
	call	FormatTestLabel
	mov	rcx, QWORD PTR tv64[rbp]
	mov	r9, rcx
	mov	r8d, DWORD PTR tv74[rbp]
	mov	rdx, rax
	mov	rcx, QWORD PTR env$[rbp]
	call	TEST_Assert

; 41   :     TEST_Assert(env, FormatTestLabel(L"Remainder_I_X (%d.%d)", no, 2), (r_result = ep->DivRem_I_X(u, v, NULL, &r)) == desired_return_code, FormatTestMesssage(L"DivRem_I_Xの復帰コードが期待通りではない(%d)", r_result));

	lea	r9, QWORD PTR r$[rbp]
	xor	r8d, r8d
	mov	rdx, QWORD PTR v$[rbp]
	mov	ecx, DWORD PTR u$[rbp]
	mov	rax, QWORD PTR ep$[rbp]
	call	QWORD PTR [rax+824]
	mov	DWORD PTR r_result$[rbp], eax
	mov	eax, DWORD PTR desired_return_code$[rbp]
	cmp	DWORD PTR r_result$[rbp], eax
	jne	SHORT $LN8@TEST_Remai
	mov	DWORD PTR tv93[rbp], 1
	jmp	SHORT $LN9@TEST_Remai
$LN8@TEST_Remai:
	mov	DWORD PTR tv93[rbp], 0
$LN9@TEST_Remai:
	mov	edx, DWORD PTR r_result$[rbp]
	lea	rcx, OFFSET FLAT:??_C@_1DM@FPONPMLK@?$AAD?$AAi?$AAv?$AAR?$AAe?$AAm?$AA_?$AAI?$AA_?$AAX?$AAn?$PP?$KJ?$AA0?$PP?$LD?$PP?$PM@
	call	FormatTestMesssage
	mov	QWORD PTR tv82[rbp], rax
	mov	r8d, 2
	mov	edx, DWORD PTR no$[rbp]
	lea	rcx, OFFSET FLAT:??_C@_1CM@HAMIPOFK@?$AAR?$AAe?$AAm?$AAa?$AAi?$AAn?$AAd?$AAe?$AAr?$AA_?$AAI?$AA_?$AAX?$AA?5?$AA?$CI@
	call	FormatTestLabel
	mov	rcx, QWORD PTR tv82[rbp]
	mov	r9, rcx
	mov	r8d, DWORD PTR tv93[rbp]
	mov	rdx, rax
	mov	rcx, QWORD PTR env$[rbp]
	call	TEST_Assert

; 42   :     if (desired_return_code == PMC_STATUS_OK)

	cmp	DWORD PTR desired_return_code$[rbp], 0
	jne	$LN2@TEST_Remai

; 43   :     {
; 44   :         TEST_Assert(env, FormatTestLabel(L"Remainder_I_X (%d.%d)", no, 3), (result = ep->ToByteArray(r, actual_r_buf, sizeof(actual_r_buf), &actual_r_buf_size)) == PMC_STATUS_OK, FormatTestMesssage(L"ToByteArrayの復帰コードが期待通りではない(%d)", result));

	lea	r9, QWORD PTR actual_r_buf_size$[rbp]
	mov	r8d, 256				; 00000100H
	lea	rdx, QWORD PTR actual_r_buf$[rbp]
	mov	rcx, QWORD PTR r$[rbp]
	mov	rax, QWORD PTR ep$[rbp]
	call	QWORD PTR [rax+608]
	mov	DWORD PTR result$[rbp], eax
	cmp	DWORD PTR result$[rbp], 0
	jne	SHORT $LN10@TEST_Remai
	mov	DWORD PTR tv145[rbp], 1
	jmp	SHORT $LN11@TEST_Remai
$LN10@TEST_Remai:
	mov	DWORD PTR tv145[rbp], 0
$LN11@TEST_Remai:
	mov	edx, DWORD PTR result$[rbp]
	lea	rcx, OFFSET FLAT:??_C@_1DO@DOHJEMND@?$AAT?$AAo?$AAB?$AAy?$AAt?$AAe?$AAA?$AAr?$AAr?$AAa?$AAy?$AAn?$PP?$KJ?$AA0?$PP?$LD@
	call	FormatTestMesssage
	mov	QWORD PTR tv134[rbp], rax
	mov	r8d, 3
	mov	edx, DWORD PTR no$[rbp]
	lea	rcx, OFFSET FLAT:??_C@_1CM@HAMIPOFK@?$AAR?$AAe?$AAm?$AAa?$AAi?$AAn?$AAd?$AAe?$AAr?$AA_?$AAI?$AA_?$AAX?$AA?5?$AA?$CI@
	call	FormatTestLabel
	mov	rcx, QWORD PTR tv134[rbp]
	mov	r9, rcx
	mov	r8d, DWORD PTR tv145[rbp]
	mov	rdx, rax
	mov	rcx, QWORD PTR env$[rbp]
	call	TEST_Assert

; 45   :         TEST_Assert(env, FormatTestLabel(L"Remainder_I_X (%d.%d)", no, 4), _EQUALS_MEMORY(actual_r_buf, actual_r_buf_size, desired_r_buf, desired_r_buf_size) == 0, L"剰余の値が一致しない");

	mov	r9, QWORD PTR desired_r_buf_size$[rbp]
	mov	r8, QWORD PTR desired_r_buf$[rbp]
	mov	rdx, QWORD PTR actual_r_buf_size$[rbp]
	lea	rcx, QWORD PTR actual_r_buf$[rbp]
	call	_EQUALS_MEMORY
	test	eax, eax
	jne	SHORT $LN12@TEST_Remai
	mov	DWORD PTR tv160[rbp], 1
	jmp	SHORT $LN13@TEST_Remai
$LN12@TEST_Remai:
	mov	DWORD PTR tv160[rbp], 0
$LN13@TEST_Remai:
	mov	r8d, 4
	mov	edx, DWORD PTR no$[rbp]
	lea	rcx, OFFSET FLAT:??_C@_1CM@HAMIPOFK@?$AAR?$AAe?$AAm?$AAa?$AAi?$AAn?$AAd?$AAe?$AAr?$AA_?$AAI?$AA_?$AAX?$AA?5?$AA?$CI@
	call	FormatTestLabel
	lea	r9, OFFSET FLAT:??_C@_1BG@BPGLFLF@?$AAp?$AAY?$AAn?$AA$?$AAL?$AA?$AA?$PP?t?$AAW?$AAj?$AAD@
	mov	r8d, DWORD PTR tv160[rbp]
	mov	rdx, rax
	mov	rcx, QWORD PTR env$[rbp]
	call	TEST_Assert
$LN2@TEST_Remai:

; 46   :     }
; 47   :     if (r_result == PMC_STATUS_OK)

	cmp	DWORD PTR r_result$[rbp], 0
	jne	SHORT $LN3@TEST_Remai

; 48   :         ep->Dispose(r);

	mov	rcx, QWORD PTR r$[rbp]
	mov	rax, QWORD PTR ep$[rbp]
	call	QWORD PTR [rax+584]
$LN3@TEST_Remai:

; 49   :     if (v_result == PMC_STATUS_OK)

	cmp	DWORD PTR v_result$[rbp], 0
	jne	SHORT $LN4@TEST_Remai

; 50   :         ep->Dispose(v);

	mov	rcx, QWORD PTR v$[rbp]
	mov	rax, QWORD PTR ep$[rbp]
	call	QWORD PTR [rax+584]
$LN4@TEST_Remai:

; 51   : }

	lea	rcx, QWORD PTR [rbp-32]
	lea	rdx, OFFSET FLAT:TEST_Remainder_I_X$rtcFrameData
	call	_RTC_CheckStackVars
	mov	rcx, QWORD PTR __$ArrayPad$[rbp]
	xor	rcx, rbp
	call	__security_check_cookie
	lea	rsp, QWORD PTR [rbp+696]
	pop	rdi
	pop	rbp
	ret	0
TEST_Remainder_I_X ENDP
_TEXT	ENDS
END
