Archive member included to satisfy reference by file (symbol)

C:/GNU/MINGW64/i686-8.1.0-win32-dwarf-rt_v6-rev0/mingw32/bin/../lib/gcc/i686-w64-mingw32/8.1.0/../../../../i686-w64-mingw32/lib/../lib/libkernel32.a(dgzcs00839.o)
                              ../build/x86_Debug/pmc_initialize.o (_imp__LoadLibraryA@4)
C:/GNU/MINGW64/i686-8.1.0-win32-dwarf-rt_v6-rev0/mingw32/bin/../lib/gcc/i686-w64-mingw32/8.1.0/../../../../i686-w64-mingw32/lib/../lib/libkernel32.a(dgzcs00729.o)
                              ../build/x86_Debug/pmc_memory.o (_imp__HeapFree@12)
C:/GNU/MINGW64/i686-8.1.0-win32-dwarf-rt_v6-rev0/mingw32/bin/../lib/gcc/i686-w64-mingw32/8.1.0/../../../../i686-w64-mingw32/lib/../lib/libkernel32.a(dgzcs00727.o)
                              ../build/x86_Debug/pmc_memory.o (_imp__HeapDestroy@4)
C:/GNU/MINGW64/i686-8.1.0-win32-dwarf-rt_v6-rev0/mingw32/bin/../lib/gcc/i686-w64-mingw32/8.1.0/../../../../i686-w64-mingw32/lib/../lib/libkernel32.a(dgzcs00725.o)
                              ../build/x86_Debug/pmc_memory.o (_imp__HeapCreate@12)
C:/GNU/MINGW64/i686-8.1.0-win32-dwarf-rt_v6-rev0/mingw32/bin/../lib/gcc/i686-w64-mingw32/8.1.0/../../../../i686-w64-mingw32/lib/../lib/libkernel32.a(dgzcs00723.o)
                              ../build/x86_Debug/pmc_memory.o (_imp__HeapAlloc@12)
C:/GNU/MINGW64/i686-8.1.0-win32-dwarf-rt_v6-rev0/mingw32/bin/../lib/gcc/i686-w64-mingw32/8.1.0/../../../../i686-w64-mingw32/lib/../lib/libkernel32.a(dgzcs00584.o)
                              ../build/x86_Debug/pmc_initialize.o (_imp__GetProcAddress@8)
C:/GNU/MINGW64/i686-8.1.0-win32-dwarf-rt_v6-rev0/mingw32/bin/../lib/gcc/i686-w64-mingw32/8.1.0/../../../../i686-w64-mingw32/lib/../lib/libkernel32.a(dgzcs00359.o)
                              ../build/x86_Debug/pmc_initialize.o (_imp__FreeLibrary@4)
C:/GNU/MINGW64/i686-8.1.0-win32-dwarf-rt_v6-rev0/mingw32/bin/../lib/gcc/i686-w64-mingw32/8.1.0/../../../../i686-w64-mingw32/lib/../lib/libkernel32.a(dgzch.o)
                              C:/GNU/MINGW64/i686-8.1.0-win32-dwarf-rt_v6-rev0/mingw32/bin/../lib/gcc/i686-w64-mingw32/8.1.0/../../../../i686-w64-mingw32/lib/../lib/libkernel32.a(dgzcs00839.o) (_head_lib32_libkernel32_a)
C:/GNU/MINGW64/i686-8.1.0-win32-dwarf-rt_v6-rev0/mingw32/bin/../lib/gcc/i686-w64-mingw32/8.1.0/../../../../i686-w64-mingw32/lib/../lib/libkernel32.a(dgzct.o)
                              C:/GNU/MINGW64/i686-8.1.0-win32-dwarf-rt_v6-rev0/mingw32/bin/../lib/gcc/i686-w64-mingw32/8.1.0/../../../../i686-w64-mingw32/lib/../lib/libkernel32.a(dgzch.o) (_lib32_libkernel32_a_iname)
C:/GNU/MINGW64/i686-8.1.0-win32-dwarf-rt_v6-rev0/mingw32/bin/../lib/gcc/i686-w64-mingw32/8.1.0/../../../../i686-w64-mingw32/lib/../lib/libuser32.a(dmces00912.o)
                              ../build/x86_Debug/debug.o (_imp__wsprintfW)
C:/GNU/MINGW64/i686-8.1.0-win32-dwarf-rt_v6-rev0/mingw32/bin/../lib/gcc/i686-w64-mingw32/8.1.0/../../../../i686-w64-mingw32/lib/../lib/libuser32.a(dmceh.o)
                              C:/GNU/MINGW64/i686-8.1.0-win32-dwarf-rt_v6-rev0/mingw32/bin/../lib/gcc/i686-w64-mingw32/8.1.0/../../../../i686-w64-mingw32/lib/../lib/libuser32.a(dmces00912.o) (_head_lib32_libuser32_a)
C:/GNU/MINGW64/i686-8.1.0-win32-dwarf-rt_v6-rev0/mingw32/bin/../lib/gcc/i686-w64-mingw32/8.1.0/../../../../i686-w64-mingw32/lib/../lib/libuser32.a(dmcet.o)
                              C:/GNU/MINGW64/i686-8.1.0-win32-dwarf-rt_v6-rev0/mingw32/bin/../lib/gcc/i686-w64-mingw32/8.1.0/../../../../i686-w64-mingw32/lib/../lib/libuser32.a(dmceh.o) (_lib32_libuser32_a_iname)

Allocating common symbols
Common symbol       size              file

number_zero         0x18              ../build/x86_Debug/pmc_memory.o
number_minus_one    0x18              ../build/x86_Debug/pmc_memory.o
number_one          0x18              ../build/x86_Debug/pmc_memory.o
uint_number_zero    0x4               ../build/x86_Debug/debug.o
uint_number_one     0x4               ../build/x86_Debug/debug.o
hLocalHeap          0x4               ../build/x86_Debug/pmc_memory.o
ep_uint             0x114             ../build/x86_Debug/pmc_initialize.o

Discarded input sections

 .drectve       0x00000000       0x58 ../build/x86_Debug/debug.o
 .drectve       0x00000000       0x44 ../build/x86_Debug/dllmain.o
 .drectve       0x00000000       0x44 ../build/x86_Debug/pmc_add_sub.o
 .drectve       0x00000000       0x44 ../build/x86_Debug/pmc_bytes.o
 .drectve       0x00000000       0x44 ../build/x86_Debug/pmc_clone.o
 .drectve       0x00000000       0x44 ../build/x86_Debug/pmc_compare.o
 .drectve       0x00000000       0x44 ../build/x86_Debug/pmc_divrem.o
 .drectve       0x00000000       0x44 ../build/x86_Debug/pmc_equals.o
 .drectve       0x00000000       0x44 ../build/x86_Debug/pmc_from.o
 .drectve       0x00000000       0x44 ../build/x86_Debug/pmc_greatestcommondivisor.o
 .drectve       0x00000000       0x7c ../build/x86_Debug/pmc_initialize.o
 .drectve       0x00000000       0xb4 ../build/x86_Debug/pmc_memory.o
 .drectve       0x00000000       0x44 ../build/x86_Debug/pmc_multiply.o
 .drectve       0x00000000       0x44 ../build/x86_Debug/pmc_negate.o
 .drectve       0x00000000       0x44 ../build/x86_Debug/pmc_statistics.o
 .drectve       0x00000000       0x44 ../build/x86_Debug/pmc_to.o
 .drectve       0x00000000       0x44 ../build/x86_Debug/TEST_autogenerated.o
 .drectve       0x00000000       0x44 ../build/x86_Debug/TEST_op_Add.o
 .drectve       0x00000000       0x44 ../build/x86_Debug/TEST_op_Clone.o
 .drectve       0x00000000       0x44 ../build/x86_Debug/TEST_op_Compare.o
 .drectve       0x00000000       0x44 ../build/x86_Debug/TEST_op_Equals.o
 .drectve       0x00000000       0x44 ../build/x86_Debug/TEST_op_From_To.o
 .drectve       0x00000000       0x44 ../build/x86_Debug/TEST_op_GreatestCommonDivisor.o
 .drectve       0x00000000       0x44 ../build/x86_Debug/TEST_op_Multiply.o
 .drectve       0x00000000       0x44 ../build/x86_Debug/TEST_op_Negate.o
 .drectve       0x00000000       0x44 ../build/x86_Debug/TEST_op_Subtruct.o
 .text          0x00000000        0x8 C:/GNU/MINGW64/i686-8.1.0-win32-dwarf-rt_v6-rev0/mingw32/bin/../lib/gcc/i686-w64-mingw32/8.1.0/../../../../i686-w64-mingw32/lib/../lib/libkernel32.a(dgzcs00839.o)
 .text          0x00000000        0x8 C:/GNU/MINGW64/i686-8.1.0-win32-dwarf-rt_v6-rev0/mingw32/bin/../lib/gcc/i686-w64-mingw32/8.1.0/../../../../i686-w64-mingw32/lib/../lib/libkernel32.a(dgzcs00729.o)
 .text          0x00000000        0x8 C:/GNU/MINGW64/i686-8.1.0-win32-dwarf-rt_v6-rev0/mingw32/bin/../lib/gcc/i686-w64-mingw32/8.1.0/../../../../i686-w64-mingw32/lib/../lib/libkernel32.a(dgzcs00727.o)
 .text          0x00000000        0x8 C:/GNU/MINGW64/i686-8.1.0-win32-dwarf-rt_v6-rev0/mingw32/bin/../lib/gcc/i686-w64-mingw32/8.1.0/../../../../i686-w64-mingw32/lib/../lib/libkernel32.a(dgzcs00725.o)
 .text          0x00000000        0x8 C:/GNU/MINGW64/i686-8.1.0-win32-dwarf-rt_v6-rev0/mingw32/bin/../lib/gcc/i686-w64-mingw32/8.1.0/../../../../i686-w64-mingw32/lib/../lib/libkernel32.a(dgzcs00723.o)
 .text          0x00000000        0x8 C:/GNU/MINGW64/i686-8.1.0-win32-dwarf-rt_v6-rev0/mingw32/bin/../lib/gcc/i686-w64-mingw32/8.1.0/../../../../i686-w64-mingw32/lib/../lib/libkernel32.a(dgzcs00584.o)
 .text          0x00000000        0x8 C:/GNU/MINGW64/i686-8.1.0-win32-dwarf-rt_v6-rev0/mingw32/bin/../lib/gcc/i686-w64-mingw32/8.1.0/../../../../i686-w64-mingw32/lib/../lib/libkernel32.a(dgzcs00359.o)
 .text          0x00000000        0x8 C:/GNU/MINGW64/i686-8.1.0-win32-dwarf-rt_v6-rev0/mingw32/bin/../lib/gcc/i686-w64-mingw32/8.1.0/../../../../i686-w64-mingw32/lib/../lib/libuser32.a(dmces00912.o)

Memory Configuration

Name             Origin             Length             Attributes
*default*        0x00000000         0xffffffff

Linker script and memory map

                0x6b080000                __image_base__ = 0x6b080000
                0x00000000                __dll__ = 0x0
                0x6b080000                ___ImageBase = 0x6b080000
                0x00001000                __section_alignment__ = 0x1000
                0x00000200                __file_alignment__ = 0x200
                0x00000004                __major_os_version__ = 0x4
                0x00000000                __minor_os_version__ = 0x0
                0x00000001                __major_image_version__ = 0x1
                0x00000000                __minor_image_version__ = 0x0
                0x00000004                __major_subsystem_version__ = 0x4
                0x00000000                __minor_subsystem_version__ = 0x0
                0x00000002                __subsystem__ = 0x2
                0x00200000                __size_of_stack_reserve__ = 0x200000
                0x00001000                __size_of_stack_commit__ = 0x1000
                0x00100000                __size_of_heap_reserve__ = 0x100000
                0x00001000                __size_of_heap_commit__ = 0x1000
                0x00000000                __loader_flags__ = 0x0
                0x00000000                __dll_characteristics__ = 0x0
LOAD ../build/x86_Debug/debug.o
LOAD ../build/x86_Debug/dllmain.o
LOAD ../build/x86_Debug/pmc_add_sub.o
LOAD ../build/x86_Debug/pmc_bytes.o
LOAD ../build/x86_Debug/pmc_clone.o
LOAD ../build/x86_Debug/pmc_compare.o
LOAD ../build/x86_Debug/pmc_divrem.o
LOAD ../build/x86_Debug/pmc_equals.o
LOAD ../build/x86_Debug/pmc_from.o
LOAD ../build/x86_Debug/pmc_greatestcommondivisor.o
LOAD ../build/x86_Debug/pmc_initialize.o
LOAD ../build/x86_Debug/pmc_memory.o
LOAD ../build/x86_Debug/pmc_multiply.o
LOAD ../build/x86_Debug/pmc_negate.o
LOAD ../build/x86_Debug/pmc_statistics.o
LOAD ../build/x86_Debug/pmc_to.o
LOAD ../build/x86_Debug/TEST_autogenerated.o
LOAD ../build/x86_Debug/TEST_op_Add.o
LOAD ../build/x86_Debug/TEST_op_Clone.o
LOAD ../build/x86_Debug/TEST_op_Compare.o
LOAD ../build/x86_Debug/TEST_op_DivRem.o
LOAD ../build/x86_Debug/TEST_op_Equals.o
LOAD ../build/x86_Debug/TEST_op_From_To.o
LOAD ../build/x86_Debug/TEST_op_GreatestCommonDivisor.o
LOAD ../build/x86_Debug/TEST_op_Multiply.o
LOAD ../build/x86_Debug/TEST_op_Negate.o
LOAD ../build/x86_Debug/TEST_op_Remainder.o
LOAD ../build/x86_Debug/TEST_op_Subtruct.o
LOAD ../build/x86_Debug/version.o
LOAD ../Palmtree.Math.Core.Sint.def
LOAD C:/GNU/MINGW64/i686-8.1.0-win32-dwarf-rt_v6-rev0/mingw32/bin/../lib/gcc/i686-w64-mingw32/8.1.0/../../../../i686-w64-mingw32/lib/../lib/libkernel32.a
LOAD C:/GNU/MINGW64/i686-8.1.0-win32-dwarf-rt_v6-rev0/mingw32/bin/../lib/gcc/i686-w64-mingw32/8.1.0/../../../../i686-w64-mingw32/lib/../lib/libuser32.a
                0x000003a8                . = SIZEOF_HEADERS
                0x00001000                . = ALIGN (__section_alignment__)

.text           0x6b081000   0x18da00
 *(.init)
 *(.text)
 .text          0x6b081000      0x338 ../build/x86_Debug/debug.o
                0x6b0810ee                DoDebug
                0x6b0810ee                DoDebug@4
                0x6b0811e8                TEST_Assert
                0x6b081244                FormatTestLabel
                0x6b081274                FormatTestMesssage
                0x6b08129d                DumpBinary_UNIT
 .text          0x6b081338       0x58 ../build/x86_Debug/dllmain.o
                0x6b081338                DllMain@12
 .text          0x6b081390     0x2450 ../build/x86_Debug/pmc_add_sub.o
                0x6b081b09                PMC_Add_I_X@12
                0x6b081d28                PMC_Add_L_X@16
                0x6b081f8e                PMC_Add_UX_X@12
                0x6b082110                PMC_Add_X_I@12
                0x6b08231b                PMC_Add_X_L@16
                0x6b082566                PMC_Add_X_UX@12
                0x6b08272e                PMC_Add_X_X@12
                0x6b082969                PMC_Subtruct_I_X@12
                0x6b082b88                PMC_Subtruct_L_X@16
                0x6b082dee                PMC_Subtruct_UX_X@12
                0x6b082f80                PMC_Subtruct_X_I@12
                0x6b08318d                PMC_Subtruct_X_L@16
                0x6b0833da                PMC_Subtruct_X_UX@12
                0x6b0835a2                PMC_Subtruct_X_X@12
 .text          0x6b0837e0      0x138 ../build/x86_Debug/pmc_bytes.o
                0x6b0837e0                PMC_FromByteArray@12
                0x6b083892                PMC_ToByteArray@16
 .text          0x6b083918       0xa4 ../build/x86_Debug/pmc_clone.o
                0x6b083918                PMC_Clone_X@8
 .text          0x6b0839bc      0xaec ../build/x86_Debug/pmc_compare.o
                0x6b083bed                PMC_Compare_I_X@12
                0x6b083d2f                PMC_Compare_L_X@16
                0x6b083e9d                PMC_Compare_UX_X@12
                0x6b083f7c                PMC_Compare_X_I@12
                0x6b0840bb                PMC_Compare_X_L@16
                0x6b084226                PMC_Compare_X_UX@12
                0x6b084337                PMC_Compare_X_X@12
 .text          0x6b0844a8     0x10b0 ../build/x86_Debug/pmc_divrem.o
                0x6b084589                PMC_DivRem_I_X@16
                0x6b0847a6                PMC_DivRem_L_X@20
                0x6b084a66                PMC_DivRem_UX_X@16
                0x6b084c0a                PMC_DivRem_X_I@16
                0x6b084df5                PMC_DivRem_X_L@20
                0x6b085025                PMC_DivRem_X_UX@16
                0x6b08529c                PMC_DivRem_X_X@16
 .text          0x6b085558      0x70c ../build/x86_Debug/pmc_equals.o
                0x6b085639                PMC_Equals_I_X@12
                0x6b085701                PMC_Equals_L_X@16
                0x6b0857ea                PMC_Equals_UX_X@12
                0x6b0858cd                PMC_Equals_X_I@12
                0x6b085993                PMC_Equals_X_L@16
                0x6b085a7e                PMC_Equals_X_UX@12
                0x6b085b74                PMC_Equals_X_X@12
 .text          0x6b085c64      0x290 ../build/x86_Debug/pmc_from.o
                0x6b085c64                From_I_Imp
                0x6b085cd5                From_L_Imp
                0x6b085d5a                PMC_From_I@8
                0x6b085df9                PMC_From_L@12
 .text          0x6b085ef4      0x510 ../build/x86_Debug/pmc_greatestcommondivisor.o
                0x6b085fd5                PMC_GreatestCommonDivisor_I_X@12
                0x6b086061                PMC_GreatestCommonDivisor_L_X@16
                0x6b08610e                PMC_GreatestCommonDivisor_UX_X@12
                0x6b086192                PMC_GreatestCommonDivisor_X_I@12
                0x6b08621e                PMC_GreatestCommonDivisor_X_L@16
                0x6b0862cf                PMC_GreatestCommonDivisor_X_UX@12
                0x6b086353                PMC_GreatestCommonDivisor_X_X@12
 .text          0x6b086404      0x53c ../build/x86_Debug/pmc_initialize.o
                0x6b086631                PMC_SINT_Initialize@4
                0x6b086631                PMC_SINT_Initialize
 .text          0x6b086940      0x7c8 ../build/x86_Debug/pmc_memory.o
                0x6b086b7b                AttatchNumber
                0x6b086bc3                AllocateNumber
                0x6b086c45                DetatchNumber
                0x6b086c6f                DeallocateNumber
                0x6b086cc5                CheckNumber
                0x6b086cf0                DuplicateNumber
                0x6b086de8                Negate_Imp
                0x6b086ec2                PMC_GetConstantValue_I@8
                0x6b086f10                PMC_Dispose@4
                0x6b086f2c                Initialize_Memory
                0x6b087094                AllocateHeapArea
                0x6b0870d7                DeallocateHeapArea
 .text          0x6b087108      0xa9c ../build/x86_Debug/pmc_multiply.o
                0x6b0873df                PMC_Multiply_I_X@12
                0x6b087506                PMC_Multiply_L_X@16
                0x6b087656                PMC_Multiply_UX_X@12
                0x6b08771e                PMC_Multiply_X_I@12
                0x6b08783c                PMC_Multiply_X_L@16
                0x6b087986                PMC_Multiply_X_UX@12
                0x6b087a4e                PMC_Multiply_X_X@12
 .text          0x6b087ba4       0x70 ../build/x86_Debug/pmc_negate.o
                0x6b087ba4                PMC_Negate_X@8
 .text          0x6b087c14       0x1c ../build/x86_Debug/pmc_statistics.o
                0x6b087c14                PMC_GetStatisticsInfo@4
 .text          0x6b087c30      0x18c ../build/x86_Debug/pmc_to.o
                0x6b087c30                PMC_To_X_I@8
                0x6b087ce1                PMC_To_X_L@8
 .text          0x6b087dbc   0x17de9c ../build/x86_Debug/TEST_autogenerated.o
                0x6b087dbc                TEST_autogenerated
 .text          0x6b205c58     0x10e4 ../build/x86_Debug/TEST_op_Add.o
                0x6b205c9a                TEST_Add_I_X
                0x6b205eb5                TEST_Add_L_X
                0x6b2060ef                TEST_Add_UX_X
                0x6b206394                TEST_Add_X_I
                0x6b2065af                TEST_Add_X_L
                0x6b2067e9                TEST_Add_X_UX
                0x6b206a8e                TEST_Add_X_X
 .text          0x6b206d3c      0x258 ../build/x86_Debug/TEST_op_Clone.o
                0x6b206d7e                TEST_Clone_X
 .text          0x6b206f94      0xb34 ../build/x86_Debug/TEST_op_Compare.o
                0x6b206f94                TEST_Compare_I_X
                0x6b2070ec                TEST_Compare_L_X
                0x6b207257                TEST_Compare_UX_X
                0x6b207439                TEST_Compare_X_I
                0x6b207591                TEST_Compare_X_L
                0x6b2076fc                TEST_Compare_X_UX
                0x6b2078de                TEST_Compare_X_X
 .text          0x6b207ac8     0x172c ../build/x86_Debug/TEST_op_DivRem.o
                0x6b207b0a                TEST_DivRem_I_X
                0x6b207e34                TEST_DivRem_L_X
                0x6b20817d                TEST_DivRem_UX_X
                0x6b20852b                TEST_DivRem_X_I
                0x6b2087a1                TEST_DivRem_X_L
                0x6b208a85                TEST_DivRem_X_UX
                0x6b208e39                TEST_DivRem_X_X
 .text          0x6b2091f4      0xb34 ../build/x86_Debug/TEST_op_Equals.o
                0x6b2091f4                TEST_Equals_I_X
                0x6b20934c                TEST_Equals_L_X
                0x6b2094b7                TEST_Equals_UX_X
                0x6b209699                TEST_Equals_X_I
                0x6b2097f1                TEST_Equals_X_L
                0x6b20995c                TEST_Equals_X_UX
                0x6b209b3e                TEST_Equals_X_X
 .text          0x6b209d28      0x648 ../build/x86_Debug/TEST_op_From_To.o
                0x6b209d6a                TEST_From_I
                0x6b209eee                TEST_From_L
                0x6b20a091                TEST_To_X_I
                0x6b20a1ea                TEST_To_X_L
 .text          0x6b20a370     0x110c ../build/x86_Debug/TEST_op_GreatestCommonDivisor.o
                0x6b20a3b2                TEST_GreatestCommonDivisor_I_X
                0x6b20a5d3                TEST_GreatestCommonDivisor_L_X
                0x6b20a813                TEST_GreatestCommonDivisor_UX_X
                0x6b20aabe                TEST_GreatestCommonDivisor_X_I
                0x6b20acdf                TEST_GreatestCommonDivisor_X_L
                0x6b20af1f                TEST_GreatestCommonDivisor_X_UX
                0x6b20b1ca                TEST_GreatestCommonDivisor_X_X
 .text          0x6b20b47c     0x10e4 ../build/x86_Debug/TEST_op_Multiply.o
                0x6b20b4be                TEST_Multiply_I_X
                0x6b20b6d9                TEST_Multiply_L_X
                0x6b20b913                TEST_Multiply_UX_X
                0x6b20bbb8                TEST_Multiply_X_I
                0x6b20bdd3                TEST_Multiply_X_L
                0x6b20c00d                TEST_Multiply_X_UX
                0x6b20c2b2                TEST_Multiply_X_X
 .text          0x6b20c560      0x258 ../build/x86_Debug/TEST_op_Negate.o
                0x6b20c5a2                TEST_Negate_X
 .text          0x6b20c7b8      0xff8 ../build/x86_Debug/TEST_op_Remainder.o
                0x6b20c7fa                TEST_Remainder_I_X
                0x6b20ca29                TEST_Remainder_L_X
                0x6b20cc77                TEST_Remainder_UX_X
                0x6b20cf2a                TEST_Remainder_X_I
                0x6b20d092                TEST_Remainder_X_L
                0x6b20d237                TEST_Remainder_X_UX
                0x6b20d4f0                TEST_Remainder_X_X
 .text          0x6b20d7b0     0x10e4 ../build/x86_Debug/TEST_op_Subtruct.o
                0x6b20d7f2                TEST_Subtruct_I_X
                0x6b20da0d                TEST_Subtruct_L_X
                0x6b20dc47                TEST_Subtruct_UX_X
                0x6b20deec                TEST_Subtruct_X_I
                0x6b20e107                TEST_Subtruct_X_L
                0x6b20e341                TEST_Subtruct_X_UX
                0x6b20e5e6                TEST_Subtruct_X_X
 .text          0x6b20e894        0x0 C:/GNU/MINGW64/i686-8.1.0-win32-dwarf-rt_v6-rev0/mingw32/bin/../lib/gcc/i686-w64-mingw32/8.1.0/../../../../i686-w64-mingw32/lib/../lib/libkernel32.a(dgzch.o)
 .text          0x6b20e894        0x0 C:/GNU/MINGW64/i686-8.1.0-win32-dwarf-rt_v6-rev0/mingw32/bin/../lib/gcc/i686-w64-mingw32/8.1.0/../../../../i686-w64-mingw32/lib/../lib/libkernel32.a(dgzct.o)
 .text          0x6b20e894        0x0 C:/GNU/MINGW64/i686-8.1.0-win32-dwarf-rt_v6-rev0/mingw32/bin/../lib/gcc/i686-w64-mingw32/8.1.0/../../../../i686-w64-mingw32/lib/../lib/libuser32.a(dmceh.o)
 .text          0x6b20e894        0x0 C:/GNU/MINGW64/i686-8.1.0-win32-dwarf-rt_v6-rev0/mingw32/bin/../lib/gcc/i686-w64-mingw32/8.1.0/../../../../i686-w64-mingw32/lib/../lib/libuser32.a(dmcet.o)
 *(SORT_BY_NAME(.text$*))
 *(.text.*)
 *(.gnu.linkonce.t.*)
 *(.glue_7t)
 *(.glue_7)
                0x6b20e894                ___CTOR_LIST__ = .
                0x6b20e894                __CTOR_LIST__ = .
                0x6b20e894        0x4 LONG 0xffffffff
 *(.ctors)
 *(.ctor)
 *(SORT_BY_NAME(.ctors.*))
                0x6b20e898        0x4 LONG 0x0
                0x6b20e89c                ___DTOR_LIST__ = .
                0x6b20e89c                __DTOR_LIST__ = .
                0x6b20e89c        0x4 LONG 0xffffffff
 *(.dtors)
 *(.dtor)
 *(SORT_BY_NAME(.dtors.*))
                0x6b20e8a0        0x4 LONG 0x0
 *(.fini)
 *(.gcc_exc)
                [!provide]                PROVIDE (etext = .)
                [!provide]                PROVIDE (_etext = .)
 *(.gcc_except_table)

.data           0x6b20f000     0xda00
                0x6b20f000                __data_start__ = .
 *(.data)
 .data          0x6b20f000        0x0 ../build/x86_Debug/debug.o
 .data          0x6b20f000        0x0 ../build/x86_Debug/dllmain.o
 .data          0x6b20f000        0x0 ../build/x86_Debug/pmc_add_sub.o
 .data          0x6b20f000        0x0 ../build/x86_Debug/pmc_bytes.o
 .data          0x6b20f000        0x0 ../build/x86_Debug/pmc_clone.o
 .data          0x6b20f000        0x0 ../build/x86_Debug/pmc_compare.o
 .data          0x6b20f000        0x0 ../build/x86_Debug/pmc_divrem.o
 .data          0x6b20f000        0x0 ../build/x86_Debug/pmc_equals.o
 .data          0x6b20f000        0x0 ../build/x86_Debug/pmc_from.o
 .data          0x6b20f000        0x0 ../build/x86_Debug/pmc_greatestcommondivisor.o
 .data          0x6b20f000        0x0 ../build/x86_Debug/pmc_initialize.o
 .data          0x6b20f000        0x0 ../build/x86_Debug/pmc_memory.o
 .data          0x6b20f000        0x0 ../build/x86_Debug/pmc_multiply.o
 .data          0x6b20f000        0x0 ../build/x86_Debug/pmc_negate.o
 .data          0x6b20f000        0x0 ../build/x86_Debug/pmc_statistics.o
 .data          0x6b20f000        0x0 ../build/x86_Debug/pmc_to.o
 .data          0x6b20f000     0xd960 ../build/x86_Debug/TEST_autogenerated.o
 .data          0x6b21c960        0x0 ../build/x86_Debug/TEST_op_Add.o
 .data          0x6b21c960        0x0 ../build/x86_Debug/TEST_op_Clone.o
 .data          0x6b21c960        0x0 ../build/x86_Debug/TEST_op_Compare.o
 .data          0x6b21c960        0x0 ../build/x86_Debug/TEST_op_DivRem.o
 .data          0x6b21c960        0x0 ../build/x86_Debug/TEST_op_Equals.o
 .data          0x6b21c960        0x0 ../build/x86_Debug/TEST_op_From_To.o
 .data          0x6b21c960        0x0 ../build/x86_Debug/TEST_op_GreatestCommonDivisor.o
 .data          0x6b21c960        0x0 ../build/x86_Debug/TEST_op_Multiply.o
 .data          0x6b21c960        0x0 ../build/x86_Debug/TEST_op_Negate.o
 .data          0x6b21c960        0x0 ../build/x86_Debug/TEST_op_Remainder.o
 .data          0x6b21c960        0x0 ../build/x86_Debug/TEST_op_Subtruct.o
 .data          0x6b21c960        0x0 C:/GNU/MINGW64/i686-8.1.0-win32-dwarf-rt_v6-rev0/mingw32/bin/../lib/gcc/i686-w64-mingw32/8.1.0/../../../../i686-w64-mingw32/lib/../lib/libkernel32.a(dgzcs00839.o)
 .data          0x6b21c960        0x0 C:/GNU/MINGW64/i686-8.1.0-win32-dwarf-rt_v6-rev0/mingw32/bin/../lib/gcc/i686-w64-mingw32/8.1.0/../../../../i686-w64-mingw32/lib/../lib/libkernel32.a(dgzcs00729.o)
 .data          0x6b21c960        0x0 C:/GNU/MINGW64/i686-8.1.0-win32-dwarf-rt_v6-rev0/mingw32/bin/../lib/gcc/i686-w64-mingw32/8.1.0/../../../../i686-w64-mingw32/lib/../lib/libkernel32.a(dgzcs00727.o)
 .data          0x6b21c960        0x0 C:/GNU/MINGW64/i686-8.1.0-win32-dwarf-rt_v6-rev0/mingw32/bin/../lib/gcc/i686-w64-mingw32/8.1.0/../../../../i686-w64-mingw32/lib/../lib/libkernel32.a(dgzcs00725.o)
 .data          0x6b21c960        0x0 C:/GNU/MINGW64/i686-8.1.0-win32-dwarf-rt_v6-rev0/mingw32/bin/../lib/gcc/i686-w64-mingw32/8.1.0/../../../../i686-w64-mingw32/lib/../lib/libkernel32.a(dgzcs00723.o)
 .data          0x6b21c960        0x0 C:/GNU/MINGW64/i686-8.1.0-win32-dwarf-rt_v6-rev0/mingw32/bin/../lib/gcc/i686-w64-mingw32/8.1.0/../../../../i686-w64-mingw32/lib/../lib/libkernel32.a(dgzcs00584.o)
 .data          0x6b21c960        0x0 C:/GNU/MINGW64/i686-8.1.0-win32-dwarf-rt_v6-rev0/mingw32/bin/../lib/gcc/i686-w64-mingw32/8.1.0/../../../../i686-w64-mingw32/lib/../lib/libkernel32.a(dgzcs00359.o)
 .data          0x6b21c960        0x0 C:/GNU/MINGW64/i686-8.1.0-win32-dwarf-rt_v6-rev0/mingw32/bin/../lib/gcc/i686-w64-mingw32/8.1.0/../../../../i686-w64-mingw32/lib/../lib/libkernel32.a(dgzch.o)
 .data          0x6b21c960        0x0 C:/GNU/MINGW64/i686-8.1.0-win32-dwarf-rt_v6-rev0/mingw32/bin/../lib/gcc/i686-w64-mingw32/8.1.0/../../../../i686-w64-mingw32/lib/../lib/libkernel32.a(dgzct.o)
 .data          0x6b21c960        0x0 C:/GNU/MINGW64/i686-8.1.0-win32-dwarf-rt_v6-rev0/mingw32/bin/../lib/gcc/i686-w64-mingw32/8.1.0/../../../../i686-w64-mingw32/lib/../lib/libuser32.a(dmces00912.o)
 .data          0x6b21c960        0x0 C:/GNU/MINGW64/i686-8.1.0-win32-dwarf-rt_v6-rev0/mingw32/bin/../lib/gcc/i686-w64-mingw32/8.1.0/../../../../i686-w64-mingw32/lib/../lib/libuser32.a(dmceh.o)
 .data          0x6b21c960        0x0 C:/GNU/MINGW64/i686-8.1.0-win32-dwarf-rt_v6-rev0/mingw32/bin/../lib/gcc/i686-w64-mingw32/8.1.0/../../../../i686-w64-mingw32/lib/../lib/libuser32.a(dmcet.o)
 *(.data2)
 *(SORT_BY_NAME(.data$*))
 *(.jcr)
                0x6b21c960                __data_end__ = .
 *(.data_cygwin_nocopy)

.rdata          0x6b21d000     0x2a00
 *(.rdata)
 .rdata         0x6b21d000      0x1c0 ../build/x86_Debug/debug.o
 .rdata         0x6b21d1c0       0x30 ../build/x86_Debug/pmc_initialize.o
 .rdata         0x6b21d1f0      0x30c ../build/x86_Debug/TEST_op_Add.o
 .rdata         0x6b21d4fc       0xf4 ../build/x86_Debug/TEST_op_Clone.o
 .rdata         0x6b21d5f0      0x33c ../build/x86_Debug/TEST_op_Compare.o
 .rdata         0x6b21d92c      0x370 ../build/x86_Debug/TEST_op_DivRem.o
 .rdata         0x6b21dc9c      0x324 ../build/x86_Debug/TEST_op_Equals.o
 .rdata         0x6b21dfc0      0x1b4 ../build/x86_Debug/TEST_op_From_To.o
 .rdata         0x6b21e174      0x550 ../build/x86_Debug/TEST_op_GreatestCommonDivisor.o
 .rdata         0x6b21e6c4      0x3e4 ../build/x86_Debug/TEST_op_Multiply.o
 .rdata         0x6b21eaa8       0xf8 ../build/x86_Debug/TEST_op_Negate.o
 .rdata         0x6b21eba0      0x380 ../build/x86_Debug/TEST_op_Remainder.o
 .rdata         0x6b21ef20      0x398 ../build/x86_Debug/TEST_op_Subtruct.o
 *(SORT_BY_NAME(.rdata$*))
 .rdata$zzz     0x6b21f2b8       0x40 ../build/x86_Debug/debug.o
 .rdata$zzz     0x6b21f2f8       0x40 ../build/x86_Debug/dllmain.o
 .rdata$zzz     0x6b21f338       0x40 ../build/x86_Debug/pmc_add_sub.o
 .rdata$zzz     0x6b21f378       0x40 ../build/x86_Debug/pmc_bytes.o
 .rdata$zzz     0x6b21f3b8       0x40 ../build/x86_Debug/pmc_clone.o
 .rdata$zzz     0x6b21f3f8       0x40 ../build/x86_Debug/pmc_compare.o
 .rdata$zzz     0x6b21f438       0x40 ../build/x86_Debug/pmc_divrem.o
 .rdata$zzz     0x6b21f478       0x40 ../build/x86_Debug/pmc_equals.o
 .rdata$zzz     0x6b21f4b8       0x40 ../build/x86_Debug/pmc_from.o
 .rdata$zzz     0x6b21f4f8       0x40 ../build/x86_Debug/pmc_greatestcommondivisor.o
 .rdata$zzz     0x6b21f538       0x40 ../build/x86_Debug/pmc_initialize.o
 .rdata$zzz     0x6b21f578       0x40 ../build/x86_Debug/pmc_memory.o
 .rdata$zzz     0x6b21f5b8       0x40 ../build/x86_Debug/pmc_multiply.o
 .rdata$zzz     0x6b21f5f8       0x40 ../build/x86_Debug/pmc_negate.o
 .rdata$zzz     0x6b21f638       0x40 ../build/x86_Debug/pmc_statistics.o
 .rdata$zzz     0x6b21f678       0x40 ../build/x86_Debug/pmc_to.o
 .rdata$zzz     0x6b21f6b8       0x40 ../build/x86_Debug/TEST_autogenerated.o
 .rdata$zzz     0x6b21f6f8       0x40 ../build/x86_Debug/TEST_op_Add.o
 .rdata$zzz     0x6b21f738       0x40 ../build/x86_Debug/TEST_op_Clone.o
 .rdata$zzz     0x6b21f778       0x40 ../build/x86_Debug/TEST_op_Compare.o
 .rdata$zzz     0x6b21f7b8       0x40 ../build/x86_Debug/TEST_op_DivRem.o
 .rdata$zzz     0x6b21f7f8       0x40 ../build/x86_Debug/TEST_op_Equals.o
 .rdata$zzz     0x6b21f838       0x40 ../build/x86_Debug/TEST_op_From_To.o
 .rdata$zzz     0x6b21f878       0x40 ../build/x86_Debug/TEST_op_GreatestCommonDivisor.o
 .rdata$zzz     0x6b21f8b8       0x40 ../build/x86_Debug/TEST_op_Multiply.o
 .rdata$zzz     0x6b21f8f8       0x40 ../build/x86_Debug/TEST_op_Negate.o
 .rdata$zzz     0x6b21f938       0x40 ../build/x86_Debug/TEST_op_Remainder.o
 .rdata$zzz     0x6b21f978       0x40 ../build/x86_Debug/TEST_op_Subtruct.o
                0x6b21f9b8                __rt_psrelocs_start = .
 *(.rdata_runtime_pseudo_reloc)
                0x6b21f9b8                __rt_psrelocs_end = .
                0x00000000                __rt_psrelocs_size = (__rt_psrelocs_end - __rt_psrelocs_start)
                0x6b21f9b8                ___RUNTIME_PSEUDO_RELOC_LIST_END__ = .
                0x6b21f9b8                __RUNTIME_PSEUDO_RELOC_LIST_END__ = .
                0x6b21f9b8                ___RUNTIME_PSEUDO_RELOC_LIST__ = (. - __rt_psrelocs_size)
                0x6b21f9b8                __RUNTIME_PSEUDO_RELOC_LIST__ = (. - __rt_psrelocs_size)

.eh_frame       0x6b220000     0x1e00
 *(.eh_frame*)
 .eh_frame      0x6b220000      0x130 ../build/x86_Debug/debug.o
 .eh_frame      0x6b220130       0x38 ../build/x86_Debug/dllmain.o
 .eh_frame      0x6b220168      0x2e8 ../build/x86_Debug/pmc_add_sub.o
 .eh_frame      0x6b220450       0x5c ../build/x86_Debug/pmc_bytes.o
 .eh_frame      0x6b2204ac       0x38 ../build/x86_Debug/pmc_clone.o
 .eh_frame      0x6b2204e4      0x1b8 ../build/x86_Debug/pmc_compare.o
 .eh_frame      0x6b22069c      0x15c ../build/x86_Debug/pmc_divrem.o
 .eh_frame      0x6b2207f8      0x14c ../build/x86_Debug/pmc_equals.o
 .eh_frame      0x6b220944       0xa0 ../build/x86_Debug/pmc_from.o
 .eh_frame      0x6b2209e4      0x14c ../build/x86_Debug/pmc_greatestcommondivisor.o
 .eh_frame      0x6b220b30       0xec ../build/x86_Debug/pmc_initialize.o
 .eh_frame      0x6b220c1c      0x218 ../build/x86_Debug/pmc_memory.o
 .eh_frame      0x6b220e34      0x1bc ../build/x86_Debug/pmc_multiply.o
 .eh_frame      0x6b220ff0       0x38 ../build/x86_Debug/pmc_negate.o
 .eh_frame      0x6b221028       0x38 ../build/x86_Debug/pmc_statistics.o
 .eh_frame      0x6b221060       0x5c ../build/x86_Debug/pmc_to.o
 .eh_frame      0x6b2210bc       0x3c ../build/x86_Debug/TEST_autogenerated.o
 .eh_frame      0x6b2210f8      0x16c ../build/x86_Debug/TEST_op_Add.o
 .eh_frame      0x6b221264       0x64 ../build/x86_Debug/TEST_op_Clone.o
 .eh_frame      0x6b2212c8      0x14c ../build/x86_Debug/TEST_op_Compare.o
 .eh_frame      0x6b221414      0x170 ../build/x86_Debug/TEST_op_DivRem.o
 .eh_frame      0x6b221584      0x14c ../build/x86_Debug/TEST_op_Equals.o
 .eh_frame      0x6b2216d0       0xec ../build/x86_Debug/TEST_op_From_To.o
 .eh_frame      0x6b2217bc      0x16c ../build/x86_Debug/TEST_op_GreatestCommonDivisor.o
 .eh_frame      0x6b221928      0x16c ../build/x86_Debug/TEST_op_Multiply.o
 .eh_frame      0x6b221a94       0x64 ../build/x86_Debug/TEST_op_Negate.o
 .eh_frame      0x6b221af8      0x170 ../build/x86_Debug/TEST_op_Remainder.o
 .eh_frame      0x6b221c68      0x16c ../build/x86_Debug/TEST_op_Subtruct.o

.pdata
 *(.pdata*)

.bss            0x6b222000      0xb20
                0x6b222000                __bss_start__ = .
 *(.bss)
 .bss           0x6b222000      0x420 ../build/x86_Debug/debug.o
                0x6b222000                test_total_count
                0x6b222004                test_ok_count
                0x6b222008                __DEBUG_LOG
 .bss           0x6b222420        0x0 ../build/x86_Debug/dllmain.o
 .bss           0x6b222420        0x0 ../build/x86_Debug/pmc_add_sub.o
 .bss           0x6b222420        0x0 ../build/x86_Debug/pmc_bytes.o
 .bss           0x6b222420        0x0 ../build/x86_Debug/pmc_clone.o
 .bss           0x6b222420        0x0 ../build/x86_Debug/pmc_compare.o
 .bss           0x6b222420        0x0 ../build/x86_Debug/pmc_divrem.o
 .bss           0x6b222420        0x0 ../build/x86_Debug/pmc_equals.o
 .bss           0x6b222420        0x0 ../build/x86_Debug/pmc_from.o
 .bss           0x6b222420        0x0 ../build/x86_Debug/pmc_greatestcommondivisor.o
 .bss           0x6b222420      0x220 ../build/x86_Debug/pmc_initialize.o
 .bss           0x6b222640        0x0 ../build/x86_Debug/pmc_memory.o
 .bss           0x6b222640        0x0 ../build/x86_Debug/pmc_multiply.o
 .bss           0x6b222640        0x0 ../build/x86_Debug/pmc_negate.o
 .bss           0x6b222640        0x0 ../build/x86_Debug/pmc_statistics.o
 .bss           0x6b222640        0x0 ../build/x86_Debug/pmc_to.o
 .bss           0x6b222640      0x35c ../build/x86_Debug/TEST_autogenerated.o
 .bss           0x6b22299c        0x0 ../build/x86_Debug/TEST_op_Add.o
 .bss           0x6b22299c        0x0 ../build/x86_Debug/TEST_op_Clone.o
 .bss           0x6b22299c        0x0 ../build/x86_Debug/TEST_op_Compare.o
 .bss           0x6b22299c        0x0 ../build/x86_Debug/TEST_op_DivRem.o
 .bss           0x6b22299c        0x0 ../build/x86_Debug/TEST_op_Equals.o
 .bss           0x6b22299c        0x0 ../build/x86_Debug/TEST_op_From_To.o
 .bss           0x6b22299c        0x0 ../build/x86_Debug/TEST_op_GreatestCommonDivisor.o
 .bss           0x6b22299c        0x0 ../build/x86_Debug/TEST_op_Multiply.o
 .bss           0x6b22299c        0x0 ../build/x86_Debug/TEST_op_Negate.o
 .bss           0x6b22299c        0x0 ../build/x86_Debug/TEST_op_Remainder.o
 .bss           0x6b22299c        0x0 ../build/x86_Debug/TEST_op_Subtruct.o
 .bss           0x6b22299c        0x0 C:/GNU/MINGW64/i686-8.1.0-win32-dwarf-rt_v6-rev0/mingw32/bin/../lib/gcc/i686-w64-mingw32/8.1.0/../../../../i686-w64-mingw32/lib/../lib/libkernel32.a(dgzcs00839.o)
 .bss           0x6b22299c        0x0 C:/GNU/MINGW64/i686-8.1.0-win32-dwarf-rt_v6-rev0/mingw32/bin/../lib/gcc/i686-w64-mingw32/8.1.0/../../../../i686-w64-mingw32/lib/../lib/libkernel32.a(dgzcs00729.o)
 .bss           0x6b22299c        0x0 C:/GNU/MINGW64/i686-8.1.0-win32-dwarf-rt_v6-rev0/mingw32/bin/../lib/gcc/i686-w64-mingw32/8.1.0/../../../../i686-w64-mingw32/lib/../lib/libkernel32.a(dgzcs00727.o)
 .bss           0x6b22299c        0x0 C:/GNU/MINGW64/i686-8.1.0-win32-dwarf-rt_v6-rev0/mingw32/bin/../lib/gcc/i686-w64-mingw32/8.1.0/../../../../i686-w64-mingw32/lib/../lib/libkernel32.a(dgzcs00725.o)
 .bss           0x6b22299c        0x0 C:/GNU/MINGW64/i686-8.1.0-win32-dwarf-rt_v6-rev0/mingw32/bin/../lib/gcc/i686-w64-mingw32/8.1.0/../../../../i686-w64-mingw32/lib/../lib/libkernel32.a(dgzcs00723.o)
 .bss           0x6b22299c        0x0 C:/GNU/MINGW64/i686-8.1.0-win32-dwarf-rt_v6-rev0/mingw32/bin/../lib/gcc/i686-w64-mingw32/8.1.0/../../../../i686-w64-mingw32/lib/../lib/libkernel32.a(dgzcs00584.o)
 .bss           0x6b22299c        0x0 C:/GNU/MINGW64/i686-8.1.0-win32-dwarf-rt_v6-rev0/mingw32/bin/../lib/gcc/i686-w64-mingw32/8.1.0/../../../../i686-w64-mingw32/lib/../lib/libkernel32.a(dgzcs00359.o)
 .bss           0x6b22299c        0x0 C:/GNU/MINGW64/i686-8.1.0-win32-dwarf-rt_v6-rev0/mingw32/bin/../lib/gcc/i686-w64-mingw32/8.1.0/../../../../i686-w64-mingw32/lib/../lib/libkernel32.a(dgzch.o)
 .bss           0x6b22299c        0x0 C:/GNU/MINGW64/i686-8.1.0-win32-dwarf-rt_v6-rev0/mingw32/bin/../lib/gcc/i686-w64-mingw32/8.1.0/../../../../i686-w64-mingw32/lib/../lib/libkernel32.a(dgzct.o)
 .bss           0x6b22299c        0x0 C:/GNU/MINGW64/i686-8.1.0-win32-dwarf-rt_v6-rev0/mingw32/bin/../lib/gcc/i686-w64-mingw32/8.1.0/../../../../i686-w64-mingw32/lib/../lib/libuser32.a(dmces00912.o)
 .bss           0x6b22299c        0x0 C:/GNU/MINGW64/i686-8.1.0-win32-dwarf-rt_v6-rev0/mingw32/bin/../lib/gcc/i686-w64-mingw32/8.1.0/../../../../i686-w64-mingw32/lib/../lib/libuser32.a(dmceh.o)
 .bss           0x6b22299c        0x0 C:/GNU/MINGW64/i686-8.1.0-win32-dwarf-rt_v6-rev0/mingw32/bin/../lib/gcc/i686-w64-mingw32/8.1.0/../../../../i686-w64-mingw32/lib/../lib/libuser32.a(dmcet.o)
 *(COMMON)
 COMMON         0x6b22299c        0x8 ../build/x86_Debug/debug.o
                0x6b22299c                uint_number_zero
                0x6b2229a0                uint_number_one
 *fill*         0x6b2229a4       0x1c 
 COMMON         0x6b2229c0      0x114 ../build/x86_Debug/pmc_initialize.o
                0x6b2229c0                ep_uint
 COMMON         0x6b222ad4       0x4c ../build/x86_Debug/pmc_memory.o
                0x6b222ad4                number_zero
                0x6b222aec                number_minus_one
                0x6b222b04                number_one
                0x6b222b1c                hLocalHeap
                0x6b222b20                __bss_end__ = .

.edata          0x6b223000      0x200
 *(.edata)
 .edata         0x6b223000       0xa8 dll stuff

/DISCARD/
 *(.debug$S)
 *(.debug$T)
 *(.debug$F)
 *(.drectve)
 *(.note.GNU-stack)
 *(.gnu.lto_*)

.idata          0x6b224000      0x200
 SORT_BY_NAME(*)(.idata$2)
 .idata$2       0x6b224000       0x14 C:/GNU/MINGW64/i686-8.1.0-win32-dwarf-rt_v6-rev0/mingw32/bin/../lib/gcc/i686-w64-mingw32/8.1.0/../../../../i686-w64-mingw32/lib/../lib/libkernel32.a(dgzch.o)
                0x6b224000                _head_lib32_libkernel32_a
 .idata$2       0x6b224014       0x14 C:/GNU/MINGW64/i686-8.1.0-win32-dwarf-rt_v6-rev0/mingw32/bin/../lib/gcc/i686-w64-mingw32/8.1.0/../../../../i686-w64-mingw32/lib/../lib/libuser32.a(dmceh.o)
                0x6b224014                _head_lib32_libuser32_a
 SORT_BY_NAME(*)(.idata$3)
                0x6b224028        0x4 LONG 0x0
                0x6b22402c        0x4 LONG 0x0
                0x6b224030        0x4 LONG 0x0
                0x6b224034        0x4 LONG 0x0
                0x6b224038        0x4 LONG 0x0
 SORT_BY_NAME(*)(.idata$4)
 .idata$4       0x6b22403c        0x0 C:/GNU/MINGW64/i686-8.1.0-win32-dwarf-rt_v6-rev0/mingw32/bin/../lib/gcc/i686-w64-mingw32/8.1.0/../../../../i686-w64-mingw32/lib/../lib/libkernel32.a(dgzch.o)
 .idata$4       0x6b22403c        0x4 C:/GNU/MINGW64/i686-8.1.0-win32-dwarf-rt_v6-rev0/mingw32/bin/../lib/gcc/i686-w64-mingw32/8.1.0/../../../../i686-w64-mingw32/lib/../lib/libkernel32.a(dgzcs00359.o)
 .idata$4       0x6b224040        0x4 C:/GNU/MINGW64/i686-8.1.0-win32-dwarf-rt_v6-rev0/mingw32/bin/../lib/gcc/i686-w64-mingw32/8.1.0/../../../../i686-w64-mingw32/lib/../lib/libkernel32.a(dgzcs00584.o)
 .idata$4       0x6b224044        0x4 C:/GNU/MINGW64/i686-8.1.0-win32-dwarf-rt_v6-rev0/mingw32/bin/../lib/gcc/i686-w64-mingw32/8.1.0/../../../../i686-w64-mingw32/lib/../lib/libkernel32.a(dgzcs00723.o)
 .idata$4       0x6b224048        0x4 C:/GNU/MINGW64/i686-8.1.0-win32-dwarf-rt_v6-rev0/mingw32/bin/../lib/gcc/i686-w64-mingw32/8.1.0/../../../../i686-w64-mingw32/lib/../lib/libkernel32.a(dgzcs00725.o)
 .idata$4       0x6b22404c        0x4 C:/GNU/MINGW64/i686-8.1.0-win32-dwarf-rt_v6-rev0/mingw32/bin/../lib/gcc/i686-w64-mingw32/8.1.0/../../../../i686-w64-mingw32/lib/../lib/libkernel32.a(dgzcs00727.o)
 .idata$4       0x6b224050        0x4 C:/GNU/MINGW64/i686-8.1.0-win32-dwarf-rt_v6-rev0/mingw32/bin/../lib/gcc/i686-w64-mingw32/8.1.0/../../../../i686-w64-mingw32/lib/../lib/libkernel32.a(dgzcs00729.o)
 .idata$4       0x6b224054        0x4 C:/GNU/MINGW64/i686-8.1.0-win32-dwarf-rt_v6-rev0/mingw32/bin/../lib/gcc/i686-w64-mingw32/8.1.0/../../../../i686-w64-mingw32/lib/../lib/libkernel32.a(dgzcs00839.o)
 .idata$4       0x6b224058        0x4 C:/GNU/MINGW64/i686-8.1.0-win32-dwarf-rt_v6-rev0/mingw32/bin/../lib/gcc/i686-w64-mingw32/8.1.0/../../../../i686-w64-mingw32/lib/../lib/libkernel32.a(dgzct.o)
 .idata$4       0x6b22405c        0x0 C:/GNU/MINGW64/i686-8.1.0-win32-dwarf-rt_v6-rev0/mingw32/bin/../lib/gcc/i686-w64-mingw32/8.1.0/../../../../i686-w64-mingw32/lib/../lib/libuser32.a(dmceh.o)
 .idata$4       0x6b22405c        0x4 C:/GNU/MINGW64/i686-8.1.0-win32-dwarf-rt_v6-rev0/mingw32/bin/../lib/gcc/i686-w64-mingw32/8.1.0/../../../../i686-w64-mingw32/lib/../lib/libuser32.a(dmces00912.o)
 .idata$4       0x6b224060        0x4 C:/GNU/MINGW64/i686-8.1.0-win32-dwarf-rt_v6-rev0/mingw32/bin/../lib/gcc/i686-w64-mingw32/8.1.0/../../../../i686-w64-mingw32/lib/../lib/libuser32.a(dmcet.o)
                0x6b224064                __IAT_start__ = .
 SORT_BY_NAME(*)(.idata$5)
 .idata$5       0x6b224064        0x0 C:/GNU/MINGW64/i686-8.1.0-win32-dwarf-rt_v6-rev0/mingw32/bin/../lib/gcc/i686-w64-mingw32/8.1.0/../../../../i686-w64-mingw32/lib/../lib/libkernel32.a(dgzch.o)
 .idata$5       0x6b224064        0x4 C:/GNU/MINGW64/i686-8.1.0-win32-dwarf-rt_v6-rev0/mingw32/bin/../lib/gcc/i686-w64-mingw32/8.1.0/../../../../i686-w64-mingw32/lib/../lib/libkernel32.a(dgzcs00359.o)
                0x6b224064                _imp__FreeLibrary@4
 .idata$5       0x6b224068        0x4 C:/GNU/MINGW64/i686-8.1.0-win32-dwarf-rt_v6-rev0/mingw32/bin/../lib/gcc/i686-w64-mingw32/8.1.0/../../../../i686-w64-mingw32/lib/../lib/libkernel32.a(dgzcs00584.o)
                0x6b224068                _imp__GetProcAddress@8
 .idata$5       0x6b22406c        0x4 C:/GNU/MINGW64/i686-8.1.0-win32-dwarf-rt_v6-rev0/mingw32/bin/../lib/gcc/i686-w64-mingw32/8.1.0/../../../../i686-w64-mingw32/lib/../lib/libkernel32.a(dgzcs00723.o)
                0x6b22406c                _imp__HeapAlloc@12
 .idata$5       0x6b224070        0x4 C:/GNU/MINGW64/i686-8.1.0-win32-dwarf-rt_v6-rev0/mingw32/bin/../lib/gcc/i686-w64-mingw32/8.1.0/../../../../i686-w64-mingw32/lib/../lib/libkernel32.a(dgzcs00725.o)
                0x6b224070                _imp__HeapCreate@12
 .idata$5       0x6b224074        0x4 C:/GNU/MINGW64/i686-8.1.0-win32-dwarf-rt_v6-rev0/mingw32/bin/../lib/gcc/i686-w64-mingw32/8.1.0/../../../../i686-w64-mingw32/lib/../lib/libkernel32.a(dgzcs00727.o)
                0x6b224074                _imp__HeapDestroy@4
 .idata$5       0x6b224078        0x4 C:/GNU/MINGW64/i686-8.1.0-win32-dwarf-rt_v6-rev0/mingw32/bin/../lib/gcc/i686-w64-mingw32/8.1.0/../../../../i686-w64-mingw32/lib/../lib/libkernel32.a(dgzcs00729.o)
                0x6b224078                _imp__HeapFree@12
 .idata$5       0x6b22407c        0x4 C:/GNU/MINGW64/i686-8.1.0-win32-dwarf-rt_v6-rev0/mingw32/bin/../lib/gcc/i686-w64-mingw32/8.1.0/../../../../i686-w64-mingw32/lib/../lib/libkernel32.a(dgzcs00839.o)
                0x6b22407c                _imp__LoadLibraryA@4
 .idata$5       0x6b224080        0x4 C:/GNU/MINGW64/i686-8.1.0-win32-dwarf-rt_v6-rev0/mingw32/bin/../lib/gcc/i686-w64-mingw32/8.1.0/../../../../i686-w64-mingw32/lib/../lib/libkernel32.a(dgzct.o)
 .idata$5       0x6b224084        0x0 C:/GNU/MINGW64/i686-8.1.0-win32-dwarf-rt_v6-rev0/mingw32/bin/../lib/gcc/i686-w64-mingw32/8.1.0/../../../../i686-w64-mingw32/lib/../lib/libuser32.a(dmceh.o)
 .idata$5       0x6b224084        0x4 C:/GNU/MINGW64/i686-8.1.0-win32-dwarf-rt_v6-rev0/mingw32/bin/../lib/gcc/i686-w64-mingw32/8.1.0/../../../../i686-w64-mingw32/lib/../lib/libuser32.a(dmces00912.o)
                0x6b224084                _imp__wsprintfW
 .idata$5       0x6b224088        0x4 C:/GNU/MINGW64/i686-8.1.0-win32-dwarf-rt_v6-rev0/mingw32/bin/../lib/gcc/i686-w64-mingw32/8.1.0/../../../../i686-w64-mingw32/lib/../lib/libuser32.a(dmcet.o)
                0x6b22408c                __IAT_end__ = .
 SORT_BY_NAME(*)(.idata$6)
 .idata$6       0x6b22408c        0xe C:/GNU/MINGW64/i686-8.1.0-win32-dwarf-rt_v6-rev0/mingw32/bin/../lib/gcc/i686-w64-mingw32/8.1.0/../../../../i686-w64-mingw32/lib/../lib/libkernel32.a(dgzcs00359.o)
 .idata$6       0x6b22409a       0x12 C:/GNU/MINGW64/i686-8.1.0-win32-dwarf-rt_v6-rev0/mingw32/bin/../lib/gcc/i686-w64-mingw32/8.1.0/../../../../i686-w64-mingw32/lib/../lib/libkernel32.a(dgzcs00584.o)
 .idata$6       0x6b2240ac        0xc C:/GNU/MINGW64/i686-8.1.0-win32-dwarf-rt_v6-rev0/mingw32/bin/../lib/gcc/i686-w64-mingw32/8.1.0/../../../../i686-w64-mingw32/lib/../lib/libkernel32.a(dgzcs00723.o)
 .idata$6       0x6b2240b8        0xe C:/GNU/MINGW64/i686-8.1.0-win32-dwarf-rt_v6-rev0/mingw32/bin/../lib/gcc/i686-w64-mingw32/8.1.0/../../../../i686-w64-mingw32/lib/../lib/libkernel32.a(dgzcs00725.o)
 .idata$6       0x6b2240c6        0xe C:/GNU/MINGW64/i686-8.1.0-win32-dwarf-rt_v6-rev0/mingw32/bin/../lib/gcc/i686-w64-mingw32/8.1.0/../../../../i686-w64-mingw32/lib/../lib/libkernel32.a(dgzcs00727.o)
 .idata$6       0x6b2240d4        0xc C:/GNU/MINGW64/i686-8.1.0-win32-dwarf-rt_v6-rev0/mingw32/bin/../lib/gcc/i686-w64-mingw32/8.1.0/../../../../i686-w64-mingw32/lib/../lib/libkernel32.a(dgzcs00729.o)
 .idata$6       0x6b2240e0       0x10 C:/GNU/MINGW64/i686-8.1.0-win32-dwarf-rt_v6-rev0/mingw32/bin/../lib/gcc/i686-w64-mingw32/8.1.0/../../../../i686-w64-mingw32/lib/../lib/libkernel32.a(dgzcs00839.o)
 .idata$6       0x6b2240f0        0xc C:/GNU/MINGW64/i686-8.1.0-win32-dwarf-rt_v6-rev0/mingw32/bin/../lib/gcc/i686-w64-mingw32/8.1.0/../../../../i686-w64-mingw32/lib/../lib/libuser32.a(dmces00912.o)
 SORT_BY_NAME(*)(.idata$7)
 .idata$7       0x6b2240fc        0x4 C:/GNU/MINGW64/i686-8.1.0-win32-dwarf-rt_v6-rev0/mingw32/bin/../lib/gcc/i686-w64-mingw32/8.1.0/../../../../i686-w64-mingw32/lib/../lib/libkernel32.a(dgzcs00359.o)
 .idata$7       0x6b224100        0x4 C:/GNU/MINGW64/i686-8.1.0-win32-dwarf-rt_v6-rev0/mingw32/bin/../lib/gcc/i686-w64-mingw32/8.1.0/../../../../i686-w64-mingw32/lib/../lib/libkernel32.a(dgzcs00584.o)
 .idata$7       0x6b224104        0x4 C:/GNU/MINGW64/i686-8.1.0-win32-dwarf-rt_v6-rev0/mingw32/bin/../lib/gcc/i686-w64-mingw32/8.1.0/../../../../i686-w64-mingw32/lib/../lib/libkernel32.a(dgzcs00723.o)
 .idata$7       0x6b224108        0x4 C:/GNU/MINGW64/i686-8.1.0-win32-dwarf-rt_v6-rev0/mingw32/bin/../lib/gcc/i686-w64-mingw32/8.1.0/../../../../i686-w64-mingw32/lib/../lib/libkernel32.a(dgzcs00725.o)
 .idata$7       0x6b22410c        0x4 C:/GNU/MINGW64/i686-8.1.0-win32-dwarf-rt_v6-rev0/mingw32/bin/../lib/gcc/i686-w64-mingw32/8.1.0/../../../../i686-w64-mingw32/lib/../lib/libkernel32.a(dgzcs00727.o)
 .idata$7       0x6b224110        0x4 C:/GNU/MINGW64/i686-8.1.0-win32-dwarf-rt_v6-rev0/mingw32/bin/../lib/gcc/i686-w64-mingw32/8.1.0/../../../../i686-w64-mingw32/lib/../lib/libkernel32.a(dgzcs00729.o)
 .idata$7       0x6b224114        0x4 C:/GNU/MINGW64/i686-8.1.0-win32-dwarf-rt_v6-rev0/mingw32/bin/../lib/gcc/i686-w64-mingw32/8.1.0/../../../../i686-w64-mingw32/lib/../lib/libkernel32.a(dgzcs00839.o)
 .idata$7       0x6b224118       0x10 C:/GNU/MINGW64/i686-8.1.0-win32-dwarf-rt_v6-rev0/mingw32/bin/../lib/gcc/i686-w64-mingw32/8.1.0/../../../../i686-w64-mingw32/lib/../lib/libkernel32.a(dgzct.o)
                0x6b224118                _lib32_libkernel32_a_iname
 .idata$7       0x6b224128        0x4 C:/GNU/MINGW64/i686-8.1.0-win32-dwarf-rt_v6-rev0/mingw32/bin/../lib/gcc/i686-w64-mingw32/8.1.0/../../../../i686-w64-mingw32/lib/../lib/libuser32.a(dmces00912.o)
 .idata$7       0x6b22412c        0xc C:/GNU/MINGW64/i686-8.1.0-win32-dwarf-rt_v6-rev0/mingw32/bin/../lib/gcc/i686-w64-mingw32/8.1.0/../../../../i686-w64-mingw32/lib/../lib/libuser32.a(dmcet.o)
                0x6b22412c                _lib32_libuser32_a_iname

.CRT            0x6b225000        0x0
                0x6b225000                ___crt_xc_start__ = .
 *(SORT_BY_NAME(.CRT$XC*))
                0x6b225000                ___crt_xc_end__ = .
                0x6b225000                ___crt_xi_start__ = .
 *(SORT_BY_NAME(.CRT$XI*))
                0x6b225000                ___crt_xi_end__ = .
                0x6b225000                ___crt_xl_start__ = .
 *(SORT_BY_NAME(.CRT$XL*))
                0x6b225000                ___crt_xp_start__ = .
 *(SORT_BY_NAME(.CRT$XP*))
                0x6b225000                ___crt_xp_end__ = .
                0x6b225000                ___crt_xt_start__ = .
 *(SORT_BY_NAME(.CRT$XT*))
                0x6b225000                ___crt_xt_end__ = .

.tls            0x6b225000        0x0
                0x6b225000                ___tls_start__ = .
 *(.tls$AAA)
 *(.tls)
 *(.tls$)
 *(SORT_BY_NAME(.tls$*))
 *(.tls$ZZZ)
                0x6b225000                ___tls_end__ = .

.endjunk        0x6b225000        0x0
                [!provide]                PROVIDE (end = .)
                [!provide]                PROVIDE (_end = .)
                0x6b225000                __end__ = .

.rsrc           0x6b225000      0x400
 *(.rsrc)
 .rsrc          0x6b225000      0x378 ../build/x86_Debug/version.o
 *(.rsrc$*)

.reloc          0x6b226000    0x19600
 *(.reloc)
 .reloc         0x6b226000    0x19470 dll stuff

.stab
 *(.stab)

.stabstr
 *(.stabstr)

.debug_aranges  0x6b240000      0x400
 *(.debug_aranges)
 .debug_aranges
                0x6b240000       0x20 ../build/x86_Debug/debug.o
 .debug_aranges
                0x6b240020       0x20 ../build/x86_Debug/dllmain.o
 .debug_aranges
                0x6b240040       0x20 ../build/x86_Debug/pmc_add_sub.o
 .debug_aranges
                0x6b240060       0x20 ../build/x86_Debug/pmc_bytes.o
 .debug_aranges
                0x6b240080       0x20 ../build/x86_Debug/pmc_clone.o
 .debug_aranges
                0x6b2400a0       0x20 ../build/x86_Debug/pmc_compare.o
 .debug_aranges
                0x6b2400c0       0x20 ../build/x86_Debug/pmc_divrem.o
 .debug_aranges
                0x6b2400e0       0x20 ../build/x86_Debug/pmc_equals.o
 .debug_aranges
                0x6b240100       0x20 ../build/x86_Debug/pmc_from.o
 .debug_aranges
                0x6b240120       0x20 ../build/x86_Debug/pmc_greatestcommondivisor.o
 .debug_aranges
                0x6b240140       0x20 ../build/x86_Debug/pmc_initialize.o
 .debug_aranges
                0x6b240160       0x20 ../build/x86_Debug/pmc_memory.o
 .debug_aranges
                0x6b240180       0x20 ../build/x86_Debug/pmc_multiply.o
 .debug_aranges
                0x6b2401a0       0x20 ../build/x86_Debug/pmc_negate.o
 .debug_aranges
                0x6b2401c0       0x20 ../build/x86_Debug/pmc_statistics.o
 .debug_aranges
                0x6b2401e0       0x20 ../build/x86_Debug/pmc_to.o
 .debug_aranges
                0x6b240200       0x20 ../build/x86_Debug/TEST_autogenerated.o
 .debug_aranges
                0x6b240220       0x20 ../build/x86_Debug/TEST_op_Add.o
 .debug_aranges
                0x6b240240       0x20 ../build/x86_Debug/TEST_op_Clone.o
 .debug_aranges
                0x6b240260       0x20 ../build/x86_Debug/TEST_op_Compare.o
 .debug_aranges
                0x6b240280       0x20 ../build/x86_Debug/TEST_op_DivRem.o
 .debug_aranges
                0x6b2402a0       0x20 ../build/x86_Debug/TEST_op_Equals.o
 .debug_aranges
                0x6b2402c0       0x20 ../build/x86_Debug/TEST_op_From_To.o
 .debug_aranges
                0x6b2402e0       0x20 ../build/x86_Debug/TEST_op_GreatestCommonDivisor.o
 .debug_aranges
                0x6b240300       0x20 ../build/x86_Debug/TEST_op_Multiply.o
 .debug_aranges
                0x6b240320       0x20 ../build/x86_Debug/TEST_op_Negate.o
 .debug_aranges
                0x6b240340       0x20 ../build/x86_Debug/TEST_op_Remainder.o
 .debug_aranges
                0x6b240360       0x20 ../build/x86_Debug/TEST_op_Subtruct.o

.zdebug_aranges
 *(.zdebug_aranges)

.debug_pubnames
 *(.debug_pubnames)

.zdebug_pubnames
 *(.zdebug_pubnames)

.debug_pubtypes
 *(.debug_pubtypes)

.zdebug_pubtypes
 *(.zdebug_pubtypes)

.debug_info     0x6b241000    0xe5e00
 *(.debug_info .gnu.linkonce.wi.*)
 .debug_info    0x6b241000     0x6908 ../build/x86_Debug/debug.o
 .debug_info    0x6b247908     0x5ce9 ../build/x86_Debug/dllmain.o
 .debug_info    0x6b24d5f1     0x6a7e ../build/x86_Debug/pmc_add_sub.o
 .debug_info    0x6b25406f     0x5e21 ../build/x86_Debug/pmc_bytes.o
 .debug_info    0x6b259e90     0x5d4c ../build/x86_Debug/pmc_clone.o
 .debug_info    0x6b25fbdc     0x6314 ../build/x86_Debug/pmc_compare.o
 .debug_info    0x6b265ef0     0x657e ../build/x86_Debug/pmc_divrem.o
 .debug_info    0x6b26c46e     0x6171 ../build/x86_Debug/pmc_equals.o
 .debug_info    0x6b2725df     0x5ecc ../build/x86_Debug/pmc_from.o
 .debug_info    0x6b2784ab     0x6252 ../build/x86_Debug/pmc_greatestcommondivisor.o
 .debug_info    0x6b27e6fd     0x68d3 ../build/x86_Debug/pmc_initialize.o
 .debug_info    0x6b284fd0     0x631d ../build/x86_Debug/pmc_memory.o
 .debug_info    0x6b28b2ed     0x639b ../build/x86_Debug/pmc_multiply.o
 .debug_info    0x6b291688     0x5d4f ../build/x86_Debug/pmc_negate.o
 .debug_info    0x6b2973d7     0x5c5f ../build/x86_Debug/pmc_statistics.o
 .debug_info    0x6b29d036     0x5e05 ../build/x86_Debug/pmc_to.o
 .debug_info    0x6b2a2e3b    0x3a7ea ../build/x86_Debug/TEST_autogenerated.o
 .debug_info    0x6b2dd625     0x6d26 ../build/x86_Debug/TEST_op_Add.o
 .debug_info    0x6b2e434b     0x66f4 ../build/x86_Debug/TEST_op_Clone.o
 .debug_info    0x6b2eaa3f     0x6b20 ../build/x86_Debug/TEST_op_Compare.o
 .debug_info    0x6b2f155f     0x6b3e ../build/x86_Debug/TEST_op_DivRem.o
 .debug_info    0x6b2f809d     0x6b18 ../build/x86_Debug/TEST_op_Equals.o
 .debug_info    0x6b2febb5     0x68da ../build/x86_Debug/TEST_op_From_To.o
 .debug_info    0x6b30548f     0x6e1f ../build/x86_Debug/TEST_op_GreatestCommonDivisor.o
 .debug_info    0x6b30c2ae     0x6d4e ../build/x86_Debug/TEST_op_Multiply.o
 .debug_info    0x6b312ffc     0x66f6 ../build/x86_Debug/TEST_op_Negate.o
 .debug_info    0x6b3196f2     0x6921 ../build/x86_Debug/TEST_op_Remainder.o
 .debug_info    0x6b320013     0x6d4e ../build/x86_Debug/TEST_op_Subtruct.o

.zdebug_info
 *(.zdebug_info .zdebug.gnu.linkonce.wi.*)

.debug_abbrev   0x6b327000     0x4800
 *(.debug_abbrev)
 .debug_abbrev  0x6b327000      0x2d2 ../build/x86_Debug/debug.o
 .debug_abbrev  0x6b3272d2      0x218 ../build/x86_Debug/dllmain.o
 .debug_abbrev  0x6b3274ea      0x306 ../build/x86_Debug/pmc_add_sub.o
 .debug_abbrev  0x6b3277f0      0x238 ../build/x86_Debug/pmc_bytes.o
 .debug_abbrev  0x6b327a28      0x21a ../build/x86_Debug/pmc_clone.o
 .debug_abbrev  0x6b327c42      0x2d0 ../build/x86_Debug/pmc_compare.o
 .debug_abbrev  0x6b327f12      0x2c8 ../build/x86_Debug/pmc_divrem.o
 .debug_abbrev  0x6b3281da      0x272 ../build/x86_Debug/pmc_equals.o
 .debug_abbrev  0x6b32844c      0x26e ../build/x86_Debug/pmc_from.o
 .debug_abbrev  0x6b3286ba      0x272 ../build/x86_Debug/pmc_greatestcommondivisor.o
 .debug_abbrev  0x6b32892c      0x336 ../build/x86_Debug/pmc_initialize.o
 .debug_abbrev  0x6b328c62      0x3ae ../build/x86_Debug/pmc_memory.o
 .debug_abbrev  0x6b329010      0x2e1 ../build/x86_Debug/pmc_multiply.o
 .debug_abbrev  0x6b3292f1      0x21a ../build/x86_Debug/pmc_negate.o
 .debug_abbrev  0x6b32950b      0x218 ../build/x86_Debug/pmc_statistics.o
 .debug_abbrev  0x6b329723      0x238 ../build/x86_Debug/pmc_to.o
 .debug_abbrev  0x6b32995b      0x266 ../build/x86_Debug/TEST_autogenerated.o
 .debug_abbrev  0x6b329bc1      0x291 ../build/x86_Debug/TEST_op_Add.o
 .debug_abbrev  0x6b329e52      0x26f ../build/x86_Debug/TEST_op_Clone.o
 .debug_abbrev  0x6b32a0c1      0x291 ../build/x86_Debug/TEST_op_Compare.o
 .debug_abbrev  0x6b32a352      0x253 ../build/x86_Debug/TEST_op_DivRem.o
 .debug_abbrev  0x6b32a5a5      0x291 ../build/x86_Debug/TEST_op_Equals.o
 .debug_abbrev  0x6b32a836      0x291 ../build/x86_Debug/TEST_op_From_To.o
 .debug_abbrev  0x6b32aac7      0x291 ../build/x86_Debug/TEST_op_GreatestCommonDivisor.o
 .debug_abbrev  0x6b32ad58      0x291 ../build/x86_Debug/TEST_op_Multiply.o
 .debug_abbrev  0x6b32afe9      0x26f ../build/x86_Debug/TEST_op_Negate.o
 .debug_abbrev  0x6b32b258      0x242 ../build/x86_Debug/TEST_op_Remainder.o
 .debug_abbrev  0x6b32b49a      0x291 ../build/x86_Debug/TEST_op_Subtruct.o

.zdebug_abbrev
 *(.zdebug_abbrev)

.debug_line     0x6b32c000    0x18000
 *(.debug_line)
 .debug_line    0x6b32c000      0x3a4 ../build/x86_Debug/debug.o
 .debug_line    0x6b32c3a4      0x29b ../build/x86_Debug/dllmain.o
 .debug_line    0x6b32c63f      0xdad ../build/x86_Debug/pmc_add_sub.o
 .debug_line    0x6b32d3ec      0x2de ../build/x86_Debug/pmc_bytes.o
 .debug_line    0x6b32d6ca      0x2b5 ../build/x86_Debug/pmc_clone.o
 .debug_line    0x6b32d97f      0x6ff ../build/x86_Debug/pmc_compare.o
 .debug_line    0x6b32e07e      0xaad ../build/x86_Debug/pmc_divrem.o
 .debug_line    0x6b32eb2b      0x581 ../build/x86_Debug/pmc_equals.o
 .debug_line    0x6b32f0ac      0x30f ../build/x86_Debug/pmc_from.o
 .debug_line    0x6b32f3bb      0x47d ../build/x86_Debug/pmc_greatestcommondivisor.o
 .debug_line    0x6b32f838      0x4b8 ../build/x86_Debug/pmc_initialize.o
 .debug_line    0x6b32fcf0      0x5a6 ../build/x86_Debug/pmc_memory.o
 .debug_line    0x6b330296      0x656 ../build/x86_Debug/pmc_multiply.o
 .debug_line    0x6b3308ec      0x2a4 ../build/x86_Debug/pmc_negate.o
 .debug_line    0x6b330b90      0x282 ../build/x86_Debug/pmc_statistics.o
 .debug_line    0x6b330e12      0x30f ../build/x86_Debug/pmc_to.o
 .debug_line    0x6b331121     0xf492 ../build/x86_Debug/TEST_autogenerated.o
 .debug_line    0x6b3405b3      0x60c ../build/x86_Debug/TEST_op_Add.o
 .debug_line    0x6b340bbf      0x322 ../build/x86_Debug/TEST_op_Clone.o
 .debug_line    0x6b340ee1      0x4c9 ../build/x86_Debug/TEST_op_Compare.o
 .debug_line    0x6b3413aa      0x706 ../build/x86_Debug/TEST_op_DivRem.o
 .debug_line    0x6b341ab0      0x4c8 ../build/x86_Debug/TEST_op_Equals.o
 .debug_line    0x6b341f78      0x3e1 ../build/x86_Debug/TEST_op_From_To.o
 .debug_line    0x6b342359      0x63a ../build/x86_Debug/TEST_op_GreatestCommonDivisor.o
 .debug_line    0x6b342993      0x611 ../build/x86_Debug/TEST_op_Multiply.o
 .debug_line    0x6b342fa4      0x323 ../build/x86_Debug/TEST_op_Negate.o
 .debug_line    0x6b3432c7      0x5bb ../build/x86_Debug/TEST_op_Remainder.o
 .debug_line    0x6b343882      0x611 ../build/x86_Debug/TEST_op_Subtruct.o

.zdebug_line
 *(.zdebug_line)

.debug_frame
 *(.debug_frame*)

.zdebug_frame
 *(.zdebug_frame*)

.debug_str      0x6b344000     0x2800
 *(.debug_str)
 .debug_str     0x6b344000      0x234 ../build/x86_Debug/debug.o
 .debug_str     0x6b344234       0x19 ../build/x86_Debug/dllmain.o
 .debug_str     0x6b34424d       0x69 ../build/x86_Debug/pmc_add_sub.o
 .debug_str     0x6b3442b6       0x3d ../build/x86_Debug/pmc_bytes.o
 .debug_str     0x6b3442f3       0x3d ../build/x86_Debug/pmc_clone.o
 .debug_str     0x6b344330       0x4b ../build/x86_Debug/pmc_compare.o
 .debug_str     0x6b34437b       0x5e ../build/x86_Debug/pmc_divrem.o
 .debug_str     0x6b3443d9       0x44 ../build/x86_Debug/pmc_equals.o
 .debug_str     0x6b34441d       0x44 ../build/x86_Debug/pmc_from.o
 .debug_str     0x6b344461       0x44 ../build/x86_Debug/pmc_greatestcommondivisor.o
 .debug_str     0x6b3444a5      0x22a ../build/x86_Debug/pmc_initialize.o
 .debug_str     0x6b3446cf       0x44 ../build/x86_Debug/pmc_memory.o
 .debug_str     0x6b344713       0x4b ../build/x86_Debug/pmc_multiply.o
 .debug_str     0x6b34475e       0x3d ../build/x86_Debug/pmc_negate.o
 .debug_str     0x6b34479b       0x29 ../build/x86_Debug/pmc_statistics.o
 .debug_str     0x6b3447c4       0x3d ../build/x86_Debug/pmc_to.o
 .debug_str     0x6b344801      0x22a ../build/x86_Debug/TEST_autogenerated.o
 .debug_str     0x6b344a2b      0x2cd ../build/x86_Debug/TEST_op_Add.o
 .debug_str     0x6b344cf8      0x22a ../build/x86_Debug/TEST_op_Clone.o
 .debug_str     0x6b344f22      0x278 ../build/x86_Debug/TEST_op_Compare.o
 .debug_str     0x6b34519a      0x2fc ../build/x86_Debug/TEST_op_DivRem.o
 .debug_str     0x6b345496      0x278 ../build/x86_Debug/TEST_op_Equals.o
 .debug_str     0x6b34570e      0x266 ../build/x86_Debug/TEST_op_From_To.o
 .debug_str     0x6b345974      0x2dc ../build/x86_Debug/TEST_op_GreatestCommonDivisor.o
 .debug_str     0x6b345c50      0x2cd ../build/x86_Debug/TEST_op_Multiply.o
 .debug_str     0x6b345f1d      0x22a ../build/x86_Debug/TEST_op_Negate.o
 .debug_str     0x6b346147      0x2b1 ../build/x86_Debug/TEST_op_Remainder.o
 .debug_str     0x6b3463f8      0x2cd ../build/x86_Debug/TEST_op_Subtruct.o

.zdebug_str
 *(.zdebug_str)

.debug_loc
 *(.debug_loc)

.zdebug_loc
 *(.zdebug_loc)

.debug_macinfo
 *(.debug_macinfo)

.zdebug_macinfo
 *(.zdebug_macinfo)

.debug_weaknames
 *(.debug_weaknames)

.zdebug_weaknames
 *(.zdebug_weaknames)

.debug_funcnames
 *(.debug_funcnames)

.zdebug_funcnames
 *(.zdebug_funcnames)

.debug_typenames
 *(.debug_typenames)

.zdebug_typenames
 *(.zdebug_typenames)

.debug_varnames
 *(.debug_varnames)

.zdebug_varnames
 *(.zdebug_varnames)

.debug_macro
 *(.debug_macro)

.zdebug_macro
 *(.zdebug_macro)

.debug_ranges
 *(.debug_ranges)

.zdebug_ranges
 *(.zdebug_ranges)

.debug_types
 *(.debug_types .gnu.linkonce.wt.*)

.zdebug_types
 *(.zdebug_types .gnu.linkonce.wt.*)

.debug_gdb_scripts
 *(.debug_gdb_scripts)

.zdebug_gdb_scripts
 *(.zdebug_gdb_scripts)
OUTPUT(../../dist/x86_Debug/Palmtree.Math.Core.Sint.dll pei-i386)
LOAD dll stuff
