	.file	"pmc_add_sub.c"
	.text
.Ltext0:
	.cfi_sections	.debug_frame
	.def	GET_ABS_32;	.scl	3;	.type	32;	.endef
	.seh_proc	GET_ABS_32
GET_ABS_32:
.LFB4362:
	.file 1 "Z:/Sources/Lunor/Repos/rougemeilland/Palmtree.Math.Core.Uint/Palmtree.Math.Core.Uint/pmc_inline_func.h"
	.loc 1 780 5
	.cfi_startproc
	pushq	%rbp
	.seh_pushreg	%rbp
	.cfi_def_cfa_offset 16
	.cfi_offset 6, -16
	movq	%rsp, %rbp
	.seh_setframe	%rbp, 0
	.cfi_def_cfa_register 6
	.seh_endprologue
	movl	%ecx, 16(%rbp)
	movq	%rdx, 24(%rbp)
	.loc 1 781 12
	cmpl	$0, 16(%rbp)
	jle	.L2
	.loc 1 783 19
	movq	24(%rbp), %rax
	movb	$1, (%rax)
	.loc 1 784 21
	movl	16(%rbp), %eax
	jmp	.L3
.L2:
	.loc 1 786 17
	cmpl	$0, 16(%rbp)
	jne	.L4
	.loc 1 788 19
	movq	24(%rbp), %rax
	movb	$0, (%rax)
	.loc 1 789 20
	movl	$0, %eax
	jmp	.L3
.L4:
	.loc 1 793 19
	movq	24(%rbp), %rax
	movb	$-1, (%rax)
	.loc 1 794 63
	cmpl	$-2147483648, 16(%rbp)
	je	.L5
	.loc 1 794 76 discriminator 1
	movl	16(%rbp), %eax
	negl	%eax
	.loc 1 794 63 discriminator 1
	jmp	.L3
.L5:
	.loc 1 794 63 is_stmt 0 discriminator 2
	movl	$-2147483648, %eax
.L3:
	.loc 1 796 1 is_stmt 1
	popq	%rbp
	.cfi_restore 6
	.cfi_def_cfa 7, 8
	ret
	.cfi_endproc
.LFE4362:
	.seh_endproc
	.def	GET_ABS_64;	.scl	3;	.type	32;	.endef
	.seh_proc	GET_ABS_64
GET_ABS_64:
.LFB4363:
	.loc 1 800 5
	.cfi_startproc
	pushq	%rbp
	.seh_pushreg	%rbp
	.cfi_def_cfa_offset 16
	.cfi_offset 6, -16
	movq	%rsp, %rbp
	.seh_setframe	%rbp, 0
	.cfi_def_cfa_register 6
	.seh_endprologue
	movq	%rcx, 16(%rbp)
	movq	%rdx, 24(%rbp)
	.loc 1 801 12
	cmpq	$0, 16(%rbp)
	jle	.L8
	.loc 1 803 19
	movq	24(%rbp), %rax
	movb	$1, (%rax)
	.loc 1 804 21
	movq	16(%rbp), %rax
	jmp	.L9
.L8:
	.loc 1 806 17
	cmpq	$0, 16(%rbp)
	jne	.L10
	.loc 1 808 19
	movq	24(%rbp), %rax
	movb	$0, (%rax)
	.loc 1 809 20
	movl	$0, %eax
	jmp	.L9
.L10:
	.loc 1 813 19
	movq	24(%rbp), %rax
	movb	$-1, (%rax)
	.loc 1 814 81
	movabsq	$-9223372036854775808, %rax
	cmpq	%rax, 16(%rbp)
	je	.L11
	.loc 1 814 94 discriminator 1
	movq	16(%rbp), %rax
	negq	%rax
	.loc 1 814 81 discriminator 1
	jmp	.L9
.L11:
	.loc 1 814 81 is_stmt 0 discriminator 2
	movabsq	$-9223372036854775808, %rax
.L9:
	.loc 1 816 5 is_stmt 1
	popq	%rbp
	.cfi_restore 6
	.cfi_def_cfa 7, 8
	ret
	.cfi_endproc
.LFE4363:
	.seh_endproc
	.def	IS_ZERO_UINT;	.scl	3;	.type	32;	.endef
	.seh_proc	IS_ZERO_UINT
IS_ZERO_UINT:
.LFB4364:
	.file 2 "../pmc_add_sub.c"
	.loc 2 32 1
	.cfi_startproc
	pushq	%rbp
	.seh_pushreg	%rbp
	.cfi_def_cfa_offset 16
	.cfi_offset 6, -16
	movq	%rsp, %rbp
	.seh_setframe	%rbp, 0
	.cfi_def_cfa_register 6
	subq	$48, %rsp
	.seh_stackalloc	48
	.seh_endprologue
	movq	%rcx, 16(%rbp)
	movq	%rdx, 24(%rbp)
	.loc 2 35 26
	movq	.refptr.ep_uint(%rip), %rax
	movq	40(%rax), %r8
	.loc 2 35 19
	leaq	-8(%rbp), %rax
	movq	%rax, %rdx
	movq	16(%rbp), %rcx
	call	*%r8
.LVL0:
	movl	%eax, -4(%rbp)
	.loc 2 35 8
	cmpl	$0, -4(%rbp)
	je	.L14
	.loc 2 36 16
	movl	-4(%rbp), %eax
	jmp	.L16
.L14:
	.loc 2 37 38
	movl	-8(%rbp), %eax
	andl	$1, %eax
	.loc 2 37 14
	movq	24(%rbp), %rdx
	movb	%al, (%rdx)
	.loc 2 38 12
	movl	$0, %eax
.L16:
	.loc 2 39 1 discriminator 1
	addq	$48, %rsp
	popq	%rbp
	.cfi_restore 6
	.cfi_def_cfa 7, 8
	ret
	.cfi_endproc
.LFE4364:
	.seh_endproc
	.def	AddU_X_I_Imp;	.scl	3;	.type	32;	.endef
	.seh_proc	AddU_X_I_Imp
AddU_X_I_Imp:
.LFB4365:
	.loc 2 42 1
	.cfi_startproc
	pushq	%rbp
	.seh_pushreg	%rbp
	.cfi_def_cfa_offset 16
	.cfi_offset 6, -16
	movq	%rsp, %rbp
	.seh_setframe	%rbp, 0
	.cfi_def_cfa_register 6
	subq	$48, %rsp
	.seh_stackalloc	48
	.seh_endprologue
	movl	%ecx, %eax
	movq	%rdx, 24(%rbp)
	movl	%r8d, 32(%rbp)
	movq	%r9, 40(%rbp)
	movb	%al, 16(%rbp)
	.loc 2 45 26
	movq	.refptr.ep_uint(%rip), %rax
	movq	144(%rax), %rax
	.loc 2 45 19
	leaq	-16(%rbp), %r8
	movl	32(%rbp), %edx
	movq	24(%rbp), %rcx
	call	*%rax
.LVL1:
	movl	%eax, -4(%rbp)
	.loc 2 45 8
	cmpl	$0, -4(%rbp)
	je	.L18
	.loc 2 46 16
	movl	-4(%rbp), %eax
	jmp	.L21
.L18:
	.loc 2 47 19
	movq	-16(%rbp), %rdx
	movsbl	16(%rbp), %eax
	movq	40(%rbp), %rcx
	movq	%rdx, %r8
	movl	%eax, %edx
	call	AllocateNumber
	movl	%eax, -4(%rbp)
	.loc 2 47 8
	cmpl	$0, -4(%rbp)
	je	.L20
	.loc 2 49 16
	movq	.refptr.ep_uint(%rip), %rax
	movq	32(%rax), %rax
	.loc 2 49 9
	movq	-16(%rbp), %rdx
	movq	%rdx, %rcx
	call	*%rax
.LVL2:
	.loc 2 50 16
	movl	-4(%rbp), %eax
	jmp	.L21
.L20:
	.loc 2 52 12
	movl	$0, %eax
.L21:
	.loc 2 53 1 discriminator 1
	addq	$48, %rsp
	popq	%rbp
	.cfi_restore 6
	.cfi_def_cfa 7, 8
	ret
	.cfi_endproc
.LFE4365:
	.seh_endproc
	.def	AddU_X_L_Imp;	.scl	3;	.type	32;	.endef
	.seh_proc	AddU_X_L_Imp
AddU_X_L_Imp:
.LFB4366:
	.loc 2 56 1
	.cfi_startproc
	pushq	%rbp
	.seh_pushreg	%rbp
	.cfi_def_cfa_offset 16
	.cfi_offset 6, -16
	movq	%rsp, %rbp
	.seh_setframe	%rbp, 0
	.cfi_def_cfa_register 6
	subq	$48, %rsp
	.seh_stackalloc	48
	.seh_endprologue
	movl	%ecx, %eax
	movq	%rdx, 24(%rbp)
	movq	%r8, 32(%rbp)
	movq	%r9, 40(%rbp)
	movb	%al, 16(%rbp)
	.loc 2 59 26
	movq	.refptr.ep_uint(%rip), %rax
	movq	152(%rax), %rax
	.loc 2 59 19
	leaq	-16(%rbp), %r8
	movq	32(%rbp), %rdx
	movq	24(%rbp), %rcx
	call	*%rax
.LVL3:
	movl	%eax, -4(%rbp)
	.loc 2 59 8
	cmpl	$0, -4(%rbp)
	je	.L23
	.loc 2 60 16
	movl	-4(%rbp), %eax
	jmp	.L26
.L23:
	.loc 2 61 19
	movq	-16(%rbp), %rdx
	movsbl	16(%rbp), %eax
	movq	40(%rbp), %rcx
	movq	%rdx, %r8
	movl	%eax, %edx
	call	AllocateNumber
	movl	%eax, -4(%rbp)
	.loc 2 61 8
	cmpl	$0, -4(%rbp)
	je	.L25
	.loc 2 63 16
	movq	.refptr.ep_uint(%rip), %rax
	movq	32(%rax), %rax
	.loc 2 63 9
	movq	-16(%rbp), %rdx
	movq	%rdx, %rcx
	call	*%rax
.LVL4:
	.loc 2 64 16
	movl	-4(%rbp), %eax
	jmp	.L26
.L25:
	.loc 2 66 12
	movl	$0, %eax
.L26:
	.loc 2 67 1 discriminator 1
	addq	$48, %rsp
	popq	%rbp
	.cfi_restore 6
	.cfi_def_cfa 7, 8
	ret
	.cfi_endproc
.LFE4366:
	.seh_endproc
	.def	AddU_X_X_Imp;	.scl	3;	.type	32;	.endef
	.seh_proc	AddU_X_X_Imp
AddU_X_X_Imp:
.LFB4367:
	.loc 2 70 1
	.cfi_startproc
	pushq	%rbp
	.seh_pushreg	%rbp
	.cfi_def_cfa_offset 16
	.cfi_offset 6, -16
	movq	%rsp, %rbp
	.seh_setframe	%rbp, 0
	.cfi_def_cfa_register 6
	subq	$48, %rsp
	.seh_stackalloc	48
	.seh_endprologue
	movl	%ecx, %eax
	movq	%rdx, 24(%rbp)
	movq	%r8, 32(%rbp)
	movq	%r9, 40(%rbp)
	movb	%al, 16(%rbp)
	.loc 2 73 26
	movq	.refptr.ep_uint(%rip), %rax
	movq	160(%rax), %rax
	.loc 2 73 19
	leaq	-16(%rbp), %r8
	movq	32(%rbp), %rdx
	movq	24(%rbp), %rcx
	call	*%rax
.LVL5:
	movl	%eax, -4(%rbp)
	.loc 2 73 8
	cmpl	$0, -4(%rbp)
	je	.L28
	.loc 2 74 16
	movl	-4(%rbp), %eax
	jmp	.L31
.L28:
	.loc 2 75 19
	movq	-16(%rbp), %rdx
	movsbl	16(%rbp), %eax
	movq	40(%rbp), %rcx
	movq	%rdx, %r8
	movl	%eax, %edx
	call	AllocateNumber
	movl	%eax, -4(%rbp)
	.loc 2 75 8
	cmpl	$0, -4(%rbp)
	je	.L30
	.loc 2 77 16
	movq	.refptr.ep_uint(%rip), %rax
	movq	32(%rax), %rax
	.loc 2 77 9
	movq	-16(%rbp), %rdx
	movq	%rdx, %rcx
	call	*%rax
.LVL6:
	.loc 2 78 16
	movl	-4(%rbp), %eax
	jmp	.L31
.L30:
	.loc 2 80 12
	movl	$0, %eax
.L31:
	.loc 2 81 1 discriminator 1
	addq	$48, %rsp
	popq	%rbp
	.cfi_restore 6
	.cfi_def_cfa 7, 8
	ret
	.cfi_endproc
.LFE4367:
	.seh_endproc
	.def	SubtructU_X_I_Imp;	.scl	3;	.type	32;	.endef
	.seh_proc	SubtructU_X_I_Imp
SubtructU_X_I_Imp:
.LFB4368:
	.loc 2 84 1
	.cfi_startproc
	pushq	%rbp
	.seh_pushreg	%rbp
	.cfi_def_cfa_offset 16
	.cfi_offset 6, -16
	movq	%rsp, %rbp
	.seh_setframe	%rbp, 0
	.cfi_def_cfa_register 6
	subq	$64, %rsp
	.seh_stackalloc	64
	.seh_endprologue
	movl	%ecx, %eax
	movq	%rdx, 24(%rbp)
	movl	%r8d, 32(%rbp)
	movq	%r9, 40(%rbp)
	movb	%al, 16(%rbp)
	.loc 2 87 26
	movq	.refptr.ep_uint(%rip), %rax
	movq	440(%rax), %rax
	.loc 2 87 19
	leaq	-8(%rbp), %r8
	movl	32(%rbp), %edx
	movq	24(%rbp), %rcx
	call	*%rax
.LVL7:
	movl	%eax, -4(%rbp)
	.loc 2 87 8
	cmpl	$0, -4(%rbp)
	je	.L33
	.loc 2 88 16
	movl	-4(%rbp), %eax
	jmp	.L45
.L33:
	.loc 2 89 11
	movl	-8(%rbp), %eax
	.loc 2 89 8
	testl	%eax, %eax
	jle	.L35
.LBB2:
	.loc 2 95 30
	movq	.refptr.ep_uint(%rip), %rax
	movq	184(%rax), %rax
	.loc 2 95 23
	leaq	-16(%rbp), %r8
	movl	32(%rbp), %edx
	movq	24(%rbp), %rcx
	call	*%rax
.LVL8:
	movl	%eax, -4(%rbp)
	.loc 2 95 12
	cmpl	$0, -4(%rbp)
	je	.L36
	.loc 2 96 20
	movl	-4(%rbp), %eax
	jmp	.L45
.L36:
	.loc 2 97 23
	movq	-16(%rbp), %rdx
	movsbl	16(%rbp), %eax
	movq	40(%rbp), %rcx
	movq	%rdx, %r8
	movl	%eax, %edx
	call	AllocateNumber
	movl	%eax, -4(%rbp)
	.loc 2 97 12
	cmpl	$0, -4(%rbp)
	je	.L39
	.loc 2 99 20
	movq	.refptr.ep_uint(%rip), %rax
	movq	32(%rax), %rax
	.loc 2 99 13
	movq	-16(%rbp), %rdx
	movq	%rdx, %rcx
	call	*%rax
.LVL9:
	.loc 2 100 20
	movl	-4(%rbp), %eax
	jmp	.L45
.L35:
.LBE2:
	.loc 2 103 16
	movl	-8(%rbp), %eax
	.loc 2 103 13
	testl	%eax, %eax
	jne	.L40
	.loc 2 108 12
	movq	40(%rbp), %rax
	movq	.refptr.number_zero(%rip), %rdx
	movq	%rdx, (%rax)
	jmp	.L39
.L40:
.LBB3:
	.loc 2 116 30
	movq	.refptr.ep_uint(%rip), %rax
	movq	168(%rax), %rax
	.loc 2 116 23
	leaq	-20(%rbp), %r8
	movq	24(%rbp), %rdx
	movl	32(%rbp), %ecx
	call	*%rax
.LVL10:
	movl	%eax, -4(%rbp)
	.loc 2 116 12
	cmpl	$0, -4(%rbp)
	je	.L41
	.loc 2 117 20
	movl	-4(%rbp), %eax
	jmp	.L45
.L41:
	.loc 2 119 30
	movq	.refptr.ep_uint(%rip), %rax
	movq	16(%rax), %r8
	.loc 2 119 23
	movl	-20(%rbp), %ecx
	leaq	-32(%rbp), %rax
	movq	%rax, %rdx
	call	*%r8
.LVL11:
	movl	%eax, -4(%rbp)
	.loc 2 119 12
	cmpl	$0, -4(%rbp)
	je	.L43
	.loc 2 120 20
	movl	-4(%rbp), %eax
	jmp	.L45
.L43:
	.loc 2 121 23
	movq	-32(%rbp), %rdx
	movzbl	16(%rbp), %eax
	negl	%eax
	movsbl	%al, %eax
	movq	40(%rbp), %rcx
	movq	%rdx, %r8
	movl	%eax, %edx
	call	AllocateNumber
	movl	%eax, -4(%rbp)
	.loc 2 121 12
	cmpl	$0, -4(%rbp)
	je	.L39
	.loc 2 123 20
	movq	.refptr.ep_uint(%rip), %rax
	movq	32(%rax), %rax
	.loc 2 123 13
	movq	-32(%rbp), %rdx
	movq	%rdx, %rcx
	call	*%rax
.LVL12:
	.loc 2 124 20
	movl	-4(%rbp), %eax
	jmp	.L45
.L39:
.LBE3:
	.loc 2 127 12
	movl	$0, %eax
.L45:
	.loc 2 128 1 discriminator 2
	addq	$64, %rsp
	popq	%rbp
	.cfi_restore 6
	.cfi_def_cfa 7, 8
	ret
	.cfi_endproc
.LFE4368:
	.seh_endproc
	.def	SubtructU_X_L_Imp;	.scl	3;	.type	32;	.endef
	.seh_proc	SubtructU_X_L_Imp
SubtructU_X_L_Imp:
.LFB4369:
	.loc 2 131 1
	.cfi_startproc
	pushq	%rbp
	.seh_pushreg	%rbp
	.cfi_def_cfa_offset 16
	.cfi_offset 6, -16
	movq	%rsp, %rbp
	.seh_setframe	%rbp, 0
	.cfi_def_cfa_register 6
	subq	$64, %rsp
	.seh_stackalloc	64
	.seh_endprologue
	movl	%ecx, %eax
	movq	%rdx, 24(%rbp)
	movq	%r8, 32(%rbp)
	movq	%r9, 40(%rbp)
	movb	%al, 16(%rbp)
	.loc 2 134 26
	movq	.refptr.ep_uint(%rip), %rax
	movq	448(%rax), %rax
	.loc 2 134 19
	leaq	-8(%rbp), %r8
	movq	32(%rbp), %rdx
	movq	24(%rbp), %rcx
	call	*%rax
.LVL13:
	movl	%eax, -4(%rbp)
	.loc 2 134 8
	cmpl	$0, -4(%rbp)
	je	.L47
	.loc 2 135 16
	movl	-4(%rbp), %eax
	jmp	.L59
.L47:
	.loc 2 136 11
	movl	-8(%rbp), %eax
	.loc 2 136 8
	testl	%eax, %eax
	jle	.L49
.LBB4:
	.loc 2 142 30
	movq	.refptr.ep_uint(%rip), %rax
	movq	192(%rax), %rax
	.loc 2 142 23
	leaq	-16(%rbp), %r8
	movq	32(%rbp), %rdx
	movq	24(%rbp), %rcx
	call	*%rax
.LVL14:
	movl	%eax, -4(%rbp)
	.loc 2 142 12
	cmpl	$0, -4(%rbp)
	je	.L50
	.loc 2 143 20
	movl	-4(%rbp), %eax
	jmp	.L59
.L50:
	.loc 2 144 23
	movq	-16(%rbp), %rdx
	movsbl	16(%rbp), %eax
	movq	40(%rbp), %rcx
	movq	%rdx, %r8
	movl	%eax, %edx
	call	AllocateNumber
	movl	%eax, -4(%rbp)
	.loc 2 144 12
	cmpl	$0, -4(%rbp)
	je	.L53
	.loc 2 146 20
	movq	.refptr.ep_uint(%rip), %rax
	movq	32(%rax), %rax
	.loc 2 146 13
	movq	-16(%rbp), %rdx
	movq	%rdx, %rcx
	call	*%rax
.LVL15:
	.loc 2 147 20
	movl	-4(%rbp), %eax
	jmp	.L59
.L49:
.LBE4:
	.loc 2 150 16
	movl	-8(%rbp), %eax
	.loc 2 150 13
	testl	%eax, %eax
	jne	.L54
	.loc 2 155 12
	movq	40(%rbp), %rax
	movq	.refptr.number_zero(%rip), %rdx
	movq	%rdx, (%rax)
	jmp	.L53
.L54:
.LBB5:
	.loc 2 163 30
	movq	.refptr.ep_uint(%rip), %rax
	movq	176(%rax), %rax
	.loc 2 163 23
	leaq	-24(%rbp), %r8
	movq	24(%rbp), %rdx
	movq	32(%rbp), %rcx
	call	*%rax
.LVL16:
	movl	%eax, -4(%rbp)
	.loc 2 163 12
	cmpl	$0, -4(%rbp)
	je	.L55
	.loc 2 164 20
	movl	-4(%rbp), %eax
	jmp	.L59
.L55:
	.loc 2 166 30
	movq	.refptr.ep_uint(%rip), %rax
	movq	24(%rax), %r8
	.loc 2 166 23
	movq	-24(%rbp), %rcx
	leaq	-32(%rbp), %rax
	movq	%rax, %rdx
	call	*%r8
.LVL17:
	movl	%eax, -4(%rbp)
	.loc 2 166 12
	cmpl	$0, -4(%rbp)
	je	.L57
	.loc 2 167 20
	movl	-4(%rbp), %eax
	jmp	.L59
.L57:
	.loc 2 168 23
	movq	-32(%rbp), %rdx
	movzbl	16(%rbp), %eax
	negl	%eax
	movsbl	%al, %eax
	movq	40(%rbp), %rcx
	movq	%rdx, %r8
	movl	%eax, %edx
	call	AllocateNumber
	movl	%eax, -4(%rbp)
	.loc 2 168 12
	cmpl	$0, -4(%rbp)
	je	.L53
	.loc 2 170 20
	movq	.refptr.ep_uint(%rip), %rax
	movq	32(%rax), %rax
	.loc 2 170 13
	movq	-32(%rbp), %rdx
	movq	%rdx, %rcx
	call	*%rax
.LVL18:
	.loc 2 171 20
	movl	-4(%rbp), %eax
	jmp	.L59
.L53:
.LBE5:
	.loc 2 174 12
	movl	$0, %eax
.L59:
	.loc 2 175 1 discriminator 2
	addq	$64, %rsp
	popq	%rbp
	.cfi_restore 6
	.cfi_def_cfa 7, 8
	ret
	.cfi_endproc
.LFE4369:
	.seh_endproc
	.def	SubtructU_X_X_Imp;	.scl	3;	.type	32;	.endef
	.seh_proc	SubtructU_X_X_Imp
SubtructU_X_X_Imp:
.LFB4370:
	.loc 2 178 1
	.cfi_startproc
	pushq	%rbp
	.seh_pushreg	%rbp
	.cfi_def_cfa_offset 16
	.cfi_offset 6, -16
	movq	%rsp, %rbp
	.seh_setframe	%rbp, 0
	.cfi_def_cfa_register 6
	subq	$64, %rsp
	.seh_stackalloc	64
	.seh_endprologue
	movl	%ecx, %eax
	movq	%rdx, 24(%rbp)
	movq	%r8, 32(%rbp)
	movq	%r9, 40(%rbp)
	movb	%al, 16(%rbp)
	.loc 2 181 26
	movq	.refptr.ep_uint(%rip), %rax
	movq	456(%rax), %rax
	.loc 2 181 19
	leaq	-8(%rbp), %r8
	movq	32(%rbp), %rdx
	movq	24(%rbp), %rcx
	call	*%rax
.LVL19:
	movl	%eax, -4(%rbp)
	.loc 2 181 8
	cmpl	$0, -4(%rbp)
	je	.L61
	.loc 2 182 16
	movl	-4(%rbp), %eax
	jmp	.L72
.L61:
	.loc 2 183 11
	movl	-8(%rbp), %eax
	.loc 2 183 8
	testl	%eax, %eax
	jle	.L63
.LBB6:
	.loc 2 189 30
	movq	.refptr.ep_uint(%rip), %rax
	movq	200(%rax), %rax
	.loc 2 189 23
	leaq	-16(%rbp), %r8
	movq	32(%rbp), %rdx
	movq	24(%rbp), %rcx
	call	*%rax
.LVL20:
	movl	%eax, -4(%rbp)
	.loc 2 189 12
	cmpl	$0, -4(%rbp)
	je	.L64
	.loc 2 190 20
	movl	-4(%rbp), %eax
	jmp	.L72
.L64:
	.loc 2 191 23
	movq	-16(%rbp), %rdx
	movsbl	16(%rbp), %eax
	movq	40(%rbp), %rcx
	movq	%rdx, %r8
	movl	%eax, %edx
	call	AllocateNumber
	movl	%eax, -4(%rbp)
	.loc 2 191 12
	cmpl	$0, -4(%rbp)
	je	.L67
	.loc 2 193 20
	movq	.refptr.ep_uint(%rip), %rax
	movq	32(%rax), %rax
	.loc 2 193 13
	movq	-16(%rbp), %rdx
	movq	%rdx, %rcx
	call	*%rax
.LVL21:
	.loc 2 194 20
	movl	-4(%rbp), %eax
	jmp	.L72
.L63:
.LBE6:
	.loc 2 197 16
	movl	-8(%rbp), %eax
	.loc 2 197 13
	testl	%eax, %eax
	jne	.L68
	.loc 2 202 12
	movq	40(%rbp), %rax
	movq	.refptr.number_zero(%rip), %rdx
	movq	%rdx, (%rax)
	jmp	.L67
.L68:
.LBB7:
	.loc 2 210 30
	movq	.refptr.ep_uint(%rip), %rax
	movq	200(%rax), %rax
	.loc 2 210 23
	leaq	-24(%rbp), %r8
	movq	24(%rbp), %rdx
	movq	32(%rbp), %rcx
	call	*%rax
.LVL22:
	movl	%eax, -4(%rbp)
	.loc 2 210 12
	cmpl	$0, -4(%rbp)
	je	.L69
	.loc 2 211 20
	movl	-4(%rbp), %eax
	jmp	.L72
.L69:
	.loc 2 212 23
	movq	-24(%rbp), %rdx
	movzbl	16(%rbp), %eax
	negl	%eax
	movsbl	%al, %eax
	movq	40(%rbp), %rcx
	movq	%rdx, %r8
	movl	%eax, %edx
	call	AllocateNumber
	movl	%eax, -4(%rbp)
	.loc 2 212 12
	cmpl	$0, -4(%rbp)
	je	.L67
	.loc 2 214 20
	movq	.refptr.ep_uint(%rip), %rax
	movq	32(%rax), %rax
	.loc 2 214 13
	movq	-24(%rbp), %rdx
	movq	%rdx, %rcx
	call	*%rax
.LVL23:
	.loc 2 215 20
	movl	-4(%rbp), %eax
	jmp	.L72
.L67:
.LBE7:
	.loc 2 218 12
	movl	$0, %eax
.L72:
	.loc 2 219 1 discriminator 2
	addq	$64, %rsp
	popq	%rbp
	.cfi_restore 6
	.cfi_def_cfa 7, 8
	ret
	.cfi_endproc
.LFE4370:
	.seh_endproc
	.globl	PMC_Add_I_X
	.def	PMC_Add_I_X;	.scl	2;	.type	32;	.endef
	.seh_proc	PMC_Add_I_X
PMC_Add_I_X:
.LFB4371:
	.loc 2 222 1
	.cfi_startproc
	pushq	%rbp
	.seh_pushreg	%rbp
	.cfi_def_cfa_offset 16
	.cfi_offset 6, -16
	movq	%rsp, %rbp
	.seh_setframe	%rbp, 0
	.cfi_def_cfa_register 6
	subq	$64, %rsp
	.seh_stackalloc	64
	.seh_endprologue
	movl	%ecx, 16(%rbp)
	movq	%rdx, 24(%rbp)
	movq	%r8, 32(%rbp)
	.loc 2 223 8
	cmpq	$0, 24(%rbp)
	jne	.L74
	.loc 2 224 16
	movl	$-1, %eax
	jmp	.L86
.L74:
	.loc 2 225 8
	cmpq	$0, 32(%rbp)
	jne	.L76
	.loc 2 226 16
	movl	$-1, %eax
	jmp	.L86
.L76:
	.loc 2 228 20
	movq	24(%rbp), %rax
	movq	%rax, -8(%rbp)
	.loc 2 230 19
	movq	-8(%rbp), %rax
	movq	%rax, %rcx
	call	CheckNumber
	movl	%eax, -12(%rbp)
	.loc 2 230 8
	cmpl	$0, -12(%rbp)
	je	.L77
	.loc 2 231 16
	movl	-12(%rbp), %eax
	jmp	.L86
.L77:
	.loc 2 233 23
	leaq	-25(%rbp), %rax
	movq	%rax, %rdx
	movl	16(%rbp), %ecx
	call	GET_ABS_32
	movl	%eax, -16(%rbp)
	.loc 2 234 16
	movzbl	-25(%rbp), %eax
	.loc 2 234 8
	testb	%al, %al
	jne	.L78
	.loc 2 238 15
	movq	-8(%rbp), %rax
	movzbl	16(%rax), %eax
	.loc 2 238 12
	testb	%al, %al
	jne	.L79
	.loc 2 242 16
	movq	.refptr.number_zero(%rip), %rax
	movq	%rax, -24(%rbp)
	jmp	.L80
.L79:
	.loc 2 249 27
	leaq	-24(%rbp), %rax
	movq	-8(%rbp), %rcx
	movq	%rax, %rdx
	call	DuplicateNumber
	movl	%eax, -12(%rbp)
	.loc 2 249 16
	cmpl	$0, -12(%rbp)
	je	.L80
	.loc 2 250 24
	movl	-12(%rbp), %eax
	jmp	.L86
.L78:
	.loc 2 253 21
	movzbl	-25(%rbp), %eax
	.loc 2 253 13
	testb	%al, %al
	jle	.L81
	.loc 2 257 15
	movq	-8(%rbp), %rax
	movzbl	16(%rax), %eax
	.loc 2 257 12
	testb	%al, %al
	jne	.L82
	.loc 2 262 27
	movzbl	-25(%rbp), %eax
	movsbl	%al, %eax
	leaq	-24(%rbp), %rcx
	movl	-16(%rbp), %edx
	movq	%rcx, %r8
	movl	%eax, %ecx
	call	From_I_Imp
	movl	%eax, -12(%rbp)
	.loc 2 262 16
	cmpl	$0, -12(%rbp)
	je	.L80
	.loc 2 263 24
	movl	-12(%rbp), %eax
	jmp	.L86
.L82:
	.loc 2 265 20
	movq	-8(%rbp), %rax
	movzbl	16(%rax), %eax
	.loc 2 265 17
	testb	%al, %al
	jle	.L83
	.loc 2 270 27
	movq	-8(%rbp), %rax
	movq	8(%rax), %rax
	leaq	-24(%rbp), %rdx
	movl	-16(%rbp), %ecx
	movq	%rdx, %r9
	movl	%ecx, %r8d
	movq	%rax, %rdx
	movl	$1, %ecx
	call	AddU_X_I_Imp
	movl	%eax, -12(%rbp)
	.loc 2 270 16
	cmpl	$0, -12(%rbp)
	je	.L80
	.loc 2 271 24
	movl	-12(%rbp), %eax
	jmp	.L86
.L83:
	.loc 2 278 27
	movq	-8(%rbp), %rax
	movq	8(%rax), %rax
	leaq	-24(%rbp), %rdx
	movl	-16(%rbp), %ecx
	movq	%rdx, %r9
	movl	%ecx, %r8d
	movq	%rax, %rdx
	movl	$-1, %ecx
	call	SubtructU_X_I_Imp
	movl	%eax, -12(%rbp)
	.loc 2 278 16
	cmpl	$0, -12(%rbp)
	je	.L80
	.loc 2 279 24
	movl	-12(%rbp), %eax
	jmp	.L86
.L81:
	.loc 2 286 15
	movq	-8(%rbp), %rax
	movzbl	16(%rax), %eax
	.loc 2 286 12
	testb	%al, %al
	jne	.L84
	.loc 2 291 27
	movzbl	-25(%rbp), %eax
	movsbl	%al, %eax
	leaq	-24(%rbp), %rcx
	movl	-16(%rbp), %edx
	movq	%rcx, %r8
	movl	%eax, %ecx
	call	From_I_Imp
	movl	%eax, -12(%rbp)
	.loc 2 291 16
	cmpl	$0, -12(%rbp)
	je	.L80
	.loc 2 292 24
	movl	-12(%rbp), %eax
	jmp	.L86
.L84:
	.loc 2 294 20
	movq	-8(%rbp), %rax
	movzbl	16(%rax), %eax
	.loc 2 294 17
	testb	%al, %al
	jle	.L85
	.loc 2 299 27
	movq	-8(%rbp), %rax
	movq	8(%rax), %rax
	leaq	-24(%rbp), %rdx
	movl	-16(%rbp), %ecx
	movq	%rdx, %r9
	movl	%ecx, %r8d
	movq	%rax, %rdx
	movl	$1, %ecx
	call	SubtructU_X_I_Imp
	movl	%eax, -12(%rbp)
	.loc 2 299 16
	cmpl	$0, -12(%rbp)
	je	.L80
	.loc 2 300 24
	movl	-12(%rbp), %eax
	jmp	.L86
.L85:
	.loc 2 307 27
	movq	-8(%rbp), %rax
	movq	8(%rax), %rax
	leaq	-24(%rbp), %rdx
	movl	-16(%rbp), %ecx
	movq	%rdx, %r9
	movl	%ecx, %r8d
	movq	%rax, %rdx
	movl	$-1, %ecx
	call	AddU_X_I_Imp
	movl	%eax, -12(%rbp)
	.loc 2 307 16
	cmpl	$0, -12(%rbp)
	je	.L80
	.loc 2 308 24
	movl	-12(%rbp), %eax
	jmp	.L86
.L80:
	.loc 2 311 8
	movq	-24(%rbp), %rdx
	movq	32(%rbp), %rax
	movq	%rdx, (%rax)
	.loc 2 312 12
	movl	$0, %eax
.L86:
	.loc 2 313 1 discriminator 3
	addq	$64, %rsp
	popq	%rbp
	.cfi_restore 6
	.cfi_def_cfa 7, 8
	ret
	.cfi_endproc
.LFE4371:
	.seh_endproc
	.globl	PMC_Add_L_X
	.def	PMC_Add_L_X;	.scl	2;	.type	32;	.endef
	.seh_proc	PMC_Add_L_X
PMC_Add_L_X:
.LFB4372:
	.loc 2 316 1
	.cfi_startproc
	pushq	%rbp
	.seh_pushreg	%rbp
	.cfi_def_cfa_offset 16
	.cfi_offset 6, -16
	movq	%rsp, %rbp
	.seh_setframe	%rbp, 0
	.cfi_def_cfa_register 6
	subq	$80, %rsp
	.seh_stackalloc	80
	.seh_endprologue
	movq	%rcx, 16(%rbp)
	movq	%rdx, 24(%rbp)
	movq	%r8, 32(%rbp)
	.loc 2 317 8
	cmpq	$0, 24(%rbp)
	jne	.L88
	.loc 2 318 16
	movl	$-1, %eax
	jmp	.L100
.L88:
	.loc 2 319 8
	cmpq	$0, 32(%rbp)
	jne	.L90
	.loc 2 320 16
	movl	$-1, %eax
	jmp	.L100
.L90:
	.loc 2 322 20
	movq	24(%rbp), %rax
	movq	%rax, -8(%rbp)
	.loc 2 324 19
	movq	-8(%rbp), %rax
	movq	%rax, %rcx
	call	CheckNumber
	movl	%eax, -12(%rbp)
	.loc 2 324 8
	cmpl	$0, -12(%rbp)
	je	.L91
	.loc 2 325 16
	movl	-12(%rbp), %eax
	jmp	.L100
.L91:
	.loc 2 327 23
	leaq	-33(%rbp), %rax
	movq	%rax, %rdx
	movq	16(%rbp), %rcx
	call	GET_ABS_64
	movq	%rax, -24(%rbp)
	.loc 2 328 16
	movzbl	-33(%rbp), %eax
	.loc 2 328 8
	testb	%al, %al
	jne	.L92
	.loc 2 332 15
	movq	-8(%rbp), %rax
	movzbl	16(%rax), %eax
	.loc 2 332 12
	testb	%al, %al
	jne	.L93
	.loc 2 336 16
	movq	.refptr.number_zero(%rip), %rax
	movq	%rax, -32(%rbp)
	jmp	.L94
.L93:
	.loc 2 343 27
	leaq	-32(%rbp), %rax
	movq	-8(%rbp), %rcx
	movq	%rax, %rdx
	call	DuplicateNumber
	movl	%eax, -12(%rbp)
	.loc 2 343 16
	cmpl	$0, -12(%rbp)
	je	.L94
	.loc 2 344 24
	movl	-12(%rbp), %eax
	jmp	.L100
.L92:
	.loc 2 347 21
	movzbl	-33(%rbp), %eax
	.loc 2 347 13
	testb	%al, %al
	jle	.L95
	.loc 2 351 15
	movq	-8(%rbp), %rax
	movzbl	16(%rax), %eax
	.loc 2 351 12
	testb	%al, %al
	jne	.L96
	.loc 2 356 27
	movzbl	-33(%rbp), %eax
	movsbl	%al, %eax
	leaq	-32(%rbp), %rcx
	movq	-24(%rbp), %rdx
	movq	%rcx, %r8
	movl	%eax, %ecx
	call	From_L_Imp
	movl	%eax, -12(%rbp)
	.loc 2 356 16
	cmpl	$0, -12(%rbp)
	je	.L94
	.loc 2 357 24
	movl	-12(%rbp), %eax
	jmp	.L100
.L96:
	.loc 2 359 20
	movq	-8(%rbp), %rax
	movzbl	16(%rax), %eax
	.loc 2 359 17
	testb	%al, %al
	jle	.L97
	.loc 2 364 27
	movq	-8(%rbp), %rax
	movq	8(%rax), %rax
	leaq	-32(%rbp), %rdx
	movq	-24(%rbp), %rcx
	movq	%rdx, %r9
	movq	%rcx, %r8
	movq	%rax, %rdx
	movl	$1, %ecx
	call	AddU_X_L_Imp
	movl	%eax, -12(%rbp)
	.loc 2 364 16
	cmpl	$0, -12(%rbp)
	je	.L94
	.loc 2 365 24
	movl	-12(%rbp), %eax
	jmp	.L100
.L97:
	.loc 2 372 27
	movq	-8(%rbp), %rax
	movq	8(%rax), %rax
	leaq	-32(%rbp), %rdx
	movq	-24(%rbp), %rcx
	movq	%rdx, %r9
	movq	%rcx, %r8
	movq	%rax, %rdx
	movl	$-1, %ecx
	call	SubtructU_X_L_Imp
	movl	%eax, -12(%rbp)
	.loc 2 372 16
	cmpl	$0, -12(%rbp)
	je	.L94
	.loc 2 373 24
	movl	-12(%rbp), %eax
	jmp	.L100
.L95:
	.loc 2 380 15
	movq	-8(%rbp), %rax
	movzbl	16(%rax), %eax
	.loc 2 380 12
	testb	%al, %al
	jne	.L98
	.loc 2 385 27
	movzbl	-33(%rbp), %eax
	movsbl	%al, %eax
	leaq	-32(%rbp), %rcx
	movq	-24(%rbp), %rdx
	movq	%rcx, %r8
	movl	%eax, %ecx
	call	From_L_Imp
	movl	%eax, -12(%rbp)
	.loc 2 385 16
	cmpl	$0, -12(%rbp)
	je	.L94
	.loc 2 386 24
	movl	-12(%rbp), %eax
	jmp	.L100
.L98:
	.loc 2 388 20
	movq	-8(%rbp), %rax
	movzbl	16(%rax), %eax
	.loc 2 388 17
	testb	%al, %al
	jle	.L99
	.loc 2 393 27
	movq	-8(%rbp), %rax
	movq	8(%rax), %rax
	leaq	-32(%rbp), %rdx
	movq	-24(%rbp), %rcx
	movq	%rdx, %r9
	movq	%rcx, %r8
	movq	%rax, %rdx
	movl	$1, %ecx
	call	SubtructU_X_L_Imp
	movl	%eax, -12(%rbp)
	.loc 2 393 16
	cmpl	$0, -12(%rbp)
	je	.L94
	.loc 2 394 24
	movl	-12(%rbp), %eax
	jmp	.L100
.L99:
	.loc 2 401 27
	movq	-8(%rbp), %rax
	movq	8(%rax), %rax
	leaq	-32(%rbp), %rdx
	movq	-24(%rbp), %rcx
	movq	%rdx, %r9
	movq	%rcx, %r8
	movq	%rax, %rdx
	movl	$-1, %ecx
	call	AddU_X_L_Imp
	movl	%eax, -12(%rbp)
	.loc 2 401 16
	cmpl	$0, -12(%rbp)
	je	.L94
	.loc 2 402 24
	movl	-12(%rbp), %eax
	jmp	.L100
.L94:
	.loc 2 405 8
	movq	-32(%rbp), %rdx
	movq	32(%rbp), %rax
	movq	%rdx, (%rax)
	.loc 2 406 12
	movl	$0, %eax
.L100:
	.loc 2 407 1 discriminator 3
	addq	$80, %rsp
	popq	%rbp
	.cfi_restore 6
	.cfi_def_cfa 7, 8
	ret
	.cfi_endproc
.LFE4372:
	.seh_endproc
	.globl	PMC_Add_UX_X
	.def	PMC_Add_UX_X;	.scl	2;	.type	32;	.endef
	.seh_proc	PMC_Add_UX_X
PMC_Add_UX_X:
.LFB4373:
	.loc 2 410 1
	.cfi_startproc
	pushq	%rbp
	.seh_pushreg	%rbp
	.cfi_def_cfa_offset 16
	.cfi_offset 6, -16
	movq	%rsp, %rbp
	.seh_setframe	%rbp, 0
	.cfi_def_cfa_register 6
	subq	$80, %rsp
	.seh_stackalloc	80
	.seh_endprologue
	movq	%rcx, 16(%rbp)
	movq	%rdx, 24(%rbp)
	movq	%r8, 32(%rbp)
	.loc 2 411 8
	cmpq	$0, 24(%rbp)
	jne	.L102
	.loc 2 412 16
	movl	$-1, %eax
	jmp	.L115
.L102:
	.loc 2 413 8
	cmpq	$0, 32(%rbp)
	jne	.L104
	.loc 2 414 16
	movl	$-1, %eax
	jmp	.L115
.L104:
	.loc 2 416 20
	movq	24(%rbp), %rax
	movq	%rax, -8(%rbp)
	.loc 2 418 19
	movq	-8(%rbp), %rax
	movq	%rax, %rcx
	call	CheckNumber
	movl	%eax, -12(%rbp)
	.loc 2 418 8
	cmpl	$0, -12(%rbp)
	je	.L105
	.loc 2 419 16
	movl	-12(%rbp), %eax
	jmp	.L115
.L105:
	.loc 2 421 19
	leaq	-25(%rbp), %rax
	movq	%rax, %rdx
	movq	16(%rbp), %rcx
	call	IS_ZERO_UINT
	movl	%eax, -12(%rbp)
	.loc 2 421 8
	cmpl	$0, -12(%rbp)
	je	.L106
	.loc 2 422 16
	movl	-12(%rbp), %eax
	jmp	.L115
.L106:
	.loc 2 423 9
	movzbl	-25(%rbp), %eax
	.loc 2 423 8
	testb	%al, %al
	je	.L107
	.loc 2 427 15
	movq	-8(%rbp), %rax
	movzbl	16(%rax), %eax
	.loc 2 427 12
	testb	%al, %al
	jne	.L108
	.loc 2 432 16
	movq	.refptr.number_zero(%rip), %rax
	movq	%rax, -24(%rbp)
	jmp	.L109
.L108:
	.loc 2 439 27
	leaq	-24(%rbp), %rax
	movq	-8(%rbp), %rcx
	movq	%rax, %rdx
	call	DuplicateNumber
	movl	%eax, -12(%rbp)
	.loc 2 439 16
	cmpl	$0, -12(%rbp)
	je	.L109
	.loc 2 440 24
	movl	-12(%rbp), %eax
	jmp	.L115
.L107:
	.loc 2 447 15
	movq	-8(%rbp), %rax
	movzbl	16(%rax), %eax
	.loc 2 447 12
	testb	%al, %al
	jne	.L110
.LBB8:
	.loc 2 453 34
	movq	.refptr.ep_uint(%rip), %rax
	movq	88(%rax), %r8
	.loc 2 453 27
	leaq	-40(%rbp), %rax
	movq	%rax, %rdx
	movq	16(%rbp), %rcx
	call	*%r8
.LVL24:
	movl	%eax, -12(%rbp)
	.loc 2 453 16
	cmpl	$0, -12(%rbp)
	je	.L111
	.loc 2 454 24
	movl	-12(%rbp), %eax
	jmp	.L115
.L111:
	.loc 2 455 27
	movq	-40(%rbp), %rdx
	leaq	-24(%rbp), %rax
	movq	%rdx, %r8
	movl	$1, %edx
	movq	%rax, %rcx
	call	AllocateNumber
	movl	%eax, -12(%rbp)
	.loc 2 455 16
	cmpl	$0, -12(%rbp)
	je	.L109
	.loc 2 457 24
	movq	.refptr.ep_uint(%rip), %rax
	movq	32(%rax), %rax
	.loc 2 457 17
	movq	-40(%rbp), %rdx
	movq	%rdx, %rcx
	call	*%rax
.LVL25:
	.loc 2 458 24
	movl	-12(%rbp), %eax
	jmp	.L115
.L110:
.LBE8:
	.loc 2 461 20
	movq	-8(%rbp), %rax
	movzbl	16(%rax), %eax
	.loc 2 461 17
	testb	%al, %al
	jle	.L114
	.loc 2 466 27
	movq	-8(%rbp), %rax
	movq	8(%rax), %rdx
	leaq	-24(%rbp), %rax
	movq	%rax, %r9
	movq	%rdx, %r8
	movq	16(%rbp), %rdx
	movl	$1, %ecx
	call	AddU_X_X_Imp
	movl	%eax, -12(%rbp)
	.loc 2 466 16
	cmpl	$0, -12(%rbp)
	je	.L109
	.loc 2 467 24
	movl	-12(%rbp), %eax
	jmp	.L115
.L114:
	.loc 2 474 27
	movq	-8(%rbp), %rax
	movq	8(%rax), %rdx
	leaq	-24(%rbp), %rax
	movq	%rax, %r9
	movq	%rdx, %r8
	movq	16(%rbp), %rdx
	movl	$1, %ecx
	call	SubtructU_X_X_Imp
	movl	%eax, -12(%rbp)
	.loc 2 474 16
	cmpl	$0, -12(%rbp)
	je	.L109
	.loc 2 475 24
	movl	-12(%rbp), %eax
	jmp	.L115
.L109:
	.loc 2 478 8
	movq	-24(%rbp), %rdx
	movq	32(%rbp), %rax
	movq	%rdx, (%rax)
	.loc 2 479 12
	movl	$0, %eax
.L115:
	.loc 2 480 1 discriminator 2
	addq	$80, %rsp
	popq	%rbp
	.cfi_restore 6
	.cfi_def_cfa 7, 8
	ret
	.cfi_endproc
.LFE4373:
	.seh_endproc
	.globl	PMC_Add_X_I
	.def	PMC_Add_X_I;	.scl	2;	.type	32;	.endef
	.seh_proc	PMC_Add_X_I
PMC_Add_X_I:
.LFB4374:
	.loc 2 483 1
	.cfi_startproc
	pushq	%rbp
	.seh_pushreg	%rbp
	.cfi_def_cfa_offset 16
	.cfi_offset 6, -16
	movq	%rsp, %rbp
	.seh_setframe	%rbp, 0
	.cfi_def_cfa_register 6
	subq	$64, %rsp
	.seh_stackalloc	64
	.seh_endprologue
	movq	%rcx, 16(%rbp)
	movl	%edx, 24(%rbp)
	movq	%r8, 32(%rbp)
	.loc 2 484 8
	cmpq	$0, 16(%rbp)
	jne	.L117
	.loc 2 485 16
	movl	$-1, %eax
	jmp	.L130
.L117:
	.loc 2 486 8
	cmpq	$0, 32(%rbp)
	jne	.L119
	.loc 2 487 16
	movl	$-1, %eax
	jmp	.L130
.L119:
	.loc 2 489 20
	movq	16(%rbp), %rax
	movq	%rax, -8(%rbp)
	.loc 2 491 19
	movq	-8(%rbp), %rax
	movq	%rax, %rcx
	call	CheckNumber
	movl	%eax, -12(%rbp)
	.loc 2 491 8
	cmpl	$0, -12(%rbp)
	je	.L120
	.loc 2 492 16
	movl	-12(%rbp), %eax
	jmp	.L130
.L120:
	.loc 2 494 23
	leaq	-25(%rbp), %rax
	movl	24(%rbp), %ecx
	movq	%rax, %rdx
	call	GET_ABS_32
	movl	%eax, -16(%rbp)
	.loc 2 495 11
	movq	-8(%rbp), %rax
	movzbl	16(%rax), %eax
	.loc 2 495 8
	testb	%al, %al
	jne	.L121
	.loc 2 499 20
	movzbl	-25(%rbp), %eax
	.loc 2 499 12
	testb	%al, %al
	jne	.L122
	.loc 2 503 16
	movq	.refptr.number_zero(%rip), %rax
	movq	%rax, -24(%rbp)
	jmp	.L123
.L122:
	.loc 2 505 25
	movzbl	-25(%rbp), %eax
	.loc 2 505 17
	testb	%al, %al
	jle	.L124
	.loc 2 510 27
	movzbl	-25(%rbp), %eax
	movsbl	%al, %eax
	leaq	-24(%rbp), %rcx
	movl	-16(%rbp), %edx
	movq	%rcx, %r8
	movl	%eax, %ecx
	call	From_I_Imp
	movl	%eax, -12(%rbp)
	.loc 2 510 16
	cmpl	$0, -12(%rbp)
	je	.L123
	.loc 2 511 24
	movl	-12(%rbp), %eax
	jmp	.L130
.L124:
	.loc 2 518 27
	movzbl	-25(%rbp), %eax
	movsbl	%al, %eax
	leaq	-24(%rbp), %rcx
	movl	-16(%rbp), %edx
	movq	%rcx, %r8
	movl	%eax, %ecx
	call	From_I_Imp
	movl	%eax, -12(%rbp)
	.loc 2 518 16
	cmpl	$0, -12(%rbp)
	je	.L123
	.loc 2 519 24
	movl	-12(%rbp), %eax
	jmp	.L130
.L121:
	.loc 2 522 16
	movq	-8(%rbp), %rax
	movzbl	16(%rax), %eax
	.loc 2 522 13
	testb	%al, %al
	jle	.L125
	.loc 2 526 20
	movzbl	-25(%rbp), %eax
	.loc 2 526 12
	testb	%al, %al
	jne	.L126
	.loc 2 531 27
	leaq	-24(%rbp), %rax
	movq	-8(%rbp), %rcx
	movq	%rax, %rdx
	call	DuplicateNumber
	movl	%eax, -12(%rbp)
	.loc 2 531 16
	cmpl	$0, -12(%rbp)
	je	.L123
	.loc 2 532 24
	movl	-12(%rbp), %eax
	jmp	.L130
.L126:
	.loc 2 534 25
	movzbl	-25(%rbp), %eax
	.loc 2 534 17
	testb	%al, %al
	jle	.L127
	.loc 2 539 27
	movq	-8(%rbp), %rax
	movq	8(%rax), %rax
	leaq	-24(%rbp), %rdx
	movl	-16(%rbp), %ecx
	movq	%rdx, %r9
	movl	%ecx, %r8d
	movq	%rax, %rdx
	movl	$1, %ecx
	call	AddU_X_I_Imp
	movl	%eax, -12(%rbp)
	.loc 2 539 16
	cmpl	$0, -12(%rbp)
	je	.L123
	.loc 2 540 24
	movl	-12(%rbp), %eax
	jmp	.L130
.L127:
	.loc 2 547 27
	movq	-8(%rbp), %rax
	movq	8(%rax), %rax
	leaq	-24(%rbp), %rdx
	movl	-16(%rbp), %ecx
	movq	%rdx, %r9
	movl	%ecx, %r8d
	movq	%rax, %rdx
	movl	$1, %ecx
	call	SubtructU_X_I_Imp
	movl	%eax, -12(%rbp)
	.loc 2 547 16
	cmpl	$0, -12(%rbp)
	je	.L123
	.loc 2 548 24
	movl	-12(%rbp), %eax
	jmp	.L130
.L125:
	.loc 2 555 20
	movzbl	-25(%rbp), %eax
	.loc 2 555 12
	testb	%al, %al
	jne	.L128
	.loc 2 560 27
	leaq	-24(%rbp), %rax
	movq	-8(%rbp), %rcx
	movq	%rax, %rdx
	call	DuplicateNumber
	movl	%eax, -12(%rbp)
	.loc 2 560 16
	cmpl	$0, -12(%rbp)
	je	.L123
	.loc 2 561 24
	movl	-12(%rbp), %eax
	jmp	.L130
.L128:
	.loc 2 563 25
	movzbl	-25(%rbp), %eax
	.loc 2 563 17
	testb	%al, %al
	jle	.L129
	.loc 2 568 27
	movq	-8(%rbp), %rax
	movq	8(%rax), %rax
	leaq	-24(%rbp), %rdx
	movl	-16(%rbp), %ecx
	movq	%rdx, %r9
	movl	%ecx, %r8d
	movq	%rax, %rdx
	movl	$-1, %ecx
	call	SubtructU_X_I_Imp
	movl	%eax, -12(%rbp)
	.loc 2 568 16
	cmpl	$0, -12(%rbp)
	je	.L123
	.loc 2 569 24
	movl	-12(%rbp), %eax
	jmp	.L130
.L129:
	.loc 2 576 27
	movq	-8(%rbp), %rax
	movq	8(%rax), %rax
	leaq	-24(%rbp), %rdx
	movl	-16(%rbp), %ecx
	movq	%rdx, %r9
	movl	%ecx, %r8d
	movq	%rax, %rdx
	movl	$-1, %ecx
	call	AddU_X_I_Imp
	movl	%eax, -12(%rbp)
	.loc 2 576 16
	cmpl	$0, -12(%rbp)
	je	.L123
	.loc 2 577 24
	movl	-12(%rbp), %eax
	jmp	.L130
.L123:
	.loc 2 580 8
	movq	-24(%rbp), %rdx
	movq	32(%rbp), %rax
	movq	%rdx, (%rax)
	.loc 2 581 12
	movl	$0, %eax
.L130:
	.loc 2 582 1 discriminator 4
	addq	$64, %rsp
	popq	%rbp
	.cfi_restore 6
	.cfi_def_cfa 7, 8
	ret
	.cfi_endproc
.LFE4374:
	.seh_endproc
	.globl	PMC_Add_X_L
	.def	PMC_Add_X_L;	.scl	2;	.type	32;	.endef
	.seh_proc	PMC_Add_X_L
PMC_Add_X_L:
.LFB4375:
	.loc 2 585 1
	.cfi_startproc
	pushq	%rbp
	.seh_pushreg	%rbp
	.cfi_def_cfa_offset 16
	.cfi_offset 6, -16
	movq	%rsp, %rbp
	.seh_setframe	%rbp, 0
	.cfi_def_cfa_register 6
	subq	$80, %rsp
	.seh_stackalloc	80
	.seh_endprologue
	movq	%rcx, 16(%rbp)
	movq	%rdx, 24(%rbp)
	movq	%r8, 32(%rbp)
	.loc 2 586 8
	cmpq	$0, 16(%rbp)
	jne	.L132
	.loc 2 587 16
	movl	$-1, %eax
	jmp	.L145
.L132:
	.loc 2 588 8
	cmpq	$0, 32(%rbp)
	jne	.L134
	.loc 2 589 16
	movl	$-1, %eax
	jmp	.L145
.L134:
	.loc 2 591 20
	movq	16(%rbp), %rax
	movq	%rax, -8(%rbp)
	.loc 2 593 19
	movq	-8(%rbp), %rax
	movq	%rax, %rcx
	call	CheckNumber
	movl	%eax, -12(%rbp)
	.loc 2 593 8
	cmpl	$0, -12(%rbp)
	je	.L135
	.loc 2 594 16
	movl	-12(%rbp), %eax
	jmp	.L145
.L135:
	.loc 2 596 23
	leaq	-33(%rbp), %rax
	movq	24(%rbp), %rcx
	movq	%rax, %rdx
	call	GET_ABS_64
	movq	%rax, -24(%rbp)
	.loc 2 597 11
	movq	-8(%rbp), %rax
	movzbl	16(%rax), %eax
	.loc 2 597 8
	testb	%al, %al
	jne	.L136
	.loc 2 601 20
	movzbl	-33(%rbp), %eax
	.loc 2 601 12
	testb	%al, %al
	jne	.L137
	.loc 2 605 16
	movq	.refptr.number_zero(%rip), %rax
	movq	%rax, -32(%rbp)
	jmp	.L138
.L137:
	.loc 2 607 25
	movzbl	-33(%rbp), %eax
	.loc 2 607 17
	testb	%al, %al
	jle	.L139
	.loc 2 612 27
	movzbl	-33(%rbp), %eax
	movsbl	%al, %eax
	leaq	-32(%rbp), %rcx
	movq	-24(%rbp), %rdx
	movq	%rcx, %r8
	movl	%eax, %ecx
	call	From_L_Imp
	movl	%eax, -12(%rbp)
	.loc 2 612 16
	cmpl	$0, -12(%rbp)
	je	.L138
	.loc 2 613 24
	movl	-12(%rbp), %eax
	jmp	.L145
.L139:
	.loc 2 620 27
	movzbl	-33(%rbp), %eax
	movsbl	%al, %eax
	leaq	-32(%rbp), %rcx
	movq	-24(%rbp), %rdx
	movq	%rcx, %r8
	movl	%eax, %ecx
	call	From_L_Imp
	movl	%eax, -12(%rbp)
	.loc 2 620 16
	cmpl	$0, -12(%rbp)
	je	.L138
	.loc 2 621 24
	movl	-12(%rbp), %eax
	jmp	.L145
.L136:
	.loc 2 624 16
	movq	-8(%rbp), %rax
	movzbl	16(%rax), %eax
	.loc 2 624 13
	testb	%al, %al
	jle	.L140
	.loc 2 628 20
	movzbl	-33(%rbp), %eax
	.loc 2 628 12
	testb	%al, %al
	jne	.L141
	.loc 2 633 27
	leaq	-32(%rbp), %rax
	movq	-8(%rbp), %rcx
	movq	%rax, %rdx
	call	DuplicateNumber
	movl	%eax, -12(%rbp)
	.loc 2 633 16
	cmpl	$0, -12(%rbp)
	je	.L138
	.loc 2 634 24
	movl	-12(%rbp), %eax
	jmp	.L145
.L141:
	.loc 2 636 25
	movzbl	-33(%rbp), %eax
	.loc 2 636 17
	testb	%al, %al
	jle	.L142
	.loc 2 641 27
	movq	-8(%rbp), %rax
	movq	8(%rax), %rax
	leaq	-32(%rbp), %rdx
	movq	-24(%rbp), %rcx
	movq	%rdx, %r9
	movq	%rcx, %r8
	movq	%rax, %rdx
	movl	$1, %ecx
	call	AddU_X_L_Imp
	movl	%eax, -12(%rbp)
	.loc 2 641 16
	cmpl	$0, -12(%rbp)
	je	.L138
	.loc 2 642 24
	movl	-12(%rbp), %eax
	jmp	.L145
.L142:
	.loc 2 649 27
	movq	-8(%rbp), %rax
	movq	8(%rax), %rax
	leaq	-32(%rbp), %rdx
	movq	-24(%rbp), %rcx
	movq	%rdx, %r9
	movq	%rcx, %r8
	movq	%rax, %rdx
	movl	$1, %ecx
	call	SubtructU_X_L_Imp
	movl	%eax, -12(%rbp)
	.loc 2 649 16
	cmpl	$0, -12(%rbp)
	je	.L138
	.loc 2 650 24
	movl	-12(%rbp), %eax
	jmp	.L145
.L140:
	.loc 2 657 20
	movzbl	-33(%rbp), %eax
	.loc 2 657 12
	testb	%al, %al
	jne	.L143
	.loc 2 662 27
	leaq	-32(%rbp), %rax
	movq	-8(%rbp), %rcx
	movq	%rax, %rdx
	call	DuplicateNumber
	movl	%eax, -12(%rbp)
	.loc 2 662 16
	cmpl	$0, -12(%rbp)
	je	.L138
	.loc 2 663 24
	movl	-12(%rbp), %eax
	jmp	.L145
.L143:
	.loc 2 665 25
	movzbl	-33(%rbp), %eax
	.loc 2 665 17
	testb	%al, %al
	jle	.L144
	.loc 2 670 27
	movq	-8(%rbp), %rax
	movq	8(%rax), %rax
	leaq	-32(%rbp), %rdx
	movq	-24(%rbp), %rcx
	movq	%rdx, %r9
	movq	%rcx, %r8
	movq	%rax, %rdx
	movl	$-1, %ecx
	call	SubtructU_X_L_Imp
	movl	%eax, -12(%rbp)
	.loc 2 670 16
	cmpl	$0, -12(%rbp)
	je	.L138
	.loc 2 671 24
	movl	-12(%rbp), %eax
	jmp	.L145
.L144:
	.loc 2 678 27
	movq	-8(%rbp), %rax
	movq	8(%rax), %rax
	leaq	-32(%rbp), %rdx
	movq	-24(%rbp), %rcx
	movq	%rdx, %r9
	movq	%rcx, %r8
	movq	%rax, %rdx
	movl	$-1, %ecx
	call	AddU_X_L_Imp
	movl	%eax, -12(%rbp)
	.loc 2 678 16
	cmpl	$0, -12(%rbp)
	je	.L138
	.loc 2 679 24
	movl	-12(%rbp), %eax
	jmp	.L145
.L138:
	.loc 2 682 8
	movq	-32(%rbp), %rdx
	movq	32(%rbp), %rax
	movq	%rdx, (%rax)
	.loc 2 683 12
	movl	$0, %eax
.L145:
	.loc 2 684 1 discriminator 4
	addq	$80, %rsp
	popq	%rbp
	.cfi_restore 6
	.cfi_def_cfa 7, 8
	ret
	.cfi_endproc
.LFE4375:
	.seh_endproc
	.globl	PMC_Add_X_UX
	.def	PMC_Add_X_UX;	.scl	2;	.type	32;	.endef
	.seh_proc	PMC_Add_X_UX
PMC_Add_X_UX:
.LFB4376:
	.loc 2 687 1
	.cfi_startproc
	pushq	%rbp
	.seh_pushreg	%rbp
	.cfi_def_cfa_offset 16
	.cfi_offset 6, -16
	movq	%rsp, %rbp
	.seh_setframe	%rbp, 0
	.cfi_def_cfa_register 6
	subq	$80, %rsp
	.seh_stackalloc	80
	.seh_endprologue
	movq	%rcx, 16(%rbp)
	movq	%rdx, 24(%rbp)
	movq	%r8, 32(%rbp)
	.loc 2 688 8
	cmpq	$0, 16(%rbp)
	jne	.L147
	.loc 2 689 16
	movl	$-1, %eax
	jmp	.L164
.L147:
	.loc 2 690 8
	cmpq	$0, 24(%rbp)
	jne	.L149
	.loc 2 691 16
	movl	$-1, %eax
	jmp	.L164
.L149:
	.loc 2 692 8
	cmpq	$0, 32(%rbp)
	jne	.L150
	.loc 2 693 16
	movl	$-1, %eax
	jmp	.L164
.L150:
	.loc 2 695 20
	movq	16(%rbp), %rax
	movq	%rax, -8(%rbp)
	.loc 2 697 19
	movq	-8(%rbp), %rax
	movq	%rax, %rcx
	call	CheckNumber
	movl	%eax, -12(%rbp)
	.loc 2 697 8
	cmpl	$0, -12(%rbp)
	je	.L151
	.loc 2 698 16
	movl	-12(%rbp), %eax
	jmp	.L164
.L151:
	.loc 2 700 19
	leaq	-25(%rbp), %rax
	movq	24(%rbp), %rcx
	movq	%rax, %rdx
	call	IS_ZERO_UINT
	movl	%eax, -12(%rbp)
	.loc 2 700 8
	cmpl	$0, -12(%rbp)
	je	.L152
	.loc 2 701 16
	movl	-12(%rbp), %eax
	jmp	.L164
.L152:
	.loc 2 702 11
	movq	-8(%rbp), %rax
	movzbl	16(%rax), %eax
	.loc 2 702 8
	testb	%al, %al
	jne	.L153
	.loc 2 706 13
	movzbl	-25(%rbp), %eax
	.loc 2 706 12
	testb	%al, %al
	je	.L154
	.loc 2 711 16
	movq	.refptr.number_zero(%rip), %rax
	movq	%rax, -24(%rbp)
	jmp	.L160
.L154:
.LBB9:
	.loc 2 719 34
	movq	.refptr.ep_uint(%rip), %rax
	movq	88(%rax), %r8
	.loc 2 719 27
	leaq	-40(%rbp), %rax
	movq	24(%rbp), %rcx
	movq	%rax, %rdx
	call	*%r8
.LVL26:
	movl	%eax, -12(%rbp)
	.loc 2 719 16
	cmpl	$0, -12(%rbp)
	je	.L156
	.loc 2 720 24
	movl	-12(%rbp), %eax
	jmp	.L164
.L156:
	.loc 2 722 34
	movq	.refptr.ep_uint(%rip), %rax
	movq	40(%rax), %r8
	.loc 2 722 27
	movq	-40(%rbp), %rcx
	leaq	-44(%rbp), %rax
	movq	%rax, %rdx
	call	*%r8
.LVL27:
	movl	%eax, -12(%rbp)
	.loc 2 722 16
	cmpl	$0, -12(%rbp)
	je	.L158
	.loc 2 723 24
	movl	-12(%rbp), %eax
	jmp	.L164
.L158:
	.loc 2 724 27
	movq	-40(%rbp), %rdx
	leaq	-24(%rbp), %rax
	movq	%rdx, %r8
	movl	$1, %edx
	movq	%rax, %rcx
	call	AllocateNumber
	movl	%eax, -12(%rbp)
	.loc 2 724 16
	cmpl	$0, -12(%rbp)
	je	.L160
	.loc 2 726 24
	movq	.refptr.ep_uint(%rip), %rax
	movq	32(%rax), %rax
	.loc 2 726 17
	movq	-40(%rbp), %rdx
	movq	%rdx, %rcx
	call	*%rax
.LVL28:
	.loc 2 727 24
	movl	-12(%rbp), %eax
	jmp	.L164
.L153:
.LBE9:
	.loc 2 731 16
	movq	-8(%rbp), %rax
	movzbl	16(%rax), %eax
	.loc 2 731 13
	testb	%al, %al
	jle	.L161
	.loc 2 735 13
	movzbl	-25(%rbp), %eax
	.loc 2 735 12
	testb	%al, %al
	je	.L162
	.loc 2 740 27
	leaq	-24(%rbp), %rax
	movq	-8(%rbp), %rcx
	movq	%rax, %rdx
	call	DuplicateNumber
	movl	%eax, -12(%rbp)
	.loc 2 740 16
	cmpl	$0, -12(%rbp)
	je	.L160
	.loc 2 741 24
	movl	-12(%rbp), %eax
	jmp	.L164
.L162:
	.loc 2 748 27
	movq	-8(%rbp), %rax
	movq	8(%rax), %rax
	leaq	-24(%rbp), %rdx
	movq	24(%rbp), %rcx
	movq	%rdx, %r9
	movq	%rcx, %r8
	movq	%rax, %rdx
	movl	$1, %ecx
	call	AddU_X_X_Imp
	movl	%eax, -12(%rbp)
	.loc 2 748 16
	cmpl	$0, -12(%rbp)
	je	.L160
	.loc 2 749 24
	movl	-12(%rbp), %eax
	jmp	.L164
.L161:
	.loc 2 756 13
	movzbl	-25(%rbp), %eax
	.loc 2 756 12
	testb	%al, %al
	je	.L163
	.loc 2 761 27
	leaq	-24(%rbp), %rax
	movq	-8(%rbp), %rcx
	movq	%rax, %rdx
	call	DuplicateNumber
	movl	%eax, -12(%rbp)
	.loc 2 761 16
	cmpl	$0, -12(%rbp)
	je	.L160
	.loc 2 762 24
	movl	-12(%rbp), %eax
	jmp	.L164
.L163:
	.loc 2 769 27
	movq	-8(%rbp), %rax
	movq	8(%rax), %rax
	leaq	-24(%rbp), %rdx
	movq	24(%rbp), %rcx
	movq	%rdx, %r9
	movq	%rcx, %r8
	movq	%rax, %rdx
	movl	$-1, %ecx
	call	SubtructU_X_X_Imp
	movl	%eax, -12(%rbp)
	.loc 2 769 16
	cmpl	$0, -12(%rbp)
	je	.L160
	.loc 2 770 24
	movl	-12(%rbp), %eax
	jmp	.L164
.L160:
	.loc 2 774 8
	movq	-24(%rbp), %rdx
	movq	32(%rbp), %rax
	movq	%rdx, (%rax)
	.loc 2 775 12
	movl	$0, %eax
.L164:
	.loc 2 776 1 discriminator 3
	addq	$80, %rsp
	popq	%rbp
	.cfi_restore 6
	.cfi_def_cfa 7, 8
	ret
	.cfi_endproc
.LFE4376:
	.seh_endproc
	.globl	PMC_Add_X_X
	.def	PMC_Add_X_X;	.scl	2;	.type	32;	.endef
	.seh_proc	PMC_Add_X_X
PMC_Add_X_X:
.LFB4377:
	.loc 2 779 1
	.cfi_startproc
	pushq	%rbp
	.seh_pushreg	%rbp
	.cfi_def_cfa_offset 16
	.cfi_offset 6, -16
	movq	%rsp, %rbp
	.seh_setframe	%rbp, 0
	.cfi_def_cfa_register 6
	subq	$64, %rsp
	.seh_stackalloc	64
	.seh_endprologue
	movq	%rcx, 16(%rbp)
	movq	%rdx, 24(%rbp)
	movq	%r8, 32(%rbp)
	.loc 2 780 8
	cmpq	$0, 16(%rbp)
	jne	.L166
	.loc 2 781 16
	movl	$-1, %eax
	jmp	.L180
.L166:
	.loc 2 782 8
	cmpq	$0, 24(%rbp)
	jne	.L168
	.loc 2 783 16
	movl	$-1, %eax
	jmp	.L180
.L168:
	.loc 2 784 8
	cmpq	$0, 32(%rbp)
	jne	.L169
	.loc 2 785 16
	movl	$-1, %eax
	jmp	.L180
.L169:
	.loc 2 787 20
	movq	16(%rbp), %rax
	movq	%rax, -8(%rbp)
	.loc 2 788 20
	movq	24(%rbp), %rax
	movq	%rax, -16(%rbp)
	.loc 2 790 19
	movq	-8(%rbp), %rax
	movq	%rax, %rcx
	call	CheckNumber
	movl	%eax, -20(%rbp)
	.loc 2 790 8
	cmpl	$0, -20(%rbp)
	je	.L170
	.loc 2 791 16
	movl	-20(%rbp), %eax
	jmp	.L180
.L170:
	.loc 2 792 19
	movq	-16(%rbp), %rax
	movq	%rax, %rcx
	call	CheckNumber
	movl	%eax, -20(%rbp)
	.loc 2 792 8
	cmpl	$0, -20(%rbp)
	je	.L171
	.loc 2 793 16
	movl	-20(%rbp), %eax
	jmp	.L180
.L171:
	.loc 2 794 11
	movq	-8(%rbp), %rax
	movzbl	16(%rax), %eax
	.loc 2 794 8
	testb	%al, %al
	jne	.L172
	.loc 2 798 15
	movq	-16(%rbp), %rax
	movzbl	16(%rax), %eax
	.loc 2 798 12
	testb	%al, %al
	jne	.L173
	.loc 2 802 16
	movq	.refptr.number_zero(%rip), %rax
	movq	%rax, -32(%rbp)
	jmp	.L174
.L173:
	.loc 2 809 27
	leaq	-32(%rbp), %rax
	movq	-16(%rbp), %rcx
	movq	%rax, %rdx
	call	DuplicateNumber
	movl	%eax, -20(%rbp)
	.loc 2 809 16
	cmpl	$0, -20(%rbp)
	je	.L174
	.loc 2 810 24
	movl	-20(%rbp), %eax
	jmp	.L180
.L172:
	.loc 2 813 16
	movq	-8(%rbp), %rax
	movzbl	16(%rax), %eax
	.loc 2 813 13
	testb	%al, %al
	jle	.L175
	.loc 2 817 15
	movq	-16(%rbp), %rax
	movzbl	16(%rax), %eax
	.loc 2 817 12
	testb	%al, %al
	jne	.L176
	.loc 2 822 27
	leaq	-32(%rbp), %rax
	movq	-8(%rbp), %rcx
	movq	%rax, %rdx
	call	DuplicateNumber
	movl	%eax, -20(%rbp)
	.loc 2 822 16
	cmpl	$0, -20(%rbp)
	je	.L174
	.loc 2 823 24
	movl	-20(%rbp), %eax
	jmp	.L180
.L176:
	.loc 2 825 20
	movq	-16(%rbp), %rax
	movzbl	16(%rax), %eax
	.loc 2 825 17
	testb	%al, %al
	jle	.L177
	.loc 2 830 27
	movq	-16(%rbp), %rax
	movq	8(%rax), %rcx
	movq	-8(%rbp), %rax
	movq	8(%rax), %rax
	leaq	-32(%rbp), %rdx
	movq	%rdx, %r9
	movq	%rcx, %r8
	movq	%rax, %rdx
	movl	$1, %ecx
	call	AddU_X_X_Imp
	movl	%eax, -20(%rbp)
	.loc 2 830 16
	cmpl	$0, -20(%rbp)
	je	.L174
	.loc 2 831 24
	movl	-20(%rbp), %eax
	jmp	.L180
.L177:
	.loc 2 838 27
	movq	-16(%rbp), %rax
	movq	8(%rax), %rcx
	movq	-8(%rbp), %rax
	movq	8(%rax), %rax
	leaq	-32(%rbp), %rdx
	movq	%rdx, %r9
	movq	%rcx, %r8
	movq	%rax, %rdx
	movl	$1, %ecx
	call	SubtructU_X_X_Imp
	movl	%eax, -20(%rbp)
	.loc 2 838 16
	cmpl	$0, -20(%rbp)
	je	.L174
	.loc 2 839 24
	movl	-20(%rbp), %eax
	jmp	.L180
.L175:
	.loc 2 846 15
	movq	-16(%rbp), %rax
	movzbl	16(%rax), %eax
	.loc 2 846 12
	testb	%al, %al
	jne	.L178
	.loc 2 851 27
	leaq	-32(%rbp), %rax
	movq	-8(%rbp), %rcx
	movq	%rax, %rdx
	call	DuplicateNumber
	movl	%eax, -20(%rbp)
	.loc 2 851 16
	cmpl	$0, -20(%rbp)
	je	.L174
	.loc 2 852 24
	movl	-20(%rbp), %eax
	jmp	.L180
.L178:
	.loc 2 854 20
	movq	-16(%rbp), %rax
	movzbl	16(%rax), %eax
	.loc 2 854 17
	testb	%al, %al
	jle	.L179
	.loc 2 859 27
	movq	-16(%rbp), %rax
	movq	8(%rax), %rcx
	movq	-8(%rbp), %rax
	movq	8(%rax), %rax
	leaq	-32(%rbp), %rdx
	movq	%rdx, %r9
	movq	%rcx, %r8
	movq	%rax, %rdx
	movl	$-1, %ecx
	call	SubtructU_X_X_Imp
	movl	%eax, -20(%rbp)
	.loc 2 859 16
	cmpl	$0, -20(%rbp)
	je	.L174
	.loc 2 860 24
	movl	-20(%rbp), %eax
	jmp	.L180
.L179:
	.loc 2 867 27
	movq	-16(%rbp), %rax
	movq	8(%rax), %rcx
	movq	-8(%rbp), %rax
	movq	8(%rax), %rax
	leaq	-32(%rbp), %rdx
	movq	%rdx, %r9
	movq	%rcx, %r8
	movq	%rax, %rdx
	movl	$-1, %ecx
	call	AddU_X_X_Imp
	movl	%eax, -20(%rbp)
	.loc 2 867 16
	cmpl	$0, -20(%rbp)
	je	.L174
	.loc 2 868 24
	movl	-20(%rbp), %eax
	jmp	.L180
.L174:
	.loc 2 871 8
	movq	-32(%rbp), %rdx
	movq	32(%rbp), %rax
	movq	%rdx, (%rax)
	.loc 2 872 12
	movl	$0, %eax
.L180:
	.loc 2 873 1 discriminator 3
	addq	$64, %rsp
	popq	%rbp
	.cfi_restore 6
	.cfi_def_cfa 7, 8
	ret
	.cfi_endproc
.LFE4377:
	.seh_endproc
	.globl	PMC_Subtruct_I_X
	.def	PMC_Subtruct_I_X;	.scl	2;	.type	32;	.endef
	.seh_proc	PMC_Subtruct_I_X
PMC_Subtruct_I_X:
.LFB4378:
	.loc 2 876 1
	.cfi_startproc
	pushq	%rbp
	.seh_pushreg	%rbp
	.cfi_def_cfa_offset 16
	.cfi_offset 6, -16
	movq	%rsp, %rbp
	.seh_setframe	%rbp, 0
	.cfi_def_cfa_register 6
	subq	$64, %rsp
	.seh_stackalloc	64
	.seh_endprologue
	movl	%ecx, 16(%rbp)
	movq	%rdx, 24(%rbp)
	movq	%r8, 32(%rbp)
	.loc 2 877 8
	cmpq	$0, 24(%rbp)
	jne	.L182
	.loc 2 878 16
	movl	$-1, %eax
	jmp	.L194
.L182:
	.loc 2 879 8
	cmpq	$0, 32(%rbp)
	jne	.L184
	.loc 2 880 16
	movl	$-1, %eax
	jmp	.L194
.L184:
	.loc 2 882 20
	movq	24(%rbp), %rax
	movq	%rax, -8(%rbp)
	.loc 2 884 19
	movq	-8(%rbp), %rax
	movq	%rax, %rcx
	call	CheckNumber
	movl	%eax, -12(%rbp)
	.loc 2 884 8
	cmpl	$0, -12(%rbp)
	je	.L185
	.loc 2 885 16
	movl	-12(%rbp), %eax
	jmp	.L194
.L185:
	.loc 2 887 23
	leaq	-25(%rbp), %rax
	movq	%rax, %rdx
	movl	16(%rbp), %ecx
	call	GET_ABS_32
	movl	%eax, -16(%rbp)
	.loc 2 888 16
	movzbl	-25(%rbp), %eax
	.loc 2 888 8
	testb	%al, %al
	jne	.L186
	.loc 2 892 15
	movq	-8(%rbp), %rax
	movzbl	16(%rax), %eax
	.loc 2 892 12
	testb	%al, %al
	jne	.L187
	.loc 2 896 16
	movq	.refptr.number_zero(%rip), %rax
	movq	%rax, -24(%rbp)
	jmp	.L188
.L187:
	.loc 2 903 27
	leaq	-24(%rbp), %rax
	movq	-8(%rbp), %rcx
	movq	%rax, %rdx
	call	Negate_Imp
	movl	%eax, -12(%rbp)
	.loc 2 903 16
	cmpl	$0, -12(%rbp)
	je	.L188
	.loc 2 904 24
	movl	-12(%rbp), %eax
	jmp	.L194
.L186:
	.loc 2 907 21
	movzbl	-25(%rbp), %eax
	.loc 2 907 13
	testb	%al, %al
	jle	.L189
	.loc 2 911 15
	movq	-8(%rbp), %rax
	movzbl	16(%rax), %eax
	.loc 2 911 12
	testb	%al, %al
	jne	.L190
	.loc 2 916 27
	movzbl	-25(%rbp), %eax
	movsbl	%al, %eax
	leaq	-24(%rbp), %rcx
	movl	-16(%rbp), %edx
	movq	%rcx, %r8
	movl	%eax, %ecx
	call	From_I_Imp
	movl	%eax, -12(%rbp)
	.loc 2 916 16
	cmpl	$0, -12(%rbp)
	je	.L188
	.loc 2 917 24
	movl	-12(%rbp), %eax
	jmp	.L194
.L190:
	.loc 2 919 20
	movq	-8(%rbp), %rax
	movzbl	16(%rax), %eax
	.loc 2 919 17
	testb	%al, %al
	jle	.L191
	.loc 2 924 27
	movq	-8(%rbp), %rax
	movq	8(%rax), %rax
	leaq	-24(%rbp), %rdx
	movl	-16(%rbp), %ecx
	movq	%rdx, %r9
	movl	%ecx, %r8d
	movq	%rax, %rdx
	movl	$-1, %ecx
	call	SubtructU_X_I_Imp
	movl	%eax, -12(%rbp)
	.loc 2 924 16
	cmpl	$0, -12(%rbp)
	je	.L188
	.loc 2 925 24
	movl	-12(%rbp), %eax
	jmp	.L194
.L191:
	.loc 2 932 27
	movq	-8(%rbp), %rax
	movq	8(%rax), %rax
	leaq	-24(%rbp), %rdx
	movl	-16(%rbp), %ecx
	movq	%rdx, %r9
	movl	%ecx, %r8d
	movq	%rax, %rdx
	movl	$1, %ecx
	call	AddU_X_I_Imp
	movl	%eax, -12(%rbp)
	.loc 2 932 16
	cmpl	$0, -12(%rbp)
	je	.L188
	.loc 2 933 24
	movl	-12(%rbp), %eax
	jmp	.L194
.L189:
	.loc 2 940 15
	movq	-8(%rbp), %rax
	movzbl	16(%rax), %eax
	.loc 2 940 12
	testb	%al, %al
	jne	.L192
	.loc 2 945 27
	movzbl	-25(%rbp), %eax
	movsbl	%al, %eax
	leaq	-24(%rbp), %rcx
	movl	-16(%rbp), %edx
	movq	%rcx, %r8
	movl	%eax, %ecx
	call	From_I_Imp
	movl	%eax, -12(%rbp)
	.loc 2 945 16
	cmpl	$0, -12(%rbp)
	je	.L188
	.loc 2 946 24
	movl	-12(%rbp), %eax
	jmp	.L194
.L192:
	.loc 2 948 20
	movq	-8(%rbp), %rax
	movzbl	16(%rax), %eax
	.loc 2 948 17
	testb	%al, %al
	jle	.L193
	.loc 2 953 27
	movq	-8(%rbp), %rax
	movq	8(%rax), %rax
	leaq	-24(%rbp), %rdx
	movl	-16(%rbp), %ecx
	movq	%rdx, %r9
	movl	%ecx, %r8d
	movq	%rax, %rdx
	movl	$-1, %ecx
	call	AddU_X_I_Imp
	movl	%eax, -12(%rbp)
	.loc 2 953 16
	cmpl	$0, -12(%rbp)
	je	.L188
	.loc 2 954 24
	movl	-12(%rbp), %eax
	jmp	.L194
.L193:
	.loc 2 961 27
	movq	-8(%rbp), %rax
	movq	8(%rax), %rax
	leaq	-24(%rbp), %rdx
	movl	-16(%rbp), %ecx
	movq	%rdx, %r9
	movl	%ecx, %r8d
	movq	%rax, %rdx
	movl	$1, %ecx
	call	SubtructU_X_I_Imp
	movl	%eax, -12(%rbp)
	.loc 2 961 16
	cmpl	$0, -12(%rbp)
	je	.L188
	.loc 2 962 24
	movl	-12(%rbp), %eax
	jmp	.L194
.L188:
	.loc 2 965 8
	movq	-24(%rbp), %rdx
	movq	32(%rbp), %rax
	movq	%rdx, (%rax)
	.loc 2 966 12
	movl	$0, %eax
.L194:
	.loc 2 967 1 discriminator 3
	addq	$64, %rsp
	popq	%rbp
	.cfi_restore 6
	.cfi_def_cfa 7, 8
	ret
	.cfi_endproc
.LFE4378:
	.seh_endproc
	.globl	PMC_Subtruct_L_X
	.def	PMC_Subtruct_L_X;	.scl	2;	.type	32;	.endef
	.seh_proc	PMC_Subtruct_L_X
PMC_Subtruct_L_X:
.LFB4379:
	.loc 2 970 1
	.cfi_startproc
	pushq	%rbp
	.seh_pushreg	%rbp
	.cfi_def_cfa_offset 16
	.cfi_offset 6, -16
	movq	%rsp, %rbp
	.seh_setframe	%rbp, 0
	.cfi_def_cfa_register 6
	subq	$80, %rsp
	.seh_stackalloc	80
	.seh_endprologue
	movq	%rcx, 16(%rbp)
	movq	%rdx, 24(%rbp)
	movq	%r8, 32(%rbp)
	.loc 2 971 8
	cmpq	$0, 24(%rbp)
	jne	.L196
	.loc 2 972 16
	movl	$-1, %eax
	jmp	.L208
.L196:
	.loc 2 973 8
	cmpq	$0, 32(%rbp)
	jne	.L198
	.loc 2 974 16
	movl	$-1, %eax
	jmp	.L208
.L198:
	.loc 2 976 20
	movq	24(%rbp), %rax
	movq	%rax, -8(%rbp)
	.loc 2 978 19
	movq	-8(%rbp), %rax
	movq	%rax, %rcx
	call	CheckNumber
	movl	%eax, -12(%rbp)
	.loc 2 978 8
	cmpl	$0, -12(%rbp)
	je	.L199
	.loc 2 979 16
	movl	-12(%rbp), %eax
	jmp	.L208
.L199:
	.loc 2 981 23
	leaq	-33(%rbp), %rax
	movq	%rax, %rdx
	movq	16(%rbp), %rcx
	call	GET_ABS_64
	movq	%rax, -24(%rbp)
	.loc 2 982 16
	movzbl	-33(%rbp), %eax
	.loc 2 982 8
	testb	%al, %al
	jne	.L200
	.loc 2 986 15
	movq	-8(%rbp), %rax
	movzbl	16(%rax), %eax
	.loc 2 986 12
	testb	%al, %al
	jne	.L201
	.loc 2 990 16
	movq	.refptr.number_zero(%rip), %rax
	movq	%rax, -32(%rbp)
	jmp	.L202
.L201:
	.loc 2 997 27
	leaq	-32(%rbp), %rax
	movq	-8(%rbp), %rcx
	movq	%rax, %rdx
	call	Negate_Imp
	movl	%eax, -12(%rbp)
	.loc 2 997 16
	cmpl	$0, -12(%rbp)
	je	.L202
	.loc 2 998 24
	movl	-12(%rbp), %eax
	jmp	.L208
.L200:
	.loc 2 1001 21
	movzbl	-33(%rbp), %eax
	.loc 2 1001 13
	testb	%al, %al
	jle	.L203
	.loc 2 1005 15
	movq	-8(%rbp), %rax
	movzbl	16(%rax), %eax
	.loc 2 1005 12
	testb	%al, %al
	jne	.L204
	.loc 2 1010 27
	movzbl	-33(%rbp), %eax
	movsbl	%al, %eax
	leaq	-32(%rbp), %rcx
	movq	-24(%rbp), %rdx
	movq	%rcx, %r8
	movl	%eax, %ecx
	call	From_L_Imp
	movl	%eax, -12(%rbp)
	.loc 2 1010 16
	cmpl	$0, -12(%rbp)
	je	.L202
	.loc 2 1011 24
	movl	-12(%rbp), %eax
	jmp	.L208
.L204:
	.loc 2 1013 20
	movq	-8(%rbp), %rax
	movzbl	16(%rax), %eax
	.loc 2 1013 17
	testb	%al, %al
	jle	.L205
	.loc 2 1018 27
	movq	-8(%rbp), %rax
	movq	8(%rax), %rax
	leaq	-32(%rbp), %rdx
	movq	-24(%rbp), %rcx
	movq	%rdx, %r9
	movq	%rcx, %r8
	movq	%rax, %rdx
	movl	$-1, %ecx
	call	SubtructU_X_L_Imp
	movl	%eax, -12(%rbp)
	.loc 2 1018 16
	cmpl	$0, -12(%rbp)
	je	.L202
	.loc 2 1019 24
	movl	-12(%rbp), %eax
	jmp	.L208
.L205:
	.loc 2 1026 27
	movq	-8(%rbp), %rax
	movq	8(%rax), %rax
	leaq	-32(%rbp), %rdx
	movq	-24(%rbp), %rcx
	movq	%rdx, %r9
	movq	%rcx, %r8
	movq	%rax, %rdx
	movl	$1, %ecx
	call	AddU_X_L_Imp
	movl	%eax, -12(%rbp)
	.loc 2 1026 16
	cmpl	$0, -12(%rbp)
	je	.L202
	.loc 2 1027 24
	movl	-12(%rbp), %eax
	jmp	.L208
.L203:
	.loc 2 1034 15
	movq	-8(%rbp), %rax
	movzbl	16(%rax), %eax
	.loc 2 1034 12
	testb	%al, %al
	jne	.L206
	.loc 2 1039 27
	movzbl	-33(%rbp), %eax
	movsbl	%al, %eax
	leaq	-32(%rbp), %rcx
	movq	-24(%rbp), %rdx
	movq	%rcx, %r8
	movl	%eax, %ecx
	call	From_L_Imp
	movl	%eax, -12(%rbp)
	.loc 2 1039 16
	cmpl	$0, -12(%rbp)
	je	.L202
	.loc 2 1040 24
	movl	-12(%rbp), %eax
	jmp	.L208
.L206:
	.loc 2 1042 20
	movq	-8(%rbp), %rax
	movzbl	16(%rax), %eax
	.loc 2 1042 17
	testb	%al, %al
	jle	.L207
	.loc 2 1047 27
	movq	-8(%rbp), %rax
	movq	8(%rax), %rax
	leaq	-32(%rbp), %rdx
	movq	-24(%rbp), %rcx
	movq	%rdx, %r9
	movq	%rcx, %r8
	movq	%rax, %rdx
	movl	$-1, %ecx
	call	AddU_X_L_Imp
	movl	%eax, -12(%rbp)
	.loc 2 1047 16
	cmpl	$0, -12(%rbp)
	je	.L202
	.loc 2 1048 24
	movl	-12(%rbp), %eax
	jmp	.L208
.L207:
	.loc 2 1055 27
	movq	-8(%rbp), %rax
	movq	8(%rax), %rax
	leaq	-32(%rbp), %rdx
	movq	-24(%rbp), %rcx
	movq	%rdx, %r9
	movq	%rcx, %r8
	movq	%rax, %rdx
	movl	$1, %ecx
	call	SubtructU_X_L_Imp
	movl	%eax, -12(%rbp)
	.loc 2 1055 16
	cmpl	$0, -12(%rbp)
	je	.L202
	.loc 2 1056 24
	movl	-12(%rbp), %eax
	jmp	.L208
.L202:
	.loc 2 1059 8
	movq	-32(%rbp), %rdx
	movq	32(%rbp), %rax
	movq	%rdx, (%rax)
	.loc 2 1060 12
	movl	$0, %eax
.L208:
	.loc 2 1061 1 discriminator 3
	addq	$80, %rsp
	popq	%rbp
	.cfi_restore 6
	.cfi_def_cfa 7, 8
	ret
	.cfi_endproc
.LFE4379:
	.seh_endproc
	.globl	PMC_Subtruct_UX_X
	.def	PMC_Subtruct_UX_X;	.scl	2;	.type	32;	.endef
	.seh_proc	PMC_Subtruct_UX_X
PMC_Subtruct_UX_X:
.LFB4380:
	.loc 2 1064 1
	.cfi_startproc
	pushq	%rbp
	.seh_pushreg	%rbp
	.cfi_def_cfa_offset 16
	.cfi_offset 6, -16
	movq	%rsp, %rbp
	.seh_setframe	%rbp, 0
	.cfi_def_cfa_register 6
	subq	$80, %rsp
	.seh_stackalloc	80
	.seh_endprologue
	movq	%rcx, 16(%rbp)
	movq	%rdx, 24(%rbp)
	movq	%r8, 32(%rbp)
	.loc 2 1065 8
	cmpq	$0, 16(%rbp)
	jne	.L210
	.loc 2 1066 16
	movl	$-1, %eax
	jmp	.L225
.L210:
	.loc 2 1067 8
	cmpq	$0, 24(%rbp)
	jne	.L212
	.loc 2 1068 16
	movl	$-1, %eax
	jmp	.L225
.L212:
	.loc 2 1069 8
	cmpq	$0, 32(%rbp)
	jne	.L213
	.loc 2 1070 16
	movl	$-1, %eax
	jmp	.L225
.L213:
	.loc 2 1072 20
	movq	24(%rbp), %rax
	movq	%rax, -8(%rbp)
	.loc 2 1074 19
	movq	-8(%rbp), %rax
	movq	%rax, %rcx
	call	CheckNumber
	movl	%eax, -12(%rbp)
	.loc 2 1074 8
	cmpl	$0, -12(%rbp)
	je	.L214
	.loc 2 1075 16
	movl	-12(%rbp), %eax
	jmp	.L225
.L214:
	.loc 2 1077 19
	leaq	-25(%rbp), %rax
	movq	%rax, %rdx
	movq	16(%rbp), %rcx
	call	IS_ZERO_UINT
	movl	%eax, -12(%rbp)
	.loc 2 1077 8
	cmpl	$0, -12(%rbp)
	je	.L215
	.loc 2 1078 16
	movl	-12(%rbp), %eax
	jmp	.L225
.L215:
	.loc 2 1079 9
	movzbl	-25(%rbp), %eax
	.loc 2 1079 8
	testb	%al, %al
	je	.L216
	.loc 2 1083 15
	movq	-8(%rbp), %rax
	movzbl	16(%rax), %eax
	.loc 2 1083 12
	testb	%al, %al
	jne	.L217
	.loc 2 1088 16
	movq	.refptr.number_zero(%rip), %rax
	movq	%rax, -24(%rbp)
	jmp	.L218
.L217:
	.loc 2 1090 20
	movq	-8(%rbp), %rax
	movzbl	16(%rax), %eax
	.loc 2 1090 17
	testb	%al, %al
	jle	.L219
	.loc 2 1095 27
	leaq	-24(%rbp), %rax
	movq	-8(%rbp), %rcx
	movq	%rax, %rdx
	call	Negate_Imp
	movl	%eax, -12(%rbp)
	.loc 2 1095 16
	cmpl	$0, -12(%rbp)
	je	.L218
	.loc 2 1096 24
	movl	-12(%rbp), %eax
	jmp	.L225
.L219:
	.loc 2 1103 27
	leaq	-24(%rbp), %rax
	movq	-8(%rbp), %rcx
	movq	%rax, %rdx
	call	Negate_Imp
	movl	%eax, -12(%rbp)
	.loc 2 1103 16
	cmpl	$0, -12(%rbp)
	je	.L218
	.loc 2 1104 24
	movl	-12(%rbp), %eax
	jmp	.L225
.L216:
	.loc 2 1111 15
	movq	-8(%rbp), %rax
	movzbl	16(%rax), %eax
	.loc 2 1111 12
	testb	%al, %al
	jne	.L220
.LBB10:
	.loc 2 1117 34
	movq	.refptr.ep_uint(%rip), %rax
	movq	88(%rax), %r8
	.loc 2 1117 27
	leaq	-40(%rbp), %rax
	movq	%rax, %rdx
	movq	16(%rbp), %rcx
	call	*%r8
.LVL29:
	movl	%eax, -12(%rbp)
	.loc 2 1117 16
	cmpl	$0, -12(%rbp)
	je	.L221
	.loc 2 1118 24
	movl	-12(%rbp), %eax
	jmp	.L225
.L221:
	.loc 2 1119 27
	movq	-40(%rbp), %rdx
	leaq	-24(%rbp), %rax
	movq	%rdx, %r8
	movl	$1, %edx
	movq	%rax, %rcx
	call	AllocateNumber
	movl	%eax, -12(%rbp)
	.loc 2 1119 16
	cmpl	$0, -12(%rbp)
	je	.L218
	.loc 2 1121 24
	movq	.refptr.ep_uint(%rip), %rax
	movq	32(%rax), %rax
	.loc 2 1121 17
	movq	-40(%rbp), %rdx
	movq	%rdx, %rcx
	call	*%rax
.LVL30:
	.loc 2 1122 24
	movl	-12(%rbp), %eax
	jmp	.L225
.L220:
.LBE10:
	.loc 2 1125 20
	movq	-8(%rbp), %rax
	movzbl	16(%rax), %eax
	.loc 2 1125 17
	testb	%al, %al
	jle	.L224
	.loc 2 1130 27
	movq	-8(%rbp), %rax
	movq	8(%rax), %rdx
	leaq	-24(%rbp), %rax
	movq	%rax, %r9
	movq	%rdx, %r8
	movq	16(%rbp), %rdx
	movl	$1, %ecx
	call	SubtructU_X_X_Imp
	movl	%eax, -12(%rbp)
	.loc 2 1130 16
	cmpl	$0, -12(%rbp)
	je	.L218
	.loc 2 1131 24
	movl	-12(%rbp), %eax
	jmp	.L225
.L224:
	.loc 2 1138 27
	movq	-8(%rbp), %rax
	movq	8(%rax), %rdx
	leaq	-24(%rbp), %rax
	movq	%rax, %r9
	movq	%rdx, %r8
	movq	16(%rbp), %rdx
	movl	$1, %ecx
	call	AddU_X_X_Imp
	movl	%eax, -12(%rbp)
	.loc 2 1138 16
	cmpl	$0, -12(%rbp)
	je	.L218
	.loc 2 1139 24
	movl	-12(%rbp), %eax
	jmp	.L225
.L218:
	.loc 2 1142 8
	movq	-24(%rbp), %rdx
	movq	32(%rbp), %rax
	movq	%rdx, (%rax)
	.loc 2 1143 12
	movl	$0, %eax
.L225:
	.loc 2 1144 1 discriminator 3
	addq	$80, %rsp
	popq	%rbp
	.cfi_restore 6
	.cfi_def_cfa 7, 8
	ret
	.cfi_endproc
.LFE4380:
	.seh_endproc
	.globl	PMC_Subtruct_X_I
	.def	PMC_Subtruct_X_I;	.scl	2;	.type	32;	.endef
	.seh_proc	PMC_Subtruct_X_I
PMC_Subtruct_X_I:
.LFB4381:
	.loc 2 1147 1
	.cfi_startproc
	pushq	%rbp
	.seh_pushreg	%rbp
	.cfi_def_cfa_offset 16
	.cfi_offset 6, -16
	movq	%rsp, %rbp
	.seh_setframe	%rbp, 0
	.cfi_def_cfa_register 6
	subq	$64, %rsp
	.seh_stackalloc	64
	.seh_endprologue
	movq	%rcx, 16(%rbp)
	movl	%edx, 24(%rbp)
	movq	%r8, 32(%rbp)
	.loc 2 1148 8
	cmpq	$0, 16(%rbp)
	jne	.L227
	.loc 2 1149 16
	movl	$-1, %eax
	jmp	.L240
.L227:
	.loc 2 1150 8
	cmpq	$0, 32(%rbp)
	jne	.L229
	.loc 2 1151 16
	movl	$-1, %eax
	jmp	.L240
.L229:
	.loc 2 1153 20
	movq	16(%rbp), %rax
	movq	%rax, -8(%rbp)
	.loc 2 1155 19
	movq	-8(%rbp), %rax
	movq	%rax, %rcx
	call	CheckNumber
	movl	%eax, -12(%rbp)
	.loc 2 1155 8
	cmpl	$0, -12(%rbp)
	je	.L230
	.loc 2 1156 16
	movl	-12(%rbp), %eax
	jmp	.L240
.L230:
	.loc 2 1158 23
	leaq	-25(%rbp), %rax
	movl	24(%rbp), %ecx
	movq	%rax, %rdx
	call	GET_ABS_32
	movl	%eax, -16(%rbp)
	.loc 2 1159 11
	movq	-8(%rbp), %rax
	movzbl	16(%rax), %eax
	.loc 2 1159 8
	testb	%al, %al
	jne	.L231
	.loc 2 1163 20
	movzbl	-25(%rbp), %eax
	.loc 2 1163 12
	testb	%al, %al
	jne	.L232
	.loc 2 1167 16
	movq	.refptr.number_zero(%rip), %rax
	movq	%rax, -24(%rbp)
	jmp	.L233
.L232:
	.loc 2 1169 25
	movzbl	-25(%rbp), %eax
	.loc 2 1169 17
	testb	%al, %al
	jle	.L234
	.loc 2 1174 27
	movzbl	-25(%rbp), %eax
	negl	%eax
	movsbl	%al, %eax
	leaq	-24(%rbp), %rcx
	movl	-16(%rbp), %edx
	movq	%rcx, %r8
	movl	%eax, %ecx
	call	From_I_Imp
	movl	%eax, -12(%rbp)
	.loc 2 1174 16
	cmpl	$0, -12(%rbp)
	je	.L233
	.loc 2 1175 24
	movl	-12(%rbp), %eax
	jmp	.L240
.L234:
	.loc 2 1182 27
	movzbl	-25(%rbp), %eax
	negl	%eax
	movsbl	%al, %eax
	leaq	-24(%rbp), %rcx
	movl	-16(%rbp), %edx
	movq	%rcx, %r8
	movl	%eax, %ecx
	call	From_I_Imp
	movl	%eax, -12(%rbp)
	.loc 2 1182 16
	cmpl	$0, -12(%rbp)
	je	.L233
	.loc 2 1183 24
	movl	-12(%rbp), %eax
	jmp	.L240
.L231:
	.loc 2 1186 16
	movq	-8(%rbp), %rax
	movzbl	16(%rax), %eax
	.loc 2 1186 13
	testb	%al, %al
	jle	.L235
	.loc 2 1190 20
	movzbl	-25(%rbp), %eax
	.loc 2 1190 12
	testb	%al, %al
	jne	.L236
	.loc 2 1195 27
	leaq	-24(%rbp), %rax
	movq	-8(%rbp), %rcx
	movq	%rax, %rdx
	call	DuplicateNumber
	movl	%eax, -12(%rbp)
	.loc 2 1195 16
	cmpl	$0, -12(%rbp)
	je	.L233
	.loc 2 1196 24
	movl	-12(%rbp), %eax
	jmp	.L240
.L236:
	.loc 2 1198 25
	movzbl	-25(%rbp), %eax
	.loc 2 1198 17
	testb	%al, %al
	jle	.L237
	.loc 2 1203 27
	movq	-8(%rbp), %rax
	movq	8(%rax), %rax
	leaq	-24(%rbp), %rdx
	movl	-16(%rbp), %ecx
	movq	%rdx, %r9
	movl	%ecx, %r8d
	movq	%rax, %rdx
	movl	$1, %ecx
	call	SubtructU_X_I_Imp
	movl	%eax, -12(%rbp)
	.loc 2 1203 16
	cmpl	$0, -12(%rbp)
	je	.L233
	.loc 2 1204 24
	movl	-12(%rbp), %eax
	jmp	.L240
.L237:
	.loc 2 1211 27
	movq	-8(%rbp), %rax
	movq	8(%rax), %rax
	leaq	-24(%rbp), %rdx
	movl	-16(%rbp), %ecx
	movq	%rdx, %r9
	movl	%ecx, %r8d
	movq	%rax, %rdx
	movl	$1, %ecx
	call	AddU_X_I_Imp
	movl	%eax, -12(%rbp)
	.loc 2 1211 16
	cmpl	$0, -12(%rbp)
	je	.L233
	.loc 2 1212 24
	movl	-12(%rbp), %eax
	jmp	.L240
.L235:
	.loc 2 1219 20
	movzbl	-25(%rbp), %eax
	.loc 2 1219 12
	testb	%al, %al
	jne	.L238
	.loc 2 1224 27
	leaq	-24(%rbp), %rax
	movq	-8(%rbp), %rcx
	movq	%rax, %rdx
	call	DuplicateNumber
	movl	%eax, -12(%rbp)
	.loc 2 1224 16
	cmpl	$0, -12(%rbp)
	je	.L233
	.loc 2 1225 24
	movl	-12(%rbp), %eax
	jmp	.L240
.L238:
	.loc 2 1227 25
	movzbl	-25(%rbp), %eax
	.loc 2 1227 17
	testb	%al, %al
	jle	.L239
	.loc 2 1232 27
	movq	-8(%rbp), %rax
	movq	8(%rax), %rax
	leaq	-24(%rbp), %rdx
	movl	-16(%rbp), %ecx
	movq	%rdx, %r9
	movl	%ecx, %r8d
	movq	%rax, %rdx
	movl	$-1, %ecx
	call	AddU_X_I_Imp
	movl	%eax, -12(%rbp)
	.loc 2 1232 16
	cmpl	$0, -12(%rbp)
	je	.L233
	.loc 2 1233 24
	movl	-12(%rbp), %eax
	jmp	.L240
.L239:
	.loc 2 1240 27
	movq	-8(%rbp), %rax
	movq	8(%rax), %rax
	leaq	-24(%rbp), %rdx
	movl	-16(%rbp), %ecx
	movq	%rdx, %r9
	movl	%ecx, %r8d
	movq	%rax, %rdx
	movl	$-1, %ecx
	call	SubtructU_X_I_Imp
	movl	%eax, -12(%rbp)
	.loc 2 1240 16
	cmpl	$0, -12(%rbp)
	je	.L233
	.loc 2 1241 24
	movl	-12(%rbp), %eax
	jmp	.L240
.L233:
	.loc 2 1244 8
	movq	-24(%rbp), %rdx
	movq	32(%rbp), %rax
	movq	%rdx, (%rax)
	.loc 2 1245 12
	movl	$0, %eax
.L240:
	.loc 2 1246 1 discriminator 4
	addq	$64, %rsp
	popq	%rbp
	.cfi_restore 6
	.cfi_def_cfa 7, 8
	ret
	.cfi_endproc
.LFE4381:
	.seh_endproc
	.globl	PMC_Subtruct_X_L
	.def	PMC_Subtruct_X_L;	.scl	2;	.type	32;	.endef
	.seh_proc	PMC_Subtruct_X_L
PMC_Subtruct_X_L:
.LFB4382:
	.loc 2 1249 1
	.cfi_startproc
	pushq	%rbp
	.seh_pushreg	%rbp
	.cfi_def_cfa_offset 16
	.cfi_offset 6, -16
	movq	%rsp, %rbp
	.seh_setframe	%rbp, 0
	.cfi_def_cfa_register 6
	subq	$80, %rsp
	.seh_stackalloc	80
	.seh_endprologue
	movq	%rcx, 16(%rbp)
	movq	%rdx, 24(%rbp)
	movq	%r8, 32(%rbp)
	.loc 2 1250 8
	cmpq	$0, 16(%rbp)
	jne	.L242
	.loc 2 1251 16
	movl	$-1, %eax
	jmp	.L255
.L242:
	.loc 2 1252 8
	cmpq	$0, 32(%rbp)
	jne	.L244
	.loc 2 1253 16
	movl	$-1, %eax
	jmp	.L255
.L244:
	.loc 2 1255 20
	movq	16(%rbp), %rax
	movq	%rax, -8(%rbp)
	.loc 2 1257 19
	movq	-8(%rbp), %rax
	movq	%rax, %rcx
	call	CheckNumber
	movl	%eax, -12(%rbp)
	.loc 2 1257 8
	cmpl	$0, -12(%rbp)
	je	.L245
	.loc 2 1258 16
	movl	-12(%rbp), %eax
	jmp	.L255
.L245:
	.loc 2 1260 23
	leaq	-33(%rbp), %rax
	movq	24(%rbp), %rcx
	movq	%rax, %rdx
	call	GET_ABS_64
	movq	%rax, -24(%rbp)
	.loc 2 1261 11
	movq	-8(%rbp), %rax
	movzbl	16(%rax), %eax
	.loc 2 1261 8
	testb	%al, %al
	jne	.L246
	.loc 2 1265 20
	movzbl	-33(%rbp), %eax
	.loc 2 1265 12
	testb	%al, %al
	jne	.L247
	.loc 2 1269 16
	movq	.refptr.number_zero(%rip), %rax
	movq	%rax, -32(%rbp)
	jmp	.L248
.L247:
	.loc 2 1271 25
	movzbl	-33(%rbp), %eax
	.loc 2 1271 17
	testb	%al, %al
	jle	.L249
	.loc 2 1276 27
	movzbl	-33(%rbp), %eax
	negl	%eax
	movsbl	%al, %eax
	leaq	-32(%rbp), %rcx
	movq	-24(%rbp), %rdx
	movq	%rcx, %r8
	movl	%eax, %ecx
	call	From_L_Imp
	movl	%eax, -12(%rbp)
	.loc 2 1276 16
	cmpl	$0, -12(%rbp)
	je	.L248
	.loc 2 1277 24
	movl	-12(%rbp), %eax
	jmp	.L255
.L249:
	.loc 2 1284 27
	movzbl	-33(%rbp), %eax
	negl	%eax
	movsbl	%al, %eax
	leaq	-32(%rbp), %rcx
	movq	-24(%rbp), %rdx
	movq	%rcx, %r8
	movl	%eax, %ecx
	call	From_L_Imp
	movl	%eax, -12(%rbp)
	.loc 2 1284 16
	cmpl	$0, -12(%rbp)
	je	.L248
	.loc 2 1285 24
	movl	-12(%rbp), %eax
	jmp	.L255
.L246:
	.loc 2 1288 16
	movq	-8(%rbp), %rax
	movzbl	16(%rax), %eax
	.loc 2 1288 13
	testb	%al, %al
	jle	.L250
	.loc 2 1292 20
	movzbl	-33(%rbp), %eax
	.loc 2 1292 12
	testb	%al, %al
	jne	.L251
	.loc 2 1297 27
	leaq	-32(%rbp), %rax
	movq	-8(%rbp), %rcx
	movq	%rax, %rdx
	call	DuplicateNumber
	movl	%eax, -12(%rbp)
	.loc 2 1297 16
	cmpl	$0, -12(%rbp)
	je	.L248
	.loc 2 1298 24
	movl	-12(%rbp), %eax
	jmp	.L255
.L251:
	.loc 2 1300 25
	movzbl	-33(%rbp), %eax
	.loc 2 1300 17
	testb	%al, %al
	jle	.L252
	.loc 2 1305 27
	movq	-8(%rbp), %rax
	movq	8(%rax), %rax
	leaq	-32(%rbp), %rdx
	movq	-24(%rbp), %rcx
	movq	%rdx, %r9
	movq	%rcx, %r8
	movq	%rax, %rdx
	movl	$1, %ecx
	call	SubtructU_X_L_Imp
	movl	%eax, -12(%rbp)
	.loc 2 1305 16
	cmpl	$0, -12(%rbp)
	je	.L248
	.loc 2 1306 24
	movl	-12(%rbp), %eax
	jmp	.L255
.L252:
	.loc 2 1313 27
	movq	-8(%rbp), %rax
	movq	8(%rax), %rax
	leaq	-32(%rbp), %rdx
	movq	-24(%rbp), %rcx
	movq	%rdx, %r9
	movq	%rcx, %r8
	movq	%rax, %rdx
	movl	$1, %ecx
	call	AddU_X_L_Imp
	movl	%eax, -12(%rbp)
	.loc 2 1313 16
	cmpl	$0, -12(%rbp)
	je	.L248
	.loc 2 1314 24
	movl	-12(%rbp), %eax
	jmp	.L255
.L250:
	.loc 2 1321 20
	movzbl	-33(%rbp), %eax
	.loc 2 1321 12
	testb	%al, %al
	jne	.L253
	.loc 2 1326 27
	leaq	-32(%rbp), %rax
	movq	-8(%rbp), %rcx
	movq	%rax, %rdx
	call	DuplicateNumber
	movl	%eax, -12(%rbp)
	.loc 2 1326 16
	cmpl	$0, -12(%rbp)
	je	.L248
	.loc 2 1327 24
	movl	-12(%rbp), %eax
	jmp	.L255
.L253:
	.loc 2 1329 25
	movzbl	-33(%rbp), %eax
	.loc 2 1329 17
	testb	%al, %al
	jle	.L254
	.loc 2 1334 27
	movq	-8(%rbp), %rax
	movq	8(%rax), %rax
	leaq	-32(%rbp), %rdx
	movq	-24(%rbp), %rcx
	movq	%rdx, %r9
	movq	%rcx, %r8
	movq	%rax, %rdx
	movl	$-1, %ecx
	call	AddU_X_L_Imp
	movl	%eax, -12(%rbp)
	.loc 2 1334 16
	cmpl	$0, -12(%rbp)
	je	.L248
	.loc 2 1335 24
	movl	-12(%rbp), %eax
	jmp	.L255
.L254:
	.loc 2 1342 27
	movq	-8(%rbp), %rax
	movq	8(%rax), %rax
	leaq	-32(%rbp), %rdx
	movq	-24(%rbp), %rcx
	movq	%rdx, %r9
	movq	%rcx, %r8
	movq	%rax, %rdx
	movl	$-1, %ecx
	call	SubtructU_X_L_Imp
	movl	%eax, -12(%rbp)
	.loc 2 1342 16
	cmpl	$0, -12(%rbp)
	je	.L248
	.loc 2 1343 24
	movl	-12(%rbp), %eax
	jmp	.L255
.L248:
	.loc 2 1346 8
	movq	-32(%rbp), %rdx
	movq	32(%rbp), %rax
	movq	%rdx, (%rax)
	.loc 2 1347 12
	movl	$0, %eax
.L255:
	.loc 2 1348 1 discriminator 4
	addq	$80, %rsp
	popq	%rbp
	.cfi_restore 6
	.cfi_def_cfa 7, 8
	ret
	.cfi_endproc
.LFE4382:
	.seh_endproc
	.globl	PMC_Subtruct_X_UX
	.def	PMC_Subtruct_X_UX;	.scl	2;	.type	32;	.endef
	.seh_proc	PMC_Subtruct_X_UX
PMC_Subtruct_X_UX:
.LFB4383:
	.loc 2 1351 1
	.cfi_startproc
	pushq	%rbp
	.seh_pushreg	%rbp
	.cfi_def_cfa_offset 16
	.cfi_offset 6, -16
	movq	%rsp, %rbp
	.seh_setframe	%rbp, 0
	.cfi_def_cfa_register 6
	subq	$80, %rsp
	.seh_stackalloc	80
	.seh_endprologue
	movq	%rcx, 16(%rbp)
	movq	%rdx, 24(%rbp)
	movq	%r8, 32(%rbp)
	.loc 2 1352 8
	cmpq	$0, 16(%rbp)
	jne	.L257
	.loc 2 1353 16
	movl	$-1, %eax
	jmp	.L273
.L257:
	.loc 2 1354 8
	cmpq	$0, 24(%rbp)
	jne	.L259
	.loc 2 1355 16
	movl	$-1, %eax
	jmp	.L273
.L259:
	.loc 2 1356 8
	cmpq	$0, 32(%rbp)
	jne	.L260
	.loc 2 1357 16
	movl	$-1, %eax
	jmp	.L273
.L260:
	.loc 2 1359 20
	movq	16(%rbp), %rax
	movq	%rax, -8(%rbp)
	.loc 2 1361 19
	movq	-8(%rbp), %rax
	movq	%rax, %rcx
	call	CheckNumber
	movl	%eax, -12(%rbp)
	.loc 2 1361 8
	cmpl	$0, -12(%rbp)
	je	.L261
	.loc 2 1362 16
	movl	-12(%rbp), %eax
	jmp	.L273
.L261:
	.loc 2 1364 19
	leaq	-25(%rbp), %rax
	movq	24(%rbp), %rcx
	movq	%rax, %rdx
	call	IS_ZERO_UINT
	movl	%eax, -12(%rbp)
	.loc 2 1364 8
	cmpl	$0, -12(%rbp)
	je	.L262
	.loc 2 1365 16
	movl	-12(%rbp), %eax
	jmp	.L273
.L262:
	.loc 2 1366 11
	movq	-8(%rbp), %rax
	movzbl	16(%rax), %eax
	.loc 2 1366 8
	testb	%al, %al
	jne	.L263
	.loc 2 1370 13
	movzbl	-25(%rbp), %eax
	.loc 2 1370 12
	testb	%al, %al
	je	.L264
	.loc 2 1375 16
	movq	.refptr.number_zero(%rip), %rax
	movq	%rax, -24(%rbp)
	jmp	.L269
.L264:
.LBB11:
	.loc 2 1383 34
	movq	.refptr.ep_uint(%rip), %rax
	movq	88(%rax), %r8
	.loc 2 1383 27
	leaq	-40(%rbp), %rax
	movq	24(%rbp), %rcx
	movq	%rax, %rdx
	call	*%r8
.LVL31:
	movl	%eax, -12(%rbp)
	.loc 2 1383 16
	cmpl	$0, -12(%rbp)
	je	.L266
	.loc 2 1384 24
	movl	-12(%rbp), %eax
	jmp	.L273
.L266:
	.loc 2 1385 27
	movq	-40(%rbp), %rdx
	leaq	-24(%rbp), %rax
	movq	%rdx, %r8
	movl	$-1, %edx
	movq	%rax, %rcx
	call	AllocateNumber
	movl	%eax, -12(%rbp)
	.loc 2 1385 16
	cmpl	$0, -12(%rbp)
	je	.L269
	.loc 2 1387 24
	movq	.refptr.ep_uint(%rip), %rax
	movq	32(%rax), %rax
	.loc 2 1387 17
	movq	-40(%rbp), %rdx
	movq	%rdx, %rcx
	call	*%rax
.LVL32:
	.loc 2 1388 24
	movl	-12(%rbp), %eax
	jmp	.L273
.L263:
.LBE11:
	.loc 2 1393 16
	movq	-8(%rbp), %rax
	movzbl	16(%rax), %eax
	.loc 2 1393 13
	testb	%al, %al
	jle	.L270
	.loc 2 1397 13
	movzbl	-25(%rbp), %eax
	.loc 2 1397 12
	testb	%al, %al
	je	.L271
	.loc 2 1402 27
	leaq	-24(%rbp), %rax
	movq	-8(%rbp), %rcx
	movq	%rax, %rdx
	call	DuplicateNumber
	movl	%eax, -12(%rbp)
	.loc 2 1402 16
	cmpl	$0, -12(%rbp)
	je	.L269
	.loc 2 1403 24
	movl	-12(%rbp), %eax
	jmp	.L273
.L271:
	.loc 2 1410 27
	movq	-8(%rbp), %rax
	movq	8(%rax), %rax
	leaq	-24(%rbp), %rdx
	movq	24(%rbp), %rcx
	movq	%rdx, %r9
	movq	%rcx, %r8
	movq	%rax, %rdx
	movl	$1, %ecx
	call	SubtructU_X_X_Imp
	movl	%eax, -12(%rbp)
	.loc 2 1410 16
	cmpl	$0, -12(%rbp)
	je	.L269
	.loc 2 1411 24
	movl	-12(%rbp), %eax
	jmp	.L273
.L270:
	.loc 2 1419 13
	movzbl	-25(%rbp), %eax
	.loc 2 1419 12
	testb	%al, %al
	je	.L272
	.loc 2 1424 27
	leaq	-24(%rbp), %rax
	movq	-8(%rbp), %rcx
	movq	%rax, %rdx
	call	DuplicateNumber
	movl	%eax, -12(%rbp)
	.loc 2 1424 16
	cmpl	$0, -12(%rbp)
	je	.L269
	.loc 2 1425 24
	movl	-12(%rbp), %eax
	jmp	.L273
.L272:
	.loc 2 1432 27
	movq	-8(%rbp), %rax
	movq	8(%rax), %rax
	leaq	-24(%rbp), %rdx
	movq	24(%rbp), %rcx
	movq	%rdx, %r9
	movq	%rcx, %r8
	movq	%rax, %rdx
	movl	$-1, %ecx
	call	AddU_X_X_Imp
	movl	%eax, -12(%rbp)
	.loc 2 1432 16
	cmpl	$0, -12(%rbp)
	je	.L269
	.loc 2 1433 24
	movl	-12(%rbp), %eax
	jmp	.L273
.L269:
	.loc 2 1436 8
	movq	-24(%rbp), %rdx
	movq	32(%rbp), %rax
	movq	%rdx, (%rax)
	.loc 2 1437 12
	movl	$0, %eax
.L273:
	.loc 2 1438 1 discriminator 3
	addq	$80, %rsp
	popq	%rbp
	.cfi_restore 6
	.cfi_def_cfa 7, 8
	ret
	.cfi_endproc
.LFE4383:
	.seh_endproc
	.globl	PMC_Subtruct_X_X
	.def	PMC_Subtruct_X_X;	.scl	2;	.type	32;	.endef
	.seh_proc	PMC_Subtruct_X_X
PMC_Subtruct_X_X:
.LFB4384:
	.loc 2 1441 1
	.cfi_startproc
	pushq	%rbp
	.seh_pushreg	%rbp
	.cfi_def_cfa_offset 16
	.cfi_offset 6, -16
	movq	%rsp, %rbp
	.seh_setframe	%rbp, 0
	.cfi_def_cfa_register 6
	subq	$64, %rsp
	.seh_stackalloc	64
	.seh_endprologue
	movq	%rcx, 16(%rbp)
	movq	%rdx, 24(%rbp)
	movq	%r8, 32(%rbp)
	.loc 2 1442 8
	cmpq	$0, 16(%rbp)
	jne	.L275
	.loc 2 1443 16
	movl	$-1, %eax
	jmp	.L289
.L275:
	.loc 2 1444 8
	cmpq	$0, 24(%rbp)
	jne	.L277
	.loc 2 1445 16
	movl	$-1, %eax
	jmp	.L289
.L277:
	.loc 2 1446 8
	cmpq	$0, 32(%rbp)
	jne	.L278
	.loc 2 1447 16
	movl	$-1, %eax
	jmp	.L289
.L278:
	.loc 2 1449 20
	movq	16(%rbp), %rax
	movq	%rax, -8(%rbp)
	.loc 2 1450 20
	movq	24(%rbp), %rax
	movq	%rax, -16(%rbp)
	.loc 2 1452 19
	movq	-8(%rbp), %rax
	movq	%rax, %rcx
	call	CheckNumber
	movl	%eax, -20(%rbp)
	.loc 2 1452 8
	cmpl	$0, -20(%rbp)
	je	.L279
	.loc 2 1453 16
	movl	-20(%rbp), %eax
	jmp	.L289
.L279:
	.loc 2 1454 19
	movq	-16(%rbp), %rax
	movq	%rax, %rcx
	call	CheckNumber
	movl	%eax, -20(%rbp)
	.loc 2 1454 8
	cmpl	$0, -20(%rbp)
	je	.L280
	.loc 2 1455 16
	movl	-20(%rbp), %eax
	jmp	.L289
.L280:
	.loc 2 1456 11
	movq	-8(%rbp), %rax
	movzbl	16(%rax), %eax
	.loc 2 1456 8
	testb	%al, %al
	jne	.L281
	.loc 2 1460 15
	movq	-16(%rbp), %rax
	movzbl	16(%rax), %eax
	.loc 2 1460 12
	testb	%al, %al
	jne	.L282
	.loc 2 1464 16
	movq	.refptr.number_zero(%rip), %rax
	movq	%rax, -32(%rbp)
	jmp	.L283
.L282:
	.loc 2 1471 27
	leaq	-32(%rbp), %rax
	movq	-16(%rbp), %rcx
	movq	%rax, %rdx
	call	Negate_Imp
	movl	%eax, -20(%rbp)
	.loc 2 1471 16
	cmpl	$0, -20(%rbp)
	je	.L283
	.loc 2 1472 24
	movl	-20(%rbp), %eax
	jmp	.L289
.L281:
	.loc 2 1475 16
	movq	-8(%rbp), %rax
	movzbl	16(%rax), %eax
	.loc 2 1475 13
	testb	%al, %al
	jle	.L284
	.loc 2 1479 15
	movq	-16(%rbp), %rax
	movzbl	16(%rax), %eax
	.loc 2 1479 12
	testb	%al, %al
	jne	.L285
	.loc 2 1484 27
	leaq	-32(%rbp), %rax
	movq	-8(%rbp), %rcx
	movq	%rax, %rdx
	call	DuplicateNumber
	movl	%eax, -20(%rbp)
	.loc 2 1484 16
	cmpl	$0, -20(%rbp)
	je	.L283
	.loc 2 1485 24
	movl	-20(%rbp), %eax
	jmp	.L289
.L285:
	.loc 2 1487 20
	movq	-16(%rbp), %rax
	movzbl	16(%rax), %eax
	.loc 2 1487 17
	testb	%al, %al
	jle	.L286
	.loc 2 1492 27
	movq	-16(%rbp), %rax
	movq	8(%rax), %rcx
	movq	-8(%rbp), %rax
	movq	8(%rax), %rax
	leaq	-32(%rbp), %rdx
	movq	%rdx, %r9
	movq	%rcx, %r8
	movq	%rax, %rdx
	movl	$1, %ecx
	call	SubtructU_X_X_Imp
	movl	%eax, -20(%rbp)
	.loc 2 1492 16
	cmpl	$0, -20(%rbp)
	je	.L283
	.loc 2 1493 24
	movl	-20(%rbp), %eax
	jmp	.L289
.L286:
	.loc 2 1500 27
	movq	-16(%rbp), %rax
	movq	8(%rax), %rcx
	movq	-8(%rbp), %rax
	movq	8(%rax), %rax
	leaq	-32(%rbp), %rdx
	movq	%rdx, %r9
	movq	%rcx, %r8
	movq	%rax, %rdx
	movl	$1, %ecx
	call	AddU_X_X_Imp
	movl	%eax, -20(%rbp)
	.loc 2 1500 16
	cmpl	$0, -20(%rbp)
	je	.L283
	.loc 2 1501 24
	movl	-20(%rbp), %eax
	jmp	.L289
.L284:
	.loc 2 1508 15
	movq	-16(%rbp), %rax
	movzbl	16(%rax), %eax
	.loc 2 1508 12
	testb	%al, %al
	jne	.L287
	.loc 2 1513 27
	leaq	-32(%rbp), %rax
	movq	-8(%rbp), %rcx
	movq	%rax, %rdx
	call	DuplicateNumber
	movl	%eax, -20(%rbp)
	.loc 2 1513 16
	cmpl	$0, -20(%rbp)
	je	.L283
	.loc 2 1514 24
	movl	-20(%rbp), %eax
	jmp	.L289
.L287:
	.loc 2 1516 20
	movq	-16(%rbp), %rax
	movzbl	16(%rax), %eax
	.loc 2 1516 17
	testb	%al, %al
	jle	.L288
	.loc 2 1521 27
	movq	-16(%rbp), %rax
	movq	8(%rax), %rcx
	movq	-8(%rbp), %rax
	movq	8(%rax), %rax
	leaq	-32(%rbp), %rdx
	movq	%rdx, %r9
	movq	%rcx, %r8
	movq	%rax, %rdx
	movl	$-1, %ecx
	call	AddU_X_X_Imp
	movl	%eax, -20(%rbp)
	.loc 2 1521 16
	cmpl	$0, -20(%rbp)
	je	.L283
	.loc 2 1522 24
	movl	-20(%rbp), %eax
	jmp	.L289
.L288:
	.loc 2 1529 27
	movq	-16(%rbp), %rax
	movq	8(%rax), %rcx
	movq	-8(%rbp), %rax
	movq	8(%rax), %rax
	leaq	-32(%rbp), %rdx
	movq	%rdx, %r9
	movq	%rcx, %r8
	movq	%rax, %rdx
	movl	$-1, %ecx
	call	SubtructU_X_X_Imp
	movl	%eax, -20(%rbp)
	.loc 2 1529 16
	cmpl	$0, -20(%rbp)
	je	.L283
	.loc 2 1530 24
	movl	-20(%rbp), %eax
	jmp	.L289
.L283:
	.loc 2 1533 8
	movq	-32(%rbp), %rdx
	movq	32(%rbp), %rax
	movq	%rdx, (%rax)
	.loc 2 1534 12
	movl	$0, %eax
.L289:
	.loc 2 1535 1 discriminator 3
	addq	$64, %rsp
	popq	%rbp
	.cfi_restore 6
	.cfi_def_cfa 7, 8
	ret
	.cfi_endproc
.LFE4384:
	.seh_endproc
.Letext0:
	.file 3 "C:/GNU/MINGW64/x86_64-8.1.0-win32-seh-rt_v6-rev0/mingw64/x86_64-w64-mingw32/include/crtdefs.h"
	.file 4 "C:/GNU/MINGW64/x86_64-8.1.0-win32-seh-rt_v6-rev0/mingw64/x86_64-w64-mingw32/include/excpt.h"
	.file 5 "C:/GNU/MINGW64/x86_64-8.1.0-win32-seh-rt_v6-rev0/mingw64/x86_64-w64-mingw32/include/minwindef.h"
	.file 6 "C:/GNU/MINGW64/x86_64-8.1.0-win32-seh-rt_v6-rev0/mingw64/x86_64-w64-mingw32/include/ctype.h"
	.file 7 "C:/GNU/MINGW64/x86_64-8.1.0-win32-seh-rt_v6-rev0/mingw64/x86_64-w64-mingw32/include/guiddef.h"
	.file 8 "C:/GNU/MINGW64/x86_64-8.1.0-win32-seh-rt_v6-rev0/mingw64/x86_64-w64-mingw32/include/stdlib.h"
	.file 9 "C:/GNU/MINGW64/x86_64-8.1.0-win32-seh-rt_v6-rev0/mingw64/x86_64-w64-mingw32/include/malloc.h"
	.file 10 "C:/GNU/MINGW64/x86_64-8.1.0-win32-seh-rt_v6-rev0/mingw64/x86_64-w64-mingw32/include/winnt.h"
	.file 11 "C:/GNU/MINGW64/x86_64-8.1.0-win32-seh-rt_v6-rev0/mingw64/x86_64-w64-mingw32/include/rpcdce.h"
	.file 12 "C:/GNU/MINGW64/x86_64-8.1.0-win32-seh-rt_v6-rev0/mingw64/x86_64-w64-mingw32/include/wtypesbase.h"
	.file 13 "C:/GNU/MINGW64/x86_64-8.1.0-win32-seh-rt_v6-rev0/mingw64/x86_64-w64-mingw32/include/unknwnbase.h"
	.file 14 "C:/GNU/MINGW64/x86_64-8.1.0-win32-seh-rt_v6-rev0/mingw64/x86_64-w64-mingw32/include/objidlbase.h"
	.file 15 "C:/GNU/MINGW64/x86_64-8.1.0-win32-seh-rt_v6-rev0/mingw64/x86_64-w64-mingw32/include/cguid.h"
	.file 16 "C:/GNU/MINGW64/x86_64-8.1.0-win32-seh-rt_v6-rev0/mingw64/x86_64-w64-mingw32/include/wtypes.h"
	.file 17 "C:/GNU/MINGW64/x86_64-8.1.0-win32-seh-rt_v6-rev0/mingw64/x86_64-w64-mingw32/include/objidl.h"
	.file 18 "C:/GNU/MINGW64/x86_64-8.1.0-win32-seh-rt_v6-rev0/mingw64/x86_64-w64-mingw32/include/oleidl.h"
	.file 19 "C:/GNU/MINGW64/x86_64-8.1.0-win32-seh-rt_v6-rev0/mingw64/x86_64-w64-mingw32/include/servprov.h"
	.file 20 "C:/GNU/MINGW64/x86_64-8.1.0-win32-seh-rt_v6-rev0/mingw64/x86_64-w64-mingw32/include/oaidl.h"
	.file 21 "C:/GNU/MINGW64/x86_64-8.1.0-win32-seh-rt_v6-rev0/mingw64/x86_64-w64-mingw32/include/msxml.h"
	.file 22 "C:/GNU/MINGW64/x86_64-8.1.0-win32-seh-rt_v6-rev0/mingw64/x86_64-w64-mingw32/include/urlmon.h"
	.file 23 "C:/GNU/MINGW64/x86_64-8.1.0-win32-seh-rt_v6-rev0/mingw64/x86_64-w64-mingw32/include/propidl.h"
	.file 24 "C:/GNU/MINGW64/x86_64-8.1.0-win32-seh-rt_v6-rev0/mingw64/x86_64-w64-mingw32/include/oleauto.h"
	.file 25 "C:/GNU/MINGW64/x86_64-8.1.0-win32-seh-rt_v6-rev0/mingw64/x86_64-w64-mingw32/include/winioctl.h"
	.file 26 "C:/GNU/MINGW64/x86_64-8.1.0-win32-seh-rt_v6-rev0/mingw64/x86_64-w64-mingw32/include/winsmcrd.h"
	.file 27 "C:/GNU/MINGW64/x86_64-8.1.0-win32-seh-rt_v6-rev0/mingw64/x86_64-w64-mingw32/include/winscard.h"
	.file 28 "C:/GNU/MINGW64/x86_64-8.1.0-win32-seh-rt_v6-rev0/mingw64/x86_64-w64-mingw32/include/commdlg.h"
	.file 29 "C:/GNU/MINGW64/x86_64-8.1.0-win32-seh-rt_v6-rev0/mingw64/x86_64-w64-mingw32/include/stdint.h"
	.file 30 "Z:/Sources/Lunor/Repos/rougemeilland/Palmtree.Math.Core.Uint/Palmtree.Math.Core.Uint/pmc.h"
	.file 31 "../pmc_sint_internal.h"
	.section	.rdata$.refptr.number_zero, "dr"
	.globl	.refptr.number_zero
	.linkonce	discard
.refptr.number_zero:
	.quad	number_zero
	.section	.rdata$.refptr.ep_uint, "dr"
	.globl	.refptr.ep_uint
	.linkonce	discard
.refptr.ep_uint:
	.quad	ep_uint
