 Palmtree.Math.Core.Sint

 Timestamp is 5c5f6f95 (Sun Feb 10 09:25:57 2019)

 Preferred load address is 0000000180000000

 Start         Length     Name                   Class
 0001:00000000 00004900H .text$mn                CODE
 0001:00004900 00000012H .text$mn$00             CODE
 0002:00000000 00000080H .idata$5                DATA
 0002:00000080 00000010H .00cfg                  DATA
 0002:00000090 00000000H .gfids$y                DATA
 0002:00000090 000001c0H .rdata                  DATA
 0002:00000250 000001e0H .rdata$zzzdbg           DATA
 0002:00000430 00000650H .xdata                  DATA
 0002:00000a80 00000074H .edata                  DATA
 0002:00000af4 00000014H .idata$2                DATA
 0002:00000b08 00000018H .idata$3                DATA
 0002:00000b20 00000080H .idata$4                DATA
 0002:00000ba0 00000132H .idata$6                DATA
 0003:00000000 00000020H .data                   DATA
 0003:00000020 00000c60H .bss                    DATA
 0004:00000000 00000810H .pdata                  DATA
 0005:00000000 000000a0H .rsrc$01                DATA
 0005:000000a0 000004a0H .rsrc$02                DATA

  Address         Publics by Value              Rva+Base               Lib:Object

 0000:00000000       __dynamic_value_reloc_table 0000000000000000     <absolute>
 0000:00000000       __guard_longjmp_count      0000000000000000     <absolute>
 0000:00000000       ___safe_se_handler_count   0000000000000000     <absolute>
 0000:00000000       __guard_fids_count         0000000000000000     <absolute>
 0000:00000000       __hybrid_auxiliary_iat     0000000000000000     <absolute>
 0000:00000000       __guard_fids_table         0000000000000000     <absolute>
 0000:00000000       __hybrid_code_map_count    0000000000000000     <absolute>
 0000:00000000       __guard_longjmp_table      0000000000000000     <absolute>
 0000:00000000       __enclave_config           0000000000000000     <absolute>
 0000:00000000       ___safe_se_handler_table   0000000000000000     <absolute>
 0000:00000000       __hybrid_code_map          0000000000000000     <absolute>
 0000:00000000       __guard_iat_count          0000000000000000     <absolute>
 0000:00000000       __volatile_metadata        0000000000000000     <absolute>
 0000:00000000       __guard_iat_table          0000000000000000     <absolute>
 0000:00000100       __guard_flags              0000000000000100     <absolute>
 0001:00000000       DoDebug                    0000000180001000 f   debug.obj
 0001:00000000       _guard_check_icall_nop     0000000180001000 f   MSVCRT:guard_support.obj
 0001:00000010       DllMain                    0000000180001010 f   dllmain.obj
 0001:00000620       PMC_Add_I_X                0000000180001620 f   pmc_add_sub.obj
 0001:00000760       PMC_Add_L_X                0000000180001760 f   pmc_add_sub.obj
 0001:000008b0       PMC_Add_UX_X               00000001800018b0 f   pmc_add_sub.obj
 0001:00000a20       PMC_Add_X_I                0000000180001a20 f   pmc_add_sub.obj
 0001:00000b40       PMC_Add_X_L                0000000180001b40 f   pmc_add_sub.obj
 0001:00000c70       PMC_Add_X_UX               0000000180001c70 f   pmc_add_sub.obj
 0001:00000df0       PMC_Add_X_X                0000000180001df0 f   pmc_add_sub.obj
 0001:00000f20       PMC_Subtruct_I_X           0000000180001f20 f   pmc_add_sub.obj
 0001:00001060       PMC_Subtruct_L_X           0000000180002060 f   pmc_add_sub.obj
 0001:000011b0       PMC_Subtruct_UX_X          00000001800021b0 f   pmc_add_sub.obj
 0001:00001330       PMC_Subtruct_X_I           0000000180002330 f   pmc_add_sub.obj
 0001:00001450       PMC_Subtruct_X_L           0000000180002450 f   pmc_add_sub.obj
 0001:00001580       PMC_Subtruct_X_UX          0000000180002580 f   pmc_add_sub.obj
 0001:00001700       PMC_Subtruct_X_X           0000000180002700 f   pmc_add_sub.obj
 0001:00001830       PMC_FromByteArray          0000000180002830 f   pmc_bytes.obj
 0001:00001900       PMC_ToByteArray            0000000180002900 f   pmc_bytes.obj
 0001:00001950       PMC_Clone_X                0000000180002950 f   pmc_clone.obj
 0001:000019c0       PMC_Compare_I_X            00000001800029c0 f   pmc_compare.obj
 0001:00001ab0       PMC_Compare_L_X            0000000180002ab0 f   pmc_compare.obj
 0001:00001ba0       PMC_Compare_UX_X           0000000180002ba0 f   pmc_compare.obj
 0001:00001c30       PMC_Compare_X_I            0000000180002c30 f   pmc_compare.obj
 0001:00001d20       PMC_Compare_X_L            0000000180002d20 f   pmc_compare.obj
 0001:00001e20       PMC_Compare_X_UX           0000000180002e20 f   pmc_compare.obj
 0001:00001ed0       PMC_Compare_X_X            0000000180002ed0 f   pmc_compare.obj
 0001:00001fd0       PMC_DivRem_I_X             0000000180002fd0 f   pmc_divrem.obj
 0001:00002170       PMC_DivRem_L_X             0000000180003170 f   pmc_divrem.obj
 0001:00002320       PMC_DivRem_UX_X            0000000180003320 f   pmc_divrem.obj
 0001:00002470       PMC_DivRem_X_I             0000000180003470 f   pmc_divrem.obj
 0001:000025e0       PMC_DivRem_X_L             00000001800035e0 f   pmc_divrem.obj
 0001:00002760       PMC_DivRem_X_UX            0000000180003760 f   pmc_divrem.obj
 0001:00002930       PMC_DivRem_X_X             0000000180003930 f   pmc_divrem.obj
 0001:00002b30       PMC_Equals_I_X             0000000180003b30 f   pmc_equals.obj
 0001:00002bb0       PMC_Equals_L_X             0000000180003bb0 f   pmc_equals.obj
 0001:00002c40       PMC_Equals_UX_X            0000000180003c40 f   pmc_equals.obj
 0001:00002cc0       PMC_Equals_X_I             0000000180003cc0 f   pmc_equals.obj
 0001:00002d40       PMC_Equals_X_L             0000000180003d40 f   pmc_equals.obj
 0001:00002dd0       PMC_Equals_X_UX            0000000180003dd0 f   pmc_equals.obj
 0001:00002e50       PMC_Equals_X_X             0000000180003e50 f   pmc_equals.obj
 0001:00002ed0       From_I_Imp                 0000000180003ed0 f   pmc_from.obj
 0001:00002f70       From_L_Imp                 0000000180003f70 f   pmc_from.obj
 0001:00003010       PMC_From_I                 0000000180004010 f   pmc_from.obj
 0001:000030f0       PMC_From_L                 00000001800040f0 f   pmc_from.obj
 0001:000031d0       PMC_GreatestCommonDivisor_I_X 00000001800041d0 f   pmc_greatestcommondivisor.obj
 0001:00003230       PMC_GreatestCommonDivisor_L_X 0000000180004230 f   pmc_greatestcommondivisor.obj
 0001:000032a0       PMC_GreatestCommonDivisor_UX_X 00000001800042a0 f   pmc_greatestcommondivisor.obj
 0001:000032e0       PMC_GreatestCommonDivisor_X_I 00000001800042e0 f   pmc_greatestcommondivisor.obj
 0001:00003340       PMC_GreatestCommonDivisor_X_L 0000000180004340 f   pmc_greatestcommondivisor.obj
 0001:000033b0       PMC_GreatestCommonDivisor_X_UX 00000001800043b0 f   pmc_greatestcommondivisor.obj
 0001:000033f0       PMC_GreatestCommonDivisor_X_X 00000001800043f0 f   pmc_greatestcommondivisor.obj
 0001:00003440       PMC_SINT_Initialize        0000000180004440 f   pmc_initialize.obj
 0001:00003a30       AllocateNumber             0000000180004a30 f   pmc_memory.obj
 0001:00003aa0       PMC_Dispose                0000000180004aa0 f   pmc_memory.obj
 0001:00003aa0       DeallocateNumber           0000000180004aa0 f   pmc_memory.obj
 0001:00003af0       DuplicateNumber            0000000180004af0 f   pmc_memory.obj
 0001:00003bd0       Negate_Imp                 0000000180004bd0 f   pmc_memory.obj
 0001:00003ce0       PMC_GetConstantValue_I     0000000180004ce0 f   pmc_memory.obj
 0001:00003f60       PMC_Multiply_I_X           0000000180004f60 f   pmc_multiply.obj
 0001:00004030       PMC_Multiply_L_X           0000000180005030 f   pmc_multiply.obj
 0001:00004100       PMC_Multiply_UX_X          0000000180005100 f   pmc_multiply.obj
 0001:00004190       PMC_Multiply_X_I           0000000180005190 f   pmc_multiply.obj
 0001:00004270       PMC_Multiply_X_L           0000000180005270 f   pmc_multiply.obj
 0001:00004350       PMC_Multiply_X_UX          0000000180005350 f   pmc_multiply.obj
 0001:000043e0       PMC_Multiply_X_X           00000001800053e0 f   pmc_multiply.obj
 0001:000044c0       PMC_Negate_X               00000001800054c0 f   pmc_negate.obj
 0001:00004520       PMC_TryParse               0000000180005520 f   pmc_parse.obj
 0001:000045d0       PMC_GetStatisticsInfo      00000001800055d0 f   pmc_statistics.obj
 0001:000045e0       PMC_To_X_I                 00000001800055e0 f   pmc_to.obj
 0001:00004680       PMC_To_X_L                 0000000180005680 f   pmc_to.obj
 0001:00004750       __security_check_cookie    0000000180005750 f   MSVCRT:amdsecgs.obj
 0001:00004774       __raise_securityfailure    0000000180005774 f   MSVCRT:gs_report.obj
 0001:000047a8       __report_gsfailure         00000001800057a8 f   MSVCRT:gs_report.obj
 0001:000048ed       IsProcessorFeaturePresent  00000001800058ed f   kernel32:KERNEL32.dll
 0001:00004910       _guard_dispatch_icall_nop  0000000180005910 f   MSVCRT:guard_dispatch.obj
 0002:00000000       __imp_LoadLibraryA         0000000180006000     kernel32:KERNEL32.dll
 0002:00000008       __imp_GetProcAddress       0000000180006008     kernel32:KERNEL32.dll
 0002:00000010       __imp_FreeLibrary          0000000180006010     kernel32:KERNEL32.dll
 0002:00000018       __imp_HeapCreate           0000000180006018     kernel32:KERNEL32.dll
 0002:00000020       __imp_HeapFree             0000000180006020     kernel32:KERNEL32.dll
 0002:00000028       __imp_HeapAlloc            0000000180006028     kernel32:KERNEL32.dll
 0002:00000030       __imp_HeapDestroy          0000000180006030     kernel32:KERNEL32.dll
 0002:00000038       __imp_TerminateProcess     0000000180006038     kernel32:KERNEL32.dll
 0002:00000040       __imp_RtlCaptureContext    0000000180006040     kernel32:KERNEL32.dll
 0002:00000048       __imp_RtlLookupFunctionEntry 0000000180006048     kernel32:KERNEL32.dll
 0002:00000050       __imp_RtlVirtualUnwind     0000000180006050     kernel32:KERNEL32.dll
 0002:00000058       __imp_UnhandledExceptionFilter 0000000180006058     kernel32:KERNEL32.dll
 0002:00000060       __imp_SetUnhandledExceptionFilter 0000000180006060     kernel32:KERNEL32.dll
 0002:00000068       __imp_GetCurrentProcess    0000000180006068     kernel32:KERNEL32.dll
 0002:00000070       __imp_IsProcessorFeaturePresent 0000000180006070     kernel32:KERNEL32.dll
 0002:00000078       \177KERNEL32_NULL_THUNK_DATA 0000000180006078     kernel32:KERNEL32.dll
 0002:00000080       __guard_check_icall_fptr   0000000180006080     MSVCRT:guard_support.obj
 0002:00000088       __guard_dispatch_icall_fptr 0000000180006088     MSVCRT:guard_support.obj
 0002:000000a0       ??_C@_0BM@ONKLCLPJ@Palmtree?4Math?4Core?4Uint?4dll@ 00000001800060a0     pmc_initialize.obj
 0002:000000c0       ??_C@_0BE@LMKJAMNH@PMC_UINT_Initialize@ 00000001800060c0     pmc_initialize.obj
 0002:00000150       _load_config_used          0000000180006150     MSVCRT:loadcfg.obj
 0002:00000af4       __IMPORT_DESCRIPTOR_KERNEL32 0000000180006af4     kernel32:KERNEL32.dll
 0002:00000b08       __NULL_IMPORT_DESCRIPTOR   0000000180006b08     kernel32:KERNEL32.dll
 0003:00000000       __security_cookie_complement 0000000180007000     MSVCRT:gs_cookie.obj
 0003:00000008       __security_cookie          0000000180007008     MSVCRT:gs_cookie.obj
 0003:000009c0       hLocalHeap                 00000001800079c0     <common>
 0003:000009e0       number_one                 00000001800079e0     <common>
 0003:00000a00       number_minus_one           0000000180007a00     <common>
 0003:00000a20       number_zero                0000000180007a20     <common>
 0003:00000a40       ep_uint                    0000000180007a40     <common>
 0003:00000c70       uint_number_one            0000000180007c70     <common>
 0003:00000c78       uint_number_zero           0000000180007c78     <common>

 entry point at        0001:00000010

 Static symbols

 0000:ffff5000       .debug$S                   0000000180000000     kernel32:KERNEL32.dll
 0000:ffff5000       .debug$S                   0000000180000000     kernel32:KERNEL32.dll
 0000:ffff5000       .debug$S                   0000000180000000     kernel32:KERNEL32.dll
 0000:ffff5000       .debug$S                   0000000180000000     kernel32:KERNEL32.dll
 0000:ffff5000       .debug$S                   0000000180000000     kernel32:KERNEL32.dll
 0000:ffff5000       .debug$S                   0000000180000000     kernel32:KERNEL32.dll
 0000:ffff5000       .debug$S                   0000000180000000     kernel32:KERNEL32.dll
 0000:ffff5000       .debug$S                   0000000180000000     kernel32:KERNEL32.dll
 0000:ffff5000       .debug$S                   0000000180000000     kernel32:KERNEL32.dll
 0000:ffff5000       .debug$S                   0000000180000000     kernel32:KERNEL32.dll
 0000:ffff5000       .debug$S                   0000000180000000     Palmtree.Math.Core.Sint.exp
 0000:ffff5000       .debug$S                   0000000180000000     kernel32:KERNEL32.dll
 0000:ffff5000       .debug$S                   0000000180000000     kernel32:KERNEL32.dll
 0000:ffff5000       .debug$S                   0000000180000000     kernel32:KERNEL32.dll
 0000:ffff5000       .debug$S                   0000000180000000     kernel32:KERNEL32.dll
 0000:ffff5000       .debug$S                   0000000180000000     kernel32:KERNEL32.dll
 0001:00000080       AddU_X_I_Imp               0000000180001080 f   pmc_add_sub.obj
 0001:00000140       AddU_X_L_Imp               0000000180001140 f   pmc_add_sub.obj
 0001:00000200       AddU_X_X_Imp               0000000180001200 f   pmc_add_sub.obj
 0001:000002c0       SubtructU_X_I_Imp          00000001800012c0 f   pmc_add_sub.obj
 0001:000003f0       SubtructU_X_L_Imp          00000001800013f0 f   pmc_add_sub.obj
 0001:00000510       SubtructU_X_X_Imp          0000000180001510 f   pmc_add_sub.obj
 0001:00003990       InitializeNumber           0000000180004990 f   pmc_memory.obj
 0001:00003d20       MultiplyU_X_I_Imp          0000000180004d20 f   pmc_multiply.obj
 0001:00003de0       MultiplyU_X_L_Imp          0000000180004de0 f   pmc_multiply.obj
 0001:00003ea0       MultiplyU_X_X_Imp          0000000180004ea0 f   pmc_multiply.obj
 0001:00004740       $$000000                   0000000180005740     MSVCRT:amdsecgs.obj
 0001:0000487c       capture_previous_context   000000018000587c f   MSVCRT:gs_report.obj
 0001:00004900       $$000000                   0000000180005900     MSVCRT:guard_dispatch.obj
 0002:00000090       GS_ExceptionPointers       0000000180006090     MSVCRT:gs_report.obj
 0002:00000430       $unwind$PMC_Equals_X_I     0000000180006430     pmc_equals.obj
 0002:00000430       $unwind$DllMain            0000000180006430     dllmain.obj
 0002:00000430       $unwind$PMC_Equals_X_X     0000000180006430     pmc_equals.obj
 0002:00000430       $unwind$PMC_Equals_X_UX    0000000180006430     pmc_equals.obj
 0002:00000430       $unwind$PMC_Equals_X_L     0000000180006430     pmc_equals.obj
 0002:00000430       $unwind$PMC_Equals_I_X     0000000180006430     pmc_equals.obj
 0002:00000430       $unwind$PMC_Equals_UX_X    0000000180006430     pmc_equals.obj
 0002:00000430       $unwind$PMC_Equals_L_X     0000000180006430     pmc_equals.obj
 0002:00000438       $unwind$AddU_X_X_Imp       0000000180006438     pmc_add_sub.obj
 0002:00000438       $unwind$MultiplyU_X_L_Imp  0000000180006438     pmc_multiply.obj
 0002:00000438       $unwind$AddU_X_L_Imp       0000000180006438     pmc_add_sub.obj
 0002:00000438       $unwind$MultiplyU_X_I_Imp  0000000180006438     pmc_multiply.obj
 0002:00000438       $unwind$MultiplyU_X_X_Imp  0000000180006438     pmc_multiply.obj
 0002:00000438       $unwind$AddU_X_I_Imp       0000000180006438     pmc_add_sub.obj
 0002:00000444       $chain$0$AddU_X_I_Imp      0000000180006444     pmc_add_sub.obj
 0002:00000458       $chain$2$AddU_X_I_Imp      0000000180006458     pmc_add_sub.obj
 0002:00000458       $chain$4$AddU_X_I_Imp      0000000180006458     pmc_add_sub.obj
 0002:0000046c       $chain$5$AddU_X_I_Imp      000000018000646c     pmc_add_sub.obj
 0002:0000047c       $chain$0$AddU_X_L_Imp      000000018000647c     pmc_add_sub.obj
 0002:00000490       $chain$4$AddU_X_L_Imp      0000000180006490     pmc_add_sub.obj
 0002:00000490       $chain$2$AddU_X_L_Imp      0000000180006490     pmc_add_sub.obj
 0002:000004a4       $chain$5$AddU_X_L_Imp      00000001800064a4     pmc_add_sub.obj
 0002:000004b4       $chain$0$AddU_X_X_Imp      00000001800064b4     pmc_add_sub.obj
 0002:000004c8       $chain$4$AddU_X_X_Imp      00000001800064c8     pmc_add_sub.obj
 0002:000004c8       $chain$2$AddU_X_X_Imp      00000001800064c8     pmc_add_sub.obj
 0002:000004dc       $chain$5$AddU_X_X_Imp      00000001800064dc     pmc_add_sub.obj
 0002:000004ec       $unwind$SubtructU_X_I_Imp  00000001800064ec     pmc_add_sub.obj
 0002:000004ec       $unwind$SubtructU_X_L_Imp  00000001800064ec     pmc_add_sub.obj
 0002:00000500       $unwind$SubtructU_X_X_Imp  0000000180006500     pmc_add_sub.obj
 0002:00000514       $unwind$PMC_Add_X_X        0000000180006514     pmc_add_sub.obj
 0002:00000514       $unwind$__raise_securityfailure 0000000180006514     MSVCRT:gs_report.obj
 0002:00000514       $unwind$PMC_Clone_X        0000000180006514     pmc_clone.obj
 0002:00000514       $unwind$PMC_To_X_I         0000000180006514     pmc_to.obj
 0002:00000514       $unwind$PMC_Multiply_UX_X  0000000180006514     pmc_multiply.obj
 0002:00000514       $unwind$PMC_Compare_UX_X   0000000180006514     pmc_compare.obj
 0002:00000514       $unwind$PMC_Compare_L_X    0000000180006514     pmc_compare.obj
 0002:00000514       $unwind$PMC_Multiply_X_UX  0000000180006514     pmc_multiply.obj
 0002:00000514       $unwind$PMC_Subtruct_I_X   0000000180006514     pmc_add_sub.obj
 0002:00000514       $unwind$PMC_Multiply_X_X   0000000180006514     pmc_multiply.obj
 0002:00000514       $unwind$PMC_Add_X_L        0000000180006514     pmc_add_sub.obj
 0002:00000514       $unwind$PMC_Add_X_I        0000000180006514     pmc_add_sub.obj
 0002:00000514       $unwind$PMC_To_X_L         0000000180006514     pmc_to.obj
 0002:00000514       $unwind$PMC_Subtruct_X_X   0000000180006514     pmc_add_sub.obj
 0002:00000514       $unwind$PMC_Subtruct_L_X   0000000180006514     pmc_add_sub.obj
 0002:00000514       $unwind$PMC_Compare_X_X    0000000180006514     pmc_compare.obj
 0002:00000514       $unwind$PMC_Multiply_L_X   0000000180006514     pmc_multiply.obj
 0002:00000514       $unwind$PMC_Compare_X_UX   0000000180006514     pmc_compare.obj
 0002:00000514       $unwind$PMC_Compare_X_L    0000000180006514     pmc_compare.obj
 0002:00000514       $unwind$PMC_Multiply_I_X   0000000180006514     pmc_multiply.obj
 0002:00000514       $unwind$PMC_Multiply_X_I   0000000180006514     pmc_multiply.obj
 0002:00000514       $unwind$PMC_Add_L_X        0000000180006514     pmc_add_sub.obj
 0002:00000514       $unwind$PMC_Add_I_X        0000000180006514     pmc_add_sub.obj
 0002:00000514       $unwind$PMC_Compare_I_X    0000000180006514     pmc_compare.obj
 0002:00000514       $unwind$PMC_Subtruct_X_I   0000000180006514     pmc_add_sub.obj
 0002:00000514       $unwind$PMC_Multiply_X_L   0000000180006514     pmc_multiply.obj
 0002:00000514       $unwind$PMC_Subtruct_X_L   0000000180006514     pmc_add_sub.obj
 0002:00000514       $unwind$PMC_Negate_X       0000000180006514     pmc_negate.obj
 0002:00000514       $unwind$PMC_Compare_X_I    0000000180006514     pmc_compare.obj
 0002:0000051c       $unwind$PMC_Subtruct_UX_X  000000018000651c     pmc_add_sub.obj
 0002:0000051c       $unwind$PMC_Subtruct_X_UX  000000018000651c     pmc_add_sub.obj
 0002:0000051c       $unwind$PMC_FromByteArray  000000018000651c     pmc_bytes.obj
 0002:0000051c       $unwind$PMC_Add_UX_X       000000018000651c     pmc_add_sub.obj
 0002:0000051c       $unwind$PMC_Add_X_UX       000000018000651c     pmc_add_sub.obj
 0002:00000524       $chain$0$PMC_Add_UX_X      0000000180006524     pmc_add_sub.obj
 0002:00000538       $chain$6$PMC_Add_UX_X      0000000180006538     pmc_add_sub.obj
 0002:00000538       $chain$8$PMC_Add_UX_X      0000000180006538     pmc_add_sub.obj
 0002:00000538       $chain$10$PMC_Add_UX_X     0000000180006538     pmc_add_sub.obj
 0002:00000538       $chain$2$PMC_Add_UX_X      0000000180006538     pmc_add_sub.obj
 0002:00000538       $chain$4$PMC_Add_UX_X      0000000180006538     pmc_add_sub.obj
 0002:0000054c       $chain$11$PMC_Add_UX_X     000000018000654c     pmc_add_sub.obj
 0002:0000055c       $chain$0$PMC_Add_X_UX      000000018000655c     pmc_add_sub.obj
 0002:00000570       $chain$10$PMC_Add_X_UX     0000000180006570     pmc_add_sub.obj
 0002:00000570       $chain$8$PMC_Add_X_UX      0000000180006570     pmc_add_sub.obj
 0002:00000570       $chain$6$PMC_Add_X_UX      0000000180006570     pmc_add_sub.obj
 0002:00000570       $chain$2$PMC_Add_X_UX      0000000180006570     pmc_add_sub.obj
 0002:00000570       $chain$4$PMC_Add_X_UX      0000000180006570     pmc_add_sub.obj
 0002:00000584       $chain$11$PMC_Add_X_UX     0000000180006584     pmc_add_sub.obj
 0002:00000594       $chain$0$PMC_Subtruct_UX_X 0000000180006594     pmc_add_sub.obj
 0002:000005a8       $chain$6$PMC_Subtruct_UX_X 00000001800065a8     pmc_add_sub.obj
 0002:000005a8       $chain$8$PMC_Subtruct_UX_X 00000001800065a8     pmc_add_sub.obj
 0002:000005a8       $chain$4$PMC_Subtruct_UX_X 00000001800065a8     pmc_add_sub.obj
 0002:000005a8       $chain$2$PMC_Subtruct_UX_X 00000001800065a8     pmc_add_sub.obj
 0002:000005a8       $chain$10$PMC_Subtruct_UX_X 00000001800065a8     pmc_add_sub.obj
 0002:000005bc       $chain$11$PMC_Subtruct_UX_X 00000001800065bc     pmc_add_sub.obj
 0002:000005cc       $chain$0$PMC_Subtruct_X_UX 00000001800065cc     pmc_add_sub.obj
 0002:000005e0       $chain$2$PMC_Subtruct_X_UX 00000001800065e0     pmc_add_sub.obj
 0002:000005e0       $chain$8$PMC_Subtruct_X_UX 00000001800065e0     pmc_add_sub.obj
 0002:000005e0       $chain$6$PMC_Subtruct_X_UX 00000001800065e0     pmc_add_sub.obj
 0002:000005e0       $chain$4$PMC_Subtruct_X_UX 00000001800065e0     pmc_add_sub.obj
 0002:000005e0       $chain$10$PMC_Subtruct_X_UX 00000001800065e0     pmc_add_sub.obj
 0002:000005f4       $chain$11$PMC_Subtruct_X_UX 00000001800065f4     pmc_add_sub.obj
 0002:00000604       $chain$1$PMC_FromByteArray 0000000180006604     pmc_bytes.obj
 0002:0000061c       $chain$2$PMC_FromByteArray 000000018000661c     pmc_bytes.obj
 0002:0000061c       $chain$4$PMC_FromByteArray 000000018000661c     pmc_bytes.obj
 0002:0000062c       $chain$3$PMC_FromByteArray 000000018000662c     pmc_bytes.obj
 0002:00000644       $unwind$PMC_ToByteArray    0000000180006644     pmc_bytes.obj
 0002:0000064c       $unwind$PMC_DivRem_L_X     000000018000664c     pmc_divrem.obj
 0002:0000064c       $unwind$PMC_DivRem_I_X     000000018000664c     pmc_divrem.obj
 0002:00000658       $chain$2$PMC_DivRem_I_X    0000000180006658     pmc_divrem.obj
 0002:00000674       $chain$4$PMC_DivRem_I_X    0000000180006674     pmc_divrem.obj
 0002:00000690       $chain$5$PMC_DivRem_I_X    0000000180006690     pmc_divrem.obj
 0002:000006a0       $chain$2$PMC_DivRem_L_X    00000001800066a0     pmc_divrem.obj
 0002:000006bc       $chain$4$PMC_DivRem_L_X    00000001800066bc     pmc_divrem.obj
 0002:000006d8       $chain$5$PMC_DivRem_L_X    00000001800066d8     pmc_divrem.obj
 0002:000006e8       $unwind$PMC_DivRem_UX_X    00000001800066e8     pmc_divrem.obj
 0002:000006f4       $chain$0$PMC_DivRem_UX_X   00000001800066f4     pmc_divrem.obj
 0002:00000708       $chain$2$PMC_DivRem_UX_X   0000000180006708     pmc_divrem.obj
 0002:00000708       $chain$6$PMC_DivRem_UX_X   0000000180006708     pmc_divrem.obj
 0002:00000708       $chain$4$PMC_DivRem_UX_X   0000000180006708     pmc_divrem.obj
 0002:0000071c       $chain$7$PMC_DivRem_UX_X   000000018000671c     pmc_divrem.obj
 0002:0000072c       $unwind$PMC_DivRem_X_I     000000018000672c     pmc_divrem.obj
 0002:0000072c       $unwind$PMC_DivRem_X_L     000000018000672c     pmc_divrem.obj
 0002:00000738       $chain$1$PMC_DivRem_X_I    0000000180006738     pmc_divrem.obj
 0002:00000750       $chain$3$PMC_DivRem_X_I    0000000180006750     pmc_divrem.obj
 0002:00000768       $chain$4$PMC_DivRem_X_I    0000000180006768     pmc_divrem.obj
 0002:00000778       $chain$1$PMC_DivRem_X_L    0000000180006778     pmc_divrem.obj
 0002:00000790       $chain$3$PMC_DivRem_X_L    0000000180006790     pmc_divrem.obj
 0002:000007a8       $chain$4$PMC_DivRem_X_L    00000001800067a8     pmc_divrem.obj
 0002:000007b8       $unwind$PMC_DivRem_X_UX    00000001800067b8     pmc_divrem.obj
 0002:000007b8       $unwind$PMC_DivRem_X_X     00000001800067b8     pmc_divrem.obj
 0002:000007c4       $chain$2$PMC_DivRem_X_UX   00000001800067c4     pmc_divrem.obj
 0002:000007e0       $chain$4$PMC_DivRem_X_UX   00000001800067e0     pmc_divrem.obj
 0002:000007fc       $chain$5$PMC_DivRem_X_UX   00000001800067fc     pmc_divrem.obj
 0002:0000080c       $chain$2$PMC_DivRem_X_X    000000018000680c     pmc_divrem.obj
 0002:00000828       $chain$4$PMC_DivRem_X_X    0000000180006828     pmc_divrem.obj
 0002:00000844       $chain$5$PMC_DivRem_X_X    0000000180006844     pmc_divrem.obj
 0002:00000854       $unwind$AllocateNumber     0000000180006854     pmc_memory.obj
 0002:00000854       $unwind$From_L_Imp         0000000180006854     pmc_from.obj
 0002:00000854       $unwind$From_I_Imp         0000000180006854     pmc_from.obj
 0002:00000864       $unwind$PMC_From_I         0000000180006864     pmc_from.obj
 0002:00000870       $unwind$PMC_From_L         0000000180006870     pmc_from.obj
 0002:00000870       $unwind$DuplicateNumber    0000000180006870     pmc_memory.obj
 0002:0000087c       $unwind$PMC_SINT_Initialize 000000018000687c     pmc_initialize.obj
 0002:00000884       $chain$0$PMC_SINT_Initialize 0000000180006884     pmc_initialize.obj
 0002:00000898       $chain$1$PMC_SINT_Initialize 0000000180006898     pmc_initialize.obj
 0002:000008a8       $unwind$DeallocateNumber   00000001800068a8     pmc_memory.obj
 0002:000008a8       $unwind$PMC_Dispose        00000001800068a8     pmc_memory.obj
 0002:000008b0       $unwind$Negate_Imp         00000001800068b0     pmc_memory.obj
 0002:000008bc       $chain$0$Negate_Imp        00000001800068bc     pmc_memory.obj
 0002:000008d0       $chain$2$Negate_Imp        00000001800068d0     pmc_memory.obj
 0002:000008d0       $chain$4$Negate_Imp        00000001800068d0     pmc_memory.obj
 0002:000008e4       $chain$5$Negate_Imp        00000001800068e4     pmc_memory.obj
 0002:000008f4       $chain$0$MultiplyU_X_I_Imp 00000001800068f4     pmc_multiply.obj
 0002:00000908       $chain$2$MultiplyU_X_I_Imp 0000000180006908     pmc_multiply.obj
 0002:00000908       $chain$4$MultiplyU_X_I_Imp 0000000180006908     pmc_multiply.obj
 0002:0000091c       $chain$5$MultiplyU_X_I_Imp 000000018000691c     pmc_multiply.obj
 0002:0000092c       $chain$0$MultiplyU_X_L_Imp 000000018000692c     pmc_multiply.obj
 0002:00000940       $chain$2$MultiplyU_X_L_Imp 0000000180006940     pmc_multiply.obj
 0002:00000940       $chain$4$MultiplyU_X_L_Imp 0000000180006940     pmc_multiply.obj
 0002:00000954       $chain$5$MultiplyU_X_L_Imp 0000000180006954     pmc_multiply.obj
 0002:00000964       $chain$0$MultiplyU_X_X_Imp 0000000180006964     pmc_multiply.obj
 0002:00000978       $chain$2$MultiplyU_X_X_Imp 0000000180006978     pmc_multiply.obj
 0002:00000978       $chain$4$MultiplyU_X_X_Imp 0000000180006978     pmc_multiply.obj
 0002:0000098c       $chain$5$MultiplyU_X_X_Imp 000000018000698c     pmc_multiply.obj
 0002:0000099c       $unwind$PMC_TryParse       000000018000699c     pmc_parse.obj
 0002:000009a4       $chain$1$PMC_TryParse      00000001800069a4     pmc_parse.obj
 0002:000009bc       $chain$2$PMC_TryParse      00000001800069bc     pmc_parse.obj
 0002:000009bc       $chain$4$PMC_TryParse      00000001800069bc     pmc_parse.obj
 0002:000009cc       $chain$3$PMC_TryParse      00000001800069cc     pmc_parse.obj
 0002:000009e4       $chain$0$PMC_To_X_I        00000001800069e4     pmc_to.obj
 0002:000009f8       $chain$6$PMC_To_X_I        00000001800069f8     pmc_to.obj
 0002:000009f8       $chain$4$PMC_To_X_I        00000001800069f8     pmc_to.obj
 0002:000009f8       $chain$2$PMC_To_X_I        00000001800069f8     pmc_to.obj
 0002:00000a0c       $chain$7$PMC_To_X_I        0000000180006a0c     pmc_to.obj
 0002:00000a1c       $chain$0$PMC_To_X_L        0000000180006a1c     pmc_to.obj
 0002:00000a30       $chain$6$PMC_To_X_L        0000000180006a30     pmc_to.obj
 0002:00000a30       $chain$4$PMC_To_X_L        0000000180006a30     pmc_to.obj
 0002:00000a30       $chain$2$PMC_To_X_L        0000000180006a30     pmc_to.obj
 0002:00000a44       $chain$7$PMC_To_X_L        0000000180006a44     pmc_to.obj
 0002:00000a58       $xdatasym                  0000000180006a58     MSVCRT:amdsecgs.obj
 0002:00000a5c       $unwind$__report_gsfailure 0000000180006a5c     MSVCRT:gs_report.obj
 0002:00000a64       $unwind$capture_previous_context 0000000180006a64     MSVCRT:gs_report.obj
 0002:00000a70       $xdatasym                  0000000180006a70     MSVCRT:guard_dispatch.obj
 0002:00000a80       .edata                     0000000180006a80     Palmtree.Math.Core.Sint.exp
 0002:00000aa8       rgpv                       0000000180006aa8     Palmtree.Math.Core.Sint.exp
 0002:00000ab0       rgszName                   0000000180006ab0     Palmtree.Math.Core.Sint.exp
 0002:00000ab8       rgwOrd                     0000000180006ab8     Palmtree.Math.Core.Sint.exp
 0002:00000abc       szName                     0000000180006abc     Palmtree.Math.Core.Sint.exp
 0002:00000ad8       $N00001                    0000000180006ad8     Palmtree.Math.Core.Sint.exp
 0002:00000ae0       $N00002                    0000000180006ae0     Palmtree.Math.Core.Sint.exp
 0002:00000c04       .idata$6                   0000000180006c04     kernel32:KERNEL32.dll
 0003:00000020       GS_ExceptionRecord         0000000180007020     MSVCRT:gs_report.obj
 0003:000000c0       GS_ContextRecord           00000001800070c0     MSVCRT:gs_report.obj
 0003:00000590       entry_points               0000000180007590     pmc_initialize.obj
 0003:000009a8       initialized                00000001800079a8     pmc_initialize.obj
 0003:000009b0       hLib_UINT                  00000001800079b0     pmc_initialize.obj
 0003:000009b8       fp_PMC_UINT_Initialize     00000001800079b8     pmc_initialize.obj
 0004:0000000c       $pdata$__report_gsfailure  000000018000800c     MSVCRT:gs_report.obj
 0004:00000018       $pdata$capture_previous_context 0000000180008018     MSVCRT:gs_report.obj
 0004:00000024       $pdata$__raise_securityfailure 0000000180008024     MSVCRT:gs_report.obj
 0004:00000030       $pdata$DllMain             0000000180008030     dllmain.obj
 0004:0000003c       $pdata$PMC_Subtruct_X_X    000000018000803c     pmc_add_sub.obj
 0004:00000048       $pdata$PMC_Subtruct_X_UX   0000000180008048     pmc_add_sub.obj
 0004:00000054       $pdata$0$PMC_Subtruct_X_UX 0000000180008054     pmc_add_sub.obj
 0004:00000060       $pdata$2$PMC_Subtruct_X_UX 0000000180008060     pmc_add_sub.obj
 0004:0000006c       $pdata$4$PMC_Subtruct_X_UX 000000018000806c     pmc_add_sub.obj
 0004:00000078       $pdata$6$PMC_Subtruct_X_UX 0000000180008078     pmc_add_sub.obj
 0004:00000084       $pdata$8$PMC_Subtruct_X_UX 0000000180008084     pmc_add_sub.obj
 0004:00000090       $pdata$10$PMC_Subtruct_X_UX 0000000180008090     pmc_add_sub.obj
 0004:0000009c       $pdata$11$PMC_Subtruct_X_UX 000000018000809c     pmc_add_sub.obj
 0004:000000a8       $pdata$PMC_Subtruct_X_L    00000001800080a8     pmc_add_sub.obj
 0004:000000b4       $pdata$PMC_Subtruct_X_I    00000001800080b4     pmc_add_sub.obj
 0004:000000c0       $pdata$PMC_Subtruct_UX_X   00000001800080c0     pmc_add_sub.obj
 0004:000000cc       $pdata$0$PMC_Subtruct_UX_X 00000001800080cc     pmc_add_sub.obj
 0004:000000d8       $pdata$2$PMC_Subtruct_UX_X 00000001800080d8     pmc_add_sub.obj
 0004:000000e4       $pdata$4$PMC_Subtruct_UX_X 00000001800080e4     pmc_add_sub.obj
 0004:000000f0       $pdata$6$PMC_Subtruct_UX_X 00000001800080f0     pmc_add_sub.obj
 0004:000000fc       $pdata$8$PMC_Subtruct_UX_X 00000001800080fc     pmc_add_sub.obj
 0004:00000108       $pdata$10$PMC_Subtruct_UX_X 0000000180008108     pmc_add_sub.obj
 0004:00000114       $pdata$11$PMC_Subtruct_UX_X 0000000180008114     pmc_add_sub.obj
 0004:00000120       $pdata$PMC_Subtruct_L_X    0000000180008120     pmc_add_sub.obj
 0004:0000012c       $pdata$PMC_Subtruct_I_X    000000018000812c     pmc_add_sub.obj
 0004:00000138       $pdata$PMC_Add_X_X         0000000180008138     pmc_add_sub.obj
 0004:00000144       $pdata$PMC_Add_X_UX        0000000180008144     pmc_add_sub.obj
 0004:00000150       $pdata$0$PMC_Add_X_UX      0000000180008150     pmc_add_sub.obj
 0004:0000015c       $pdata$2$PMC_Add_X_UX      000000018000815c     pmc_add_sub.obj
 0004:00000168       $pdata$4$PMC_Add_X_UX      0000000180008168     pmc_add_sub.obj
 0004:00000174       $pdata$6$PMC_Add_X_UX      0000000180008174     pmc_add_sub.obj
 0004:00000180       $pdata$8$PMC_Add_X_UX      0000000180008180     pmc_add_sub.obj
 0004:0000018c       $pdata$10$PMC_Add_X_UX     000000018000818c     pmc_add_sub.obj
 0004:00000198       $pdata$11$PMC_Add_X_UX     0000000180008198     pmc_add_sub.obj
 0004:000001a4       $pdata$PMC_Add_X_L         00000001800081a4     pmc_add_sub.obj
 0004:000001b0       $pdata$PMC_Add_X_I         00000001800081b0     pmc_add_sub.obj
 0004:000001bc       $pdata$PMC_Add_UX_X        00000001800081bc     pmc_add_sub.obj
 0004:000001c8       $pdata$0$PMC_Add_UX_X      00000001800081c8     pmc_add_sub.obj
 0004:000001d4       $pdata$2$PMC_Add_UX_X      00000001800081d4     pmc_add_sub.obj
 0004:000001e0       $pdata$4$PMC_Add_UX_X      00000001800081e0     pmc_add_sub.obj
 0004:000001ec       $pdata$6$PMC_Add_UX_X      00000001800081ec     pmc_add_sub.obj
 0004:000001f8       $pdata$8$PMC_Add_UX_X      00000001800081f8     pmc_add_sub.obj
 0004:00000204       $pdata$10$PMC_Add_UX_X     0000000180008204     pmc_add_sub.obj
 0004:00000210       $pdata$11$PMC_Add_UX_X     0000000180008210     pmc_add_sub.obj
 0004:0000021c       $pdata$PMC_Add_L_X         000000018000821c     pmc_add_sub.obj
 0004:00000228       $pdata$PMC_Add_I_X         0000000180008228     pmc_add_sub.obj
 0004:00000234       $pdata$SubtructU_X_X_Imp   0000000180008234     pmc_add_sub.obj
 0004:00000240       $pdata$SubtructU_X_L_Imp   0000000180008240     pmc_add_sub.obj
 0004:0000024c       $pdata$SubtructU_X_I_Imp   000000018000824c     pmc_add_sub.obj
 0004:00000258       $pdata$AddU_X_X_Imp        0000000180008258     pmc_add_sub.obj
 0004:00000264       $pdata$0$AddU_X_X_Imp      0000000180008264     pmc_add_sub.obj
 0004:00000270       $pdata$2$AddU_X_X_Imp      0000000180008270     pmc_add_sub.obj
 0004:0000027c       $pdata$4$AddU_X_X_Imp      000000018000827c     pmc_add_sub.obj
 0004:00000288       $pdata$5$AddU_X_X_Imp      0000000180008288     pmc_add_sub.obj
 0004:00000294       $pdata$AddU_X_L_Imp        0000000180008294     pmc_add_sub.obj
 0004:000002a0       $pdata$0$AddU_X_L_Imp      00000001800082a0     pmc_add_sub.obj
 0004:000002ac       $pdata$2$AddU_X_L_Imp      00000001800082ac     pmc_add_sub.obj
 0004:000002b8       $pdata$4$AddU_X_L_Imp      00000001800082b8     pmc_add_sub.obj
 0004:000002c4       $pdata$5$AddU_X_L_Imp      00000001800082c4     pmc_add_sub.obj
 0004:000002d0       $pdata$AddU_X_I_Imp        00000001800082d0     pmc_add_sub.obj
 0004:000002dc       $pdata$0$AddU_X_I_Imp      00000001800082dc     pmc_add_sub.obj
 0004:000002e8       $pdata$2$AddU_X_I_Imp      00000001800082e8     pmc_add_sub.obj
 0004:000002f4       $pdata$4$AddU_X_I_Imp      00000001800082f4     pmc_add_sub.obj
 0004:00000300       $pdata$5$AddU_X_I_Imp      0000000180008300     pmc_add_sub.obj
 0004:0000030c       $pdata$PMC_ToByteArray     000000018000830c     pmc_bytes.obj
 0004:00000318       $pdata$PMC_FromByteArray   0000000180008318     pmc_bytes.obj
 0004:00000324       $pdata$1$PMC_FromByteArray 0000000180008324     pmc_bytes.obj
 0004:00000330       $pdata$2$PMC_FromByteArray 0000000180008330     pmc_bytes.obj
 0004:0000033c       $pdata$3$PMC_FromByteArray 000000018000833c     pmc_bytes.obj
 0004:00000348       $pdata$4$PMC_FromByteArray 0000000180008348     pmc_bytes.obj
 0004:00000354       $pdata$PMC_Clone_X         0000000180008354     pmc_clone.obj
 0004:00000360       $pdata$PMC_Compare_X_X     0000000180008360     pmc_compare.obj
 0004:0000036c       $pdata$PMC_Compare_X_UX    000000018000836c     pmc_compare.obj
 0004:00000378       $pdata$PMC_Compare_X_L     0000000180008378     pmc_compare.obj
 0004:00000384       $pdata$PMC_Compare_X_I     0000000180008384     pmc_compare.obj
 0004:00000390       $pdata$PMC_Compare_UX_X    0000000180008390     pmc_compare.obj
 0004:0000039c       $pdata$PMC_Compare_L_X     000000018000839c     pmc_compare.obj
 0004:000003a8       $pdata$PMC_Compare_I_X     00000001800083a8     pmc_compare.obj
 0004:000003b4       $pdata$PMC_DivRem_X_X      00000001800083b4     pmc_divrem.obj
 0004:000003c0       $pdata$2$PMC_DivRem_X_X    00000001800083c0     pmc_divrem.obj
 0004:000003cc       $pdata$4$PMC_DivRem_X_X    00000001800083cc     pmc_divrem.obj
 0004:000003d8       $pdata$5$PMC_DivRem_X_X    00000001800083d8     pmc_divrem.obj
 0004:000003e4       $pdata$PMC_DivRem_X_UX     00000001800083e4     pmc_divrem.obj
 0004:000003f0       $pdata$2$PMC_DivRem_X_UX   00000001800083f0     pmc_divrem.obj
 0004:000003fc       $pdata$4$PMC_DivRem_X_UX   00000001800083fc     pmc_divrem.obj
 0004:00000408       $pdata$5$PMC_DivRem_X_UX   0000000180008408     pmc_divrem.obj
 0004:00000414       $pdata$PMC_DivRem_X_L      0000000180008414     pmc_divrem.obj
 0004:00000420       $pdata$1$PMC_DivRem_X_L    0000000180008420     pmc_divrem.obj
 0004:0000042c       $pdata$3$PMC_DivRem_X_L    000000018000842c     pmc_divrem.obj
 0004:00000438       $pdata$4$PMC_DivRem_X_L    0000000180008438     pmc_divrem.obj
 0004:00000444       $pdata$PMC_DivRem_X_I      0000000180008444     pmc_divrem.obj
 0004:00000450       $pdata$1$PMC_DivRem_X_I    0000000180008450     pmc_divrem.obj
 0004:0000045c       $pdata$3$PMC_DivRem_X_I    000000018000845c     pmc_divrem.obj
 0004:00000468       $pdata$4$PMC_DivRem_X_I    0000000180008468     pmc_divrem.obj
 0004:00000474       $pdata$PMC_DivRem_UX_X     0000000180008474     pmc_divrem.obj
 0004:00000480       $pdata$0$PMC_DivRem_UX_X   0000000180008480     pmc_divrem.obj
 0004:0000048c       $pdata$2$PMC_DivRem_UX_X   000000018000848c     pmc_divrem.obj
 0004:00000498       $pdata$4$PMC_DivRem_UX_X   0000000180008498     pmc_divrem.obj
 0004:000004a4       $pdata$6$PMC_DivRem_UX_X   00000001800084a4     pmc_divrem.obj
 0004:000004b0       $pdata$7$PMC_DivRem_UX_X   00000001800084b0     pmc_divrem.obj
 0004:000004bc       $pdata$PMC_DivRem_L_X      00000001800084bc     pmc_divrem.obj
 0004:000004c8       $pdata$2$PMC_DivRem_L_X    00000001800084c8     pmc_divrem.obj
 0004:000004d4       $pdata$4$PMC_DivRem_L_X    00000001800084d4     pmc_divrem.obj
 0004:000004e0       $pdata$5$PMC_DivRem_L_X    00000001800084e0     pmc_divrem.obj
 0004:000004ec       $pdata$PMC_DivRem_I_X      00000001800084ec     pmc_divrem.obj
 0004:000004f8       $pdata$2$PMC_DivRem_I_X    00000001800084f8     pmc_divrem.obj
 0004:00000504       $pdata$4$PMC_DivRem_I_X    0000000180008504     pmc_divrem.obj
 0004:00000510       $pdata$5$PMC_DivRem_I_X    0000000180008510     pmc_divrem.obj
 0004:0000051c       $pdata$PMC_Equals_X_X      000000018000851c     pmc_equals.obj
 0004:00000528       $pdata$PMC_Equals_X_UX     0000000180008528     pmc_equals.obj
 0004:00000534       $pdata$PMC_Equals_X_L      0000000180008534     pmc_equals.obj
 0004:00000540       $pdata$PMC_Equals_X_I      0000000180008540     pmc_equals.obj
 0004:0000054c       $pdata$PMC_Equals_UX_X     000000018000854c     pmc_equals.obj
 0004:00000558       $pdata$PMC_Equals_L_X      0000000180008558     pmc_equals.obj
 0004:00000564       $pdata$PMC_Equals_I_X      0000000180008564     pmc_equals.obj
 0004:00000570       $pdata$PMC_From_L          0000000180008570     pmc_from.obj
 0004:0000057c       $pdata$PMC_From_I          000000018000857c     pmc_from.obj
 0004:00000588       $pdata$From_I_Imp          0000000180008588     pmc_from.obj
 0004:00000594       $pdata$From_L_Imp          0000000180008594     pmc_from.obj
 0004:000005a0       $pdata$PMC_SINT_Initialize 00000001800085a0     pmc_initialize.obj
 0004:000005ac       $pdata$0$PMC_SINT_Initialize 00000001800085ac     pmc_initialize.obj
 0004:000005b8       $pdata$1$PMC_SINT_Initialize 00000001800085b8     pmc_initialize.obj
 0004:000005c4       $pdata$PMC_Dispose         00000001800085c4     pmc_memory.obj
 0004:000005c4       $pdata$DeallocateNumber    00000001800085c4     pmc_memory.obj
 0004:000005d0       $pdata$DuplicateNumber     00000001800085d0     pmc_memory.obj
 0004:000005dc       $pdata$AllocateNumber      00000001800085dc     pmc_memory.obj
 0004:000005e8       $pdata$Negate_Imp          00000001800085e8     pmc_memory.obj
 0004:000005f4       $pdata$0$Negate_Imp        00000001800085f4     pmc_memory.obj
 0004:00000600       $pdata$2$Negate_Imp        0000000180008600     pmc_memory.obj
 0004:0000060c       $pdata$4$Negate_Imp        000000018000860c     pmc_memory.obj
 0004:00000618       $pdata$5$Negate_Imp        0000000180008618     pmc_memory.obj
 0004:00000624       $pdata$MultiplyU_X_X_Imp   0000000180008624     pmc_multiply.obj
 0004:00000630       $pdata$0$MultiplyU_X_X_Imp 0000000180008630     pmc_multiply.obj
 0004:0000063c       $pdata$2$MultiplyU_X_X_Imp 000000018000863c     pmc_multiply.obj
 0004:00000648       $pdata$4$MultiplyU_X_X_Imp 0000000180008648     pmc_multiply.obj
 0004:00000654       $pdata$5$MultiplyU_X_X_Imp 0000000180008654     pmc_multiply.obj
 0004:00000660       $pdata$MultiplyU_X_L_Imp   0000000180008660     pmc_multiply.obj
 0004:0000066c       $pdata$0$MultiplyU_X_L_Imp 000000018000866c     pmc_multiply.obj
 0004:00000678       $pdata$2$MultiplyU_X_L_Imp 0000000180008678     pmc_multiply.obj
 0004:00000684       $pdata$4$MultiplyU_X_L_Imp 0000000180008684     pmc_multiply.obj
 0004:00000690       $pdata$5$MultiplyU_X_L_Imp 0000000180008690     pmc_multiply.obj
 0004:0000069c       $pdata$MultiplyU_X_I_Imp   000000018000869c     pmc_multiply.obj
 0004:000006a8       $pdata$0$MultiplyU_X_I_Imp 00000001800086a8     pmc_multiply.obj
 0004:000006b4       $pdata$2$MultiplyU_X_I_Imp 00000001800086b4     pmc_multiply.obj
 0004:000006c0       $pdata$4$MultiplyU_X_I_Imp 00000001800086c0     pmc_multiply.obj
 0004:000006cc       $pdata$5$MultiplyU_X_I_Imp 00000001800086cc     pmc_multiply.obj
 0004:000006d8       $pdata$PMC_Multiply_I_X    00000001800086d8     pmc_multiply.obj
 0004:000006e4       $pdata$PMC_Multiply_UX_X   00000001800086e4     pmc_multiply.obj
 0004:000006f0       $pdata$PMC_Multiply_L_X    00000001800086f0     pmc_multiply.obj
 0004:000006fc       $pdata$PMC_Multiply_X_UX   00000001800086fc     pmc_multiply.obj
 0004:00000708       $pdata$PMC_Multiply_X_X    0000000180008708     pmc_multiply.obj
 0004:00000714       $pdata$PMC_Multiply_X_I    0000000180008714     pmc_multiply.obj
 0004:00000720       $pdata$PMC_Multiply_X_L    0000000180008720     pmc_multiply.obj
 0004:0000072c       $pdata$PMC_Negate_X        000000018000872c     pmc_negate.obj
 0004:00000738       $pdata$PMC_TryParse        0000000180008738     pmc_parse.obj
 0004:00000744       $pdata$1$PMC_TryParse      0000000180008744     pmc_parse.obj
 0004:00000750       $pdata$2$PMC_TryParse      0000000180008750     pmc_parse.obj
 0004:0000075c       $pdata$3$PMC_TryParse      000000018000875c     pmc_parse.obj
 0004:00000768       $pdata$4$PMC_TryParse      0000000180008768     pmc_parse.obj
 0004:00000774       $pdata$PMC_To_X_L          0000000180008774     pmc_to.obj
 0004:00000780       $pdata$0$PMC_To_X_L        0000000180008780     pmc_to.obj
 0004:0000078c       $pdata$2$PMC_To_X_L        000000018000878c     pmc_to.obj
 0004:00000798       $pdata$4$PMC_To_X_L        0000000180008798     pmc_to.obj
 0004:000007a4       $pdata$6$PMC_To_X_L        00000001800087a4     pmc_to.obj
 0004:000007b0       $pdata$7$PMC_To_X_L        00000001800087b0     pmc_to.obj
 0004:000007bc       $pdata$PMC_To_X_I          00000001800087bc     pmc_to.obj
 0004:000007c8       $pdata$0$PMC_To_X_I        00000001800087c8     pmc_to.obj
 0004:000007d4       $pdata$2$PMC_To_X_I        00000001800087d4     pmc_to.obj
 0004:000007e0       $pdata$4$PMC_To_X_I        00000001800087e0     pmc_to.obj
 0004:000007ec       $pdata$6$PMC_To_X_I        00000001800087ec     pmc_to.obj
 0004:000007f8       $pdata$7$PMC_To_X_I        00000001800087f8     pmc_to.obj
 0005:000000a0       $R000000                   00000001800090a0     Palmtree.Math.Core.Sint.res
 0005:000003c0       $R000320                   00000001800093c0     Palmtree.Math.Core.Sint.res
