; Listing generated by Microsoft (R) Optimizing Compiler Version 19.16.27026.1 

	TITLE	Z:\Sources\Lunor\Repos\rougemeilland\Palmtree.Math.Core.Sint\Palmtree.Math.Core.Sint\pmc_multiply.c
	.686P
	.XMM
	include listing.inc
	.model	flat

INCLUDELIB MSVCRTD
INCLUDELIB OLDNAMES

msvcjmc	SEGMENT
__7B7A869E_ctype@h DB 01H
__457DD326_basetsd@h DB 01H
__4384A2D9_corecrt_memcpy_s@h DB 01H
__4E51A221_corecrt_wstring@h DB 01H
__2140C079_string@h DB 01H
__1887E595_winnt@h DB 01H
__9FC7C64B_processthreadsapi@h DB 01H
__FA470AEC_memoryapi@h DB 01H
__F37DAFF1_winerror@h DB 01H
__7A450CCC_winbase@h DB 01H
__B4B40122_winioctl@h DB 01H
__86261D59_stralign@h DB 01H
__8CA3E54E_pmc_inline_func@h DB 01H
__6265BA8B_pmc_multiply@c DB 01H
msvcjmc	ENDS
PUBLIC	_PMC_Multiply_I_X@12
PUBLIC	_PMC_Multiply_L_X@16
PUBLIC	_PMC_Multiply_UX_X@12
PUBLIC	_PMC_Multiply_X_I@12
PUBLIC	_PMC_Multiply_X_L@16
PUBLIC	_PMC_Multiply_X_UX@12
PUBLIC	_PMC_Multiply_X_X@12
PUBLIC	__JustMyCode_Default
EXTRN	_AllocateNumber:PROC
EXTRN	_CheckNumber:PROC
EXTRN	_IsZero_UINT:PROC
EXTRN	@_RTC_CheckStackVars@8:PROC
EXTRN	@__CheckForDebuggerJustMyCode@4:PROC
EXTRN	@__security_check_cookie@4:PROC
EXTRN	__RTC_CheckEsp:PROC
EXTRN	__RTC_InitBase:PROC
EXTRN	__RTC_Shutdown:PROC
EXTRN	_ep_uint:BYTE
EXTRN	_number_zero:BYTE
EXTRN	___security_cookie:DWORD
;	COMDAT rtc$TMZ
rtc$TMZ	SEGMENT
__RTC_Shutdown.rtc$TMZ DD FLAT:__RTC_Shutdown
rtc$TMZ	ENDS
;	COMDAT rtc$IMZ
rtc$IMZ	SEGMENT
__RTC_InitBase.rtc$IMZ DD FLAT:__RTC_InitBase
rtc$IMZ	ENDS
; Function compile flags: /Odt
;	COMDAT __JustMyCode_Default
_TEXT	SEGMENT
__JustMyCode_Default PROC				; COMDAT
	push	ebp
	mov	ebp, esp
	pop	ebp
	ret	0
__JustMyCode_Default ENDP
_TEXT	ENDS
; Function compile flags: /Odtp /RTCsu /ZI
; File z:\sources\lunor\repos\rougemeilland\palmtree.math.core.sint\palmtree.math.core.sint\pmc_multiply.c
;	COMDAT _MultiplyU_X_X_Imp
_TEXT	SEGMENT
_w_abs$ = -24						; size = 4
_result$ = -12						; size = 4
__$ArrayPad$ = -4					; size = 4
_w_sign$ = 8						; size = 1
_u$ = 12						; size = 4
_v$ = 16						; size = 4
_w$ = 20						; size = 4
_MultiplyU_X_X_Imp PROC					; COMDAT

; 60   : {

	push	ebp
	mov	ebp, esp
	sub	esp, 220				; 000000dcH
	push	ebx
	push	esi
	push	edi
	lea	edi, DWORD PTR [ebp-220]
	mov	ecx, 55					; 00000037H
	mov	eax, -858993460				; ccccccccH
	rep stosd
	mov	eax, DWORD PTR ___security_cookie
	xor	eax, ebp
	mov	DWORD PTR __$ArrayPad$[ebp], eax
	mov	ecx, OFFSET __6265BA8B_pmc_multiply@c
	call	@__CheckForDebuggerJustMyCode@4

; 61   :     PMC_STATUS_CODE result;
; 62   :     PMC_HANDLE_UINT w_abs;
; 63   :     if ((result = ep_uint.Multiply_X_X(u, v, &w_abs)) != PMC_STATUS_OK)

	mov	esi, esp
	lea	eax, DWORD PTR _w_abs$[ebp]
	push	eax
	mov	ecx, DWORD PTR _v$[ebp]
	push	ecx
	mov	edx, DWORD PTR _u$[ebp]
	push	edx
	call	DWORD PTR _ep_uint+120
	cmp	esi, esp
	call	__RTC_CheckEsp
	mov	DWORD PTR _result$[ebp], eax
	cmp	DWORD PTR _result$[ebp], 0
	je	SHORT $LN2@MultiplyU_

; 64   :         return (result);

	mov	eax, DWORD PTR _result$[ebp]
	jmp	SHORT $LN1@MultiplyU_
$LN2@MultiplyU_:

; 65   :     if ((result = AllocateNumber(w, w_sign, w_abs)) != PMC_STATUS_OK)

	mov	eax, DWORD PTR _w_abs$[ebp]
	push	eax
	movzx	ecx, BYTE PTR _w_sign$[ebp]
	push	ecx
	mov	edx, DWORD PTR _w$[ebp]
	push	edx
	call	_AllocateNumber
	add	esp, 12					; 0000000cH
	mov	DWORD PTR _result$[ebp], eax
	cmp	DWORD PTR _result$[ebp], 0
	je	SHORT $LN3@MultiplyU_

; 66   :     {
; 67   :         ep_uint.Dispose(w_abs);

	mov	esi, esp
	mov	eax, DWORD PTR _w_abs$[ebp]
	push	eax
	call	DWORD PTR _ep_uint+16
	cmp	esi, esp
	call	__RTC_CheckEsp

; 68   :         return (result);

	mov	eax, DWORD PTR _result$[ebp]
	jmp	SHORT $LN1@MultiplyU_
$LN3@MultiplyU_:

; 69   :     }
; 70   :     return (PMC_STATUS_OK);

	xor	eax, eax
$LN1@MultiplyU_:

; 71   : }

	push	edx
	mov	ecx, ebp
	push	eax
	lea	edx, DWORD PTR $LN7@MultiplyU_
	call	@_RTC_CheckStackVars@8
	pop	eax
	pop	edx
	pop	edi
	pop	esi
	pop	ebx
	mov	ecx, DWORD PTR __$ArrayPad$[ebp]
	xor	ecx, ebp
	call	@__security_check_cookie@4
	add	esp, 220				; 000000dcH
	cmp	ebp, esp
	call	__RTC_CheckEsp
	mov	esp, ebp
	pop	ebp
	ret	0
	npad	2
$LN7@MultiplyU_:
	DD	1
	DD	$LN6@MultiplyU_
$LN6@MultiplyU_:
	DD	-24					; ffffffe8H
	DD	4
	DD	$LN5@MultiplyU_
$LN5@MultiplyU_:
	DB	119					; 00000077H
	DB	95					; 0000005fH
	DB	97					; 00000061H
	DB	98					; 00000062H
	DB	115					; 00000073H
	DB	0
_MultiplyU_X_X_Imp ENDP
_TEXT	ENDS
; Function compile flags: /Odtp /RTCsu /ZI
; File z:\sources\lunor\repos\rougemeilland\palmtree.math.core.sint\palmtree.math.core.sint\pmc_multiply.c
;	COMDAT _MultiplyU_X_L_Imp
_TEXT	SEGMENT
_w_abs$ = -24						; size = 4
_result$ = -12						; size = 4
__$ArrayPad$ = -4					; size = 4
_w_sign$ = 8						; size = 1
_u$ = 12						; size = 4
_v$ = 16						; size = 8
_w$ = 24						; size = 4
_MultiplyU_X_L_Imp PROC					; COMDAT

; 46   : {

	push	ebp
	mov	ebp, esp
	sub	esp, 220				; 000000dcH
	push	ebx
	push	esi
	push	edi
	lea	edi, DWORD PTR [ebp-220]
	mov	ecx, 55					; 00000037H
	mov	eax, -858993460				; ccccccccH
	rep stosd
	mov	eax, DWORD PTR ___security_cookie
	xor	eax, ebp
	mov	DWORD PTR __$ArrayPad$[ebp], eax
	mov	ecx, OFFSET __6265BA8B_pmc_multiply@c
	call	@__CheckForDebuggerJustMyCode@4

; 47   :     PMC_STATUS_CODE result;
; 48   :     PMC_HANDLE_UINT w_abs;
; 49   :     if ((result = ep_uint.Multiply_X_L(u, v, &w_abs)) != PMC_STATUS_OK)

	mov	esi, esp
	lea	eax, DWORD PTR _w_abs$[ebp]
	push	eax
	mov	ecx, DWORD PTR _v$[ebp+4]
	push	ecx
	mov	edx, DWORD PTR _v$[ebp]
	push	edx
	mov	eax, DWORD PTR _u$[ebp]
	push	eax
	call	DWORD PTR _ep_uint+116
	cmp	esi, esp
	call	__RTC_CheckEsp
	mov	DWORD PTR _result$[ebp], eax
	cmp	DWORD PTR _result$[ebp], 0
	je	SHORT $LN2@MultiplyU_

; 50   :         return (result);

	mov	eax, DWORD PTR _result$[ebp]
	jmp	SHORT $LN1@MultiplyU_
$LN2@MultiplyU_:

; 51   :     if ((result = AllocateNumber(w, w_sign, w_abs)) != PMC_STATUS_OK)

	mov	eax, DWORD PTR _w_abs$[ebp]
	push	eax
	movzx	ecx, BYTE PTR _w_sign$[ebp]
	push	ecx
	mov	edx, DWORD PTR _w$[ebp]
	push	edx
	call	_AllocateNumber
	add	esp, 12					; 0000000cH
	mov	DWORD PTR _result$[ebp], eax
	cmp	DWORD PTR _result$[ebp], 0
	je	SHORT $LN3@MultiplyU_

; 52   :     {
; 53   :         ep_uint.Dispose(w_abs);

	mov	esi, esp
	mov	eax, DWORD PTR _w_abs$[ebp]
	push	eax
	call	DWORD PTR _ep_uint+16
	cmp	esi, esp
	call	__RTC_CheckEsp

; 54   :         return (result);

	mov	eax, DWORD PTR _result$[ebp]
	jmp	SHORT $LN1@MultiplyU_
$LN3@MultiplyU_:

; 55   :     }
; 56   :     return (PMC_STATUS_OK);

	xor	eax, eax
$LN1@MultiplyU_:

; 57   : }

	push	edx
	mov	ecx, ebp
	push	eax
	lea	edx, DWORD PTR $LN7@MultiplyU_
	call	@_RTC_CheckStackVars@8
	pop	eax
	pop	edx
	pop	edi
	pop	esi
	pop	ebx
	mov	ecx, DWORD PTR __$ArrayPad$[ebp]
	xor	ecx, ebp
	call	@__security_check_cookie@4
	add	esp, 220				; 000000dcH
	cmp	ebp, esp
	call	__RTC_CheckEsp
	mov	esp, ebp
	pop	ebp
	ret	0
	npad	2
$LN7@MultiplyU_:
	DD	1
	DD	$LN6@MultiplyU_
$LN6@MultiplyU_:
	DD	-24					; ffffffe8H
	DD	4
	DD	$LN5@MultiplyU_
$LN5@MultiplyU_:
	DB	119					; 00000077H
	DB	95					; 0000005fH
	DB	97					; 00000061H
	DB	98					; 00000062H
	DB	115					; 00000073H
	DB	0
_MultiplyU_X_L_Imp ENDP
_TEXT	ENDS
; Function compile flags: /Odtp /RTCsu /ZI
; File z:\sources\lunor\repos\rougemeilland\palmtree.math.core.sint\palmtree.math.core.sint\pmc_multiply.c
;	COMDAT _MultiplyU_X_I_Imp
_TEXT	SEGMENT
_w_abs$ = -24						; size = 4
_result$ = -12						; size = 4
__$ArrayPad$ = -4					; size = 4
_w_sign$ = 8						; size = 1
_u$ = 12						; size = 4
_v$ = 16						; size = 4
_w$ = 20						; size = 4
_MultiplyU_X_I_Imp PROC					; COMDAT

; 32   : {

	push	ebp
	mov	ebp, esp
	sub	esp, 220				; 000000dcH
	push	ebx
	push	esi
	push	edi
	lea	edi, DWORD PTR [ebp-220]
	mov	ecx, 55					; 00000037H
	mov	eax, -858993460				; ccccccccH
	rep stosd
	mov	eax, DWORD PTR ___security_cookie
	xor	eax, ebp
	mov	DWORD PTR __$ArrayPad$[ebp], eax
	mov	ecx, OFFSET __6265BA8B_pmc_multiply@c
	call	@__CheckForDebuggerJustMyCode@4

; 33   :     PMC_STATUS_CODE result;
; 34   :     PMC_HANDLE_UINT w_abs;
; 35   :     if ((result = ep_uint.Multiply_X_I(u, v, &w_abs)) != PMC_STATUS_OK)

	mov	esi, esp
	lea	eax, DWORD PTR _w_abs$[ebp]
	push	eax
	mov	ecx, DWORD PTR _v$[ebp]
	push	ecx
	mov	edx, DWORD PTR _u$[ebp]
	push	edx
	call	DWORD PTR _ep_uint+112
	cmp	esi, esp
	call	__RTC_CheckEsp
	mov	DWORD PTR _result$[ebp], eax
	cmp	DWORD PTR _result$[ebp], 0
	je	SHORT $LN2@MultiplyU_

; 36   :         return (result);

	mov	eax, DWORD PTR _result$[ebp]
	jmp	SHORT $LN1@MultiplyU_
$LN2@MultiplyU_:

; 37   :     if ((result = AllocateNumber(w, w_sign, w_abs)) != PMC_STATUS_OK)

	mov	eax, DWORD PTR _w_abs$[ebp]
	push	eax
	movzx	ecx, BYTE PTR _w_sign$[ebp]
	push	ecx
	mov	edx, DWORD PTR _w$[ebp]
	push	edx
	call	_AllocateNumber
	add	esp, 12					; 0000000cH
	mov	DWORD PTR _result$[ebp], eax
	cmp	DWORD PTR _result$[ebp], 0
	je	SHORT $LN3@MultiplyU_

; 38   :     {
; 39   :         ep_uint.Dispose(w_abs);

	mov	esi, esp
	mov	eax, DWORD PTR _w_abs$[ebp]
	push	eax
	call	DWORD PTR _ep_uint+16
	cmp	esi, esp
	call	__RTC_CheckEsp

; 40   :         return (result);

	mov	eax, DWORD PTR _result$[ebp]
	jmp	SHORT $LN1@MultiplyU_
$LN3@MultiplyU_:

; 41   :     }
; 42   :     return (PMC_STATUS_OK);

	xor	eax, eax
$LN1@MultiplyU_:

; 43   : }

	push	edx
	mov	ecx, ebp
	push	eax
	lea	edx, DWORD PTR $LN7@MultiplyU_
	call	@_RTC_CheckStackVars@8
	pop	eax
	pop	edx
	pop	edi
	pop	esi
	pop	ebx
	mov	ecx, DWORD PTR __$ArrayPad$[ebp]
	xor	ecx, ebp
	call	@__security_check_cookie@4
	add	esp, 220				; 000000dcH
	cmp	ebp, esp
	call	__RTC_CheckEsp
	mov	esp, ebp
	pop	ebp
	ret	0
	npad	2
$LN7@MultiplyU_:
	DD	1
	DD	$LN6@MultiplyU_
$LN6@MultiplyU_:
	DD	-24					; ffffffe8H
	DD	4
	DD	$LN5@MultiplyU_
$LN5@MultiplyU_:
	DB	119					; 00000077H
	DB	95					; 0000005fH
	DB	97					; 00000061H
	DB	98					; 00000062H
	DB	115					; 00000073H
	DB	0
_MultiplyU_X_I_Imp ENDP
_TEXT	ENDS
; Function compile flags: /Odtp /RTCsu /ZI
; File z:\sources\lunor\repos\rougemeilland\palmtree.math.core.uint\palmtree.math.core.uint\pmc_inline_func.h
;	COMDAT _GET_ABS_64
_TEXT	SEGMENT
tv68 = -200						; size = 8
_u$ = 8							; size = 8
_sign$ = 16						; size = 4
_GET_ABS_64 PROC					; COMDAT

; 800  :     {

	push	ebp
	mov	ebp, esp
	sub	esp, 200				; 000000c8H
	push	ebx
	push	esi
	push	edi
	lea	edi, DWORD PTR [ebp-200]
	mov	ecx, 50					; 00000032H
	mov	eax, -858993460				; ccccccccH
	rep stosd
	mov	ecx, OFFSET __8CA3E54E_pmc_inline_func@h
	call	@__CheckForDebuggerJustMyCode@4

; 801  :         if (u > 0)

	cmp	DWORD PTR _u$[ebp+4], 0
	jl	SHORT $LN2@GET_ABS_64
	jg	SHORT $LN9@GET_ABS_64
	cmp	DWORD PTR _u$[ebp], 0
	jbe	SHORT $LN2@GET_ABS_64
$LN9@GET_ABS_64:

; 802  :         {
; 803  :             *sign = 1;

	mov	eax, DWORD PTR _sign$[ebp]
	mov	BYTE PTR [eax], 1

; 804  :             return ((_UINT64_T)u);

	mov	eax, DWORD PTR _u$[ebp]
	mov	edx, DWORD PTR _u$[ebp+4]
	jmp	SHORT $LN1@GET_ABS_64

; 805  :         }

	jmp	SHORT $LN1@GET_ABS_64
$LN2@GET_ABS_64:

; 806  :         else if (u == 0)

	mov	eax, DWORD PTR _u$[ebp]
	or	eax, DWORD PTR _u$[ebp+4]
	jne	SHORT $LN4@GET_ABS_64

; 807  :         {
; 808  :             *sign = 0;

	mov	eax, DWORD PTR _sign$[ebp]
	mov	BYTE PTR [eax], 0

; 809  :             return (0);

	xor	eax, eax
	xor	edx, edx
	jmp	SHORT $LN1@GET_ABS_64

; 810  :         }

	jmp	SHORT $LN1@GET_ABS_64
$LN4@GET_ABS_64:

; 811  :         else
; 812  :         {
; 813  :             *sign = -1;

	mov	eax, DWORD PTR _sign$[ebp]
	mov	BYTE PTR [eax], -1

; 814  :             return ((_UINT64_T)u == 0x8000000000000000UL ? 0x8000000000000000UL : (_UINT64_T)-u);

	cmp	DWORD PTR _u$[ebp], 0
	jne	SHORT $LN7@GET_ABS_64
	cmp	DWORD PTR _u$[ebp+4], -2147483648	; 80000000H
	jne	SHORT $LN7@GET_ABS_64
	mov	DWORD PTR tv68[ebp], 0
	mov	DWORD PTR tv68[ebp+4], -2147483648	; 80000000H
	jmp	SHORT $LN8@GET_ABS_64
$LN7@GET_ABS_64:
	mov	eax, DWORD PTR _u$[ebp]
	neg	eax
	mov	ecx, DWORD PTR _u$[ebp+4]
	adc	ecx, 0
	neg	ecx
	mov	DWORD PTR tv68[ebp], eax
	mov	DWORD PTR tv68[ebp+4], ecx
$LN8@GET_ABS_64:
	mov	eax, DWORD PTR tv68[ebp]
	mov	edx, DWORD PTR tv68[ebp+4]
$LN1@GET_ABS_64:

; 815  :         }
; 816  :     }

	pop	edi
	pop	esi
	pop	ebx
	add	esp, 200				; 000000c8H
	cmp	ebp, esp
	call	__RTC_CheckEsp
	mov	esp, ebp
	pop	ebp
	ret	0
_GET_ABS_64 ENDP
_TEXT	ENDS
; Function compile flags: /Odtp /RTCsu /ZI
; File z:\sources\lunor\repos\rougemeilland\palmtree.math.core.uint\palmtree.math.core.uint\pmc_inline_func.h
;	COMDAT _GET_ABS_32
_TEXT	SEGMENT
tv68 = -196						; size = 4
_u$ = 8							; size = 4
_sign$ = 12						; size = 4
_GET_ABS_32 PROC					; COMDAT

; 780  :     {

	push	ebp
	mov	ebp, esp
	sub	esp, 196				; 000000c4H
	push	ebx
	push	esi
	push	edi
	lea	edi, DWORD PTR [ebp-196]
	mov	ecx, 49					; 00000031H
	mov	eax, -858993460				; ccccccccH
	rep stosd
	mov	ecx, OFFSET __8CA3E54E_pmc_inline_func@h
	call	@__CheckForDebuggerJustMyCode@4

; 781  :         if (u > 0)

	cmp	DWORD PTR _u$[ebp], 0
	jle	SHORT $LN2@GET_ABS_32

; 782  :         {
; 783  :             *sign = 1;

	mov	eax, DWORD PTR _sign$[ebp]
	mov	BYTE PTR [eax], 1

; 784  :             return ((_UINT32_T)u);

	mov	eax, DWORD PTR _u$[ebp]
	jmp	SHORT $LN1@GET_ABS_32

; 785  :         }

	jmp	SHORT $LN1@GET_ABS_32
$LN2@GET_ABS_32:

; 786  :         else if (u == 0)

	cmp	DWORD PTR _u$[ebp], 0
	jne	SHORT $LN4@GET_ABS_32

; 787  :         {
; 788  :             *sign = 0;

	mov	eax, DWORD PTR _sign$[ebp]
	mov	BYTE PTR [eax], 0

; 789  :             return (0);

	xor	eax, eax
	jmp	SHORT $LN1@GET_ABS_32

; 790  :         }

	jmp	SHORT $LN1@GET_ABS_32
$LN4@GET_ABS_32:

; 791  :         else
; 792  :         {
; 793  :             *sign = -1;

	mov	eax, DWORD PTR _sign$[ebp]
	mov	BYTE PTR [eax], -1

; 794  :             return ((_UINT32_T)u == 0x80000000U ? 0x80000000U : (_UINT32_T)-u);

	cmp	DWORD PTR _u$[ebp], -2147483648		; 80000000H
	jne	SHORT $LN7@GET_ABS_32
	mov	DWORD PTR tv68[ebp], -2147483648	; 80000000H
	jmp	SHORT $LN8@GET_ABS_32
$LN7@GET_ABS_32:
	mov	eax, DWORD PTR _u$[ebp]
	neg	eax
	mov	DWORD PTR tv68[ebp], eax
$LN8@GET_ABS_32:
	mov	eax, DWORD PTR tv68[ebp]
$LN1@GET_ABS_32:

; 795  :         }
; 796  : }

	pop	edi
	pop	esi
	pop	ebx
	add	esp, 196				; 000000c4H
	cmp	ebp, esp
	call	__RTC_CheckEsp
	mov	esp, ebp
	pop	ebp
	ret	0
_GET_ABS_32 ENDP
_TEXT	ENDS
; Function compile flags: /Odtp /RTCsu /ZI
; File z:\sources\lunor\repos\rougemeilland\palmtree.math.core.sint\palmtree.math.core.sint\pmc_multiply.c
;	COMDAT _PMC_Multiply_X_X@12
_TEXT	SEGMENT
_nw$ = -48						; size = 4
_nv$ = -36						; size = 4
_nu$ = -24						; size = 4
_result$ = -12						; size = 4
__$ArrayPad$ = -4					; size = 4
_u$ = 8							; size = 4
_v$ = 12						; size = 4
_w$ = 16						; size = 4
_PMC_Multiply_X_X@12 PROC				; COMDAT

; 425  : {

	push	ebp
	mov	ebp, esp
	sub	esp, 244				; 000000f4H
	push	ebx
	push	esi
	push	edi
	lea	edi, DWORD PTR [ebp-244]
	mov	ecx, 61					; 0000003dH
	mov	eax, -858993460				; ccccccccH
	rep stosd
	mov	eax, DWORD PTR ___security_cookie
	xor	eax, ebp
	mov	DWORD PTR __$ArrayPad$[ebp], eax
	mov	ecx, OFFSET __6265BA8B_pmc_multiply@c
	call	@__CheckForDebuggerJustMyCode@4

; 426  :     if (u == NULL)

	cmp	DWORD PTR _u$[ebp], 0
	jne	SHORT $LN2@PMC_Multip

; 427  :         return (PMC_STATUS_ARGUMENT_ERROR);

	or	eax, -1
	jmp	$LN1@PMC_Multip
$LN2@PMC_Multip:

; 428  :     if (v == NULL)

	cmp	DWORD PTR _v$[ebp], 0
	jne	SHORT $LN3@PMC_Multip

; 429  :         return (PMC_STATUS_ARGUMENT_ERROR);

	or	eax, -1
	jmp	$LN1@PMC_Multip
$LN3@PMC_Multip:

; 430  :     if (w == NULL)

	cmp	DWORD PTR _w$[ebp], 0
	jne	SHORT $LN4@PMC_Multip

; 431  :         return (PMC_STATUS_ARGUMENT_ERROR);

	or	eax, -1
	jmp	$LN1@PMC_Multip
$LN4@PMC_Multip:

; 432  :     PMC_STATUS_CODE result;
; 433  :     NUMBER_HEADER* nu = (NUMBER_HEADER*)u;

	mov	eax, DWORD PTR _u$[ebp]
	mov	DWORD PTR _nu$[ebp], eax

; 434  :     NUMBER_HEADER* nv = (NUMBER_HEADER*)v;

	mov	eax, DWORD PTR _v$[ebp]
	mov	DWORD PTR _nv$[ebp], eax

; 435  :     NUMBER_HEADER* nw;
; 436  :     if ((result = CheckNumber(nu)) != PMC_STATUS_OK)

	mov	eax, DWORD PTR _nu$[ebp]
	push	eax
	call	_CheckNumber
	add	esp, 4
	mov	DWORD PTR _result$[ebp], eax
	cmp	DWORD PTR _result$[ebp], 0
	je	SHORT $LN5@PMC_Multip

; 437  :         return (result);

	mov	eax, DWORD PTR _result$[ebp]
	jmp	$LN1@PMC_Multip
$LN5@PMC_Multip:

; 438  :     if ((result = CheckNumber(nv)) != PMC_STATUS_OK)

	mov	eax, DWORD PTR _nv$[ebp]
	push	eax
	call	_CheckNumber
	add	esp, 4
	mov	DWORD PTR _result$[ebp], eax
	cmp	DWORD PTR _result$[ebp], 0
	je	SHORT $LN6@PMC_Multip

; 439  :         return (result);

	mov	eax, DWORD PTR _result$[ebp]
	jmp	$LN1@PMC_Multip
$LN6@PMC_Multip:

; 440  :     if (nu->SIGN == 0)

	mov	eax, DWORD PTR _nu$[ebp]
	movsx	ecx, BYTE PTR [eax+12]
	test	ecx, ecx
	jne	SHORT $LN7@PMC_Multip

; 441  :     {
; 442  :         // u == 0 の場合
; 443  : 
; 444  :         // 0 を返す
; 445  :         nw = &number_zero;

	mov	DWORD PTR _nw$[ebp], OFFSET _number_zero

; 446  :     }

	jmp	$LN8@PMC_Multip
$LN7@PMC_Multip:

; 447  :     else if (nu->SIGN > 0)

	mov	eax, DWORD PTR _nu$[ebp]
	movsx	ecx, BYTE PTR [eax+12]
	test	ecx, ecx
	jle	SHORT $LN9@PMC_Multip

; 448  :     {
; 449  :         // u > 0 の場合
; 450  : 
; 451  :         if (nv->SIGN == 0)

	mov	eax, DWORD PTR _nv$[ebp]
	movsx	ecx, BYTE PTR [eax+12]
	test	ecx, ecx
	jne	SHORT $LN11@PMC_Multip

; 452  :         {
; 453  :             // v == 0 の場合
; 454  : 
; 455  :             // 0 を返す
; 456  :             nw = &number_zero;

	mov	DWORD PTR _nw$[ebp], OFFSET _number_zero

; 457  :         }

	jmp	SHORT $LN12@PMC_Multip
$LN11@PMC_Multip:

; 458  :         else
; 459  :         {
; 460  :             // v != 0 の場合
; 461  : 
; 462  :             // abs(u) * v を返す
; 463  :             if ((result = MultiplyU_X_X_Imp(nv->SIGN, nu->ABS, nv->ABS, &nw)) != PMC_STATUS_OK)

	lea	eax, DWORD PTR _nw$[ebp]
	push	eax
	mov	ecx, DWORD PTR _nv$[ebp]
	mov	edx, DWORD PTR [ecx+8]
	push	edx
	mov	eax, DWORD PTR _nu$[ebp]
	mov	ecx, DWORD PTR [eax+8]
	push	ecx
	mov	edx, DWORD PTR _nv$[ebp]
	movzx	eax, BYTE PTR [edx+12]
	push	eax
	call	_MultiplyU_X_X_Imp
	add	esp, 16					; 00000010H
	mov	DWORD PTR _result$[ebp], eax
	cmp	DWORD PTR _result$[ebp], 0
	je	SHORT $LN12@PMC_Multip

; 464  :                 return (result);

	mov	eax, DWORD PTR _result$[ebp]
	jmp	SHORT $LN1@PMC_Multip
$LN12@PMC_Multip:

; 465  :         }
; 466  :     }

	jmp	SHORT $LN8@PMC_Multip
$LN9@PMC_Multip:

; 467  :     else
; 468  :     {
; 469  :         // u < 0 の場合
; 470  : 
; 471  :         if (nv->SIGN == 0)

	mov	eax, DWORD PTR _nv$[ebp]
	movsx	ecx, BYTE PTR [eax+12]
	test	ecx, ecx
	jne	SHORT $LN14@PMC_Multip

; 472  :         {
; 473  :             // v == 0 の場合
; 474  : 
; 475  :             // 0 を返す
; 476  :             nw = &number_zero;

	mov	DWORD PTR _nw$[ebp], OFFSET _number_zero

; 477  :         }

	jmp	SHORT $LN8@PMC_Multip
$LN14@PMC_Multip:

; 478  :         else
; 479  :         {
; 480  :             // v != 0 の場合
; 481  : 
; 482  :             // -abs(u) * v を返す
; 483  :             if ((result = MultiplyU_X_X_Imp(-nv->SIGN, nu->ABS, nv->ABS, &nw)) != PMC_STATUS_OK)

	lea	eax, DWORD PTR _nw$[ebp]
	push	eax
	mov	ecx, DWORD PTR _nv$[ebp]
	mov	edx, DWORD PTR [ecx+8]
	push	edx
	mov	eax, DWORD PTR _nu$[ebp]
	mov	ecx, DWORD PTR [eax+8]
	push	ecx
	mov	edx, DWORD PTR _nv$[ebp]
	movsx	eax, BYTE PTR [edx+12]
	neg	eax
	push	eax
	call	_MultiplyU_X_X_Imp
	add	esp, 16					; 00000010H
	mov	DWORD PTR _result$[ebp], eax
	cmp	DWORD PTR _result$[ebp], 0
	je	SHORT $LN8@PMC_Multip

; 484  :                 return (result);

	mov	eax, DWORD PTR _result$[ebp]
	jmp	SHORT $LN1@PMC_Multip
$LN8@PMC_Multip:

; 485  :         }
; 486  :     }
; 487  :     *w = (PMC_HANDLE_SINT)nw;

	mov	eax, DWORD PTR _w$[ebp]
	mov	ecx, DWORD PTR _nw$[ebp]
	mov	DWORD PTR [eax], ecx

; 488  :     return (PMC_STATUS_OK);

	xor	eax, eax
$LN1@PMC_Multip:

; 489  : }

	push	edx
	mov	ecx, ebp
	push	eax
	lea	edx, DWORD PTR $LN20@PMC_Multip
	call	@_RTC_CheckStackVars@8
	pop	eax
	pop	edx
	pop	edi
	pop	esi
	pop	ebx
	mov	ecx, DWORD PTR __$ArrayPad$[ebp]
	xor	ecx, ebp
	call	@__security_check_cookie@4
	add	esp, 244				; 000000f4H
	cmp	ebp, esp
	call	__RTC_CheckEsp
	mov	esp, ebp
	pop	ebp
	ret	12					; 0000000cH
	npad	1
$LN20@PMC_Multip:
	DD	1
	DD	$LN19@PMC_Multip
$LN19@PMC_Multip:
	DD	-48					; ffffffd0H
	DD	4
	DD	$LN18@PMC_Multip
$LN18@PMC_Multip:
	DB	110					; 0000006eH
	DB	119					; 00000077H
	DB	0
_PMC_Multiply_X_X@12 ENDP
_TEXT	ENDS
; Function compile flags: /Odtp /RTCsu /ZI
; File z:\sources\lunor\repos\rougemeilland\palmtree.math.core.sint\palmtree.math.core.sint\pmc_multiply.c
;	COMDAT _PMC_Multiply_X_UX@12
_TEXT	SEGMENT
_v_is_zero$ = -45					; size = 1
_nw$ = -36						; size = 4
_nu$ = -24						; size = 4
_result$ = -12						; size = 4
__$ArrayPad$ = -4					; size = 4
_u$ = 8							; size = 4
_v$ = 12						; size = 4
_w$ = 16						; size = 4
_PMC_Multiply_X_UX@12 PROC				; COMDAT

; 377  : {

	push	ebp
	mov	ebp, esp
	sub	esp, 244				; 000000f4H
	push	ebx
	push	esi
	push	edi
	lea	edi, DWORD PTR [ebp-244]
	mov	ecx, 61					; 0000003dH
	mov	eax, -858993460				; ccccccccH
	rep stosd
	mov	eax, DWORD PTR ___security_cookie
	xor	eax, ebp
	mov	DWORD PTR __$ArrayPad$[ebp], eax
	mov	ecx, OFFSET __6265BA8B_pmc_multiply@c
	call	@__CheckForDebuggerJustMyCode@4

; 378  :     if (u == NULL)

	cmp	DWORD PTR _u$[ebp], 0
	jne	SHORT $LN2@PMC_Multip

; 379  :         return (PMC_STATUS_ARGUMENT_ERROR);

	or	eax, -1
	jmp	$LN1@PMC_Multip
$LN2@PMC_Multip:

; 380  :     if (v == NULL)

	cmp	DWORD PTR _v$[ebp], 0
	jne	SHORT $LN3@PMC_Multip

; 381  :         return (PMC_STATUS_ARGUMENT_ERROR);

	or	eax, -1
	jmp	$LN1@PMC_Multip
$LN3@PMC_Multip:

; 382  :     if (w == NULL)

	cmp	DWORD PTR _w$[ebp], 0
	jne	SHORT $LN4@PMC_Multip

; 383  :         return (PMC_STATUS_ARGUMENT_ERROR);

	or	eax, -1
	jmp	$LN1@PMC_Multip
$LN4@PMC_Multip:

; 384  :     PMC_STATUS_CODE result;
; 385  :     NUMBER_HEADER* nu = (NUMBER_HEADER*)u;

	mov	eax, DWORD PTR _u$[ebp]
	mov	DWORD PTR _nu$[ebp], eax

; 386  :     NUMBER_HEADER* nw;
; 387  :     if ((result = CheckNumber(nu)) != PMC_STATUS_OK)

	mov	eax, DWORD PTR _nu$[ebp]
	push	eax
	call	_CheckNumber
	add	esp, 4
	mov	DWORD PTR _result$[ebp], eax
	cmp	DWORD PTR _result$[ebp], 0
	je	SHORT $LN5@PMC_Multip

; 388  :         return (result);

	mov	eax, DWORD PTR _result$[ebp]
	jmp	SHORT $LN1@PMC_Multip
$LN5@PMC_Multip:

; 389  :     char v_is_zero;
; 390  :     if ((result = IsZero_UINT(v, &v_is_zero)) != PMC_STATUS_OK)

	lea	eax, DWORD PTR _v_is_zero$[ebp]
	push	eax
	mov	ecx, DWORD PTR _v$[ebp]
	push	ecx
	call	_IsZero_UINT
	add	esp, 8
	mov	DWORD PTR _result$[ebp], eax
	cmp	DWORD PTR _result$[ebp], 0
	je	SHORT $LN6@PMC_Multip

; 391  :         return (result);

	mov	eax, DWORD PTR _result$[ebp]
	jmp	SHORT $LN1@PMC_Multip
$LN6@PMC_Multip:

; 392  :     if (nu->SIGN == 0)

	mov	eax, DWORD PTR _nu$[ebp]
	movsx	ecx, BYTE PTR [eax+12]
	test	ecx, ecx
	jne	SHORT $LN7@PMC_Multip

; 393  :     {
; 394  :         // u == 0 の場合
; 395  : 
; 396  :         // 0 を返す
; 397  :         nw = &number_zero;

	mov	DWORD PTR _nw$[ebp], OFFSET _number_zero

; 398  :     }

	jmp	SHORT $LN8@PMC_Multip
$LN7@PMC_Multip:

; 399  :     else
; 400  :     {
; 401  :         // u != 0 の場合
; 402  : 
; 403  :         if (v_is_zero)

	movsx	eax, BYTE PTR _v_is_zero$[ebp]
	test	eax, eax
	je	SHORT $LN9@PMC_Multip

; 404  :         {
; 405  :             // v == 0 の場合
; 406  : 
; 407  :             // 0 を返す
; 408  :             nw = &number_zero;

	mov	DWORD PTR _nw$[ebp], OFFSET _number_zero

; 409  :         }

	jmp	SHORT $LN8@PMC_Multip
$LN9@PMC_Multip:

; 410  :         else
; 411  :         {
; 412  :             // v > 0 の場合
; 413  : 
; 414  :             // u * v を返す
; 415  :             if ((result = MultiplyU_X_X_Imp(nu->SIGN, nu->ABS, v, &nw)) != PMC_STATUS_OK)

	lea	eax, DWORD PTR _nw$[ebp]
	push	eax
	mov	ecx, DWORD PTR _v$[ebp]
	push	ecx
	mov	edx, DWORD PTR _nu$[ebp]
	mov	eax, DWORD PTR [edx+8]
	push	eax
	mov	ecx, DWORD PTR _nu$[ebp]
	movzx	edx, BYTE PTR [ecx+12]
	push	edx
	call	_MultiplyU_X_X_Imp
	add	esp, 16					; 00000010H
	mov	DWORD PTR _result$[ebp], eax
	cmp	DWORD PTR _result$[ebp], 0
	je	SHORT $LN8@PMC_Multip

; 416  :                 return (result);

	mov	eax, DWORD PTR _result$[ebp]
	jmp	SHORT $LN1@PMC_Multip
$LN8@PMC_Multip:

; 417  :         }
; 418  : 
; 419  :     }
; 420  :     *w = (PMC_HANDLE_SINT)nw;

	mov	eax, DWORD PTR _w$[ebp]
	mov	ecx, DWORD PTR _nw$[ebp]
	mov	DWORD PTR [eax], ecx

; 421  :     return (PMC_STATUS_OK);

	xor	eax, eax
$LN1@PMC_Multip:

; 422  : }

	push	edx
	mov	ecx, ebp
	push	eax
	lea	edx, DWORD PTR $LN16@PMC_Multip
	call	@_RTC_CheckStackVars@8
	pop	eax
	pop	edx
	pop	edi
	pop	esi
	pop	ebx
	mov	ecx, DWORD PTR __$ArrayPad$[ebp]
	xor	ecx, ebp
	call	@__security_check_cookie@4
	add	esp, 244				; 000000f4H
	cmp	ebp, esp
	call	__RTC_CheckEsp
	mov	esp, ebp
	pop	ebp
	ret	12					; 0000000cH
	npad	1
$LN16@PMC_Multip:
	DD	2
	DD	$LN15@PMC_Multip
$LN15@PMC_Multip:
	DD	-36					; ffffffdcH
	DD	4
	DD	$LN13@PMC_Multip
	DD	-45					; ffffffd3H
	DD	1
	DD	$LN14@PMC_Multip
$LN14@PMC_Multip:
	DB	118					; 00000076H
	DB	95					; 0000005fH
	DB	105					; 00000069H
	DB	115					; 00000073H
	DB	95					; 0000005fH
	DB	122					; 0000007aH
	DB	101					; 00000065H
	DB	114					; 00000072H
	DB	111					; 0000006fH
	DB	0
$LN13@PMC_Multip:
	DB	110					; 0000006eH
	DB	119					; 00000077H
	DB	0
_PMC_Multiply_X_UX@12 ENDP
_TEXT	ENDS
; Function compile flags: /Odtp /RTCsu /ZI
; File z:\sources\lunor\repos\rougemeilland\palmtree.math.core.sint\palmtree.math.core.sint\pmc_multiply.c
;	COMDAT _PMC_Multiply_X_L@16
_TEXT	SEGMENT
_v_abs$ = -64						; size = 8
_v_sign$ = -45						; size = 1
_nw$ = -36						; size = 4
_nu$ = -24						; size = 4
_result$ = -12						; size = 4
__$ArrayPad$ = -4					; size = 4
_u$ = 8							; size = 4
_v$ = 12						; size = 8
_w$ = 20						; size = 4
_PMC_Multiply_X_L@16 PROC				; COMDAT

; 313  : {

	push	ebp
	mov	ebp, esp
	sub	esp, 260				; 00000104H
	push	ebx
	push	esi
	push	edi
	lea	edi, DWORD PTR [ebp-260]
	mov	ecx, 65					; 00000041H
	mov	eax, -858993460				; ccccccccH
	rep stosd
	mov	eax, DWORD PTR ___security_cookie
	xor	eax, ebp
	mov	DWORD PTR __$ArrayPad$[ebp], eax
	mov	ecx, OFFSET __6265BA8B_pmc_multiply@c
	call	@__CheckForDebuggerJustMyCode@4

; 314  :     if (u == NULL)

	cmp	DWORD PTR _u$[ebp], 0
	jne	SHORT $LN2@PMC_Multip

; 315  :         return (PMC_STATUS_ARGUMENT_ERROR);

	or	eax, -1
	jmp	$LN1@PMC_Multip
$LN2@PMC_Multip:

; 316  :     if (w == NULL)

	cmp	DWORD PTR _w$[ebp], 0
	jne	SHORT $LN3@PMC_Multip

; 317  :         return (PMC_STATUS_ARGUMENT_ERROR);

	or	eax, -1
	jmp	$LN1@PMC_Multip
$LN3@PMC_Multip:

; 318  :     PMC_STATUS_CODE result;
; 319  :     NUMBER_HEADER* nu = (NUMBER_HEADER*)u;

	mov	eax, DWORD PTR _u$[ebp]
	mov	DWORD PTR _nu$[ebp], eax

; 320  :     NUMBER_HEADER* nw;
; 321  :     if ((result = CheckNumber(nu)) != PMC_STATUS_OK)

	mov	eax, DWORD PTR _nu$[ebp]
	push	eax
	call	_CheckNumber
	add	esp, 4
	mov	DWORD PTR _result$[ebp], eax
	cmp	DWORD PTR _result$[ebp], 0
	je	SHORT $LN4@PMC_Multip

; 322  :         return (result);

	mov	eax, DWORD PTR _result$[ebp]
	jmp	$LN1@PMC_Multip
$LN4@PMC_Multip:

; 323  :     char v_sign;
; 324  :     _UINT64_T v_abs = GET_ABS_64(v, &v_sign);

	lea	eax, DWORD PTR _v_sign$[ebp]
	push	eax
	mov	ecx, DWORD PTR _v$[ebp+4]
	push	ecx
	mov	edx, DWORD PTR _v$[ebp]
	push	edx
	call	_GET_ABS_64
	add	esp, 12					; 0000000cH
	mov	DWORD PTR _v_abs$[ebp], eax
	mov	DWORD PTR _v_abs$[ebp+4], edx

; 325  :     if (nu->SIGN == 0)

	mov	eax, DWORD PTR _nu$[ebp]
	movsx	ecx, BYTE PTR [eax+12]
	test	ecx, ecx
	jne	SHORT $LN5@PMC_Multip

; 326  :     {
; 327  :         // u == 0 の場合
; 328  : 
; 329  :         // 0 を返す
; 330  :         nw = &number_zero;

	mov	DWORD PTR _nw$[ebp], OFFSET _number_zero

; 331  :     }

	jmp	$LN6@PMC_Multip
$LN5@PMC_Multip:

; 332  :     else if (nu->SIGN > 0)

	mov	eax, DWORD PTR _nu$[ebp]
	movsx	ecx, BYTE PTR [eax+12]
	test	ecx, ecx
	jle	SHORT $LN7@PMC_Multip

; 333  :     {
; 334  :         // u > 0 の場合
; 335  : 
; 336  :         if (v_sign == 0)

	movsx	eax, BYTE PTR _v_sign$[ebp]
	test	eax, eax
	jne	SHORT $LN9@PMC_Multip

; 337  :         {
; 338  :             // v == 0 の場合
; 339  : 
; 340  :             // 0 を返す
; 341  :             nw = &number_zero;

	mov	DWORD PTR _nw$[ebp], OFFSET _number_zero

; 342  :         }

	jmp	SHORT $LN10@PMC_Multip
$LN9@PMC_Multip:

; 343  :         else
; 344  :         {
; 345  :             // v != 0 の場合
; 346  : 
; 347  :             // abs(u) * abs(v) を返す
; 348  :             if ((result = MultiplyU_X_L_Imp(v_sign, nu->ABS, v_abs, &nw)) != PMC_STATUS_OK)

	lea	eax, DWORD PTR _nw$[ebp]
	push	eax
	mov	ecx, DWORD PTR _v_abs$[ebp+4]
	push	ecx
	mov	edx, DWORD PTR _v_abs$[ebp]
	push	edx
	mov	eax, DWORD PTR _nu$[ebp]
	mov	ecx, DWORD PTR [eax+8]
	push	ecx
	movzx	edx, BYTE PTR _v_sign$[ebp]
	push	edx
	call	_MultiplyU_X_L_Imp
	add	esp, 20					; 00000014H
	mov	DWORD PTR _result$[ebp], eax
	cmp	DWORD PTR _result$[ebp], 0
	je	SHORT $LN10@PMC_Multip

; 349  :                 return (result);

	mov	eax, DWORD PTR _result$[ebp]
	jmp	SHORT $LN1@PMC_Multip
$LN10@PMC_Multip:

; 350  :         }
; 351  :     }

	jmp	SHORT $LN6@PMC_Multip
$LN7@PMC_Multip:

; 352  :     else
; 353  :     {
; 354  :         // u < 0 の場合
; 355  : 
; 356  :         if (v_sign == 0)

	movsx	eax, BYTE PTR _v_sign$[ebp]
	test	eax, eax
	jne	SHORT $LN12@PMC_Multip

; 357  :         {
; 358  :             // v == 0 の場合
; 359  : 
; 360  :             // 0 を返す
; 361  :             nw = &number_zero;

	mov	DWORD PTR _nw$[ebp], OFFSET _number_zero

; 362  :         }

	jmp	SHORT $LN6@PMC_Multip
$LN12@PMC_Multip:

; 363  :         else
; 364  :         {
; 365  :             // v != 0 の場合
; 366  : 
; 367  :             // -abs(u) * abs(v) を返す
; 368  :             if ((result = MultiplyU_X_L_Imp(-v_sign, nu->ABS, v_abs, &nw)) != PMC_STATUS_OK)

	lea	eax, DWORD PTR _nw$[ebp]
	push	eax
	mov	ecx, DWORD PTR _v_abs$[ebp+4]
	push	ecx
	mov	edx, DWORD PTR _v_abs$[ebp]
	push	edx
	mov	eax, DWORD PTR _nu$[ebp]
	mov	ecx, DWORD PTR [eax+8]
	push	ecx
	movsx	edx, BYTE PTR _v_sign$[ebp]
	neg	edx
	push	edx
	call	_MultiplyU_X_L_Imp
	add	esp, 20					; 00000014H
	mov	DWORD PTR _result$[ebp], eax
	cmp	DWORD PTR _result$[ebp], 0
	je	SHORT $LN6@PMC_Multip

; 369  :                 return (result);

	mov	eax, DWORD PTR _result$[ebp]
	jmp	SHORT $LN1@PMC_Multip
$LN6@PMC_Multip:

; 370  :         }
; 371  :     }
; 372  :     *w = (PMC_HANDLE_SINT)nw;

	mov	eax, DWORD PTR _w$[ebp]
	mov	ecx, DWORD PTR _nw$[ebp]
	mov	DWORD PTR [eax], ecx

; 373  :     return (PMC_STATUS_OK);

	xor	eax, eax
$LN1@PMC_Multip:

; 374  : }

	push	edx
	mov	ecx, ebp
	push	eax
	lea	edx, DWORD PTR $LN19@PMC_Multip
	call	@_RTC_CheckStackVars@8
	pop	eax
	pop	edx
	pop	edi
	pop	esi
	pop	ebx
	mov	ecx, DWORD PTR __$ArrayPad$[ebp]
	xor	ecx, ebp
	call	@__security_check_cookie@4
	add	esp, 260				; 00000104H
	cmp	ebp, esp
	call	__RTC_CheckEsp
	mov	esp, ebp
	pop	ebp
	ret	16					; 00000010H
	npad	2
$LN19@PMC_Multip:
	DD	2
	DD	$LN18@PMC_Multip
$LN18@PMC_Multip:
	DD	-36					; ffffffdcH
	DD	4
	DD	$LN16@PMC_Multip
	DD	-45					; ffffffd3H
	DD	1
	DD	$LN17@PMC_Multip
$LN17@PMC_Multip:
	DB	118					; 00000076H
	DB	95					; 0000005fH
	DB	115					; 00000073H
	DB	105					; 00000069H
	DB	103					; 00000067H
	DB	110					; 0000006eH
	DB	0
$LN16@PMC_Multip:
	DB	110					; 0000006eH
	DB	119					; 00000077H
	DB	0
_PMC_Multiply_X_L@16 ENDP
_TEXT	ENDS
; Function compile flags: /Odtp /RTCsu /ZI
; File z:\sources\lunor\repos\rougemeilland\palmtree.math.core.sint\palmtree.math.core.sint\pmc_multiply.c
;	COMDAT _PMC_Multiply_X_I@12
_TEXT	SEGMENT
_v_abs$ = -60						; size = 4
_v_sign$ = -45						; size = 1
_nw$ = -36						; size = 4
_nu$ = -24						; size = 4
_result$ = -12						; size = 4
__$ArrayPad$ = -4					; size = 4
_u$ = 8							; size = 4
_v$ = 12						; size = 4
_w$ = 16						; size = 4
_PMC_Multiply_X_I@12 PROC				; COMDAT

; 249  : {

	push	ebp
	mov	ebp, esp
	sub	esp, 256				; 00000100H
	push	ebx
	push	esi
	push	edi
	lea	edi, DWORD PTR [ebp-256]
	mov	ecx, 64					; 00000040H
	mov	eax, -858993460				; ccccccccH
	rep stosd
	mov	eax, DWORD PTR ___security_cookie
	xor	eax, ebp
	mov	DWORD PTR __$ArrayPad$[ebp], eax
	mov	ecx, OFFSET __6265BA8B_pmc_multiply@c
	call	@__CheckForDebuggerJustMyCode@4

; 250  :     if (u == NULL)

	cmp	DWORD PTR _u$[ebp], 0
	jne	SHORT $LN2@PMC_Multip

; 251  :         return (PMC_STATUS_ARGUMENT_ERROR);

	or	eax, -1
	jmp	$LN1@PMC_Multip
$LN2@PMC_Multip:

; 252  :     if (w == NULL)

	cmp	DWORD PTR _w$[ebp], 0
	jne	SHORT $LN3@PMC_Multip

; 253  :         return (PMC_STATUS_ARGUMENT_ERROR);

	or	eax, -1
	jmp	$LN1@PMC_Multip
$LN3@PMC_Multip:

; 254  :     PMC_STATUS_CODE result;
; 255  :     NUMBER_HEADER* nu = (NUMBER_HEADER*)u;

	mov	eax, DWORD PTR _u$[ebp]
	mov	DWORD PTR _nu$[ebp], eax

; 256  :     NUMBER_HEADER* nw;
; 257  :     if ((result = CheckNumber(nu)) != PMC_STATUS_OK)

	mov	eax, DWORD PTR _nu$[ebp]
	push	eax
	call	_CheckNumber
	add	esp, 4
	mov	DWORD PTR _result$[ebp], eax
	cmp	DWORD PTR _result$[ebp], 0
	je	SHORT $LN4@PMC_Multip

; 258  :         return (result);

	mov	eax, DWORD PTR _result$[ebp]
	jmp	$LN1@PMC_Multip
$LN4@PMC_Multip:

; 259  :     char v_sign;
; 260  :     _UINT32_T v_abs = GET_ABS_32(v, &v_sign);

	lea	eax, DWORD PTR _v_sign$[ebp]
	push	eax
	mov	ecx, DWORD PTR _v$[ebp]
	push	ecx
	call	_GET_ABS_32
	add	esp, 8
	mov	DWORD PTR _v_abs$[ebp], eax

; 261  :     if (nu->SIGN == 0)

	mov	eax, DWORD PTR _nu$[ebp]
	movsx	ecx, BYTE PTR [eax+12]
	test	ecx, ecx
	jne	SHORT $LN5@PMC_Multip

; 262  :     {
; 263  :         // u == 0 の場合
; 264  : 
; 265  :         // 0 を返す
; 266  :         nw = &number_zero;

	mov	DWORD PTR _nw$[ebp], OFFSET _number_zero

; 267  :     }

	jmp	$LN6@PMC_Multip
$LN5@PMC_Multip:

; 268  :     else if (nu->SIGN > 0)

	mov	eax, DWORD PTR _nu$[ebp]
	movsx	ecx, BYTE PTR [eax+12]
	test	ecx, ecx
	jle	SHORT $LN7@PMC_Multip

; 269  :     {
; 270  :         // u > 0 の場合
; 271  : 
; 272  :         if (v_sign == 0)

	movsx	eax, BYTE PTR _v_sign$[ebp]
	test	eax, eax
	jne	SHORT $LN9@PMC_Multip

; 273  :         {
; 274  :             // v == 0 の場合
; 275  : 
; 276  :             // 0 を返す
; 277  :             nw = &number_zero;

	mov	DWORD PTR _nw$[ebp], OFFSET _number_zero

; 278  :         }

	jmp	SHORT $LN10@PMC_Multip
$LN9@PMC_Multip:

; 279  :         else
; 280  :         {
; 281  :             // v != 0 の場合
; 282  : 
; 283  :             // abs(u) * abs(v) を返す
; 284  :             if ((result = MultiplyU_X_I_Imp(v_sign, nu->ABS, v_abs, &nw)) != PMC_STATUS_OK)

	lea	eax, DWORD PTR _nw$[ebp]
	push	eax
	mov	ecx, DWORD PTR _v_abs$[ebp]
	push	ecx
	mov	edx, DWORD PTR _nu$[ebp]
	mov	eax, DWORD PTR [edx+8]
	push	eax
	movzx	ecx, BYTE PTR _v_sign$[ebp]
	push	ecx
	call	_MultiplyU_X_I_Imp
	add	esp, 16					; 00000010H
	mov	DWORD PTR _result$[ebp], eax
	cmp	DWORD PTR _result$[ebp], 0
	je	SHORT $LN10@PMC_Multip

; 285  :                 return (result);

	mov	eax, DWORD PTR _result$[ebp]
	jmp	SHORT $LN1@PMC_Multip
$LN10@PMC_Multip:

; 286  :         }
; 287  :     }

	jmp	SHORT $LN6@PMC_Multip
$LN7@PMC_Multip:

; 288  :     else
; 289  :     {
; 290  :         // u < 0 の場合
; 291  : 
; 292  :         if (v_sign == 0)

	movsx	eax, BYTE PTR _v_sign$[ebp]
	test	eax, eax
	jne	SHORT $LN12@PMC_Multip

; 293  :         {
; 294  :             // v == 0 の場合
; 295  : 
; 296  :             // 0 を返す
; 297  :             nw = &number_zero;

	mov	DWORD PTR _nw$[ebp], OFFSET _number_zero

; 298  :         }

	jmp	SHORT $LN6@PMC_Multip
$LN12@PMC_Multip:

; 299  :         else
; 300  :         {
; 301  :             // v != 0 の場合
; 302  : 
; 303  :             // -abs(u) * abs(v) を返す
; 304  :             if ((result = MultiplyU_X_I_Imp(-v_sign, nu->ABS, v_abs, &nw)) != PMC_STATUS_OK)

	lea	eax, DWORD PTR _nw$[ebp]
	push	eax
	mov	ecx, DWORD PTR _v_abs$[ebp]
	push	ecx
	mov	edx, DWORD PTR _nu$[ebp]
	mov	eax, DWORD PTR [edx+8]
	push	eax
	movsx	ecx, BYTE PTR _v_sign$[ebp]
	neg	ecx
	push	ecx
	call	_MultiplyU_X_I_Imp
	add	esp, 16					; 00000010H
	mov	DWORD PTR _result$[ebp], eax
	cmp	DWORD PTR _result$[ebp], 0
	je	SHORT $LN6@PMC_Multip

; 305  :                 return (result);

	mov	eax, DWORD PTR _result$[ebp]
	jmp	SHORT $LN1@PMC_Multip
$LN6@PMC_Multip:

; 306  :         }
; 307  :     }
; 308  :     *w = (PMC_HANDLE_SINT)nw;

	mov	eax, DWORD PTR _w$[ebp]
	mov	ecx, DWORD PTR _nw$[ebp]
	mov	DWORD PTR [eax], ecx

; 309  :     return (PMC_STATUS_OK);

	xor	eax, eax
$LN1@PMC_Multip:

; 310  : }

	push	edx
	mov	ecx, ebp
	push	eax
	lea	edx, DWORD PTR $LN19@PMC_Multip
	call	@_RTC_CheckStackVars@8
	pop	eax
	pop	edx
	pop	edi
	pop	esi
	pop	ebx
	mov	ecx, DWORD PTR __$ArrayPad$[ebp]
	xor	ecx, ebp
	call	@__security_check_cookie@4
	add	esp, 256				; 00000100H
	cmp	ebp, esp
	call	__RTC_CheckEsp
	mov	esp, ebp
	pop	ebp
	ret	12					; 0000000cH
	npad	1
$LN19@PMC_Multip:
	DD	2
	DD	$LN18@PMC_Multip
$LN18@PMC_Multip:
	DD	-36					; ffffffdcH
	DD	4
	DD	$LN16@PMC_Multip
	DD	-45					; ffffffd3H
	DD	1
	DD	$LN17@PMC_Multip
$LN17@PMC_Multip:
	DB	118					; 00000076H
	DB	95					; 0000005fH
	DB	115					; 00000073H
	DB	105					; 00000069H
	DB	103					; 00000067H
	DB	110					; 0000006eH
	DB	0
$LN16@PMC_Multip:
	DB	110					; 0000006eH
	DB	119					; 00000077H
	DB	0
_PMC_Multiply_X_I@12 ENDP
_TEXT	ENDS
; Function compile flags: /Odtp /RTCsu /ZI
; File z:\sources\lunor\repos\rougemeilland\palmtree.math.core.sint\palmtree.math.core.sint\pmc_multiply.c
;	COMDAT _PMC_Multiply_UX_X@12
_TEXT	SEGMENT
_u_is_zero$ = -45					; size = 1
_nw$ = -36						; size = 4
_nv$ = -24						; size = 4
_result$ = -12						; size = 4
__$ArrayPad$ = -4					; size = 4
_u$ = 8							; size = 4
_v$ = 12						; size = 4
_w$ = 16						; size = 4
_PMC_Multiply_UX_X@12 PROC				; COMDAT

; 202  : {

	push	ebp
	mov	ebp, esp
	sub	esp, 244				; 000000f4H
	push	ebx
	push	esi
	push	edi
	lea	edi, DWORD PTR [ebp-244]
	mov	ecx, 61					; 0000003dH
	mov	eax, -858993460				; ccccccccH
	rep stosd
	mov	eax, DWORD PTR ___security_cookie
	xor	eax, ebp
	mov	DWORD PTR __$ArrayPad$[ebp], eax
	mov	ecx, OFFSET __6265BA8B_pmc_multiply@c
	call	@__CheckForDebuggerJustMyCode@4

; 203  :     if (u == NULL)

	cmp	DWORD PTR _u$[ebp], 0
	jne	SHORT $LN2@PMC_Multip

; 204  :         return (PMC_STATUS_ARGUMENT_ERROR);

	or	eax, -1
	jmp	$LN1@PMC_Multip
$LN2@PMC_Multip:

; 205  :     if (v == NULL)

	cmp	DWORD PTR _v$[ebp], 0
	jne	SHORT $LN3@PMC_Multip

; 206  :         return (PMC_STATUS_ARGUMENT_ERROR);

	or	eax, -1
	jmp	$LN1@PMC_Multip
$LN3@PMC_Multip:

; 207  :     if (w == NULL)

	cmp	DWORD PTR _w$[ebp], 0
	jne	SHORT $LN4@PMC_Multip

; 208  :         return (PMC_STATUS_ARGUMENT_ERROR);

	or	eax, -1
	jmp	$LN1@PMC_Multip
$LN4@PMC_Multip:

; 209  :     PMC_STATUS_CODE result;
; 210  :     NUMBER_HEADER* nv = (NUMBER_HEADER*)v;

	mov	eax, DWORD PTR _v$[ebp]
	mov	DWORD PTR _nv$[ebp], eax

; 211  :     NUMBER_HEADER* nw;
; 212  :     if ((result = CheckNumber(nv)) != PMC_STATUS_OK)

	mov	eax, DWORD PTR _nv$[ebp]
	push	eax
	call	_CheckNumber
	add	esp, 4
	mov	DWORD PTR _result$[ebp], eax
	cmp	DWORD PTR _result$[ebp], 0
	je	SHORT $LN5@PMC_Multip

; 213  :         return (result);

	mov	eax, DWORD PTR _result$[ebp]
	jmp	SHORT $LN1@PMC_Multip
$LN5@PMC_Multip:

; 214  :     char u_is_zero;
; 215  :     if ((result = IsZero_UINT(u, &u_is_zero)) != PMC_STATUS_OK)

	lea	eax, DWORD PTR _u_is_zero$[ebp]
	push	eax
	mov	ecx, DWORD PTR _u$[ebp]
	push	ecx
	call	_IsZero_UINT
	add	esp, 8
	mov	DWORD PTR _result$[ebp], eax
	cmp	DWORD PTR _result$[ebp], 0
	je	SHORT $LN6@PMC_Multip

; 216  :         return (result);

	mov	eax, DWORD PTR _result$[ebp]
	jmp	SHORT $LN1@PMC_Multip
$LN6@PMC_Multip:

; 217  :     if (u_is_zero)

	movsx	eax, BYTE PTR _u_is_zero$[ebp]
	test	eax, eax
	je	SHORT $LN7@PMC_Multip

; 218  :     {
; 219  :         // u == 0 の場合
; 220  : 
; 221  :         // 0 を返す
; 222  :         nw = &number_zero;

	mov	DWORD PTR _nw$[ebp], OFFSET _number_zero

; 223  :     }

	jmp	SHORT $LN8@PMC_Multip
$LN7@PMC_Multip:

; 224  :     else
; 225  :     {
; 226  :         // u > 0 の場合
; 227  : 
; 228  :         if (nv->SIGN == 0)

	mov	eax, DWORD PTR _nv$[ebp]
	movsx	ecx, BYTE PTR [eax+12]
	test	ecx, ecx
	jne	SHORT $LN9@PMC_Multip

; 229  :         {
; 230  :             // v == 0 の場合
; 231  : 
; 232  :             // 0 を返す
; 233  :             nw = &number_zero;

	mov	DWORD PTR _nw$[ebp], OFFSET _number_zero

; 234  :         }

	jmp	SHORT $LN8@PMC_Multip
$LN9@PMC_Multip:

; 235  :         else
; 236  :         {
; 237  :             // u != 0 の場合
; 238  : 
; 239  :             // abs(u) * v を返す
; 240  :             if ((result = MultiplyU_X_X_Imp(nv->SIGN, nv->ABS, u, &nw)) != PMC_STATUS_OK)

	lea	eax, DWORD PTR _nw$[ebp]
	push	eax
	mov	ecx, DWORD PTR _u$[ebp]
	push	ecx
	mov	edx, DWORD PTR _nv$[ebp]
	mov	eax, DWORD PTR [edx+8]
	push	eax
	mov	ecx, DWORD PTR _nv$[ebp]
	movzx	edx, BYTE PTR [ecx+12]
	push	edx
	call	_MultiplyU_X_X_Imp
	add	esp, 16					; 00000010H
	mov	DWORD PTR _result$[ebp], eax
	cmp	DWORD PTR _result$[ebp], 0
	je	SHORT $LN8@PMC_Multip

; 241  :                 return (result);

	mov	eax, DWORD PTR _result$[ebp]
	jmp	SHORT $LN1@PMC_Multip
$LN8@PMC_Multip:

; 242  :         }
; 243  :     }
; 244  :     *w = (PMC_HANDLE_SINT)nw;

	mov	eax, DWORD PTR _w$[ebp]
	mov	ecx, DWORD PTR _nw$[ebp]
	mov	DWORD PTR [eax], ecx

; 245  :     return (PMC_STATUS_OK);

	xor	eax, eax
$LN1@PMC_Multip:

; 246  : }

	push	edx
	mov	ecx, ebp
	push	eax
	lea	edx, DWORD PTR $LN16@PMC_Multip
	call	@_RTC_CheckStackVars@8
	pop	eax
	pop	edx
	pop	edi
	pop	esi
	pop	ebx
	mov	ecx, DWORD PTR __$ArrayPad$[ebp]
	xor	ecx, ebp
	call	@__security_check_cookie@4
	add	esp, 244				; 000000f4H
	cmp	ebp, esp
	call	__RTC_CheckEsp
	mov	esp, ebp
	pop	ebp
	ret	12					; 0000000cH
	npad	1
$LN16@PMC_Multip:
	DD	2
	DD	$LN15@PMC_Multip
$LN15@PMC_Multip:
	DD	-36					; ffffffdcH
	DD	4
	DD	$LN13@PMC_Multip
	DD	-45					; ffffffd3H
	DD	1
	DD	$LN14@PMC_Multip
$LN14@PMC_Multip:
	DB	117					; 00000075H
	DB	95					; 0000005fH
	DB	105					; 00000069H
	DB	115					; 00000073H
	DB	95					; 0000005fH
	DB	122					; 0000007aH
	DB	101					; 00000065H
	DB	114					; 00000072H
	DB	111					; 0000006fH
	DB	0
$LN13@PMC_Multip:
	DB	110					; 0000006eH
	DB	119					; 00000077H
	DB	0
_PMC_Multiply_UX_X@12 ENDP
_TEXT	ENDS
; Function compile flags: /Odtp /RTCsu /ZI
; File z:\sources\lunor\repos\rougemeilland\palmtree.math.core.sint\palmtree.math.core.sint\pmc_multiply.c
;	COMDAT _PMC_Multiply_L_X@16
_TEXT	SEGMENT
_u_abs$ = -64						; size = 8
_u_sign$ = -45						; size = 1
_nw$ = -36						; size = 4
_nv$ = -24						; size = 4
_result$ = -12						; size = 4
__$ArrayPad$ = -4					; size = 4
_u$ = 8							; size = 8
_v$ = 16						; size = 4
_w$ = 20						; size = 4
_PMC_Multiply_L_X@16 PROC				; COMDAT

; 138  : {

	push	ebp
	mov	ebp, esp
	sub	esp, 260				; 00000104H
	push	ebx
	push	esi
	push	edi
	lea	edi, DWORD PTR [ebp-260]
	mov	ecx, 65					; 00000041H
	mov	eax, -858993460				; ccccccccH
	rep stosd
	mov	eax, DWORD PTR ___security_cookie
	xor	eax, ebp
	mov	DWORD PTR __$ArrayPad$[ebp], eax
	mov	ecx, OFFSET __6265BA8B_pmc_multiply@c
	call	@__CheckForDebuggerJustMyCode@4

; 139  :     if (v == NULL)

	cmp	DWORD PTR _v$[ebp], 0
	jne	SHORT $LN2@PMC_Multip

; 140  :         return (PMC_STATUS_ARGUMENT_ERROR);

	or	eax, -1
	jmp	$LN1@PMC_Multip
$LN2@PMC_Multip:

; 141  :     if (w == NULL)

	cmp	DWORD PTR _w$[ebp], 0
	jne	SHORT $LN3@PMC_Multip

; 142  :         return (PMC_STATUS_ARGUMENT_ERROR);

	or	eax, -1
	jmp	$LN1@PMC_Multip
$LN3@PMC_Multip:

; 143  :     PMC_STATUS_CODE result;
; 144  :     NUMBER_HEADER* nv = (NUMBER_HEADER*)v;

	mov	eax, DWORD PTR _v$[ebp]
	mov	DWORD PTR _nv$[ebp], eax

; 145  :     NUMBER_HEADER* nw;
; 146  :     if ((result = CheckNumber(nv)) != PMC_STATUS_OK)

	mov	eax, DWORD PTR _nv$[ebp]
	push	eax
	call	_CheckNumber
	add	esp, 4
	mov	DWORD PTR _result$[ebp], eax
	cmp	DWORD PTR _result$[ebp], 0
	je	SHORT $LN4@PMC_Multip

; 147  :         return (result);

	mov	eax, DWORD PTR _result$[ebp]
	jmp	$LN1@PMC_Multip
$LN4@PMC_Multip:

; 148  :     char u_sign;
; 149  :     _UINT64_T u_abs = GET_ABS_64(u, &u_sign);

	lea	eax, DWORD PTR _u_sign$[ebp]
	push	eax
	mov	ecx, DWORD PTR _u$[ebp+4]
	push	ecx
	mov	edx, DWORD PTR _u$[ebp]
	push	edx
	call	_GET_ABS_64
	add	esp, 12					; 0000000cH
	mov	DWORD PTR _u_abs$[ebp], eax
	mov	DWORD PTR _u_abs$[ebp+4], edx

; 150  :     if (u_sign == 0)

	movsx	eax, BYTE PTR _u_sign$[ebp]
	test	eax, eax
	jne	SHORT $LN5@PMC_Multip

; 151  :     {
; 152  :         // u == 0 の場合
; 153  : 
; 154  :         // 0 を返す
; 155  :         nw = &number_zero;

	mov	DWORD PTR _nw$[ebp], OFFSET _number_zero

; 156  :     }

	jmp	$LN6@PMC_Multip
$LN5@PMC_Multip:

; 157  :     else if (u_sign > 0)

	movsx	eax, BYTE PTR _u_sign$[ebp]
	test	eax, eax
	jle	SHORT $LN7@PMC_Multip

; 158  :     {
; 159  :         // u > 0 の場合
; 160  : 
; 161  :         if (nv->SIGN == 0)

	mov	eax, DWORD PTR _nv$[ebp]
	movsx	ecx, BYTE PTR [eax+12]
	test	ecx, ecx
	jne	SHORT $LN9@PMC_Multip

; 162  :         {
; 163  :             // v == 0 の場合
; 164  : 
; 165  :             // 0 を返す
; 166  :             nw = &number_zero;

	mov	DWORD PTR _nw$[ebp], OFFSET _number_zero

; 167  :         }

	jmp	SHORT $LN10@PMC_Multip
$LN9@PMC_Multip:

; 168  :         else
; 169  :         {
; 170  :             // v != 0 の場合
; 171  : 
; 172  :             // abs(u) * v を返す
; 173  :             if ((result = MultiplyU_X_L_Imp(nv->SIGN, nv->ABS, u_abs, &nw)) != PMC_STATUS_OK)

	lea	eax, DWORD PTR _nw$[ebp]
	push	eax
	mov	ecx, DWORD PTR _u_abs$[ebp+4]
	push	ecx
	mov	edx, DWORD PTR _u_abs$[ebp]
	push	edx
	mov	eax, DWORD PTR _nv$[ebp]
	mov	ecx, DWORD PTR [eax+8]
	push	ecx
	mov	edx, DWORD PTR _nv$[ebp]
	movzx	eax, BYTE PTR [edx+12]
	push	eax
	call	_MultiplyU_X_L_Imp
	add	esp, 20					; 00000014H
	mov	DWORD PTR _result$[ebp], eax
	cmp	DWORD PTR _result$[ebp], 0
	je	SHORT $LN10@PMC_Multip

; 174  :                 return (result);

	mov	eax, DWORD PTR _result$[ebp]
	jmp	SHORT $LN1@PMC_Multip
$LN10@PMC_Multip:

; 175  :         }
; 176  :     }

	jmp	SHORT $LN6@PMC_Multip
$LN7@PMC_Multip:

; 177  :     else
; 178  :     {
; 179  :         // u < 0 の場合
; 180  : 
; 181  :         if (nv->SIGN == 0)

	mov	eax, DWORD PTR _nv$[ebp]
	movsx	ecx, BYTE PTR [eax+12]
	test	ecx, ecx
	jne	SHORT $LN12@PMC_Multip

; 182  :         {
; 183  :             // v == 0 の場合
; 184  : 
; 185  :             // 0 を返す
; 186  :             nw = &number_zero;

	mov	DWORD PTR _nw$[ebp], OFFSET _number_zero

; 187  :         }

	jmp	SHORT $LN6@PMC_Multip
$LN12@PMC_Multip:

; 188  :         else
; 189  :         {
; 190  :             // v != 0 の場合
; 191  : 
; 192  :             // -abs(u) * v を返す
; 193  :             if ((result = MultiplyU_X_L_Imp(-nv->SIGN, nv->ABS, u_abs, &nw)) != PMC_STATUS_OK)

	lea	eax, DWORD PTR _nw$[ebp]
	push	eax
	mov	ecx, DWORD PTR _u_abs$[ebp+4]
	push	ecx
	mov	edx, DWORD PTR _u_abs$[ebp]
	push	edx
	mov	eax, DWORD PTR _nv$[ebp]
	mov	ecx, DWORD PTR [eax+8]
	push	ecx
	mov	edx, DWORD PTR _nv$[ebp]
	movsx	eax, BYTE PTR [edx+12]
	neg	eax
	push	eax
	call	_MultiplyU_X_L_Imp
	add	esp, 20					; 00000014H
	mov	DWORD PTR _result$[ebp], eax
	cmp	DWORD PTR _result$[ebp], 0
	je	SHORT $LN6@PMC_Multip

; 194  :                 return (result);

	mov	eax, DWORD PTR _result$[ebp]
	jmp	SHORT $LN1@PMC_Multip
$LN6@PMC_Multip:

; 195  :         }
; 196  :     }
; 197  :     *w = (PMC_HANDLE_SINT)nw;

	mov	eax, DWORD PTR _w$[ebp]
	mov	ecx, DWORD PTR _nw$[ebp]
	mov	DWORD PTR [eax], ecx

; 198  :     return (PMC_STATUS_OK);

	xor	eax, eax
$LN1@PMC_Multip:

; 199  : }

	push	edx
	mov	ecx, ebp
	push	eax
	lea	edx, DWORD PTR $LN19@PMC_Multip
	call	@_RTC_CheckStackVars@8
	pop	eax
	pop	edx
	pop	edi
	pop	esi
	pop	ebx
	mov	ecx, DWORD PTR __$ArrayPad$[ebp]
	xor	ecx, ebp
	call	@__security_check_cookie@4
	add	esp, 260				; 00000104H
	cmp	ebp, esp
	call	__RTC_CheckEsp
	mov	esp, ebp
	pop	ebp
	ret	16					; 00000010H
$LN19@PMC_Multip:
	DD	2
	DD	$LN18@PMC_Multip
$LN18@PMC_Multip:
	DD	-36					; ffffffdcH
	DD	4
	DD	$LN16@PMC_Multip
	DD	-45					; ffffffd3H
	DD	1
	DD	$LN17@PMC_Multip
$LN17@PMC_Multip:
	DB	117					; 00000075H
	DB	95					; 0000005fH
	DB	115					; 00000073H
	DB	105					; 00000069H
	DB	103					; 00000067H
	DB	110					; 0000006eH
	DB	0
$LN16@PMC_Multip:
	DB	110					; 0000006eH
	DB	119					; 00000077H
	DB	0
_PMC_Multiply_L_X@16 ENDP
_TEXT	ENDS
; Function compile flags: /Odtp /RTCsu /ZI
; File z:\sources\lunor\repos\rougemeilland\palmtree.math.core.sint\palmtree.math.core.sint\pmc_multiply.c
;	COMDAT _PMC_Multiply_I_X@12
_TEXT	SEGMENT
_u_abs$ = -60						; size = 4
_u_sign$ = -45						; size = 1
_nw$ = -36						; size = 4
_nv$ = -24						; size = 4
_result$ = -12						; size = 4
__$ArrayPad$ = -4					; size = 4
_u$ = 8							; size = 4
_v$ = 12						; size = 4
_w$ = 16						; size = 4
_PMC_Multiply_I_X@12 PROC				; COMDAT

; 74   : {

	push	ebp
	mov	ebp, esp
	sub	esp, 256				; 00000100H
	push	ebx
	push	esi
	push	edi
	lea	edi, DWORD PTR [ebp-256]
	mov	ecx, 64					; 00000040H
	mov	eax, -858993460				; ccccccccH
	rep stosd
	mov	eax, DWORD PTR ___security_cookie
	xor	eax, ebp
	mov	DWORD PTR __$ArrayPad$[ebp], eax
	mov	ecx, OFFSET __6265BA8B_pmc_multiply@c
	call	@__CheckForDebuggerJustMyCode@4

; 75   :     if (v == NULL)

	cmp	DWORD PTR _v$[ebp], 0
	jne	SHORT $LN2@PMC_Multip

; 76   :         return (PMC_STATUS_ARGUMENT_ERROR);

	or	eax, -1
	jmp	$LN1@PMC_Multip
$LN2@PMC_Multip:

; 77   :     if (w == NULL)

	cmp	DWORD PTR _w$[ebp], 0
	jne	SHORT $LN3@PMC_Multip

; 78   :         return (PMC_STATUS_ARGUMENT_ERROR);

	or	eax, -1
	jmp	$LN1@PMC_Multip
$LN3@PMC_Multip:

; 79   :     PMC_STATUS_CODE result;
; 80   :     NUMBER_HEADER* nv = (NUMBER_HEADER*)v;

	mov	eax, DWORD PTR _v$[ebp]
	mov	DWORD PTR _nv$[ebp], eax

; 81   :     NUMBER_HEADER* nw;
; 82   :     if ((result = CheckNumber(nv)) != PMC_STATUS_OK)

	mov	eax, DWORD PTR _nv$[ebp]
	push	eax
	call	_CheckNumber
	add	esp, 4
	mov	DWORD PTR _result$[ebp], eax
	cmp	DWORD PTR _result$[ebp], 0
	je	SHORT $LN4@PMC_Multip

; 83   :         return (result);

	mov	eax, DWORD PTR _result$[ebp]
	jmp	$LN1@PMC_Multip
$LN4@PMC_Multip:

; 84   :     char u_sign;
; 85   :     _UINT32_T u_abs = GET_ABS_32(u, &u_sign);

	lea	eax, DWORD PTR _u_sign$[ebp]
	push	eax
	mov	ecx, DWORD PTR _u$[ebp]
	push	ecx
	call	_GET_ABS_32
	add	esp, 8
	mov	DWORD PTR _u_abs$[ebp], eax

; 86   :     if (u_sign == 0)

	movsx	eax, BYTE PTR _u_sign$[ebp]
	test	eax, eax
	jne	SHORT $LN5@PMC_Multip

; 87   :     {
; 88   :         // u == 0 の場合
; 89   : 
; 90   :         // 0 を返す
; 91   :         nw = &number_zero;

	mov	DWORD PTR _nw$[ebp], OFFSET _number_zero

; 92   :     }

	jmp	$LN6@PMC_Multip
$LN5@PMC_Multip:

; 93   :     else if (u_sign > 0)

	movsx	eax, BYTE PTR _u_sign$[ebp]
	test	eax, eax
	jle	SHORT $LN7@PMC_Multip

; 94   :     {
; 95   :         // u > 0 の場合
; 96   : 
; 97   :         if (nv->SIGN == 0)

	mov	eax, DWORD PTR _nv$[ebp]
	movsx	ecx, BYTE PTR [eax+12]
	test	ecx, ecx
	jne	SHORT $LN9@PMC_Multip

; 98   :         {
; 99   :             // v == 0 の場合
; 100  : 
; 101  :             // 0 を返す
; 102  :             nw = &number_zero;

	mov	DWORD PTR _nw$[ebp], OFFSET _number_zero

; 103  :         }

	jmp	SHORT $LN10@PMC_Multip
$LN9@PMC_Multip:

; 104  :         else
; 105  :         {
; 106  :             // v != 0 の場合
; 107  : 
; 108  :             // abs(u) * v を返す
; 109  :             if ((result = MultiplyU_X_I_Imp(nv->SIGN, nv->ABS, u_abs, &nw)) != PMC_STATUS_OK)

	lea	eax, DWORD PTR _nw$[ebp]
	push	eax
	mov	ecx, DWORD PTR _u_abs$[ebp]
	push	ecx
	mov	edx, DWORD PTR _nv$[ebp]
	mov	eax, DWORD PTR [edx+8]
	push	eax
	mov	ecx, DWORD PTR _nv$[ebp]
	movzx	edx, BYTE PTR [ecx+12]
	push	edx
	call	_MultiplyU_X_I_Imp
	add	esp, 16					; 00000010H
	mov	DWORD PTR _result$[ebp], eax
	cmp	DWORD PTR _result$[ebp], 0
	je	SHORT $LN10@PMC_Multip

; 110  :                 return (result);

	mov	eax, DWORD PTR _result$[ebp]
	jmp	SHORT $LN1@PMC_Multip
$LN10@PMC_Multip:

; 111  :         }
; 112  :     }

	jmp	SHORT $LN6@PMC_Multip
$LN7@PMC_Multip:

; 113  :     else
; 114  :     {
; 115  :         // u < 0 の場合
; 116  : 
; 117  :         if (nv->SIGN == 0)

	mov	eax, DWORD PTR _nv$[ebp]
	movsx	ecx, BYTE PTR [eax+12]
	test	ecx, ecx
	jne	SHORT $LN12@PMC_Multip

; 118  :         {
; 119  :             // v == 0 の場合
; 120  : 
; 121  :             // 0 を返す
; 122  :             nw = &number_zero;

	mov	DWORD PTR _nw$[ebp], OFFSET _number_zero

; 123  :         }

	jmp	SHORT $LN6@PMC_Multip
$LN12@PMC_Multip:

; 124  :         else
; 125  :         {
; 126  :             // v != 0 の場合
; 127  : 
; 128  :             // -abs(u) * v を返す
; 129  :             if ((result = MultiplyU_X_I_Imp(-nv->SIGN, nv->ABS, u_abs, &nw)) != PMC_STATUS_OK)

	lea	eax, DWORD PTR _nw$[ebp]
	push	eax
	mov	ecx, DWORD PTR _u_abs$[ebp]
	push	ecx
	mov	edx, DWORD PTR _nv$[ebp]
	mov	eax, DWORD PTR [edx+8]
	push	eax
	mov	ecx, DWORD PTR _nv$[ebp]
	movsx	edx, BYTE PTR [ecx+12]
	neg	edx
	push	edx
	call	_MultiplyU_X_I_Imp
	add	esp, 16					; 00000010H
	mov	DWORD PTR _result$[ebp], eax
	cmp	DWORD PTR _result$[ebp], 0
	je	SHORT $LN6@PMC_Multip

; 130  :                 return (result);

	mov	eax, DWORD PTR _result$[ebp]
	jmp	SHORT $LN1@PMC_Multip
$LN6@PMC_Multip:

; 131  :         }
; 132  :     }
; 133  :     *w = (PMC_HANDLE_SINT)nw;

	mov	eax, DWORD PTR _w$[ebp]
	mov	ecx, DWORD PTR _nw$[ebp]
	mov	DWORD PTR [eax], ecx

; 134  :     return (PMC_STATUS_OK);

	xor	eax, eax
$LN1@PMC_Multip:

; 135  : }

	push	edx
	mov	ecx, ebp
	push	eax
	lea	edx, DWORD PTR $LN19@PMC_Multip
	call	@_RTC_CheckStackVars@8
	pop	eax
	pop	edx
	pop	edi
	pop	esi
	pop	ebx
	mov	ecx, DWORD PTR __$ArrayPad$[ebp]
	xor	ecx, ebp
	call	@__security_check_cookie@4
	add	esp, 256				; 00000100H
	cmp	ebp, esp
	call	__RTC_CheckEsp
	mov	esp, ebp
	pop	ebp
	ret	12					; 0000000cH
	npad	3
$LN19@PMC_Multip:
	DD	2
	DD	$LN18@PMC_Multip
$LN18@PMC_Multip:
	DD	-36					; ffffffdcH
	DD	4
	DD	$LN16@PMC_Multip
	DD	-45					; ffffffd3H
	DD	1
	DD	$LN17@PMC_Multip
$LN17@PMC_Multip:
	DB	117					; 00000075H
	DB	95					; 0000005fH
	DB	115					; 00000073H
	DB	105					; 00000069H
	DB	103					; 00000067H
	DB	110					; 0000006eH
	DB	0
$LN16@PMC_Multip:
	DB	110					; 0000006eH
	DB	119					; 00000077H
	DB	0
_PMC_Multiply_I_X@12 ENDP
_TEXT	ENDS
END
