; Listing generated by Microsoft (R) Optimizing Compiler Version 19.16.27026.1 

	TITLE	Z:\Sources\Lunor\Repos\rougemeilland\Palmtree.Math.Core.Sint\Palmtree.Math.Core.Sint\pmc_initialize.c
	.686P
	.XMM
	include listing.inc
	.model	flat

INCLUDELIB MSVCRTD
INCLUDELIB OLDNAMES

_DATA	SEGMENT
COMM	_ep_uint:BYTE:011cH
COMM	_uint_number_zero:DWORD
COMM	_uint_number_one:DWORD
_DATA	ENDS
msvcjmc	SEGMENT
__7B7A869E_ctype@h DB 01H
__457DD326_basetsd@h DB 01H
__4384A2D9_corecrt_memcpy_s@h DB 01H
__4E51A221_corecrt_wstring@h DB 01H
__2140C079_string@h DB 01H
__1887E595_winnt@h DB 01H
__9FC7C64B_processthreadsapi@h DB 01H
__FA470AEC_memoryapi@h DB 01H
__F37DAFF1_winerror@h DB 01H
__7A450CCC_winbase@h DB 01H
__B4B40122_winioctl@h DB 01H
__86261D59_stralign@h DB 01H
__331E732B_malloc@h DB 01H
__746E1CEC_xmmintrin@h DB 01H
__8CA3E54E_pmc_inline_func@h DB 01H
__A52C17B2_pmc_initialize@c DB 01H
msvcjmc	ENDS
PUBLIC	_PMC_SINT_Initialize@4
PUBLIC	__JustMyCode_Default
PUBLIC	??_C@_0BM@ONKLCLPJ@Palmtree?4Math?4Core?4Uint?4dll@ ; `string'
PUBLIC	??_C@_0BE@LMKJAMNH@PMC_UINT_Initialize@		; `string'
EXTRN	__imp__FreeLibrary@4:PROC
EXTRN	__imp__GetProcAddress@8:PROC
EXTRN	__imp__LoadLibraryA@4:PROC
EXTRN	_Initialize_Memory:PROC
EXTRN	_PMC_GetStatisticsInfo@4:PROC
EXTRN	_PMC_From_I@8:PROC
EXTRN	_PMC_From_L@12:PROC
EXTRN	_PMC_Dispose@4:PROC
EXTRN	_PMC_GetConstantValue_I@8:PROC
EXTRN	_PMC_FromByteArray@12:PROC
EXTRN	_PMC_ToByteArray@16:PROC
EXTRN	_PMC_Clone_X@8:PROC
EXTRN	_PMC_To_X_I@8:PROC
EXTRN	_PMC_To_X_L@8:PROC
EXTRN	_PMC_Negate_X@8:PROC
EXTRN	_PMC_TryParse@16:PROC
EXTRN	_PMC_Add_I_X@12:PROC
EXTRN	_PMC_Add_L_X@16:PROC
EXTRN	_PMC_Add_UX_X@12:PROC
EXTRN	_PMC_Add_X_I@12:PROC
EXTRN	_PMC_Add_X_L@16:PROC
EXTRN	_PMC_Add_X_UX@12:PROC
EXTRN	_PMC_Add_X_X@12:PROC
EXTRN	_PMC_Subtruct_I_X@12:PROC
EXTRN	_PMC_Subtruct_L_X@16:PROC
EXTRN	_PMC_Subtruct_UX_X@12:PROC
EXTRN	_PMC_Subtruct_X_I@12:PROC
EXTRN	_PMC_Subtruct_X_L@16:PROC
EXTRN	_PMC_Subtruct_X_UX@12:PROC
EXTRN	_PMC_Subtruct_X_X@12:PROC
EXTRN	_PMC_Multiply_I_X@12:PROC
EXTRN	_PMC_Multiply_L_X@16:PROC
EXTRN	_PMC_Multiply_UX_X@12:PROC
EXTRN	_PMC_Multiply_X_I@12:PROC
EXTRN	_PMC_Multiply_X_L@16:PROC
EXTRN	_PMC_Multiply_X_UX@12:PROC
EXTRN	_PMC_Multiply_X_X@12:PROC
EXTRN	_PMC_DivRem_I_X@16:PROC
EXTRN	_PMC_DivRem_L_X@20:PROC
EXTRN	_PMC_DivRem_UX_X@16:PROC
EXTRN	_PMC_DivRem_X_I@16:PROC
EXTRN	_PMC_DivRem_X_L@20:PROC
EXTRN	_PMC_DivRem_X_UX@16:PROC
EXTRN	_PMC_DivRem_X_X@16:PROC
EXTRN	_PMC_Compare_I_X@12:PROC
EXTRN	_PMC_Compare_L_X@16:PROC
EXTRN	_PMC_Compare_UX_X@12:PROC
EXTRN	_PMC_Compare_X_I@12:PROC
EXTRN	_PMC_Compare_X_L@16:PROC
EXTRN	_PMC_Compare_X_UX@12:PROC
EXTRN	_PMC_Compare_X_X@12:PROC
EXTRN	_PMC_Equals_I_X@12:PROC
EXTRN	_PMC_Equals_L_X@16:PROC
EXTRN	_PMC_Equals_UX_X@12:PROC
EXTRN	_PMC_Equals_X_I@12:PROC
EXTRN	_PMC_Equals_X_L@16:PROC
EXTRN	_PMC_Equals_X_UX@12:PROC
EXTRN	_PMC_Equals_X_X@12:PROC
EXTRN	_PMC_GreatestCommonDivisor_I_X@12:PROC
EXTRN	_PMC_GreatestCommonDivisor_L_X@16:PROC
EXTRN	_PMC_GreatestCommonDivisor_UX_X@12:PROC
EXTRN	_PMC_GreatestCommonDivisor_X_I@12:PROC
EXTRN	_PMC_GreatestCommonDivisor_X_L@16:PROC
EXTRN	_PMC_GreatestCommonDivisor_X_UX@12:PROC
EXTRN	_PMC_GreatestCommonDivisor_X_X@12:PROC
EXTRN	@_RTC_CheckStackVars@8:PROC
EXTRN	@__CheckForDebuggerJustMyCode@4:PROC
EXTRN	@__security_check_cookie@4:PROC
EXTRN	__RTC_CheckEsp:PROC
EXTRN	__RTC_InitBase:PROC
EXTRN	__RTC_Shutdown:PROC
EXTRN	___security_cookie:DWORD
_BSS	SEGMENT
_entry_points DB 0210H DUP (?)
_hLib_UINT DD	01H DUP (?)
_fp_PMC_UINT_Initialize DD 01H DUP (?)
_initialized DD	01H DUP (?)
_BSS	ENDS
;	COMDAT rtc$TMZ
rtc$TMZ	SEGMENT
__RTC_Shutdown.rtc$TMZ DD FLAT:__RTC_Shutdown
rtc$TMZ	ENDS
;	COMDAT rtc$IMZ
rtc$IMZ	SEGMENT
__RTC_InitBase.rtc$IMZ DD FLAT:__RTC_InitBase
rtc$IMZ	ENDS
;	COMDAT ??_C@_0BE@LMKJAMNH@PMC_UINT_Initialize@
CONST	SEGMENT
??_C@_0BE@LMKJAMNH@PMC_UINT_Initialize@ DB 'PMC_UINT_Initialize', 00H ; `string'
CONST	ENDS
;	COMDAT ??_C@_0BM@ONKLCLPJ@Palmtree?4Math?4Core?4Uint?4dll@
CONST	SEGMENT
??_C@_0BM@ONKLCLPJ@Palmtree?4Math?4Core?4Uint?4dll@ DB 'Palmtree.Math.Cor'
	DB	'e.Uint.dll', 00H				; `string'
CONST	ENDS
; Function compile flags: /Odt
;	COMDAT __JustMyCode_Default
_TEXT	SEGMENT
__JustMyCode_Default PROC				; COMDAT
	push	ebp
	mov	ebp, esp
	pop	ebp
	ret	0
__JustMyCode_Default ENDP
_TEXT	ENDS
; Function compile flags: /Odtp /RTCsu /ZI
; File z:\sources\lunor\repos\rougemeilland\palmtree.math.core.sint\palmtree.math.core.sint\pmc_initialize.c
;	COMDAT _SelfCheck
_TEXT	SEGMENT
_handle$ = -44						; size = 4
_nh$ = -32						; size = 24
__$ArrayPad$ = -4					; size = 4
_SelfCheck PROC						; COMDAT

; 79   : {

	push	ebp
	mov	ebp, esp
	sub	esp, 240				; 000000f0H
	push	ebx
	push	esi
	push	edi
	lea	edi, DWORD PTR [ebp-240]
	mov	ecx, 60					; 0000003cH
	mov	eax, -858993460				; ccccccccH
	rep stosd
	mov	eax, DWORD PTR ___security_cookie
	xor	eax, ebp
	mov	DWORD PTR __$ArrayPad$[ebp], eax
	mov	ecx, OFFSET __A52C17B2_pmc_initialize@c
	call	@__CheckForDebuggerJustMyCode@4

; 80   :     NUMBER_HEADER nh;
; 81   :     PMC_HANDLE_SINT handle = (PMC_HANDLE_SINT)&nh;

	lea	eax, DWORD PTR _nh$[ebp]
	mov	DWORD PTR _handle$[ebp], eax

; 82   :     _ZERO_MEMORY_BYTE(&nh, sizeof(nh));

	push	24					; 00000018H
	lea	eax, DWORD PTR _nh$[ebp]
	push	eax
	call	__ZERO_MEMORY_BYTE
	add	esp, 8

; 83   :     nh.IS_EVEN = TRUE;

	mov	eax, DWORD PTR _nh$[ebp]
	or	eax, 8
	mov	DWORD PTR _nh$[ebp], eax

; 84   :     if (!handle->FLAGS.IS_EVEN)

	mov	eax, DWORD PTR _handle$[ebp]
	mov	ecx, DWORD PTR [eax]
	shr	ecx, 3
	and	ecx, 1
	jne	SHORT $LN2@SelfCheck

; 85   :         return (FALSE);

	xor	eax, eax
	jmp	$LN1@SelfCheck
$LN2@SelfCheck:

; 86   :     _ZERO_MEMORY_BYTE(&nh, sizeof(nh));

	push	24					; 00000018H
	lea	eax, DWORD PTR _nh$[ebp]
	push	eax
	call	__ZERO_MEMORY_BYTE
	add	esp, 8

; 87   :     nh.IS_MINUS_ONE = TRUE;

	mov	eax, DWORD PTR _nh$[ebp]
	or	eax, 4
	mov	DWORD PTR _nh$[ebp], eax

; 88   :     if (!handle->FLAGS.IS_MINUS_ONE)

	mov	eax, DWORD PTR _handle$[ebp]
	mov	ecx, DWORD PTR [eax]
	shr	ecx, 2
	and	ecx, 1
	jne	SHORT $LN3@SelfCheck

; 89   :         return (FALSE);

	xor	eax, eax
	jmp	SHORT $LN1@SelfCheck
$LN3@SelfCheck:

; 90   :     _ZERO_MEMORY_BYTE(&nh, sizeof(nh));

	push	24					; 00000018H
	lea	eax, DWORD PTR _nh$[ebp]
	push	eax
	call	__ZERO_MEMORY_BYTE
	add	esp, 8

; 91   :     nh.IS_ONE = TRUE;

	mov	eax, DWORD PTR _nh$[ebp]
	or	eax, 2
	mov	DWORD PTR _nh$[ebp], eax

; 92   :     if (!handle->FLAGS.IS_ONE)

	mov	eax, DWORD PTR _handle$[ebp]
	mov	ecx, DWORD PTR [eax]
	shr	ecx, 1
	and	ecx, 1
	jne	SHORT $LN4@SelfCheck

; 93   :         return (FALSE);

	xor	eax, eax
	jmp	SHORT $LN1@SelfCheck
$LN4@SelfCheck:

; 94   :     _ZERO_MEMORY_BYTE(&nh, sizeof(nh));

	push	24					; 00000018H
	lea	eax, DWORD PTR _nh$[ebp]
	push	eax
	call	__ZERO_MEMORY_BYTE
	add	esp, 8

; 95   :     nh.IS_POWER_OF_TWO = TRUE;

	mov	eax, DWORD PTR _nh$[ebp]
	or	eax, 16					; 00000010H
	mov	DWORD PTR _nh$[ebp], eax

; 96   :     if (!handle->FLAGS.IS_POWER_OF_TWO)

	mov	eax, DWORD PTR _handle$[ebp]
	mov	ecx, DWORD PTR [eax]
	shr	ecx, 4
	and	ecx, 1
	jne	SHORT $LN5@SelfCheck

; 97   :         return (FALSE);

	xor	eax, eax
	jmp	SHORT $LN1@SelfCheck
$LN5@SelfCheck:

; 98   :     _ZERO_MEMORY_BYTE(&nh, sizeof(nh));

	push	24					; 00000018H
	lea	eax, DWORD PTR _nh$[ebp]
	push	eax
	call	__ZERO_MEMORY_BYTE
	add	esp, 8

; 99   :     nh.IS_ZERO = TRUE;

	mov	eax, DWORD PTR _nh$[ebp]
	or	eax, 1
	mov	DWORD PTR _nh$[ebp], eax

; 100  :     if (!handle->FLAGS.IS_ZERO)

	mov	eax, DWORD PTR _handle$[ebp]
	mov	ecx, DWORD PTR [eax]
	and	ecx, 1
	jne	SHORT $LN6@SelfCheck

; 101  :         return (FALSE);

	xor	eax, eax
	jmp	SHORT $LN1@SelfCheck
$LN6@SelfCheck:

; 102  :     return(TRUE);

	mov	eax, 1
$LN1@SelfCheck:

; 103  : }

	push	edx
	mov	ecx, ebp
	push	eax
	lea	edx, DWORD PTR $LN10@SelfCheck
	call	@_RTC_CheckStackVars@8
	pop	eax
	pop	edx
	pop	edi
	pop	esi
	pop	ebx
	mov	ecx, DWORD PTR __$ArrayPad$[ebp]
	xor	ecx, ebp
	call	@__security_check_cookie@4
	add	esp, 240				; 000000f0H
	cmp	ebp, esp
	call	__RTC_CheckEsp
	mov	esp, ebp
	pop	ebp
	ret	0
	npad	1
$LN10@SelfCheck:
	DD	1
	DD	$LN9@SelfCheck
$LN9@SelfCheck:
	DD	-32					; ffffffe0H
	DD	24					; 00000018H
	DD	$LN8@SelfCheck
$LN8@SelfCheck:
	DB	110					; 0000006eH
	DB	104					; 00000068H
	DB	0
_SelfCheck ENDP
_TEXT	ENDS
; Function compile flags: /Odtp /RTCsu /ZI
; File z:\sources\lunor\repos\rougemeilland\palmtree.math.core.sint\palmtree.math.core.sint\pmc_initialize.c
;	COMDAT _LoadUINTLIbrary
_TEXT	SEGMENT
_LoadUINTLIbrary PROC					; COMDAT

; 61   : {

	push	ebp
	mov	ebp, esp
	sub	esp, 192				; 000000c0H
	push	ebx
	push	esi
	push	edi
	lea	edi, DWORD PTR [ebp-192]
	mov	ecx, 48					; 00000030H
	mov	eax, -858993460				; ccccccccH
	rep stosd
	mov	ecx, OFFSET __A52C17B2_pmc_initialize@c
	call	@__CheckForDebuggerJustMyCode@4

; 62   :     hLib_UINT = LoadLibraryA("Palmtree.Math.Core.Uint.dll");

	mov	esi, esp
	push	OFFSET ??_C@_0BM@ONKLCLPJ@Palmtree?4Math?4Core?4Uint?4dll@
	call	DWORD PTR __imp__LoadLibraryA@4
	cmp	esi, esp
	call	__RTC_CheckEsp
	mov	DWORD PTR _hLib_UINT, eax

; 63   :     if (hLib_UINT == NULL)

	cmp	DWORD PTR _hLib_UINT, 0
	jne	SHORT $LN2@LoadUINTLI

; 64   :     {
; 65   :         fp_PMC_UINT_Initialize = NULL;

	mov	DWORD PTR _fp_PMC_UINT_Initialize, 0

; 66   :         return;

	jmp	SHORT $LN1@LoadUINTLI
$LN2@LoadUINTLI:

; 67   :     }
; 68   :     fp_PMC_UINT_Initialize = (void*)GetProcAddress(hLib_UINT, "PMC_UINT_Initialize");

	mov	esi, esp
	push	OFFSET ??_C@_0BE@LMKJAMNH@PMC_UINT_Initialize@
	mov	eax, DWORD PTR _hLib_UINT
	push	eax
	call	DWORD PTR __imp__GetProcAddress@8
	cmp	esi, esp
	call	__RTC_CheckEsp
	mov	DWORD PTR _fp_PMC_UINT_Initialize, eax

; 69   :     if (fp_PMC_UINT_Initialize == NULL)

	cmp	DWORD PTR _fp_PMC_UINT_Initialize, 0
	jne	SHORT $LN1@LoadUINTLI

; 70   :     {
; 71   :         FreeLibrary(hLib_UINT);

	mov	esi, esp
	mov	eax, DWORD PTR _hLib_UINT
	push	eax
	call	DWORD PTR __imp__FreeLibrary@4
	cmp	esi, esp
	call	__RTC_CheckEsp

; 72   :         hLib_UINT = NULL;

	mov	DWORD PTR _hLib_UINT, 0
$LN1@LoadUINTLI:

; 73   :         return;
; 74   :     }
; 75   :     return;
; 76   : }

	pop	edi
	pop	esi
	pop	ebx
	add	esp, 192				; 000000c0H
	cmp	ebp, esp
	call	__RTC_CheckEsp
	mov	esp, ebp
	pop	ebp
	ret	0
_LoadUINTLIbrary ENDP
_TEXT	ENDS
; Function compile flags: /Odtp /RTCsu /ZI
; File z:\sources\lunor\repos\rougemeilland\palmtree.math.core.sint\palmtree.math.core.sint\pmc_initialize.c
;	COMDAT _CopyUINTEntryPointStructure
_TEXT	SEGMENT
_d$ = 8							; size = 4
_s$ = 12						; size = 4
_CopyUINTEntryPointStructure PROC			; COMDAT

; 42   : {

	push	ebp
	mov	ebp, esp
	sub	esp, 192				; 000000c0H
	push	ebx
	push	esi
	push	edi
	lea	edi, DWORD PTR [ebp-192]
	mov	ecx, 48					; 00000030H
	mov	eax, -858993460				; ccccccccH
	rep stosd
	mov	ecx, OFFSET __A52C17B2_pmc_initialize@c
	call	@__CheckForDebuggerJustMyCode@4

; 43   : #ifdef _M_IX86
; 44   :     if (sizeof(*s) % sizeof(_UINT64_T) == 0)

	xor	eax, eax
	je	SHORT $LN2@CopyUINTEn

; 45   :         _COPY_MEMORY_32((_UINT32_T*)d, (_UINT32_T*)s, sizeof(*s) / sizeof(_UINT32_T));

	push	71					; 00000047H
	mov	eax, DWORD PTR _s$[ebp]
	push	eax
	mov	ecx, DWORD PTR _d$[ebp]
	push	ecx
	call	__COPY_MEMORY_32
	add	esp, 12					; 0000000cH
	jmp	SHORT $LN1@CopyUINTEn
$LN2@CopyUINTEn:

; 46   :     else
; 47   :         _COPY_MEMORY_BYTE(d, s, sizeof(*s));

	push	284					; 0000011cH
	mov	eax, DWORD PTR _s$[ebp]
	push	eax
	mov	ecx, DWORD PTR _d$[ebp]
	push	ecx
	call	__COPY_MEMORY_BYTE
	add	esp, 12					; 0000000cH
$LN1@CopyUINTEn:

; 48   : #elif defined(_M_IX64)
; 49   :     if (sizeof(*s) % sizeof(_UINT64_T) == 0)
; 50   :         _COPY_MEMORY_64((_UINT64_T*)d, (_UINT64_T*)s, sizeof(*s) / sizeof(_UINT64_T));
; 51   :     else if (sizeof(*s) % sizeof(_UINT64_T) == 0)
; 52   :         _COPY_MEMORY_32((_UINT32_T*)d, (_UINT32_T*)s, sizeof(*s) / sizeof(_UINT32_T));
; 53   :     else
; 54   :         _COPY_MEMORY_BYTE(d, s, sizeof(*s));
; 55   : #else
; 56   : #error unknown platform
; 57   : #endif
; 58   : }

	pop	edi
	pop	esi
	pop	ebx
	add	esp, 192				; 000000c0H
	cmp	ebp, esp
	call	__RTC_CheckEsp
	mov	esp, ebp
	pop	ebp
	ret	0
_CopyUINTEntryPointStructure ENDP
_TEXT	ENDS
; Function compile flags: /Odtp /RTCsu /ZI
; File z:\sources\lunor\repos\rougemeilland\palmtree.math.core.uint\palmtree.math.core.uint\pmc_inline_func.h
;	COMDAT __ZERO_MEMORY_BYTE
_TEXT	SEGMENT
_d$ = 8							; size = 4
_count$ = 12						; size = 4
__ZERO_MEMORY_BYTE PROC					; COMDAT

; 88   :     {

	push	ebp
	mov	ebp, esp
	sub	esp, 192				; 000000c0H
	push	ebx
	push	esi
	push	edi
	lea	edi, DWORD PTR [ebp-192]
	mov	ecx, 48					; 00000030H
	mov	eax, -858993460				; ccccccccH
	rep stosd
	mov	ecx, OFFSET __8CA3E54E_pmc_inline_func@h
	call	@__CheckForDebuggerJustMyCode@4

; 89   :         __stosb(d, 0, count);

	mov	edi, DWORD PTR _d$[ebp]
	xor	al, al
	mov	ecx, DWORD PTR _count$[ebp]
	rep stosb

; 90   :     }

	pop	edi
	pop	esi
	pop	ebx
	add	esp, 192				; 000000c0H
	cmp	ebp, esp
	call	__RTC_CheckEsp
	mov	esp, ebp
	pop	ebp
	ret	0
__ZERO_MEMORY_BYTE ENDP
_TEXT	ENDS
; Function compile flags: /Odtp /RTCsu /ZI
; File z:\sources\lunor\repos\rougemeilland\palmtree.math.core.uint\palmtree.math.core.uint\pmc_inline_func.h
;	COMDAT __COPY_MEMORY_32
_TEXT	SEGMENT
_d$ = 8							; size = 4
_s$ = 12						; size = 4
_count$ = 16						; size = 4
__COPY_MEMORY_32 PROC					; COMDAT

; 48   :     {

	push	ebp
	mov	ebp, esp
	sub	esp, 192				; 000000c0H
	push	ebx
	push	esi
	push	edi
	lea	edi, DWORD PTR [ebp-192]
	mov	ecx, 48					; 00000030H
	mov	eax, -858993460				; ccccccccH
	rep stosd
	mov	ecx, OFFSET __8CA3E54E_pmc_inline_func@h
	call	@__CheckForDebuggerJustMyCode@4

; 49   :         __movsd((unsigned long *)d, (unsigned long *)s, (unsigned long)count);

	mov	edi, DWORD PTR _d$[ebp]
	mov	esi, DWORD PTR _s$[ebp]
	mov	ecx, DWORD PTR _count$[ebp]
	rep movsd

; 50   :     }

	pop	edi
	pop	esi
	pop	ebx
	add	esp, 192				; 000000c0H
	cmp	ebp, esp
	call	__RTC_CheckEsp
	mov	esp, ebp
	pop	ebp
	ret	0
__COPY_MEMORY_32 ENDP
_TEXT	ENDS
; Function compile flags: /Odtp /RTCsu /ZI
; File z:\sources\lunor\repos\rougemeilland\palmtree.math.core.uint\palmtree.math.core.uint\pmc_inline_func.h
;	COMDAT __COPY_MEMORY_BYTE
_TEXT	SEGMENT
_d$ = 8							; size = 4
_s$ = 12						; size = 4
_count$ = 16						; size = 4
__COPY_MEMORY_BYTE PROC					; COMDAT

; 43   :     {

	push	ebp
	mov	ebp, esp
	sub	esp, 192				; 000000c0H
	push	ebx
	push	esi
	push	edi
	lea	edi, DWORD PTR [ebp-192]
	mov	ecx, 48					; 00000030H
	mov	eax, -858993460				; ccccccccH
	rep stosd
	mov	ecx, OFFSET __8CA3E54E_pmc_inline_func@h
	call	@__CheckForDebuggerJustMyCode@4

; 44   :         __movsb(d, s, count);

	mov	edi, DWORD PTR _d$[ebp]
	mov	esi, DWORD PTR _s$[ebp]
	mov	ecx, DWORD PTR _count$[ebp]
	rep movsb

; 45   :     }

	pop	edi
	pop	esi
	pop	ebx
	add	esp, 192				; 000000c0H
	cmp	ebp, esp
	call	__RTC_CheckEsp
	mov	esp, ebp
	pop	ebp
	ret	0
__COPY_MEMORY_BYTE ENDP
_TEXT	ENDS
; Function compile flags: /Odtp /RTCsu /ZI
; File z:\sources\lunor\repos\rougemeilland\palmtree.math.core.sint\palmtree.math.core.sint\pmc_initialize.c
;	COMDAT _PMC_SINT_Initialize@4
_TEXT	SEGMENT
_ep$ = -8						; size = 4
_config$ = 8						; size = 4
_PMC_SINT_Initialize@4 PROC				; COMDAT

; 106  : {

	push	ebp
	mov	ebp, esp
	sub	esp, 204				; 000000ccH
	push	ebx
	push	esi
	push	edi
	lea	edi, DWORD PTR [ebp-204]
	mov	ecx, 51					; 00000033H
	mov	eax, -858993460				; ccccccccH
	rep stosd
	mov	ecx, OFFSET __A52C17B2_pmc_initialize@c
	call	@__CheckForDebuggerJustMyCode@4

; 107  :     if (hLib_UINT == NULL)

	cmp	DWORD PTR _hLib_UINT, 0
	jne	SHORT $LN2@PMC_SINT_I

; 108  :         LoadUINTLIbrary();

	call	_LoadUINTLIbrary
$LN2@PMC_SINT_I:

; 109  :     if (fp_PMC_UINT_Initialize == NULL)

	cmp	DWORD PTR _fp_PMC_UINT_Initialize, 0
	jne	SHORT $LN3@PMC_SINT_I

; 110  :         return (NULL);

	xor	eax, eax
	jmp	$LN1@PMC_SINT_I
$LN3@PMC_SINT_I:

; 111  :     PMC_UINT_ENTRY_POINTS* ep = (*fp_PMC_UINT_Initialize)(config);

	mov	esi, esp
	mov	eax, DWORD PTR _config$[ebp]
	push	eax
	call	DWORD PTR _fp_PMC_UINT_Initialize
	cmp	esi, esp
	call	__RTC_CheckEsp
	mov	DWORD PTR _ep$[ebp], eax

; 112  :     if (ep == NULL)

	cmp	DWORD PTR _ep$[ebp], 0
	jne	SHORT $LN4@PMC_SINT_I

; 113  :         return (NULL);

	xor	eax, eax
	jmp	$LN1@PMC_SINT_I
$LN4@PMC_SINT_I:

; 114  : 
; 115  :     if (!initialized)

	cmp	DWORD PTR _initialized, 0
	jne	$LN5@PMC_SINT_I

; 116  :     {
; 117  :         if (!SelfCheck())

	call	_SelfCheck
	test	eax, eax
	jne	SHORT $LN6@PMC_SINT_I

; 118  :             return (NULL);

	xor	eax, eax
	jmp	$LN1@PMC_SINT_I
$LN6@PMC_SINT_I:

; 119  : 
; 120  :         CopyUINTEntryPointStructure(&ep_uint, ep);

	mov	eax, DWORD PTR _ep$[ebp]
	push	eax
	push	OFFSET _ep_uint
	call	_CopyUINTEntryPointStructure
	add	esp, 8

; 121  :         CopyUINTEntryPointStructure(&entry_points.UINT_ENTRY_POINTS, ep);

	mov	eax, DWORD PTR _ep$[ebp]
	push	eax
	push	OFFSET _entry_points
	call	_CopyUINTEntryPointStructure
	add	esp, 8

; 122  : 
; 123  :         if (Initialize_Memory() != PMC_STATUS_OK)

	call	_Initialize_Memory
	test	eax, eax
	je	SHORT $LN7@PMC_SINT_I

; 124  :             return (NULL);

	xor	eax, eax
	jmp	$LN1@PMC_SINT_I
$LN7@PMC_SINT_I:

; 125  : 
; 126  :         entry_points.GetStatisticsInfo = PMC_GetStatisticsInfo;

	mov	DWORD PTR _entry_points+284, OFFSET _PMC_GetStatisticsInfo@4

; 127  :         entry_points.From_I = PMC_From_I;

	mov	DWORD PTR _entry_points+288, OFFSET _PMC_From_I@8

; 128  :         entry_points.From_L = PMC_From_L;

	mov	DWORD PTR _entry_points+292, OFFSET _PMC_From_L@12

; 129  :         entry_points.FromByteArray = PMC_FromByteArray;

	mov	DWORD PTR _entry_points+304, OFFSET _PMC_FromByteArray@12

; 130  :         entry_points.Dispose = PMC_Dispose;

	mov	DWORD PTR _entry_points+296, OFFSET _PMC_Dispose@4

; 131  :         entry_points.To_X_I = PMC_To_X_I;

	mov	DWORD PTR _entry_points+316, OFFSET _PMC_To_X_I@8

; 132  :         entry_points.To_X_L = PMC_To_X_L;

	mov	DWORD PTR _entry_points+320, OFFSET _PMC_To_X_L@8

; 133  :         entry_points.ToByteArray = PMC_ToByteArray;

	mov	DWORD PTR _entry_points+308, OFFSET _PMC_ToByteArray@16

; 134  :         /*
; 135  :         entry_points.ToString = PMC_ToString;
; 136  :         */
; 137  :         entry_points.TryParse = PMC_TryParse;

	mov	DWORD PTR _entry_points+328, OFFSET _PMC_TryParse@16

; 138  :         entry_points.Add_I_X = PMC_Add_I_X;

	mov	DWORD PTR _entry_points+332, OFFSET _PMC_Add_I_X@12

; 139  :         entry_points.Add_L_X = PMC_Add_L_X;

	mov	DWORD PTR _entry_points+336, OFFSET _PMC_Add_L_X@16

; 140  :         entry_points.Add_UX_X = PMC_Add_UX_X;

	mov	DWORD PTR _entry_points+340, OFFSET _PMC_Add_UX_X@12

; 141  :         entry_points.Add_X_I = PMC_Add_X_I;

	mov	DWORD PTR _entry_points+344, OFFSET _PMC_Add_X_I@12

; 142  :         entry_points.Add_X_L = PMC_Add_X_L;

	mov	DWORD PTR _entry_points+348, OFFSET _PMC_Add_X_L@16

; 143  :         entry_points.Add_X_UX = PMC_Add_X_UX;

	mov	DWORD PTR _entry_points+352, OFFSET _PMC_Add_X_UX@12

; 144  :         entry_points.Add_X_X = PMC_Add_X_X;

	mov	DWORD PTR _entry_points+356, OFFSET _PMC_Add_X_X@12

; 145  :         entry_points.Subtruct_I_X = PMC_Subtruct_I_X;

	mov	DWORD PTR _entry_points+360, OFFSET _PMC_Subtruct_I_X@12

; 146  :         entry_points.Subtruct_L_X = PMC_Subtruct_L_X;

	mov	DWORD PTR _entry_points+364, OFFSET _PMC_Subtruct_L_X@16

; 147  :         entry_points.Subtruct_UX_X = PMC_Subtruct_UX_X;

	mov	DWORD PTR _entry_points+368, OFFSET _PMC_Subtruct_UX_X@12

; 148  :         entry_points.Subtruct_X_I = PMC_Subtruct_X_I;

	mov	DWORD PTR _entry_points+372, OFFSET _PMC_Subtruct_X_I@12

; 149  :         entry_points.Subtruct_X_L = PMC_Subtruct_X_L;

	mov	DWORD PTR _entry_points+376, OFFSET _PMC_Subtruct_X_L@16

; 150  :         entry_points.Subtruct_X_UX = PMC_Subtruct_X_UX;

	mov	DWORD PTR _entry_points+380, OFFSET _PMC_Subtruct_X_UX@12

; 151  :         entry_points.Subtruct_X_X = PMC_Subtruct_X_X;

	mov	DWORD PTR _entry_points+384, OFFSET _PMC_Subtruct_X_X@12

; 152  :         entry_points.Multiply_I_X = PMC_Multiply_I_X;

	mov	DWORD PTR _entry_points+388, OFFSET _PMC_Multiply_I_X@12

; 153  :         entry_points.Multiply_L_X = PMC_Multiply_L_X;

	mov	DWORD PTR _entry_points+392, OFFSET _PMC_Multiply_L_X@16

; 154  :         entry_points.Multiply_UX_X = PMC_Multiply_UX_X;

	mov	DWORD PTR _entry_points+396, OFFSET _PMC_Multiply_UX_X@12

; 155  :         entry_points.Multiply_X_I = PMC_Multiply_X_I;

	mov	DWORD PTR _entry_points+400, OFFSET _PMC_Multiply_X_I@12

; 156  :         entry_points.Multiply_X_L = PMC_Multiply_X_L;

	mov	DWORD PTR _entry_points+404, OFFSET _PMC_Multiply_X_L@16

; 157  :         entry_points.Multiply_X_UX = PMC_Multiply_X_UX;

	mov	DWORD PTR _entry_points+408, OFFSET _PMC_Multiply_X_UX@12

; 158  :         entry_points.Multiply_X_X = PMC_Multiply_X_X;

	mov	DWORD PTR _entry_points+412, OFFSET _PMC_Multiply_X_X@12

; 159  :         entry_points.DivRem_I_X = PMC_DivRem_I_X;

	mov	DWORD PTR _entry_points+416, OFFSET _PMC_DivRem_I_X@16

; 160  :         entry_points.DivRem_L_X = PMC_DivRem_L_X;

	mov	DWORD PTR _entry_points+420, OFFSET _PMC_DivRem_L_X@20

; 161  :         entry_points.DivRem_UX_X = PMC_DivRem_UX_X;

	mov	DWORD PTR _entry_points+424, OFFSET _PMC_DivRem_UX_X@16

; 162  :         entry_points.DivRem_X_I = PMC_DivRem_X_I;

	mov	DWORD PTR _entry_points+428, OFFSET _PMC_DivRem_X_I@16

; 163  :         entry_points.DivRem_X_L = PMC_DivRem_X_L;

	mov	DWORD PTR _entry_points+432, OFFSET _PMC_DivRem_X_L@20

; 164  :         entry_points.DivRem_X_UX = PMC_DivRem_X_UX;

	mov	DWORD PTR _entry_points+436, OFFSET _PMC_DivRem_X_UX@16

; 165  :         entry_points.DivRem_X_X = PMC_DivRem_X_X;

	mov	DWORD PTR _entry_points+440, OFFSET _PMC_DivRem_X_X@16

; 166  :         /*
; 167  :         entry_points.RightShift_X_I = PMC_RightShift_X_I;
; 168  :         entry_points.LeftShift_X_I = PMC_LeftShift_X_I;
; 169  :         entry_points.BitwiseAnd_I_X = PMC_BitwiseAnd_I_X;
; 170  :         entry_points.BitwiseAnd_L_X = PMC_BitwiseAnd_L_X;
; 171  :         entry_points.BitwiseAnd_X_I = PMC_BitwiseAnd_X_I;
; 172  :         entry_points.BitwiseAnd_X_L = PMC_BitwiseAnd_X_L;
; 173  :         entry_points.BitwiseAnd_X_X = PMC_BitwiseAnd_X_X;
; 174  :         entry_points.BitwiseOr_I_X = PMC_BitwiseOr_I_X;
; 175  :         entry_points.BitwiseOr_L_X = PMC_BitwiseOr_L_X;
; 176  :         entry_points.BitwiseOr_X_I = PMC_BitwiseOr_X_I;
; 177  :         entry_points.BitwiseOr_X_L = PMC_BitwiseOr_X_L;
; 178  :         entry_points.BitwiseOr_X_X = PMC_BitwiseOr_X_X;
; 179  :         entry_points.ExclusiveOr_I_X = PMC_ExclusiveOr_I_X;
; 180  :         entry_points.ExclusiveOr_L_X = PMC_ExclusiveOr_L_X;
; 181  :         entry_points.ExclusiveOr_X_I = PMC_ExclusiveOr_X_I;
; 182  :         entry_points.ExclusiveOr_X_L = PMC_ExclusiveOr_X_L;
; 183  :         entry_points.ExclusiveOr_X_X = PMC_ExclusiveOr_X_X;
; 184  :         */
; 185  :         entry_points.Compare_I_X = PMC_Compare_I_X;

	mov	DWORD PTR _entry_points+444, OFFSET _PMC_Compare_I_X@12

; 186  :         entry_points.Compare_L_X = PMC_Compare_L_X;

	mov	DWORD PTR _entry_points+448, OFFSET _PMC_Compare_L_X@16

; 187  :         entry_points.Compare_UX_X = PMC_Compare_UX_X;

	mov	DWORD PTR _entry_points+452, OFFSET _PMC_Compare_UX_X@12

; 188  :         entry_points.Compare_X_I = PMC_Compare_X_I;

	mov	DWORD PTR _entry_points+456, OFFSET _PMC_Compare_X_I@12

; 189  :         entry_points.Compare_X_L = PMC_Compare_X_L;

	mov	DWORD PTR _entry_points+460, OFFSET _PMC_Compare_X_L@16

; 190  :         entry_points.Compare_X_UX = PMC_Compare_X_UX;

	mov	DWORD PTR _entry_points+464, OFFSET _PMC_Compare_X_UX@12

; 191  :         entry_points.Compare_X_X = PMC_Compare_X_X;

	mov	DWORD PTR _entry_points+468, OFFSET _PMC_Compare_X_X@12

; 192  :         entry_points.Equals_I_X = PMC_Equals_I_X;

	mov	DWORD PTR _entry_points+472, OFFSET _PMC_Equals_I_X@12

; 193  :         entry_points.Equals_L_X = PMC_Equals_L_X;

	mov	DWORD PTR _entry_points+476, OFFSET _PMC_Equals_L_X@16

; 194  :         entry_points.Equals_UX_X = PMC_Equals_UX_X;

	mov	DWORD PTR _entry_points+480, OFFSET _PMC_Equals_UX_X@12

; 195  :         entry_points.Equals_X_I = PMC_Equals_X_I;

	mov	DWORD PTR _entry_points+484, OFFSET _PMC_Equals_X_I@12

; 196  :         entry_points.Equals_X_L = PMC_Equals_X_L;

	mov	DWORD PTR _entry_points+488, OFFSET _PMC_Equals_X_L@16

; 197  :         entry_points.Equals_X_UX = PMC_Equals_X_UX;

	mov	DWORD PTR _entry_points+492, OFFSET _PMC_Equals_X_UX@12

; 198  :         entry_points.Equals_X_X = PMC_Equals_X_X;

	mov	DWORD PTR _entry_points+496, OFFSET _PMC_Equals_X_X@12

; 199  :         entry_points.GreatestCommonDivisor_I_X = PMC_GreatestCommonDivisor_I_X;

	mov	DWORD PTR _entry_points+500, OFFSET _PMC_GreatestCommonDivisor_I_X@12

; 200  :         entry_points.GreatestCommonDivisor_L_X = PMC_GreatestCommonDivisor_L_X;

	mov	DWORD PTR _entry_points+504, OFFSET _PMC_GreatestCommonDivisor_L_X@16

; 201  :         entry_points.GreatestCommonDivisor_UX_X = PMC_GreatestCommonDivisor_UX_X;

	mov	DWORD PTR _entry_points+508, OFFSET _PMC_GreatestCommonDivisor_UX_X@12

; 202  :         entry_points.GreatestCommonDivisor_X_I = PMC_GreatestCommonDivisor_X_I;

	mov	DWORD PTR _entry_points+512, OFFSET _PMC_GreatestCommonDivisor_X_I@12

; 203  :         entry_points.GreatestCommonDivisor_X_L = PMC_GreatestCommonDivisor_X_L;

	mov	DWORD PTR _entry_points+516, OFFSET _PMC_GreatestCommonDivisor_X_L@16

; 204  :         entry_points.GreatestCommonDivisor_X_UX = PMC_GreatestCommonDivisor_X_UX;

	mov	DWORD PTR _entry_points+520, OFFSET _PMC_GreatestCommonDivisor_X_UX@12

; 205  :         entry_points.GreatestCommonDivisor_X_X = PMC_GreatestCommonDivisor_X_X;

	mov	DWORD PTR _entry_points+524, OFFSET _PMC_GreatestCommonDivisor_X_X@12

; 206  :         entry_points.GetConstantValue_I = PMC_GetConstantValue_I;

	mov	DWORD PTR _entry_points+300, OFFSET _PMC_GetConstantValue_I@8

; 207  :         entry_points.Clone_X = PMC_Clone_X;

	mov	DWORD PTR _entry_points+312, OFFSET _PMC_Clone_X@8

; 208  :         entry_points.Negate_X = PMC_Negate_X;

	mov	DWORD PTR _entry_points+324, OFFSET _PMC_Negate_X@8

; 209  : 
; 210  :         initialized = TRUE;

	mov	DWORD PTR _initialized, 1
$LN5@PMC_SINT_I:

; 211  :     }
; 212  : 
; 213  :     return (&entry_points);

	mov	eax, OFFSET _entry_points
$LN1@PMC_SINT_I:

; 214  : }

	pop	edi
	pop	esi
	pop	ebx
	add	esp, 204				; 000000ccH
	cmp	ebp, esp
	call	__RTC_CheckEsp
	mov	esp, ebp
	pop	ebp
	ret	4
_PMC_SINT_Initialize@4 ENDP
_TEXT	ENDS
END
