; Listing generated by Microsoft (R) Optimizing Compiler Version 19.16.27026.1 

	TITLE	Z:\Sources\Lunor\Repos\rougemeilland\Palmtree.Math.Core.Sint\Palmtree.Math.Core.Sint\pmc_parse.c
	.686P
	.XMM
	include listing.inc
	.model	flat

INCLUDELIB MSVCRTD
INCLUDELIB OLDNAMES

_DATA	SEGMENT
COMM	_uint_number_zero:DWORD
COMM	_uint_number_one:DWORD
_DATA	ENDS
msvcjmc	SEGMENT
__7B7A869E_ctype@h DB 01H
__457DD326_basetsd@h DB 01H
__4384A2D9_corecrt_memcpy_s@h DB 01H
__4E51A221_corecrt_wstring@h DB 01H
__2140C079_string@h DB 01H
__1887E595_winnt@h DB 01H
__9FC7C64B_processthreadsapi@h DB 01H
__FA470AEC_memoryapi@h DB 01H
__F37DAFF1_winerror@h DB 01H
__7A450CCC_winbase@h DB 01H
__B4B40122_winioctl@h DB 01H
__86261D59_stralign@h DB 01H
__4A305C9B_pmc_parse@c DB 01H
msvcjmc	ENDS
PUBLIC	_PMC_TryParse@16
PUBLIC	__JustMyCode_Default
EXTRN	_AllocateNumber:PROC
EXTRN	@_RTC_CheckStackVars@8:PROC
EXTRN	@__CheckForDebuggerJustMyCode@4:PROC
EXTRN	@__security_check_cookie@4:PROC
EXTRN	__RTC_CheckEsp:PROC
EXTRN	__RTC_InitBase:PROC
EXTRN	__RTC_Shutdown:PROC
EXTRN	_ep_uint:BYTE
EXTRN	___security_cookie:DWORD
;	COMDAT rtc$TMZ
rtc$TMZ	SEGMENT
__RTC_Shutdown.rtc$TMZ DD FLAT:__RTC_Shutdown
rtc$TMZ	ENDS
;	COMDAT rtc$IMZ
rtc$IMZ	SEGMENT
__RTC_InitBase.rtc$IMZ DD FLAT:__RTC_InitBase
rtc$IMZ	ENDS
; Function compile flags: /Odt
;	COMDAT __JustMyCode_Default
_TEXT	SEGMENT
__JustMyCode_Default PROC				; COMDAT
	push	ebp
	mov	ebp, esp
	pop	ebp
	ret	0
__JustMyCode_Default ENDP
_TEXT	ENDS
; Function compile flags: /Odtp /RTCsu /ZI
; File z:\sources\lunor\repos\rougemeilland\palmtree.math.core.sint\palmtree.math.core.sint\pmc_parse.c
;	COMDAT _PMC_TryParse@16
_TEXT	SEGMENT
_no$ = -48						; size = 4
_o_abs$ = -36						; size = 4
_o_sign$ = -21						; size = 1
_result$ = -12						; size = 4
__$ArrayPad$ = -4					; size = 4
_source$ = 8						; size = 4
_number_styles$ = 12					; size = 4
_format_option$ = 16					; size = 4
_o$ = 20						; size = 4
_PMC_TryParse@16 PROC					; COMDAT

; 31   : {

	push	ebp
	mov	ebp, esp
	sub	esp, 244				; 000000f4H
	push	ebx
	push	esi
	push	edi
	lea	edi, DWORD PTR [ebp-244]
	mov	ecx, 61					; 0000003dH
	mov	eax, -858993460				; ccccccccH
	rep stosd
	mov	eax, DWORD PTR ___security_cookie
	xor	eax, ebp
	mov	DWORD PTR __$ArrayPad$[ebp], eax
	mov	ecx, OFFSET __4A305C9B_pmc_parse@c
	call	@__CheckForDebuggerJustMyCode@4

; 32   :     PMC_STATUS_CODE result;
; 33   :     if (source == NULL)

	cmp	DWORD PTR _source$[ebp], 0
	jne	SHORT $LN2@PMC_TryPar

; 34   :         return (PMC_STATUS_ARGUMENT_ERROR);

	or	eax, -1
	jmp	SHORT $LN1@PMC_TryPar
$LN2@PMC_TryPar:

; 35   :     if (o == NULL)

	cmp	DWORD PTR _o$[ebp], 0
	jne	SHORT $LN3@PMC_TryPar

; 36   :         return (PMC_STATUS_ARGUMENT_ERROR);

	or	eax, -1
	jmp	SHORT $LN1@PMC_TryPar
$LN3@PMC_TryPar:

; 37   : 
; 38   :     char o_sign;
; 39   :     PMC_HANDLE_UINT o_abs;
; 40   :     if ((result = ep_uint.TryParseForSINT(source, number_styles, format_option, &o_sign, &o_abs)) != PMC_STATUS_OK)

	mov	esi, esp
	lea	eax, DWORD PTR _o_abs$[ebp]
	push	eax
	lea	ecx, DWORD PTR _o_sign$[ebp]
	push	ecx
	mov	edx, DWORD PTR _format_option$[ebp]
	push	edx
	mov	eax, DWORD PTR _number_styles$[ebp]
	push	eax
	mov	ecx, DWORD PTR _source$[ebp]
	push	ecx
	call	DWORD PTR _ep_uint+276
	cmp	esi, esp
	call	__RTC_CheckEsp
	mov	DWORD PTR _result$[ebp], eax
	cmp	DWORD PTR _result$[ebp], 0
	je	SHORT $LN4@PMC_TryPar

; 41   :         return (result);

	mov	eax, DWORD PTR _result$[ebp]
	jmp	SHORT $LN1@PMC_TryPar
$LN4@PMC_TryPar:

; 42   : 
; 43   :     NUMBER_HEADER* no;
; 44   :     if ((result = AllocateNumber(&no, o_sign, o_abs)) != PMC_STATUS_OK)

	mov	eax, DWORD PTR _o_abs$[ebp]
	push	eax
	movzx	ecx, BYTE PTR _o_sign$[ebp]
	push	ecx
	lea	edx, DWORD PTR _no$[ebp]
	push	edx
	call	_AllocateNumber
	add	esp, 12					; 0000000cH
	mov	DWORD PTR _result$[ebp], eax
	cmp	DWORD PTR _result$[ebp], 0
	je	SHORT $LN5@PMC_TryPar

; 45   :         return (result);

	mov	eax, DWORD PTR _result$[ebp]
	jmp	SHORT $LN1@PMC_TryPar
$LN5@PMC_TryPar:

; 46   : 
; 47   :     *o = (PMC_HANDLE_SINT)no;

	mov	eax, DWORD PTR _o$[ebp]
	mov	ecx, DWORD PTR _no$[ebp]
	mov	DWORD PTR [eax], ecx

; 48   :     return (PMC_STATUS_OK);

	xor	eax, eax
$LN1@PMC_TryPar:

; 49   : }

	push	edx
	mov	ecx, ebp
	push	eax
	lea	edx, DWORD PTR $LN11@PMC_TryPar
	call	@_RTC_CheckStackVars@8
	pop	eax
	pop	edx
	pop	edi
	pop	esi
	pop	ebx
	mov	ecx, DWORD PTR __$ArrayPad$[ebp]
	xor	ecx, ebp
	call	@__security_check_cookie@4
	add	esp, 244				; 000000f4H
	cmp	ebp, esp
	call	__RTC_CheckEsp
	mov	esp, ebp
	pop	ebp
	ret	16					; 00000010H
	npad	1
$LN11@PMC_TryPar:
	DD	3
	DD	$LN10@PMC_TryPar
$LN10@PMC_TryPar:
	DD	-21					; ffffffebH
	DD	1
	DD	$LN7@PMC_TryPar
	DD	-36					; ffffffdcH
	DD	4
	DD	$LN8@PMC_TryPar
	DD	-48					; ffffffd0H
	DD	4
	DD	$LN9@PMC_TryPar
$LN9@PMC_TryPar:
	DB	110					; 0000006eH
	DB	111					; 0000006fH
	DB	0
$LN8@PMC_TryPar:
	DB	111					; 0000006fH
	DB	95					; 0000005fH
	DB	97					; 00000061H
	DB	98					; 00000062H
	DB	115					; 00000073H
	DB	0
$LN7@PMC_TryPar:
	DB	111					; 0000006fH
	DB	95					; 0000005fH
	DB	115					; 00000073H
	DB	105					; 00000069H
	DB	103					; 00000067H
	DB	110					; 0000006eH
	DB	0
_PMC_TryParse@16 ENDP
_TEXT	ENDS
END
