; Listing generated by Microsoft (R) Optimizing Compiler Version 19.16.27026.1 

	TITLE	Z:\Sources\Lunor\Repos\rougemeilland\Palmtree.Math.Core.Sint\Palmtree.Math.Core.Sint\TEST_op_DivRem.c
	.686P
	.XMM
	include listing.inc
	.model	flat

INCLUDELIB MSVCRTD
INCLUDELIB OLDNAMES

msvcjmc	SEGMENT
__7B7A869E_ctype@h DB 01H
__457DD326_basetsd@h DB 01H
__4384A2D9_corecrt_memcpy_s@h DB 01H
__4E51A221_corecrt_wstring@h DB 01H
__2140C079_string@h DB 01H
__1887E595_winnt@h DB 01H
__9FC7C64B_processthreadsapi@h DB 01H
__FA470AEC_memoryapi@h DB 01H
__F37DAFF1_winerror@h DB 01H
__7A450CCC_winbase@h DB 01H
__B4B40122_winioctl@h DB 01H
__86261D59_stralign@h DB 01H
__630249ED_pmc_uint_debug@h DB 01H
__76EA6F59_test_op_divrem@c DB 01H
msvcjmc	ENDS
PUBLIC	_TEST_DivRem_I_X
PUBLIC	_TEST_DivRem_L_X
PUBLIC	_TEST_DivRem_UX_X
PUBLIC	_TEST_DivRem_X_I
PUBLIC	_TEST_DivRem_X_L
PUBLIC	_TEST_DivRem_X_UX
PUBLIC	_TEST_DivRem_X_X
PUBLIC	__JustMyCode_Default
PUBLIC	??_C@_1EC@NPMCAPKO@?$AAF?$AAr?$AAo?$AAm?$AAB?$AAy?$AAt?$AAe?$AAA?$AAr?$AAr?$AAa?$AAy?$AAn?$PP?$KJ@ ; `string'
PUBLIC	??_C@_1CG@MKNPGAIC@?$AAD?$AAi?$AAv?$AAR?$AAe?$AAm?$AA_?$AAI?$AA_?$AAX?$AA?5?$AA?$CI?$AA?$CF?$AAd?$AA?4@ ; `string'
PUBLIC	??_C@_1DM@FPONPMLK@?$AAD?$AAi?$AAv?$AAR?$AAe?$AAm?$AA_?$AAI?$AA_?$AAX?$AAn?$PP?$KJ?$AA0?$PP?$LD?$PP?$PM@ ; `string'
PUBLIC	??_C@_1DO@DOHJEMND@?$AAT?$AAo?$AAB?$AAy?$AAt?$AAe?$AAA?$AAr?$AAr?$AAa?$AAy?$AAn?$PP?$KJ?$AA0?$PP?$LD@ ; `string'
PUBLIC	??_C@_1BE@OEODMBIH@?$AAF?$AAn?$AA$?$AAL?$AA?$AA?$PP?t?$AAW?$AAj?$AAD@ ; `string'
PUBLIC	??_C@_1BG@BPGLFLF@?$AAp?$AAY?$AAn?$AA$?$AAL?$AA?$AA?$PP?t?$AAW?$AAj?$AAD@ ; `string'
PUBLIC	??_C@_1CG@CCPMJLPK@?$AAD?$AAi?$AAv?$AAR?$AAe?$AAm?$AA_?$AAL?$AA_?$AAX?$AA?5?$AA?$CI?$AA?$CF?$AAd?$AA?4@ ; `string'
PUBLIC	??_C@_1DM@EHDAPCE@?$AAD?$AAi?$AAv?$AAR?$AAe?$AAm?$AA_?$AAL?$AA_?$AAX?$AAn?$PP?$KJ?$AA0?$PP?$LD?$PP?$PM@ ; `string'
PUBLIC	??_C@_1CI@PMOCFACI@?$AAD?$AAi?$AAv?$AAR?$AAe?$AAm?$AA_?$AAU?$AAX?$AA_?$AAX?$AA?5?$AA?$CI?$AA?$CF?$AAd@ ; `string'
PUBLIC	??_C@_1DO@DHNBEMIM@?$AAD?$AAi?$AAv?$AAR?$AAe?$AAm?$AA_?$AAU?$AAX?$AA_?$AAX?$AAn?$PP?$KJ?$AA0?$PP?$LD@ ; `string'
PUBLIC	??_C@_1CG@LBDAOKPL@?$AAD?$AAi?$AAv?$AAR?$AAe?$AAm?$AA_?$AAX?$AA_?$AAI?$AA?5?$AA?$CI?$AA?$CF?$AAd?$AA?4@ ; `string'
PUBLIC	??_C@_1DM@DHGCKJN@?$AAD?$AAi?$AAv?$AAR?$AAe?$AAm?$AA_?$AAX?$AA_?$AAI?$AAn?$PP?$KJ?$AA0?$PP?$LD?$PP?$PM@ ; `string'
PUBLIC	??_C@_1CG@JKLKDKOE@?$AAD?$AAi?$AAv?$AAR?$AAe?$AAm?$AA_?$AAX?$AA_?$AAL?$AA?5?$AA?$CI?$AA?$CF?$AAd?$AA?4@ ; `string'
PUBLIC	??_C@_1DM@ELDKLHAI@?$AAD?$AAi?$AAv?$AAR?$AAe?$AAm?$AA_?$AAX?$AA_?$AAL?$AAn?$PP?$KJ?$AA0?$PP?$LD?$PP?$PM@ ; `string'
PUBLIC	??_C@_1CI@MCEJJFCK@?$AAD?$AAi?$AAv?$AAR?$AAe?$AAm?$AA_?$AAX?$AA_?$AAU?$AAX?$AA?5?$AA?$CI?$AA?$CF?$AAd@ ; `string'
PUBLIC	??_C@_1DO@LADEACKM@?$AAD?$AAi?$AAv?$AAR?$AAe?$AAm?$AA_?$AAX?$AA_?$AAU?$AAX?$AAn?$PP?$KJ?$AA0?$PP?$LD@ ; `string'
PUBLIC	??_C@_1CG@DEJBHKJI@?$AAD?$AAi?$AAv?$AAR?$AAe?$AAm?$AA_?$AAX?$AA_?$AAX?$AA?5?$AA?$CI?$AA?$CF?$AAd?$AA?4@ ; `string'
PUBLIC	??_C@_1DM@LBHJMHBN@?$AAD?$AAi?$AAv?$AAR?$AAe?$AAm?$AA_?$AAX?$AA_?$AAX?$AAn?$PP?$KJ?$AA0?$PP?$LD?$PP?$PM@ ; `string'
EXTRN	_TEST_Assert:PROC
EXTRN	_FormatTestLabel:PROC
EXTRN	_FormatTestMesssage:PROC
EXTRN	@_RTC_CheckStackVars@8:PROC
EXTRN	@__CheckForDebuggerJustMyCode@4:PROC
EXTRN	@__security_check_cookie@4:PROC
EXTRN	__RTC_CheckEsp:PROC
EXTRN	__RTC_InitBase:PROC
EXTRN	__RTC_Shutdown:PROC
EXTRN	___security_cookie:DWORD
;	COMDAT rtc$TMZ
rtc$TMZ	SEGMENT
__RTC_Shutdown.rtc$TMZ DD FLAT:__RTC_Shutdown
rtc$TMZ	ENDS
;	COMDAT rtc$IMZ
rtc$IMZ	SEGMENT
__RTC_InitBase.rtc$IMZ DD FLAT:__RTC_InitBase
rtc$IMZ	ENDS
;	COMDAT ??_C@_1DM@LBHJMHBN@?$AAD?$AAi?$AAv?$AAR?$AAe?$AAm?$AA_?$AAX?$AA_?$AAX?$AAn?$PP?$KJ?$AA0?$PP?$LD?$PP?$PM@
CONST	SEGMENT
??_C@_1DM@LBHJMHBN@?$AAD?$AAi?$AAv?$AAR?$AAe?$AAm?$AA_?$AAX?$AA_?$AAX?$AAn?$PP?$KJ?$AA0?$PP?$LD?$PP?$PM@ DB 'D'
	DB	00H, 'i', 00H, 'v', 00H, 'R', 00H, 'e', 00H, 'm', 00H, '_', 00H
	DB	'X', 00H, '_', 00H, 'X', 00H, 'n0', 0a9H, '_0^', 0b3H, '0', 0fcH
	DB	'0', 0c9H, '0L0', 01fH, 'g', 085H, '_', 01aH, 090H, 08aH, '0g0'
	DB	'o0j0D0(', 00H, '%', 00H, 'd', 00H, ')', 00H, 00H, 00H ; `string'
CONST	ENDS
;	COMDAT ??_C@_1CG@DEJBHKJI@?$AAD?$AAi?$AAv?$AAR?$AAe?$AAm?$AA_?$AAX?$AA_?$AAX?$AA?5?$AA?$CI?$AA?$CF?$AAd?$AA?4@
CONST	SEGMENT
??_C@_1CG@DEJBHKJI@?$AAD?$AAi?$AAv?$AAR?$AAe?$AAm?$AA_?$AAX?$AA_?$AAX?$AA?5?$AA?$CI?$AA?$CF?$AAd?$AA?4@ DB 'D'
	DB	00H, 'i', 00H, 'v', 00H, 'R', 00H, 'e', 00H, 'm', 00H, '_', 00H
	DB	'X', 00H, '_', 00H, 'X', 00H, ' ', 00H, '(', 00H, '%', 00H, 'd'
	DB	00H, '.', 00H, '%', 00H, 'd', 00H, ')', 00H, 00H, 00H ; `string'
CONST	ENDS
;	COMDAT ??_C@_1DO@LADEACKM@?$AAD?$AAi?$AAv?$AAR?$AAe?$AAm?$AA_?$AAX?$AA_?$AAU?$AAX?$AAn?$PP?$KJ?$AA0?$PP?$LD@
CONST	SEGMENT
??_C@_1DO@LADEACKM@?$AAD?$AAi?$AAv?$AAR?$AAe?$AAm?$AA_?$AAX?$AA_?$AAU?$AAX?$AAn?$PP?$KJ?$AA0?$PP?$LD@ DB 'D'
	DB	00H, 'i', 00H, 'v', 00H, 'R', 00H, 'e', 00H, 'm', 00H, '_', 00H
	DB	'X', 00H, '_', 00H, 'U', 00H, 'X', 00H, 'n0', 0a9H, '_0^', 0b3H
	DB	'0', 0fcH, '0', 0c9H, '0L0', 01fH, 'g', 085H, '_', 01aH, 090H, 08aH
	DB	'0g0o0j0D0(', 00H, '%', 00H, 'd', 00H, ')', 00H, 00H, 00H ; `string'
CONST	ENDS
;	COMDAT ??_C@_1CI@MCEJJFCK@?$AAD?$AAi?$AAv?$AAR?$AAe?$AAm?$AA_?$AAX?$AA_?$AAU?$AAX?$AA?5?$AA?$CI?$AA?$CF?$AAd@
CONST	SEGMENT
??_C@_1CI@MCEJJFCK@?$AAD?$AAi?$AAv?$AAR?$AAe?$AAm?$AA_?$AAX?$AA_?$AAU?$AAX?$AA?5?$AA?$CI?$AA?$CF?$AAd@ DB 'D'
	DB	00H, 'i', 00H, 'v', 00H, 'R', 00H, 'e', 00H, 'm', 00H, '_', 00H
	DB	'X', 00H, '_', 00H, 'U', 00H, 'X', 00H, ' ', 00H, '(', 00H, '%'
	DB	00H, 'd', 00H, '.', 00H, '%', 00H, 'd', 00H, ')', 00H, 00H, 00H ; `string'
CONST	ENDS
;	COMDAT ??_C@_1DM@ELDKLHAI@?$AAD?$AAi?$AAv?$AAR?$AAe?$AAm?$AA_?$AAX?$AA_?$AAL?$AAn?$PP?$KJ?$AA0?$PP?$LD?$PP?$PM@
CONST	SEGMENT
??_C@_1DM@ELDKLHAI@?$AAD?$AAi?$AAv?$AAR?$AAe?$AAm?$AA_?$AAX?$AA_?$AAL?$AAn?$PP?$KJ?$AA0?$PP?$LD?$PP?$PM@ DB 'D'
	DB	00H, 'i', 00H, 'v', 00H, 'R', 00H, 'e', 00H, 'm', 00H, '_', 00H
	DB	'X', 00H, '_', 00H, 'L', 00H, 'n0', 0a9H, '_0^', 0b3H, '0', 0fcH
	DB	'0', 0c9H, '0L0', 01fH, 'g', 085H, '_', 01aH, 090H, 08aH, '0g0'
	DB	'o0j0D0(', 00H, '%', 00H, 'd', 00H, ')', 00H, 00H, 00H ; `string'
CONST	ENDS
;	COMDAT ??_C@_1CG@JKLKDKOE@?$AAD?$AAi?$AAv?$AAR?$AAe?$AAm?$AA_?$AAX?$AA_?$AAL?$AA?5?$AA?$CI?$AA?$CF?$AAd?$AA?4@
CONST	SEGMENT
??_C@_1CG@JKLKDKOE@?$AAD?$AAi?$AAv?$AAR?$AAe?$AAm?$AA_?$AAX?$AA_?$AAL?$AA?5?$AA?$CI?$AA?$CF?$AAd?$AA?4@ DB 'D'
	DB	00H, 'i', 00H, 'v', 00H, 'R', 00H, 'e', 00H, 'm', 00H, '_', 00H
	DB	'X', 00H, '_', 00H, 'L', 00H, ' ', 00H, '(', 00H, '%', 00H, 'd'
	DB	00H, '.', 00H, '%', 00H, 'd', 00H, ')', 00H, 00H, 00H ; `string'
CONST	ENDS
;	COMDAT ??_C@_1DM@DHGCKJN@?$AAD?$AAi?$AAv?$AAR?$AAe?$AAm?$AA_?$AAX?$AA_?$AAI?$AAn?$PP?$KJ?$AA0?$PP?$LD?$PP?$PM@
CONST	SEGMENT
??_C@_1DM@DHGCKJN@?$AAD?$AAi?$AAv?$AAR?$AAe?$AAm?$AA_?$AAX?$AA_?$AAI?$AAn?$PP?$KJ?$AA0?$PP?$LD?$PP?$PM@ DB 'D'
	DB	00H, 'i', 00H, 'v', 00H, 'R', 00H, 'e', 00H, 'm', 00H, '_', 00H
	DB	'X', 00H, '_', 00H, 'I', 00H, 'n0', 0a9H, '_0^', 0b3H, '0', 0fcH
	DB	'0', 0c9H, '0L0', 01fH, 'g', 085H, '_', 01aH, 090H, 08aH, '0g0'
	DB	'o0j0D0(', 00H, '%', 00H, 'd', 00H, ')', 00H, 00H, 00H ; `string'
CONST	ENDS
;	COMDAT ??_C@_1CG@LBDAOKPL@?$AAD?$AAi?$AAv?$AAR?$AAe?$AAm?$AA_?$AAX?$AA_?$AAI?$AA?5?$AA?$CI?$AA?$CF?$AAd?$AA?4@
CONST	SEGMENT
??_C@_1CG@LBDAOKPL@?$AAD?$AAi?$AAv?$AAR?$AAe?$AAm?$AA_?$AAX?$AA_?$AAI?$AA?5?$AA?$CI?$AA?$CF?$AAd?$AA?4@ DB 'D'
	DB	00H, 'i', 00H, 'v', 00H, 'R', 00H, 'e', 00H, 'm', 00H, '_', 00H
	DB	'X', 00H, '_', 00H, 'I', 00H, ' ', 00H, '(', 00H, '%', 00H, 'd'
	DB	00H, '.', 00H, '%', 00H, 'd', 00H, ')', 00H, 00H, 00H ; `string'
CONST	ENDS
;	COMDAT ??_C@_1DO@DHNBEMIM@?$AAD?$AAi?$AAv?$AAR?$AAe?$AAm?$AA_?$AAU?$AAX?$AA_?$AAX?$AAn?$PP?$KJ?$AA0?$PP?$LD@
CONST	SEGMENT
??_C@_1DO@DHNBEMIM@?$AAD?$AAi?$AAv?$AAR?$AAe?$AAm?$AA_?$AAU?$AAX?$AA_?$AAX?$AAn?$PP?$KJ?$AA0?$PP?$LD@ DB 'D'
	DB	00H, 'i', 00H, 'v', 00H, 'R', 00H, 'e', 00H, 'm', 00H, '_', 00H
	DB	'U', 00H, 'X', 00H, '_', 00H, 'X', 00H, 'n0', 0a9H, '_0^', 0b3H
	DB	'0', 0fcH, '0', 0c9H, '0L0', 01fH, 'g', 085H, '_', 01aH, 090H, 08aH
	DB	'0g0o0j0D0(', 00H, '%', 00H, 'd', 00H, ')', 00H, 00H, 00H ; `string'
CONST	ENDS
;	COMDAT ??_C@_1CI@PMOCFACI@?$AAD?$AAi?$AAv?$AAR?$AAe?$AAm?$AA_?$AAU?$AAX?$AA_?$AAX?$AA?5?$AA?$CI?$AA?$CF?$AAd@
CONST	SEGMENT
??_C@_1CI@PMOCFACI@?$AAD?$AAi?$AAv?$AAR?$AAe?$AAm?$AA_?$AAU?$AAX?$AA_?$AAX?$AA?5?$AA?$CI?$AA?$CF?$AAd@ DB 'D'
	DB	00H, 'i', 00H, 'v', 00H, 'R', 00H, 'e', 00H, 'm', 00H, '_', 00H
	DB	'U', 00H, 'X', 00H, '_', 00H, 'X', 00H, ' ', 00H, '(', 00H, '%'
	DB	00H, 'd', 00H, '.', 00H, '%', 00H, 'd', 00H, ')', 00H, 00H, 00H ; `string'
CONST	ENDS
;	COMDAT ??_C@_1DM@EHDAPCE@?$AAD?$AAi?$AAv?$AAR?$AAe?$AAm?$AA_?$AAL?$AA_?$AAX?$AAn?$PP?$KJ?$AA0?$PP?$LD?$PP?$PM@
CONST	SEGMENT
??_C@_1DM@EHDAPCE@?$AAD?$AAi?$AAv?$AAR?$AAe?$AAm?$AA_?$AAL?$AA_?$AAX?$AAn?$PP?$KJ?$AA0?$PP?$LD?$PP?$PM@ DB 'D'
	DB	00H, 'i', 00H, 'v', 00H, 'R', 00H, 'e', 00H, 'm', 00H, '_', 00H
	DB	'L', 00H, '_', 00H, 'X', 00H, 'n0', 0a9H, '_0^', 0b3H, '0', 0fcH
	DB	'0', 0c9H, '0L0', 01fH, 'g', 085H, '_', 01aH, 090H, 08aH, '0g0'
	DB	'o0j0D0(', 00H, '%', 00H, 'd', 00H, ')', 00H, 00H, 00H ; `string'
CONST	ENDS
;	COMDAT ??_C@_1CG@CCPMJLPK@?$AAD?$AAi?$AAv?$AAR?$AAe?$AAm?$AA_?$AAL?$AA_?$AAX?$AA?5?$AA?$CI?$AA?$CF?$AAd?$AA?4@
CONST	SEGMENT
??_C@_1CG@CCPMJLPK@?$AAD?$AAi?$AAv?$AAR?$AAe?$AAm?$AA_?$AAL?$AA_?$AAX?$AA?5?$AA?$CI?$AA?$CF?$AAd?$AA?4@ DB 'D'
	DB	00H, 'i', 00H, 'v', 00H, 'R', 00H, 'e', 00H, 'm', 00H, '_', 00H
	DB	'L', 00H, '_', 00H, 'X', 00H, ' ', 00H, '(', 00H, '%', 00H, 'd'
	DB	00H, '.', 00H, '%', 00H, 'd', 00H, ')', 00H, 00H, 00H ; `string'
CONST	ENDS
;	COMDAT ??_C@_1BG@BPGLFLF@?$AAp?$AAY?$AAn?$AA$?$AAL?$AA?$AA?$PP?t?$AAW?$AAj?$AAD@
CONST	SEGMENT
??_C@_1BG@BPGLFLF@?$AAp?$AAY?$AAn?$AA$?$AAL?$AA?$AA?$PP?t?$AAW?$AAj?$AAD@ DB 'p'
	DB	'RYOn0$PL0', 00H, 'N', 0f4H, 081H, 'W0j0D0', 00H, 00H ; `string'
CONST	ENDS
;	COMDAT ??_C@_1BE@OEODMBIH@?$AAF?$AAn?$AA$?$AAL?$AA?$AA?$PP?t?$AAW?$AAj?$AAD@
CONST	SEGMENT
??_C@_1BE@OEODMBIH@?$AAF?$AAn?$AA$?$AAL?$AA?$AA?$PP?t?$AAW?$AAj?$AAD@ DB 'F'
	DB	'Un0$PL0', 00H, 'N', 0f4H, 081H, 'W0j0D0', 00H, 00H ; `string'
CONST	ENDS
;	COMDAT ??_C@_1DO@DOHJEMND@?$AAT?$AAo?$AAB?$AAy?$AAt?$AAe?$AAA?$AAr?$AAr?$AAa?$AAy?$AAn?$PP?$KJ?$AA0?$PP?$LD@
CONST	SEGMENT
??_C@_1DO@DOHJEMND@?$AAT?$AAo?$AAB?$AAy?$AAt?$AAe?$AAA?$AAr?$AAr?$AAa?$AAy?$AAn?$PP?$KJ?$AA0?$PP?$LD@ DB 'T'
	DB	00H, 'o', 00H, 'B', 00H, 'y', 00H, 't', 00H, 'e', 00H, 'A', 00H
	DB	'r', 00H, 'r', 00H, 'a', 00H, 'y', 00H, 'n0', 0a9H, '_0^', 0b3H
	DB	'0', 0fcH, '0', 0c9H, '0L0', 01fH, 'g', 085H, '_', 01aH, 090H, 08aH
	DB	'0g0o0j0D0(', 00H, '%', 00H, 'd', 00H, ')', 00H, 00H, 00H ; `string'
CONST	ENDS
;	COMDAT ??_C@_1DM@FPONPMLK@?$AAD?$AAi?$AAv?$AAR?$AAe?$AAm?$AA_?$AAI?$AA_?$AAX?$AAn?$PP?$KJ?$AA0?$PP?$LD?$PP?$PM@
CONST	SEGMENT
??_C@_1DM@FPONPMLK@?$AAD?$AAi?$AAv?$AAR?$AAe?$AAm?$AA_?$AAI?$AA_?$AAX?$AAn?$PP?$KJ?$AA0?$PP?$LD?$PP?$PM@ DB 'D'
	DB	00H, 'i', 00H, 'v', 00H, 'R', 00H, 'e', 00H, 'm', 00H, '_', 00H
	DB	'I', 00H, '_', 00H, 'X', 00H, 'n0', 0a9H, '_0^', 0b3H, '0', 0fcH
	DB	'0', 0c9H, '0L0', 01fH, 'g', 085H, '_', 01aH, 090H, 08aH, '0g0'
	DB	'o0j0D0(', 00H, '%', 00H, 'd', 00H, ')', 00H, 00H, 00H ; `string'
CONST	ENDS
;	COMDAT ??_C@_1CG@MKNPGAIC@?$AAD?$AAi?$AAv?$AAR?$AAe?$AAm?$AA_?$AAI?$AA_?$AAX?$AA?5?$AA?$CI?$AA?$CF?$AAd?$AA?4@
CONST	SEGMENT
??_C@_1CG@MKNPGAIC@?$AAD?$AAi?$AAv?$AAR?$AAe?$AAm?$AA_?$AAI?$AA_?$AAX?$AA?5?$AA?$CI?$AA?$CF?$AAd?$AA?4@ DB 'D'
	DB	00H, 'i', 00H, 'v', 00H, 'R', 00H, 'e', 00H, 'm', 00H, '_', 00H
	DB	'I', 00H, '_', 00H, 'X', 00H, ' ', 00H, '(', 00H, '%', 00H, 'd'
	DB	00H, '.', 00H, '%', 00H, 'd', 00H, ')', 00H, 00H, 00H ; `string'
CONST	ENDS
;	COMDAT ??_C@_1EC@NPMCAPKO@?$AAF?$AAr?$AAo?$AAm?$AAB?$AAy?$AAt?$AAe?$AAA?$AAr?$AAr?$AAa?$AAy?$AAn?$PP?$KJ@
CONST	SEGMENT
??_C@_1EC@NPMCAPKO@?$AAF?$AAr?$AAo?$AAm?$AAB?$AAy?$AAt?$AAe?$AAA?$AAr?$AAr?$AAa?$AAy?$AAn?$PP?$KJ@ DB 'F'
	DB	00H, 'r', 00H, 'o', 00H, 'm', 00H, 'B', 00H, 'y', 00H, 't', 00H
	DB	'e', 00H, 'A', 00H, 'r', 00H, 'r', 00H, 'a', 00H, 'y', 00H, 'n'
	DB	'0', 0a9H, '_0^', 0b3H, '0', 0fcH, '0', 0c9H, '0L0', 01fH, 'g', 085H
	DB	'_', 01aH, 090H, 08aH, '0g0o0j0D0(', 00H, '%', 00H, 'd', 00H, ')'
	DB	00H, 00H, 00H				; `string'
CONST	ENDS
; Function compile flags: /Odt
;	COMDAT __JustMyCode_Default
_TEXT	SEGMENT
__JustMyCode_Default PROC				; COMDAT
	push	ebp
	mov	ebp, esp
	pop	ebp
	ret	0
__JustMyCode_Default ENDP
_TEXT	ENDS
; Function compile flags: /Odtp /RTCsu /ZI
; File z:\sources\lunor\repos\rougemeilland\palmtree.math.core.sint\palmtree.math.core.sint\test_op_divrem.c
;	COMDAT _TEST_DivRem_X_X
_TEXT	SEGMENT
tv212 = -1040						; size = 4
tv197 = -1040						; size = 4
tv182 = -1040						; size = 4
tv163 = -1040						; size = 4
tv143 = -1040						; size = 4
tv92 = -1040						; size = 4
tv74 = -1040						; size = 4
_q_r_result$ = -648					; size = 4
_v_result$ = -636					; size = 4
_u_result$ = -624					; size = 4
_result$ = -612						; size = 4
_actual_r_buf_size$ = -600				; size = 4
_actual_r_buf$ = -588					; size = 256
_actual_q_buf_size$ = -324				; size = 4
_actual_q_buf$ = -312					; size = 256
_r$ = -48						; size = 4
_q$ = -36						; size = 4
_v$ = -24						; size = 4
_u$ = -12						; size = 4
__$ArrayPad$ = -4					; size = 4
_env$ = 8						; size = 4
_ep$ = 12						; size = 4
_no$ = 16						; size = 4
_u_buf$ = 20						; size = 4
_u_buf_size$ = 24					; size = 4
_v_buf$ = 28						; size = 4
_v_buf_size$ = 32					; size = 4
_desired_return_code$ = 36				; size = 4
_desired_q_buf$ = 40					; size = 4
_desired_q_buf_size$ = 44				; size = 4
_desired_r_buf$ = 48					; size = 4
_desired_r_buf_size$ = 52				; size = 4
_TEST_DivRem_X_X PROC					; COMDAT

; 211  : {

	push	ebp
	mov	ebp, esp
	sub	esp, 1040				; 00000410H
	push	ebx
	push	esi
	push	edi
	lea	edi, DWORD PTR [ebp-1040]
	mov	ecx, 260				; 00000104H
	mov	eax, -858993460				; ccccccccH
	rep stosd
	mov	eax, DWORD PTR ___security_cookie
	xor	eax, ebp
	mov	DWORD PTR __$ArrayPad$[ebp], eax
	mov	ecx, OFFSET __76EA6F59_test_op_divrem@c
	call	@__CheckForDebuggerJustMyCode@4

; 212  :     PMC_HANDLE_SINT u;
; 213  :     PMC_HANDLE_SINT v;
; 214  :     PMC_HANDLE_SINT q;
; 215  :     PMC_HANDLE_SINT r;
; 216  :     unsigned char actual_q_buf[256];
; 217  :     size_t actual_q_buf_size;
; 218  :     unsigned char actual_r_buf[256];
; 219  :     size_t actual_r_buf_size;
; 220  :     PMC_STATUS_CODE result;
; 221  :     PMC_STATUS_CODE u_result;
; 222  :     PMC_STATUS_CODE v_result;
; 223  :     PMC_STATUS_CODE q_r_result;
; 224  :     TEST_Assert(env, FormatTestLabel(L"DivRem_X_X (%d.%d)", no, 1), (u_result = ep->FromByteArray(u_buf, u_buf_size, &u)) == PMC_STATUS_OK, FormatTestMesssage(L"FromByteArrayの復帰コードが期待通りではない(%d)", u_result));

	mov	esi, esp
	lea	eax, DWORD PTR _u$[ebp]
	push	eax
	mov	ecx, DWORD PTR _u_buf_size$[ebp]
	push	ecx
	mov	edx, DWORD PTR _u_buf$[ebp]
	push	edx
	mov	eax, DWORD PTR _ep$[ebp]
	mov	ecx, DWORD PTR [eax+296]
	call	ecx
	cmp	esi, esp
	call	__RTC_CheckEsp
	mov	DWORD PTR _u_result$[ebp], eax
	cmp	DWORD PTR _u_result$[ebp], 0
	jne	SHORT $LN7@TEST_DivRe
	mov	DWORD PTR tv74[ebp], 1
	jmp	SHORT $LN8@TEST_DivRe
$LN7@TEST_DivRe:
	mov	DWORD PTR tv74[ebp], 0
$LN8@TEST_DivRe:
	mov	edx, DWORD PTR _u_result$[ebp]
	push	edx
	push	OFFSET ??_C@_1EC@NPMCAPKO@?$AAF?$AAr?$AAo?$AAm?$AAB?$AAy?$AAt?$AAe?$AAA?$AAr?$AAr?$AAa?$AAy?$AAn?$PP?$KJ@
	call	_FormatTestMesssage
	add	esp, 8
	push	eax
	mov	eax, DWORD PTR tv74[ebp]
	push	eax
	push	1
	mov	ecx, DWORD PTR _no$[ebp]
	push	ecx
	push	OFFSET ??_C@_1CG@DEJBHKJI@?$AAD?$AAi?$AAv?$AAR?$AAe?$AAm?$AA_?$AAX?$AA_?$AAX?$AA?5?$AA?$CI?$AA?$CF?$AAd?$AA?4@
	call	_FormatTestLabel
	add	esp, 12					; 0000000cH
	push	eax
	mov	edx, DWORD PTR _env$[ebp]
	push	edx
	call	_TEST_Assert
	add	esp, 16					; 00000010H

; 225  :     TEST_Assert(env, FormatTestLabel(L"DivRem_X_X (%d.%d)", no, 2), (v_result = ep->FromByteArray(v_buf, v_buf_size, &v)) == PMC_STATUS_OK, FormatTestMesssage(L"FromByteArrayの復帰コードが期待通りではない(%d)", v_result));

	mov	esi, esp
	lea	eax, DWORD PTR _v$[ebp]
	push	eax
	mov	ecx, DWORD PTR _v_buf_size$[ebp]
	push	ecx
	mov	edx, DWORD PTR _v_buf$[ebp]
	push	edx
	mov	eax, DWORD PTR _ep$[ebp]
	mov	ecx, DWORD PTR [eax+296]
	call	ecx
	cmp	esi, esp
	call	__RTC_CheckEsp
	mov	DWORD PTR _v_result$[ebp], eax
	cmp	DWORD PTR _v_result$[ebp], 0
	jne	SHORT $LN9@TEST_DivRe
	mov	DWORD PTR tv92[ebp], 1
	jmp	SHORT $LN10@TEST_DivRe
$LN9@TEST_DivRe:
	mov	DWORD PTR tv92[ebp], 0
$LN10@TEST_DivRe:
	mov	edx, DWORD PTR _v_result$[ebp]
	push	edx
	push	OFFSET ??_C@_1EC@NPMCAPKO@?$AAF?$AAr?$AAo?$AAm?$AAB?$AAy?$AAt?$AAe?$AAA?$AAr?$AAr?$AAa?$AAy?$AAn?$PP?$KJ@
	call	_FormatTestMesssage
	add	esp, 8
	push	eax
	mov	eax, DWORD PTR tv92[ebp]
	push	eax
	push	2
	mov	ecx, DWORD PTR _no$[ebp]
	push	ecx
	push	OFFSET ??_C@_1CG@DEJBHKJI@?$AAD?$AAi?$AAv?$AAR?$AAe?$AAm?$AA_?$AAX?$AA_?$AAX?$AA?5?$AA?$CI?$AA?$CF?$AAd?$AA?4@
	call	_FormatTestLabel
	add	esp, 12					; 0000000cH
	push	eax
	mov	edx, DWORD PTR _env$[ebp]
	push	edx
	call	_TEST_Assert
	add	esp, 16					; 00000010H

; 226  :     TEST_Assert(env, FormatTestLabel(L"DivRem_X_X (%d.%d)", no, 3), (q_r_result = ep->DivRem_X_X(u, v, &q, &r)) == desired_return_code, FormatTestMesssage(L"DivRem_X_Xの復帰コードが期待通りではない(%d)", q_r_result));

	mov	esi, esp
	lea	eax, DWORD PTR _r$[ebp]
	push	eax
	lea	ecx, DWORD PTR _q$[ebp]
	push	ecx
	mov	edx, DWORD PTR _v$[ebp]
	push	edx
	mov	eax, DWORD PTR _u$[ebp]
	push	eax
	mov	ecx, DWORD PTR _ep$[ebp]
	mov	edx, DWORD PTR [ecx+428]
	call	edx
	cmp	esi, esp
	call	__RTC_CheckEsp
	mov	DWORD PTR _q_r_result$[ebp], eax
	mov	eax, DWORD PTR _q_r_result$[ebp]
	cmp	eax, DWORD PTR _desired_return_code$[ebp]
	jne	SHORT $LN11@TEST_DivRe
	mov	DWORD PTR tv143[ebp], 1
	jmp	SHORT $LN12@TEST_DivRe
$LN11@TEST_DivRe:
	mov	DWORD PTR tv143[ebp], 0
$LN12@TEST_DivRe:
	mov	ecx, DWORD PTR _q_r_result$[ebp]
	push	ecx
	push	OFFSET ??_C@_1DM@LBHJMHBN@?$AAD?$AAi?$AAv?$AAR?$AAe?$AAm?$AA_?$AAX?$AA_?$AAX?$AAn?$PP?$KJ?$AA0?$PP?$LD?$PP?$PM@
	call	_FormatTestMesssage
	add	esp, 8
	push	eax
	mov	edx, DWORD PTR tv143[ebp]
	push	edx
	push	3
	mov	eax, DWORD PTR _no$[ebp]
	push	eax
	push	OFFSET ??_C@_1CG@DEJBHKJI@?$AAD?$AAi?$AAv?$AAR?$AAe?$AAm?$AA_?$AAX?$AA_?$AAX?$AA?5?$AA?$CI?$AA?$CF?$AAd?$AA?4@
	call	_FormatTestLabel
	add	esp, 12					; 0000000cH
	push	eax
	mov	ecx, DWORD PTR _env$[ebp]
	push	ecx
	call	_TEST_Assert
	add	esp, 16					; 00000010H

; 227  :     if (desired_return_code == PMC_STATUS_OK)

	cmp	DWORD PTR _desired_return_code$[ebp], 0
	jne	$LN2@TEST_DivRe

; 228  :     {
; 229  :         TEST_Assert(env, FormatTestLabel(L"DivRem_X_X (%d.%d)", no, 4), (result = ep->ToByteArray(q, actual_q_buf, sizeof(actual_q_buf), &actual_q_buf_size)) == PMC_STATUS_OK, FormatTestMesssage(L"ToByteArrayの復帰コードが期待通りではない(%d)", result));

	mov	esi, esp
	lea	eax, DWORD PTR _actual_q_buf_size$[ebp]
	push	eax
	push	256					; 00000100H
	lea	ecx, DWORD PTR _actual_q_buf$[ebp]
	push	ecx
	mov	edx, DWORD PTR _q$[ebp]
	push	edx
	mov	eax, DWORD PTR _ep$[ebp]
	mov	ecx, DWORD PTR [eax+300]
	call	ecx
	cmp	esi, esp
	call	__RTC_CheckEsp
	mov	DWORD PTR _result$[ebp], eax
	cmp	DWORD PTR _result$[ebp], 0
	jne	SHORT $LN13@TEST_DivRe
	mov	DWORD PTR tv163[ebp], 1
	jmp	SHORT $LN14@TEST_DivRe
$LN13@TEST_DivRe:
	mov	DWORD PTR tv163[ebp], 0
$LN14@TEST_DivRe:
	mov	edx, DWORD PTR _result$[ebp]
	push	edx
	push	OFFSET ??_C@_1DO@DOHJEMND@?$AAT?$AAo?$AAB?$AAy?$AAt?$AAe?$AAA?$AAr?$AAr?$AAa?$AAy?$AAn?$PP?$KJ?$AA0?$PP?$LD@
	call	_FormatTestMesssage
	add	esp, 8
	push	eax
	mov	eax, DWORD PTR tv163[ebp]
	push	eax
	push	4
	mov	ecx, DWORD PTR _no$[ebp]
	push	ecx
	push	OFFSET ??_C@_1CG@DEJBHKJI@?$AAD?$AAi?$AAv?$AAR?$AAe?$AAm?$AA_?$AAX?$AA_?$AAX?$AA?5?$AA?$CI?$AA?$CF?$AAd?$AA?4@
	call	_FormatTestLabel
	add	esp, 12					; 0000000cH
	push	eax
	mov	edx, DWORD PTR _env$[ebp]
	push	edx
	call	_TEST_Assert
	add	esp, 16					; 00000010H

; 230  :         TEST_Assert(env, FormatTestLabel(L"DivRem_X_X (%d.%d)", no, 5), (result = ep->ToByteArray(r, actual_r_buf, sizeof(actual_r_buf), &actual_r_buf_size)) == PMC_STATUS_OK, FormatTestMesssage(L"ToByteArrayの復帰コードが期待通りではない(%d)", result));

	mov	esi, esp
	lea	eax, DWORD PTR _actual_r_buf_size$[ebp]
	push	eax
	push	256					; 00000100H
	lea	ecx, DWORD PTR _actual_r_buf$[ebp]
	push	ecx
	mov	edx, DWORD PTR _r$[ebp]
	push	edx
	mov	eax, DWORD PTR _ep$[ebp]
	mov	ecx, DWORD PTR [eax+300]
	call	ecx
	cmp	esi, esp
	call	__RTC_CheckEsp
	mov	DWORD PTR _result$[ebp], eax
	cmp	DWORD PTR _result$[ebp], 0
	jne	SHORT $LN15@TEST_DivRe
	mov	DWORD PTR tv182[ebp], 1
	jmp	SHORT $LN16@TEST_DivRe
$LN15@TEST_DivRe:
	mov	DWORD PTR tv182[ebp], 0
$LN16@TEST_DivRe:
	mov	edx, DWORD PTR _result$[ebp]
	push	edx
	push	OFFSET ??_C@_1DO@DOHJEMND@?$AAT?$AAo?$AAB?$AAy?$AAt?$AAe?$AAA?$AAr?$AAr?$AAa?$AAy?$AAn?$PP?$KJ?$AA0?$PP?$LD@
	call	_FormatTestMesssage
	add	esp, 8
	push	eax
	mov	eax, DWORD PTR tv182[ebp]
	push	eax
	push	5
	mov	ecx, DWORD PTR _no$[ebp]
	push	ecx
	push	OFFSET ??_C@_1CG@DEJBHKJI@?$AAD?$AAi?$AAv?$AAR?$AAe?$AAm?$AA_?$AAX?$AA_?$AAX?$AA?5?$AA?$CI?$AA?$CF?$AAd?$AA?4@
	call	_FormatTestLabel
	add	esp, 12					; 0000000cH
	push	eax
	mov	edx, DWORD PTR _env$[ebp]
	push	edx
	call	_TEST_Assert
	add	esp, 16					; 00000010H

; 231  :         TEST_Assert(env, FormatTestLabel(L"DivRem_X_X (%d.%d)", no, 6), _EQUALS_MEMORY(actual_q_buf, actual_q_buf_size, desired_q_buf, desired_q_buf_size) == 0, L"商の値が一致しない");

	mov	eax, DWORD PTR _desired_q_buf_size$[ebp]
	push	eax
	mov	ecx, DWORD PTR _desired_q_buf$[ebp]
	push	ecx
	mov	edx, DWORD PTR _actual_q_buf_size$[ebp]
	push	edx
	lea	eax, DWORD PTR _actual_q_buf$[ebp]
	push	eax
	call	__EQUALS_MEMORY
	add	esp, 16					; 00000010H
	test	eax, eax
	jne	SHORT $LN17@TEST_DivRe
	mov	DWORD PTR tv197[ebp], 1
	jmp	SHORT $LN18@TEST_DivRe
$LN17@TEST_DivRe:
	mov	DWORD PTR tv197[ebp], 0
$LN18@TEST_DivRe:
	push	OFFSET ??_C@_1BE@OEODMBIH@?$AAF?$AAn?$AA$?$AAL?$AA?$AA?$PP?t?$AAW?$AAj?$AAD@
	mov	ecx, DWORD PTR tv197[ebp]
	push	ecx
	push	6
	mov	edx, DWORD PTR _no$[ebp]
	push	edx
	push	OFFSET ??_C@_1CG@DEJBHKJI@?$AAD?$AAi?$AAv?$AAR?$AAe?$AAm?$AA_?$AAX?$AA_?$AAX?$AA?5?$AA?$CI?$AA?$CF?$AAd?$AA?4@
	call	_FormatTestLabel
	add	esp, 12					; 0000000cH
	push	eax
	mov	eax, DWORD PTR _env$[ebp]
	push	eax
	call	_TEST_Assert
	add	esp, 16					; 00000010H

; 232  :         TEST_Assert(env, FormatTestLabel(L"DivRem_X_X (%d.%d)", no, 7), _EQUALS_MEMORY(actual_r_buf, actual_r_buf_size, desired_r_buf, desired_r_buf_size) == 0, L"剰余の値が一致しない");

	mov	eax, DWORD PTR _desired_r_buf_size$[ebp]
	push	eax
	mov	ecx, DWORD PTR _desired_r_buf$[ebp]
	push	ecx
	mov	edx, DWORD PTR _actual_r_buf_size$[ebp]
	push	edx
	lea	eax, DWORD PTR _actual_r_buf$[ebp]
	push	eax
	call	__EQUALS_MEMORY
	add	esp, 16					; 00000010H
	test	eax, eax
	jne	SHORT $LN19@TEST_DivRe
	mov	DWORD PTR tv212[ebp], 1
	jmp	SHORT $LN20@TEST_DivRe
$LN19@TEST_DivRe:
	mov	DWORD PTR tv212[ebp], 0
$LN20@TEST_DivRe:
	push	OFFSET ??_C@_1BG@BPGLFLF@?$AAp?$AAY?$AAn?$AA$?$AAL?$AA?$AA?$PP?t?$AAW?$AAj?$AAD@
	mov	ecx, DWORD PTR tv212[ebp]
	push	ecx
	push	7
	mov	edx, DWORD PTR _no$[ebp]
	push	edx
	push	OFFSET ??_C@_1CG@DEJBHKJI@?$AAD?$AAi?$AAv?$AAR?$AAe?$AAm?$AA_?$AAX?$AA_?$AAX?$AA?5?$AA?$CI?$AA?$CF?$AAd?$AA?4@
	call	_FormatTestLabel
	add	esp, 12					; 0000000cH
	push	eax
	mov	eax, DWORD PTR _env$[ebp]
	push	eax
	call	_TEST_Assert
	add	esp, 16					; 00000010H
$LN2@TEST_DivRe:

; 233  :     }
; 234  :     if (q_r_result == PMC_STATUS_OK)

	cmp	DWORD PTR _q_r_result$[ebp], 0
	jne	SHORT $LN3@TEST_DivRe

; 235  :     {
; 236  :         ep->Dispose(q);

	mov	esi, esp
	mov	eax, DWORD PTR _q$[ebp]
	push	eax
	mov	ecx, DWORD PTR _ep$[ebp]
	mov	edx, DWORD PTR [ecx+288]
	call	edx
	cmp	esi, esp
	call	__RTC_CheckEsp

; 237  :         ep->Dispose(r);

	mov	esi, esp
	mov	eax, DWORD PTR _r$[ebp]
	push	eax
	mov	ecx, DWORD PTR _ep$[ebp]
	mov	edx, DWORD PTR [ecx+288]
	call	edx
	cmp	esi, esp
	call	__RTC_CheckEsp
$LN3@TEST_DivRe:

; 238  :     }
; 239  :     if (v_result == PMC_STATUS_OK)

	cmp	DWORD PTR _v_result$[ebp], 0
	jne	SHORT $LN4@TEST_DivRe

; 240  :         ep->Dispose(v);

	mov	esi, esp
	mov	eax, DWORD PTR _v$[ebp]
	push	eax
	mov	ecx, DWORD PTR _ep$[ebp]
	mov	edx, DWORD PTR [ecx+288]
	call	edx
	cmp	esi, esp
	call	__RTC_CheckEsp
$LN4@TEST_DivRe:

; 241  :     if (u_result == PMC_STATUS_OK)

	cmp	DWORD PTR _u_result$[ebp], 0
	jne	SHORT $LN1@TEST_DivRe

; 242  :         ep->Dispose(u);

	mov	esi, esp
	mov	eax, DWORD PTR _u$[ebp]
	push	eax
	mov	ecx, DWORD PTR _ep$[ebp]
	mov	edx, DWORD PTR [ecx+288]
	call	edx
	cmp	esi, esp
	call	__RTC_CheckEsp
$LN1@TEST_DivRe:

; 243  : }

	push	edx
	mov	ecx, ebp
	push	eax
	lea	edx, DWORD PTR $LN30@TEST_DivRe
	call	@_RTC_CheckStackVars@8
	pop	eax
	pop	edx
	pop	edi
	pop	esi
	pop	ebx
	mov	ecx, DWORD PTR __$ArrayPad$[ebp]
	xor	ecx, ebp
	call	@__security_check_cookie@4
	add	esp, 1040				; 00000410H
	cmp	ebp, esp
	call	__RTC_CheckEsp
	mov	esp, ebp
	pop	ebp
	ret	0
	npad	1
$LN30@TEST_DivRe:
	DD	8
	DD	$LN29@TEST_DivRe
$LN29@TEST_DivRe:
	DD	-12					; fffffff4H
	DD	4
	DD	$LN21@TEST_DivRe
	DD	-24					; ffffffe8H
	DD	4
	DD	$LN22@TEST_DivRe
	DD	-36					; ffffffdcH
	DD	4
	DD	$LN23@TEST_DivRe
	DD	-48					; ffffffd0H
	DD	4
	DD	$LN24@TEST_DivRe
	DD	-312					; fffffec8H
	DD	256					; 00000100H
	DD	$LN25@TEST_DivRe
	DD	-324					; fffffebcH
	DD	4
	DD	$LN26@TEST_DivRe
	DD	-588					; fffffdb4H
	DD	256					; 00000100H
	DD	$LN27@TEST_DivRe
	DD	-600					; fffffda8H
	DD	4
	DD	$LN28@TEST_DivRe
$LN28@TEST_DivRe:
	DB	97					; 00000061H
	DB	99					; 00000063H
	DB	116					; 00000074H
	DB	117					; 00000075H
	DB	97					; 00000061H
	DB	108					; 0000006cH
	DB	95					; 0000005fH
	DB	114					; 00000072H
	DB	95					; 0000005fH
	DB	98					; 00000062H
	DB	117					; 00000075H
	DB	102					; 00000066H
	DB	95					; 0000005fH
	DB	115					; 00000073H
	DB	105					; 00000069H
	DB	122					; 0000007aH
	DB	101					; 00000065H
	DB	0
$LN27@TEST_DivRe:
	DB	97					; 00000061H
	DB	99					; 00000063H
	DB	116					; 00000074H
	DB	117					; 00000075H
	DB	97					; 00000061H
	DB	108					; 0000006cH
	DB	95					; 0000005fH
	DB	114					; 00000072H
	DB	95					; 0000005fH
	DB	98					; 00000062H
	DB	117					; 00000075H
	DB	102					; 00000066H
	DB	0
$LN26@TEST_DivRe:
	DB	97					; 00000061H
	DB	99					; 00000063H
	DB	116					; 00000074H
	DB	117					; 00000075H
	DB	97					; 00000061H
	DB	108					; 0000006cH
	DB	95					; 0000005fH
	DB	113					; 00000071H
	DB	95					; 0000005fH
	DB	98					; 00000062H
	DB	117					; 00000075H
	DB	102					; 00000066H
	DB	95					; 0000005fH
	DB	115					; 00000073H
	DB	105					; 00000069H
	DB	122					; 0000007aH
	DB	101					; 00000065H
	DB	0
$LN25@TEST_DivRe:
	DB	97					; 00000061H
	DB	99					; 00000063H
	DB	116					; 00000074H
	DB	117					; 00000075H
	DB	97					; 00000061H
	DB	108					; 0000006cH
	DB	95					; 0000005fH
	DB	113					; 00000071H
	DB	95					; 0000005fH
	DB	98					; 00000062H
	DB	117					; 00000075H
	DB	102					; 00000066H
	DB	0
$LN24@TEST_DivRe:
	DB	114					; 00000072H
	DB	0
$LN23@TEST_DivRe:
	DB	113					; 00000071H
	DB	0
$LN22@TEST_DivRe:
	DB	118					; 00000076H
	DB	0
$LN21@TEST_DivRe:
	DB	117					; 00000075H
	DB	0
_TEST_DivRem_X_X ENDP
_TEXT	ENDS
; Function compile flags: /Odtp /RTCsu /ZI
; File z:\sources\lunor\repos\rougemeilland\palmtree.math.core.sint\palmtree.math.core.sint\test_op_divrem.c
;	COMDAT _TEST_DivRem_X_UX
_TEXT	SEGMENT
tv212 = -1040						; size = 4
tv197 = -1040						; size = 4
tv182 = -1040						; size = 4
tv163 = -1040						; size = 4
tv143 = -1040						; size = 4
tv92 = -1040						; size = 4
tv74 = -1040						; size = 4
_q_r_result$ = -648					; size = 4
_v_result$ = -636					; size = 4
_u_result$ = -624					; size = 4
_result$ = -612						; size = 4
_actual_r_buf_size$ = -600				; size = 4
_actual_r_buf$ = -588					; size = 256
_actual_q_buf_size$ = -324				; size = 4
_actual_q_buf$ = -312					; size = 256
_r$ = -48						; size = 4
_q$ = -36						; size = 4
_v$ = -24						; size = 4
_u$ = -12						; size = 4
__$ArrayPad$ = -4					; size = 4
_env$ = 8						; size = 4
_ep$ = 12						; size = 4
_no$ = 16						; size = 4
_u_buf$ = 20						; size = 4
_u_buf_size$ = 24					; size = 4
_v_buf$ = 28						; size = 4
_v_buf_size$ = 32					; size = 4
_desired_return_code$ = 36				; size = 4
_desired_q_buf$ = 40					; size = 4
_desired_q_buf_size$ = 44				; size = 4
_desired_r_buf$ = 48					; size = 4
_desired_r_buf_size$ = 52				; size = 4
_TEST_DivRem_X_UX PROC					; COMDAT

; 176  : {

	push	ebp
	mov	ebp, esp
	sub	esp, 1040				; 00000410H
	push	ebx
	push	esi
	push	edi
	lea	edi, DWORD PTR [ebp-1040]
	mov	ecx, 260				; 00000104H
	mov	eax, -858993460				; ccccccccH
	rep stosd
	mov	eax, DWORD PTR ___security_cookie
	xor	eax, ebp
	mov	DWORD PTR __$ArrayPad$[ebp], eax
	mov	ecx, OFFSET __76EA6F59_test_op_divrem@c
	call	@__CheckForDebuggerJustMyCode@4

; 177  :     PMC_HANDLE_SINT u;
; 178  :     PMC_HANDLE_UINT v;
; 179  :     PMC_HANDLE_SINT q;
; 180  :     PMC_HANDLE_SINT r;
; 181  :     unsigned char actual_q_buf[256];
; 182  :     size_t actual_q_buf_size;
; 183  :     unsigned char actual_r_buf[256];
; 184  :     size_t actual_r_buf_size;
; 185  :     PMC_STATUS_CODE result;
; 186  :     PMC_STATUS_CODE u_result;
; 187  :     PMC_STATUS_CODE v_result;
; 188  :     PMC_STATUS_CODE q_r_result;
; 189  :     TEST_Assert(env, FormatTestLabel(L"DivRem_X_UX (%d.%d)", no, 1), (u_result = ep->FromByteArray(u_buf, u_buf_size, &u)) == PMC_STATUS_OK, FormatTestMesssage(L"FromByteArrayの復帰コードが期待通りではない(%d)", u_result));

	mov	esi, esp
	lea	eax, DWORD PTR _u$[ebp]
	push	eax
	mov	ecx, DWORD PTR _u_buf_size$[ebp]
	push	ecx
	mov	edx, DWORD PTR _u_buf$[ebp]
	push	edx
	mov	eax, DWORD PTR _ep$[ebp]
	mov	ecx, DWORD PTR [eax+296]
	call	ecx
	cmp	esi, esp
	call	__RTC_CheckEsp
	mov	DWORD PTR _u_result$[ebp], eax
	cmp	DWORD PTR _u_result$[ebp], 0
	jne	SHORT $LN7@TEST_DivRe
	mov	DWORD PTR tv74[ebp], 1
	jmp	SHORT $LN8@TEST_DivRe
$LN7@TEST_DivRe:
	mov	DWORD PTR tv74[ebp], 0
$LN8@TEST_DivRe:
	mov	edx, DWORD PTR _u_result$[ebp]
	push	edx
	push	OFFSET ??_C@_1EC@NPMCAPKO@?$AAF?$AAr?$AAo?$AAm?$AAB?$AAy?$AAt?$AAe?$AAA?$AAr?$AAr?$AAa?$AAy?$AAn?$PP?$KJ@
	call	_FormatTestMesssage
	add	esp, 8
	push	eax
	mov	eax, DWORD PTR tv74[ebp]
	push	eax
	push	1
	mov	ecx, DWORD PTR _no$[ebp]
	push	ecx
	push	OFFSET ??_C@_1CI@MCEJJFCK@?$AAD?$AAi?$AAv?$AAR?$AAe?$AAm?$AA_?$AAX?$AA_?$AAU?$AAX?$AA?5?$AA?$CI?$AA?$CF?$AAd@
	call	_FormatTestLabel
	add	esp, 12					; 0000000cH
	push	eax
	mov	edx, DWORD PTR _env$[ebp]
	push	edx
	call	_TEST_Assert
	add	esp, 16					; 00000010H

; 190  :     TEST_Assert(env, FormatTestLabel(L"DivRem_X_UX (%d.%d)", no, 2), (v_result = ep->UINT_ENTRY_POINTS.FromByteArray(v_buf, v_buf_size, &v)) == PMC_STATUS_OK, FormatTestMesssage(L"FromByteArrayの復帰コードが期待通りではない(%d)", v_result));

	mov	esi, esp
	lea	eax, DWORD PTR _v$[ebp]
	push	eax
	mov	ecx, DWORD PTR _v_buf_size$[ebp]
	push	ecx
	mov	edx, DWORD PTR _v_buf$[ebp]
	push	edx
	mov	eax, DWORD PTR _ep$[ebp]
	mov	ecx, DWORD PTR [eax+24]
	call	ecx
	cmp	esi, esp
	call	__RTC_CheckEsp
	mov	DWORD PTR _v_result$[ebp], eax
	cmp	DWORD PTR _v_result$[ebp], 0
	jne	SHORT $LN9@TEST_DivRe
	mov	DWORD PTR tv92[ebp], 1
	jmp	SHORT $LN10@TEST_DivRe
$LN9@TEST_DivRe:
	mov	DWORD PTR tv92[ebp], 0
$LN10@TEST_DivRe:
	mov	edx, DWORD PTR _v_result$[ebp]
	push	edx
	push	OFFSET ??_C@_1EC@NPMCAPKO@?$AAF?$AAr?$AAo?$AAm?$AAB?$AAy?$AAt?$AAe?$AAA?$AAr?$AAr?$AAa?$AAy?$AAn?$PP?$KJ@
	call	_FormatTestMesssage
	add	esp, 8
	push	eax
	mov	eax, DWORD PTR tv92[ebp]
	push	eax
	push	2
	mov	ecx, DWORD PTR _no$[ebp]
	push	ecx
	push	OFFSET ??_C@_1CI@MCEJJFCK@?$AAD?$AAi?$AAv?$AAR?$AAe?$AAm?$AA_?$AAX?$AA_?$AAU?$AAX?$AA?5?$AA?$CI?$AA?$CF?$AAd@
	call	_FormatTestLabel
	add	esp, 12					; 0000000cH
	push	eax
	mov	edx, DWORD PTR _env$[ebp]
	push	edx
	call	_TEST_Assert
	add	esp, 16					; 00000010H

; 191  :     TEST_Assert(env, FormatTestLabel(L"DivRem_X_UX (%d.%d)", no, 3), (q_r_result = ep->DivRem_X_UX(u, v, &q, &r)) == desired_return_code, FormatTestMesssage(L"DivRem_X_UXの復帰コードが期待通りではない(%d)", q_r_result));

	mov	esi, esp
	lea	eax, DWORD PTR _r$[ebp]
	push	eax
	lea	ecx, DWORD PTR _q$[ebp]
	push	ecx
	mov	edx, DWORD PTR _v$[ebp]
	push	edx
	mov	eax, DWORD PTR _u$[ebp]
	push	eax
	mov	ecx, DWORD PTR _ep$[ebp]
	mov	edx, DWORD PTR [ecx+424]
	call	edx
	cmp	esi, esp
	call	__RTC_CheckEsp
	mov	DWORD PTR _q_r_result$[ebp], eax
	mov	eax, DWORD PTR _q_r_result$[ebp]
	cmp	eax, DWORD PTR _desired_return_code$[ebp]
	jne	SHORT $LN11@TEST_DivRe
	mov	DWORD PTR tv143[ebp], 1
	jmp	SHORT $LN12@TEST_DivRe
$LN11@TEST_DivRe:
	mov	DWORD PTR tv143[ebp], 0
$LN12@TEST_DivRe:
	mov	ecx, DWORD PTR _q_r_result$[ebp]
	push	ecx
	push	OFFSET ??_C@_1DO@LADEACKM@?$AAD?$AAi?$AAv?$AAR?$AAe?$AAm?$AA_?$AAX?$AA_?$AAU?$AAX?$AAn?$PP?$KJ?$AA0?$PP?$LD@
	call	_FormatTestMesssage
	add	esp, 8
	push	eax
	mov	edx, DWORD PTR tv143[ebp]
	push	edx
	push	3
	mov	eax, DWORD PTR _no$[ebp]
	push	eax
	push	OFFSET ??_C@_1CI@MCEJJFCK@?$AAD?$AAi?$AAv?$AAR?$AAe?$AAm?$AA_?$AAX?$AA_?$AAU?$AAX?$AA?5?$AA?$CI?$AA?$CF?$AAd@
	call	_FormatTestLabel
	add	esp, 12					; 0000000cH
	push	eax
	mov	ecx, DWORD PTR _env$[ebp]
	push	ecx
	call	_TEST_Assert
	add	esp, 16					; 00000010H

; 192  :     if (desired_return_code == PMC_STATUS_OK)

	cmp	DWORD PTR _desired_return_code$[ebp], 0
	jne	$LN2@TEST_DivRe

; 193  :     {
; 194  :         TEST_Assert(env, FormatTestLabel(L"DivRem_X_UX (%d.%d)", no, 4), (result = ep->ToByteArray(q, actual_q_buf, sizeof(actual_q_buf), &actual_q_buf_size)) == PMC_STATUS_OK, FormatTestMesssage(L"ToByteArrayの復帰コードが期待通りではない(%d)", result));

	mov	esi, esp
	lea	eax, DWORD PTR _actual_q_buf_size$[ebp]
	push	eax
	push	256					; 00000100H
	lea	ecx, DWORD PTR _actual_q_buf$[ebp]
	push	ecx
	mov	edx, DWORD PTR _q$[ebp]
	push	edx
	mov	eax, DWORD PTR _ep$[ebp]
	mov	ecx, DWORD PTR [eax+300]
	call	ecx
	cmp	esi, esp
	call	__RTC_CheckEsp
	mov	DWORD PTR _result$[ebp], eax
	cmp	DWORD PTR _result$[ebp], 0
	jne	SHORT $LN13@TEST_DivRe
	mov	DWORD PTR tv163[ebp], 1
	jmp	SHORT $LN14@TEST_DivRe
$LN13@TEST_DivRe:
	mov	DWORD PTR tv163[ebp], 0
$LN14@TEST_DivRe:
	mov	edx, DWORD PTR _result$[ebp]
	push	edx
	push	OFFSET ??_C@_1DO@DOHJEMND@?$AAT?$AAo?$AAB?$AAy?$AAt?$AAe?$AAA?$AAr?$AAr?$AAa?$AAy?$AAn?$PP?$KJ?$AA0?$PP?$LD@
	call	_FormatTestMesssage
	add	esp, 8
	push	eax
	mov	eax, DWORD PTR tv163[ebp]
	push	eax
	push	4
	mov	ecx, DWORD PTR _no$[ebp]
	push	ecx
	push	OFFSET ??_C@_1CI@MCEJJFCK@?$AAD?$AAi?$AAv?$AAR?$AAe?$AAm?$AA_?$AAX?$AA_?$AAU?$AAX?$AA?5?$AA?$CI?$AA?$CF?$AAd@
	call	_FormatTestLabel
	add	esp, 12					; 0000000cH
	push	eax
	mov	edx, DWORD PTR _env$[ebp]
	push	edx
	call	_TEST_Assert
	add	esp, 16					; 00000010H

; 195  :         TEST_Assert(env, FormatTestLabel(L"DivRem_X_UX (%d.%d)", no, 5), (result = ep->ToByteArray(r, actual_r_buf, sizeof(actual_r_buf), &actual_r_buf_size)) == PMC_STATUS_OK, FormatTestMesssage(L"ToByteArrayの復帰コードが期待通りではない(%d)", result));

	mov	esi, esp
	lea	eax, DWORD PTR _actual_r_buf_size$[ebp]
	push	eax
	push	256					; 00000100H
	lea	ecx, DWORD PTR _actual_r_buf$[ebp]
	push	ecx
	mov	edx, DWORD PTR _r$[ebp]
	push	edx
	mov	eax, DWORD PTR _ep$[ebp]
	mov	ecx, DWORD PTR [eax+300]
	call	ecx
	cmp	esi, esp
	call	__RTC_CheckEsp
	mov	DWORD PTR _result$[ebp], eax
	cmp	DWORD PTR _result$[ebp], 0
	jne	SHORT $LN15@TEST_DivRe
	mov	DWORD PTR tv182[ebp], 1
	jmp	SHORT $LN16@TEST_DivRe
$LN15@TEST_DivRe:
	mov	DWORD PTR tv182[ebp], 0
$LN16@TEST_DivRe:
	mov	edx, DWORD PTR _result$[ebp]
	push	edx
	push	OFFSET ??_C@_1DO@DOHJEMND@?$AAT?$AAo?$AAB?$AAy?$AAt?$AAe?$AAA?$AAr?$AAr?$AAa?$AAy?$AAn?$PP?$KJ?$AA0?$PP?$LD@
	call	_FormatTestMesssage
	add	esp, 8
	push	eax
	mov	eax, DWORD PTR tv182[ebp]
	push	eax
	push	5
	mov	ecx, DWORD PTR _no$[ebp]
	push	ecx
	push	OFFSET ??_C@_1CI@MCEJJFCK@?$AAD?$AAi?$AAv?$AAR?$AAe?$AAm?$AA_?$AAX?$AA_?$AAU?$AAX?$AA?5?$AA?$CI?$AA?$CF?$AAd@
	call	_FormatTestLabel
	add	esp, 12					; 0000000cH
	push	eax
	mov	edx, DWORD PTR _env$[ebp]
	push	edx
	call	_TEST_Assert
	add	esp, 16					; 00000010H

; 196  :         TEST_Assert(env, FormatTestLabel(L"DivRem_X_UX (%d.%d)", no, 6), _EQUALS_MEMORY(actual_q_buf, actual_q_buf_size, desired_q_buf, desired_q_buf_size) == 0, L"商の値が一致しない");

	mov	eax, DWORD PTR _desired_q_buf_size$[ebp]
	push	eax
	mov	ecx, DWORD PTR _desired_q_buf$[ebp]
	push	ecx
	mov	edx, DWORD PTR _actual_q_buf_size$[ebp]
	push	edx
	lea	eax, DWORD PTR _actual_q_buf$[ebp]
	push	eax
	call	__EQUALS_MEMORY
	add	esp, 16					; 00000010H
	test	eax, eax
	jne	SHORT $LN17@TEST_DivRe
	mov	DWORD PTR tv197[ebp], 1
	jmp	SHORT $LN18@TEST_DivRe
$LN17@TEST_DivRe:
	mov	DWORD PTR tv197[ebp], 0
$LN18@TEST_DivRe:
	push	OFFSET ??_C@_1BE@OEODMBIH@?$AAF?$AAn?$AA$?$AAL?$AA?$AA?$PP?t?$AAW?$AAj?$AAD@
	mov	ecx, DWORD PTR tv197[ebp]
	push	ecx
	push	6
	mov	edx, DWORD PTR _no$[ebp]
	push	edx
	push	OFFSET ??_C@_1CI@MCEJJFCK@?$AAD?$AAi?$AAv?$AAR?$AAe?$AAm?$AA_?$AAX?$AA_?$AAU?$AAX?$AA?5?$AA?$CI?$AA?$CF?$AAd@
	call	_FormatTestLabel
	add	esp, 12					; 0000000cH
	push	eax
	mov	eax, DWORD PTR _env$[ebp]
	push	eax
	call	_TEST_Assert
	add	esp, 16					; 00000010H

; 197  :         TEST_Assert(env, FormatTestLabel(L"DivRem_X_UX (%d.%d)", no, 7), _EQUALS_MEMORY(actual_r_buf, actual_r_buf_size, desired_r_buf, desired_r_buf_size) == 0, L"剰余の値が一致しない");

	mov	eax, DWORD PTR _desired_r_buf_size$[ebp]
	push	eax
	mov	ecx, DWORD PTR _desired_r_buf$[ebp]
	push	ecx
	mov	edx, DWORD PTR _actual_r_buf_size$[ebp]
	push	edx
	lea	eax, DWORD PTR _actual_r_buf$[ebp]
	push	eax
	call	__EQUALS_MEMORY
	add	esp, 16					; 00000010H
	test	eax, eax
	jne	SHORT $LN19@TEST_DivRe
	mov	DWORD PTR tv212[ebp], 1
	jmp	SHORT $LN20@TEST_DivRe
$LN19@TEST_DivRe:
	mov	DWORD PTR tv212[ebp], 0
$LN20@TEST_DivRe:
	push	OFFSET ??_C@_1BG@BPGLFLF@?$AAp?$AAY?$AAn?$AA$?$AAL?$AA?$AA?$PP?t?$AAW?$AAj?$AAD@
	mov	ecx, DWORD PTR tv212[ebp]
	push	ecx
	push	7
	mov	edx, DWORD PTR _no$[ebp]
	push	edx
	push	OFFSET ??_C@_1CI@MCEJJFCK@?$AAD?$AAi?$AAv?$AAR?$AAe?$AAm?$AA_?$AAX?$AA_?$AAU?$AAX?$AA?5?$AA?$CI?$AA?$CF?$AAd@
	call	_FormatTestLabel
	add	esp, 12					; 0000000cH
	push	eax
	mov	eax, DWORD PTR _env$[ebp]
	push	eax
	call	_TEST_Assert
	add	esp, 16					; 00000010H
$LN2@TEST_DivRe:

; 198  :     }
; 199  :     if (q_r_result == PMC_STATUS_OK)

	cmp	DWORD PTR _q_r_result$[ebp], 0
	jne	SHORT $LN3@TEST_DivRe

; 200  :     {
; 201  :         ep->Dispose(q);

	mov	esi, esp
	mov	eax, DWORD PTR _q$[ebp]
	push	eax
	mov	ecx, DWORD PTR _ep$[ebp]
	mov	edx, DWORD PTR [ecx+288]
	call	edx
	cmp	esi, esp
	call	__RTC_CheckEsp

; 202  :         ep->Dispose(r);

	mov	esi, esp
	mov	eax, DWORD PTR _r$[ebp]
	push	eax
	mov	ecx, DWORD PTR _ep$[ebp]
	mov	edx, DWORD PTR [ecx+288]
	call	edx
	cmp	esi, esp
	call	__RTC_CheckEsp
$LN3@TEST_DivRe:

; 203  :     }
; 204  :     if (v_result == PMC_STATUS_OK)

	cmp	DWORD PTR _v_result$[ebp], 0
	jne	SHORT $LN4@TEST_DivRe

; 205  :         ep->UINT_ENTRY_POINTS.Dispose(v);

	mov	esi, esp
	mov	eax, DWORD PTR _v$[ebp]
	push	eax
	mov	ecx, DWORD PTR _ep$[ebp]
	mov	edx, DWORD PTR [ecx+16]
	call	edx
	cmp	esi, esp
	call	__RTC_CheckEsp
$LN4@TEST_DivRe:

; 206  :     if (u_result == PMC_STATUS_OK)

	cmp	DWORD PTR _u_result$[ebp], 0
	jne	SHORT $LN1@TEST_DivRe

; 207  :         ep->Dispose(u);

	mov	esi, esp
	mov	eax, DWORD PTR _u$[ebp]
	push	eax
	mov	ecx, DWORD PTR _ep$[ebp]
	mov	edx, DWORD PTR [ecx+288]
	call	edx
	cmp	esi, esp
	call	__RTC_CheckEsp
$LN1@TEST_DivRe:

; 208  : }

	push	edx
	mov	ecx, ebp
	push	eax
	lea	edx, DWORD PTR $LN30@TEST_DivRe
	call	@_RTC_CheckStackVars@8
	pop	eax
	pop	edx
	pop	edi
	pop	esi
	pop	ebx
	mov	ecx, DWORD PTR __$ArrayPad$[ebp]
	xor	ecx, ebp
	call	@__security_check_cookie@4
	add	esp, 1040				; 00000410H
	cmp	ebp, esp
	call	__RTC_CheckEsp
	mov	esp, ebp
	pop	ebp
	ret	0
	npad	3
$LN30@TEST_DivRe:
	DD	8
	DD	$LN29@TEST_DivRe
$LN29@TEST_DivRe:
	DD	-12					; fffffff4H
	DD	4
	DD	$LN21@TEST_DivRe
	DD	-24					; ffffffe8H
	DD	4
	DD	$LN22@TEST_DivRe
	DD	-36					; ffffffdcH
	DD	4
	DD	$LN23@TEST_DivRe
	DD	-48					; ffffffd0H
	DD	4
	DD	$LN24@TEST_DivRe
	DD	-312					; fffffec8H
	DD	256					; 00000100H
	DD	$LN25@TEST_DivRe
	DD	-324					; fffffebcH
	DD	4
	DD	$LN26@TEST_DivRe
	DD	-588					; fffffdb4H
	DD	256					; 00000100H
	DD	$LN27@TEST_DivRe
	DD	-600					; fffffda8H
	DD	4
	DD	$LN28@TEST_DivRe
$LN28@TEST_DivRe:
	DB	97					; 00000061H
	DB	99					; 00000063H
	DB	116					; 00000074H
	DB	117					; 00000075H
	DB	97					; 00000061H
	DB	108					; 0000006cH
	DB	95					; 0000005fH
	DB	114					; 00000072H
	DB	95					; 0000005fH
	DB	98					; 00000062H
	DB	117					; 00000075H
	DB	102					; 00000066H
	DB	95					; 0000005fH
	DB	115					; 00000073H
	DB	105					; 00000069H
	DB	122					; 0000007aH
	DB	101					; 00000065H
	DB	0
$LN27@TEST_DivRe:
	DB	97					; 00000061H
	DB	99					; 00000063H
	DB	116					; 00000074H
	DB	117					; 00000075H
	DB	97					; 00000061H
	DB	108					; 0000006cH
	DB	95					; 0000005fH
	DB	114					; 00000072H
	DB	95					; 0000005fH
	DB	98					; 00000062H
	DB	117					; 00000075H
	DB	102					; 00000066H
	DB	0
$LN26@TEST_DivRe:
	DB	97					; 00000061H
	DB	99					; 00000063H
	DB	116					; 00000074H
	DB	117					; 00000075H
	DB	97					; 00000061H
	DB	108					; 0000006cH
	DB	95					; 0000005fH
	DB	113					; 00000071H
	DB	95					; 0000005fH
	DB	98					; 00000062H
	DB	117					; 00000075H
	DB	102					; 00000066H
	DB	95					; 0000005fH
	DB	115					; 00000073H
	DB	105					; 00000069H
	DB	122					; 0000007aH
	DB	101					; 00000065H
	DB	0
$LN25@TEST_DivRe:
	DB	97					; 00000061H
	DB	99					; 00000063H
	DB	116					; 00000074H
	DB	117					; 00000075H
	DB	97					; 00000061H
	DB	108					; 0000006cH
	DB	95					; 0000005fH
	DB	113					; 00000071H
	DB	95					; 0000005fH
	DB	98					; 00000062H
	DB	117					; 00000075H
	DB	102					; 00000066H
	DB	0
$LN24@TEST_DivRe:
	DB	114					; 00000072H
	DB	0
$LN23@TEST_DivRe:
	DB	113					; 00000071H
	DB	0
$LN22@TEST_DivRe:
	DB	118					; 00000076H
	DB	0
$LN21@TEST_DivRe:
	DB	117					; 00000075H
	DB	0
_TEST_DivRem_X_UX ENDP
_TEXT	ENDS
; Function compile flags: /Odtp /RTCsu /ZI
; File z:\sources\lunor\repos\rougemeilland\palmtree.math.core.sint\palmtree.math.core.sint\test_op_divrem.c
;	COMDAT _TEST_DivRem_X_L
_TEXT	SEGMENT
tv170 = -552						; size = 4
tv160 = -552						; size = 4
tv145 = -552						; size = 4
tv93 = -552						; size = 4
tv74 = -552						; size = 4
_q_result$ = -352					; size = 4
_u_result$ = -340					; size = 4
_result$ = -328						; size = 4
_actual_r$ = -316					; size = 8
_actual_q_buf_size$ = -300				; size = 4
_actual_q_buf$ = -288					; size = 256
_q$ = -24						; size = 4
_u$ = -12						; size = 4
__$ArrayPad$ = -4					; size = 4
_env$ = 8						; size = 4
_ep$ = 12						; size = 4
_no$ = 16						; size = 4
_u_buf$ = 20						; size = 4
_u_buf_size$ = 24					; size = 4
_v$ = 28						; size = 8
_desired_return_code$ = 36				; size = 4
_desired_q_buf$ = 40					; size = 4
_desired_q_buf_size$ = 44				; size = 4
_desired_r$ = 48					; size = 8
_TEST_DivRem_X_L PROC					; COMDAT

; 152  : {

	push	ebp
	mov	ebp, esp
	sub	esp, 552				; 00000228H
	push	ebx
	push	esi
	push	edi
	lea	edi, DWORD PTR [ebp-552]
	mov	ecx, 138				; 0000008aH
	mov	eax, -858993460				; ccccccccH
	rep stosd
	mov	eax, DWORD PTR ___security_cookie
	xor	eax, ebp
	mov	DWORD PTR __$ArrayPad$[ebp], eax
	mov	ecx, OFFSET __76EA6F59_test_op_divrem@c
	call	@__CheckForDebuggerJustMyCode@4

; 153  :     PMC_HANDLE_SINT u;
; 154  :     PMC_HANDLE_SINT q;
; 155  :     unsigned char actual_q_buf[256];
; 156  :     size_t actual_q_buf_size;
; 157  :     __int64 actual_r;
; 158  :     PMC_STATUS_CODE result;
; 159  :     PMC_STATUS_CODE u_result;
; 160  :     PMC_STATUS_CODE q_result;
; 161  :     TEST_Assert(env, FormatTestLabel(L"DivRem_X_L (%d.%d)", no, 1), (u_result = ep->FromByteArray(u_buf, u_buf_size, &u)) == PMC_STATUS_OK, FormatTestMesssage(L"FromByteArrayの復帰コードが期待通りではない(%d)", u_result));

	mov	esi, esp
	lea	eax, DWORD PTR _u$[ebp]
	push	eax
	mov	ecx, DWORD PTR _u_buf_size$[ebp]
	push	ecx
	mov	edx, DWORD PTR _u_buf$[ebp]
	push	edx
	mov	eax, DWORD PTR _ep$[ebp]
	mov	ecx, DWORD PTR [eax+296]
	call	ecx
	cmp	esi, esp
	call	__RTC_CheckEsp
	mov	DWORD PTR _u_result$[ebp], eax
	cmp	DWORD PTR _u_result$[ebp], 0
	jne	SHORT $LN6@TEST_DivRe
	mov	DWORD PTR tv74[ebp], 1
	jmp	SHORT $LN7@TEST_DivRe
$LN6@TEST_DivRe:
	mov	DWORD PTR tv74[ebp], 0
$LN7@TEST_DivRe:
	mov	edx, DWORD PTR _u_result$[ebp]
	push	edx
	push	OFFSET ??_C@_1EC@NPMCAPKO@?$AAF?$AAr?$AAo?$AAm?$AAB?$AAy?$AAt?$AAe?$AAA?$AAr?$AAr?$AAa?$AAy?$AAn?$PP?$KJ@
	call	_FormatTestMesssage
	add	esp, 8
	push	eax
	mov	eax, DWORD PTR tv74[ebp]
	push	eax
	push	1
	mov	ecx, DWORD PTR _no$[ebp]
	push	ecx
	push	OFFSET ??_C@_1CG@JKLKDKOE@?$AAD?$AAi?$AAv?$AAR?$AAe?$AAm?$AA_?$AAX?$AA_?$AAL?$AA?5?$AA?$CI?$AA?$CF?$AAd?$AA?4@
	call	_FormatTestLabel
	add	esp, 12					; 0000000cH
	push	eax
	mov	edx, DWORD PTR _env$[ebp]
	push	edx
	call	_TEST_Assert
	add	esp, 16					; 00000010H

; 162  :     TEST_Assert(env, FormatTestLabel(L"DivRem_X_L (%d.%d)", no, 2), (q_result = ep->DivRem_X_L(u, v, &q, &actual_r)) == desired_return_code, FormatTestMesssage(L"DivRem_X_Lの復帰コードが期待通りではない(%d)", q_result));

	mov	esi, esp
	lea	eax, DWORD PTR _actual_r$[ebp]
	push	eax
	lea	ecx, DWORD PTR _q$[ebp]
	push	ecx
	mov	edx, DWORD PTR _v$[ebp+4]
	push	edx
	mov	eax, DWORD PTR _v$[ebp]
	push	eax
	mov	ecx, DWORD PTR _u$[ebp]
	push	ecx
	mov	edx, DWORD PTR _ep$[ebp]
	mov	eax, DWORD PTR [edx+420]
	call	eax
	cmp	esi, esp
	call	__RTC_CheckEsp
	mov	DWORD PTR _q_result$[ebp], eax
	mov	ecx, DWORD PTR _q_result$[ebp]
	cmp	ecx, DWORD PTR _desired_return_code$[ebp]
	jne	SHORT $LN8@TEST_DivRe
	mov	DWORD PTR tv93[ebp], 1
	jmp	SHORT $LN9@TEST_DivRe
$LN8@TEST_DivRe:
	mov	DWORD PTR tv93[ebp], 0
$LN9@TEST_DivRe:
	mov	edx, DWORD PTR _q_result$[ebp]
	push	edx
	push	OFFSET ??_C@_1DM@ELDKLHAI@?$AAD?$AAi?$AAv?$AAR?$AAe?$AAm?$AA_?$AAX?$AA_?$AAL?$AAn?$PP?$KJ?$AA0?$PP?$LD?$PP?$PM@
	call	_FormatTestMesssage
	add	esp, 8
	push	eax
	mov	eax, DWORD PTR tv93[ebp]
	push	eax
	push	2
	mov	ecx, DWORD PTR _no$[ebp]
	push	ecx
	push	OFFSET ??_C@_1CG@JKLKDKOE@?$AAD?$AAi?$AAv?$AAR?$AAe?$AAm?$AA_?$AAX?$AA_?$AAL?$AA?5?$AA?$CI?$AA?$CF?$AAd?$AA?4@
	call	_FormatTestLabel
	add	esp, 12					; 0000000cH
	push	eax
	mov	edx, DWORD PTR _env$[ebp]
	push	edx
	call	_TEST_Assert
	add	esp, 16					; 00000010H

; 163  :     if (desired_return_code == PMC_STATUS_OK)

	cmp	DWORD PTR _desired_return_code$[ebp], 0
	jne	$LN2@TEST_DivRe

; 164  :     {
; 165  :         TEST_Assert(env, FormatTestLabel(L"DivRem_X_L (%d.%d)", no, 3), (result = ep->ToByteArray(q, actual_q_buf, sizeof(actual_q_buf), &actual_q_buf_size)) == PMC_STATUS_OK, FormatTestMesssage(L"ToByteArrayの復帰コードが期待通りではない(%d)", result));

	mov	esi, esp
	lea	eax, DWORD PTR _actual_q_buf_size$[ebp]
	push	eax
	push	256					; 00000100H
	lea	ecx, DWORD PTR _actual_q_buf$[ebp]
	push	ecx
	mov	edx, DWORD PTR _q$[ebp]
	push	edx
	mov	eax, DWORD PTR _ep$[ebp]
	mov	ecx, DWORD PTR [eax+300]
	call	ecx
	cmp	esi, esp
	call	__RTC_CheckEsp
	mov	DWORD PTR _result$[ebp], eax
	cmp	DWORD PTR _result$[ebp], 0
	jne	SHORT $LN10@TEST_DivRe
	mov	DWORD PTR tv145[ebp], 1
	jmp	SHORT $LN11@TEST_DivRe
$LN10@TEST_DivRe:
	mov	DWORD PTR tv145[ebp], 0
$LN11@TEST_DivRe:
	mov	edx, DWORD PTR _result$[ebp]
	push	edx
	push	OFFSET ??_C@_1DO@DOHJEMND@?$AAT?$AAo?$AAB?$AAy?$AAt?$AAe?$AAA?$AAr?$AAr?$AAa?$AAy?$AAn?$PP?$KJ?$AA0?$PP?$LD@
	call	_FormatTestMesssage
	add	esp, 8
	push	eax
	mov	eax, DWORD PTR tv145[ebp]
	push	eax
	push	3
	mov	ecx, DWORD PTR _no$[ebp]
	push	ecx
	push	OFFSET ??_C@_1CG@JKLKDKOE@?$AAD?$AAi?$AAv?$AAR?$AAe?$AAm?$AA_?$AAX?$AA_?$AAL?$AA?5?$AA?$CI?$AA?$CF?$AAd?$AA?4@
	call	_FormatTestLabel
	add	esp, 12					; 0000000cH
	push	eax
	mov	edx, DWORD PTR _env$[ebp]
	push	edx
	call	_TEST_Assert
	add	esp, 16					; 00000010H

; 166  :         TEST_Assert(env, FormatTestLabel(L"DivRem_X_L (%d.%d)", no, 4), _EQUALS_MEMORY(actual_q_buf, actual_q_buf_size, desired_q_buf, desired_q_buf_size) == 0, L"商の値が一致しない");

	mov	eax, DWORD PTR _desired_q_buf_size$[ebp]
	push	eax
	mov	ecx, DWORD PTR _desired_q_buf$[ebp]
	push	ecx
	mov	edx, DWORD PTR _actual_q_buf_size$[ebp]
	push	edx
	lea	eax, DWORD PTR _actual_q_buf$[ebp]
	push	eax
	call	__EQUALS_MEMORY
	add	esp, 16					; 00000010H
	test	eax, eax
	jne	SHORT $LN12@TEST_DivRe
	mov	DWORD PTR tv160[ebp], 1
	jmp	SHORT $LN13@TEST_DivRe
$LN12@TEST_DivRe:
	mov	DWORD PTR tv160[ebp], 0
$LN13@TEST_DivRe:
	push	OFFSET ??_C@_1BE@OEODMBIH@?$AAF?$AAn?$AA$?$AAL?$AA?$AA?$PP?t?$AAW?$AAj?$AAD@
	mov	ecx, DWORD PTR tv160[ebp]
	push	ecx
	push	4
	mov	edx, DWORD PTR _no$[ebp]
	push	edx
	push	OFFSET ??_C@_1CG@JKLKDKOE@?$AAD?$AAi?$AAv?$AAR?$AAe?$AAm?$AA_?$AAX?$AA_?$AAL?$AA?5?$AA?$CI?$AA?$CF?$AAd?$AA?4@
	call	_FormatTestLabel
	add	esp, 12					; 0000000cH
	push	eax
	mov	eax, DWORD PTR _env$[ebp]
	push	eax
	call	_TEST_Assert
	add	esp, 16					; 00000010H

; 167  :         TEST_Assert(env, FormatTestLabel(L"DivRem_X_L (%d.%d)", no, 5), actual_r == desired_r, L"剰余の値が一致しない");

	mov	eax, DWORD PTR _actual_r$[ebp]
	cmp	eax, DWORD PTR _desired_r$[ebp]
	jne	SHORT $LN14@TEST_DivRe
	mov	ecx, DWORD PTR _actual_r$[ebp+4]
	cmp	ecx, DWORD PTR _desired_r$[ebp+4]
	jne	SHORT $LN14@TEST_DivRe
	mov	DWORD PTR tv170[ebp], 1
	jmp	SHORT $LN15@TEST_DivRe
$LN14@TEST_DivRe:
	mov	DWORD PTR tv170[ebp], 0
$LN15@TEST_DivRe:
	push	OFFSET ??_C@_1BG@BPGLFLF@?$AAp?$AAY?$AAn?$AA$?$AAL?$AA?$AA?$PP?t?$AAW?$AAj?$AAD@
	mov	edx, DWORD PTR tv170[ebp]
	push	edx
	push	5
	mov	eax, DWORD PTR _no$[ebp]
	push	eax
	push	OFFSET ??_C@_1CG@JKLKDKOE@?$AAD?$AAi?$AAv?$AAR?$AAe?$AAm?$AA_?$AAX?$AA_?$AAL?$AA?5?$AA?$CI?$AA?$CF?$AAd?$AA?4@
	call	_FormatTestLabel
	add	esp, 12					; 0000000cH
	push	eax
	mov	ecx, DWORD PTR _env$[ebp]
	push	ecx
	call	_TEST_Assert
	add	esp, 16					; 00000010H
$LN2@TEST_DivRe:

; 168  :     }
; 169  :     if (q_result == PMC_STATUS_OK)

	cmp	DWORD PTR _q_result$[ebp], 0
	jne	SHORT $LN3@TEST_DivRe

; 170  :         ep->Dispose(q);

	mov	esi, esp
	mov	eax, DWORD PTR _q$[ebp]
	push	eax
	mov	ecx, DWORD PTR _ep$[ebp]
	mov	edx, DWORD PTR [ecx+288]
	call	edx
	cmp	esi, esp
	call	__RTC_CheckEsp
$LN3@TEST_DivRe:

; 171  :     if (u_result == PMC_STATUS_OK)

	cmp	DWORD PTR _u_result$[ebp], 0
	jne	SHORT $LN1@TEST_DivRe

; 172  :         ep->Dispose(u);

	mov	esi, esp
	mov	eax, DWORD PTR _u$[ebp]
	push	eax
	mov	ecx, DWORD PTR _ep$[ebp]
	mov	edx, DWORD PTR [ecx+288]
	call	edx
	cmp	esi, esp
	call	__RTC_CheckEsp
$LN1@TEST_DivRe:

; 173  : }

	push	edx
	mov	ecx, ebp
	push	eax
	lea	edx, DWORD PTR $LN22@TEST_DivRe
	call	@_RTC_CheckStackVars@8
	pop	eax
	pop	edx
	pop	edi
	pop	esi
	pop	ebx
	mov	ecx, DWORD PTR __$ArrayPad$[ebp]
	xor	ecx, ebp
	call	@__security_check_cookie@4
	add	esp, 552				; 00000228H
	cmp	ebp, esp
	call	__RTC_CheckEsp
	mov	esp, ebp
	pop	ebp
	ret	0
$LN22@TEST_DivRe:
	DD	5
	DD	$LN21@TEST_DivRe
$LN21@TEST_DivRe:
	DD	-12					; fffffff4H
	DD	4
	DD	$LN16@TEST_DivRe
	DD	-24					; ffffffe8H
	DD	4
	DD	$LN17@TEST_DivRe
	DD	-288					; fffffee0H
	DD	256					; 00000100H
	DD	$LN18@TEST_DivRe
	DD	-300					; fffffed4H
	DD	4
	DD	$LN19@TEST_DivRe
	DD	-316					; fffffec4H
	DD	8
	DD	$LN20@TEST_DivRe
$LN20@TEST_DivRe:
	DB	97					; 00000061H
	DB	99					; 00000063H
	DB	116					; 00000074H
	DB	117					; 00000075H
	DB	97					; 00000061H
	DB	108					; 0000006cH
	DB	95					; 0000005fH
	DB	114					; 00000072H
	DB	0
$LN19@TEST_DivRe:
	DB	97					; 00000061H
	DB	99					; 00000063H
	DB	116					; 00000074H
	DB	117					; 00000075H
	DB	97					; 00000061H
	DB	108					; 0000006cH
	DB	95					; 0000005fH
	DB	113					; 00000071H
	DB	95					; 0000005fH
	DB	98					; 00000062H
	DB	117					; 00000075H
	DB	102					; 00000066H
	DB	95					; 0000005fH
	DB	115					; 00000073H
	DB	105					; 00000069H
	DB	122					; 0000007aH
	DB	101					; 00000065H
	DB	0
$LN18@TEST_DivRe:
	DB	97					; 00000061H
	DB	99					; 00000063H
	DB	116					; 00000074H
	DB	117					; 00000075H
	DB	97					; 00000061H
	DB	108					; 0000006cH
	DB	95					; 0000005fH
	DB	113					; 00000071H
	DB	95					; 0000005fH
	DB	98					; 00000062H
	DB	117					; 00000075H
	DB	102					; 00000066H
	DB	0
$LN17@TEST_DivRe:
	DB	113					; 00000071H
	DB	0
$LN16@TEST_DivRe:
	DB	117					; 00000075H
	DB	0
_TEST_DivRem_X_L ENDP
_TEXT	ENDS
; Function compile flags: /Odtp /RTCsu /ZI
; File z:\sources\lunor\repos\rougemeilland\palmtree.math.core.sint\palmtree.math.core.sint\test_op_divrem.c
;	COMDAT _TEST_DivRem_X_I
_TEXT	SEGMENT
tv170 = -548						; size = 4
tv160 = -548						; size = 4
tv145 = -548						; size = 4
tv93 = -548						; size = 4
tv74 = -548						; size = 4
_q_result$ = -348					; size = 4
_u_result$ = -336					; size = 4
_result$ = -324						; size = 4
_actual_r$ = -312					; size = 4
_actual_q_buf_size$ = -300				; size = 4
_actual_q_buf$ = -288					; size = 256
_q$ = -24						; size = 4
_u$ = -12						; size = 4
__$ArrayPad$ = -4					; size = 4
_env$ = 8						; size = 4
_ep$ = 12						; size = 4
_no$ = 16						; size = 4
_u_buf$ = 20						; size = 4
_u_buf_size$ = 24					; size = 4
_v$ = 28						; size = 4
_desired_return_code$ = 32				; size = 4
_desired_q_buf$ = 36					; size = 4
_desired_q_buf_size$ = 40				; size = 4
_desired_r$ = 44					; size = 4
_TEST_DivRem_X_I PROC					; COMDAT

; 128  : {

	push	ebp
	mov	ebp, esp
	sub	esp, 548				; 00000224H
	push	ebx
	push	esi
	push	edi
	lea	edi, DWORD PTR [ebp-548]
	mov	ecx, 137				; 00000089H
	mov	eax, -858993460				; ccccccccH
	rep stosd
	mov	eax, DWORD PTR ___security_cookie
	xor	eax, ebp
	mov	DWORD PTR __$ArrayPad$[ebp], eax
	mov	ecx, OFFSET __76EA6F59_test_op_divrem@c
	call	@__CheckForDebuggerJustMyCode@4

; 129  :     PMC_HANDLE_SINT u;
; 130  :     PMC_HANDLE_SINT q;
; 131  :     unsigned char actual_q_buf[256];
; 132  :     size_t actual_q_buf_size;
; 133  :     __int32 actual_r;
; 134  :     PMC_STATUS_CODE result;
; 135  :     PMC_STATUS_CODE u_result;
; 136  :     PMC_STATUS_CODE q_result;
; 137  :     TEST_Assert(env, FormatTestLabel(L"DivRem_X_I (%d.%d)", no, 1), (u_result = ep->FromByteArray(u_buf, u_buf_size, &u)) == PMC_STATUS_OK, FormatTestMesssage(L"FromByteArrayの復帰コードが期待通りではない(%d)", u_result));

	mov	esi, esp
	lea	eax, DWORD PTR _u$[ebp]
	push	eax
	mov	ecx, DWORD PTR _u_buf_size$[ebp]
	push	ecx
	mov	edx, DWORD PTR _u_buf$[ebp]
	push	edx
	mov	eax, DWORD PTR _ep$[ebp]
	mov	ecx, DWORD PTR [eax+296]
	call	ecx
	cmp	esi, esp
	call	__RTC_CheckEsp
	mov	DWORD PTR _u_result$[ebp], eax
	cmp	DWORD PTR _u_result$[ebp], 0
	jne	SHORT $LN6@TEST_DivRe
	mov	DWORD PTR tv74[ebp], 1
	jmp	SHORT $LN7@TEST_DivRe
$LN6@TEST_DivRe:
	mov	DWORD PTR tv74[ebp], 0
$LN7@TEST_DivRe:
	mov	edx, DWORD PTR _u_result$[ebp]
	push	edx
	push	OFFSET ??_C@_1EC@NPMCAPKO@?$AAF?$AAr?$AAo?$AAm?$AAB?$AAy?$AAt?$AAe?$AAA?$AAr?$AAr?$AAa?$AAy?$AAn?$PP?$KJ@
	call	_FormatTestMesssage
	add	esp, 8
	push	eax
	mov	eax, DWORD PTR tv74[ebp]
	push	eax
	push	1
	mov	ecx, DWORD PTR _no$[ebp]
	push	ecx
	push	OFFSET ??_C@_1CG@LBDAOKPL@?$AAD?$AAi?$AAv?$AAR?$AAe?$AAm?$AA_?$AAX?$AA_?$AAI?$AA?5?$AA?$CI?$AA?$CF?$AAd?$AA?4@
	call	_FormatTestLabel
	add	esp, 12					; 0000000cH
	push	eax
	mov	edx, DWORD PTR _env$[ebp]
	push	edx
	call	_TEST_Assert
	add	esp, 16					; 00000010H

; 138  :     TEST_Assert(env, FormatTestLabel(L"DivRem_X_I (%d.%d)", no, 2), (q_result = ep->DivRem_X_I(u, v, &q, &actual_r)) == desired_return_code, FormatTestMesssage(L"DivRem_X_Iの復帰コードが期待通りではない(%d)", q_result));

	mov	esi, esp
	lea	eax, DWORD PTR _actual_r$[ebp]
	push	eax
	lea	ecx, DWORD PTR _q$[ebp]
	push	ecx
	mov	edx, DWORD PTR _v$[ebp]
	push	edx
	mov	eax, DWORD PTR _u$[ebp]
	push	eax
	mov	ecx, DWORD PTR _ep$[ebp]
	mov	edx, DWORD PTR [ecx+416]
	call	edx
	cmp	esi, esp
	call	__RTC_CheckEsp
	mov	DWORD PTR _q_result$[ebp], eax
	mov	eax, DWORD PTR _q_result$[ebp]
	cmp	eax, DWORD PTR _desired_return_code$[ebp]
	jne	SHORT $LN8@TEST_DivRe
	mov	DWORD PTR tv93[ebp], 1
	jmp	SHORT $LN9@TEST_DivRe
$LN8@TEST_DivRe:
	mov	DWORD PTR tv93[ebp], 0
$LN9@TEST_DivRe:
	mov	ecx, DWORD PTR _q_result$[ebp]
	push	ecx
	push	OFFSET ??_C@_1DM@DHGCKJN@?$AAD?$AAi?$AAv?$AAR?$AAe?$AAm?$AA_?$AAX?$AA_?$AAI?$AAn?$PP?$KJ?$AA0?$PP?$LD?$PP?$PM@
	call	_FormatTestMesssage
	add	esp, 8
	push	eax
	mov	edx, DWORD PTR tv93[ebp]
	push	edx
	push	2
	mov	eax, DWORD PTR _no$[ebp]
	push	eax
	push	OFFSET ??_C@_1CG@LBDAOKPL@?$AAD?$AAi?$AAv?$AAR?$AAe?$AAm?$AA_?$AAX?$AA_?$AAI?$AA?5?$AA?$CI?$AA?$CF?$AAd?$AA?4@
	call	_FormatTestLabel
	add	esp, 12					; 0000000cH
	push	eax
	mov	ecx, DWORD PTR _env$[ebp]
	push	ecx
	call	_TEST_Assert
	add	esp, 16					; 00000010H

; 139  :     if (desired_return_code == PMC_STATUS_OK)

	cmp	DWORD PTR _desired_return_code$[ebp], 0
	jne	$LN2@TEST_DivRe

; 140  :     {
; 141  :         TEST_Assert(env, FormatTestLabel(L"DivRem_X_I (%d.%d)", no, 3), (result = ep->ToByteArray(q, actual_q_buf, sizeof(actual_q_buf), &actual_q_buf_size)) == PMC_STATUS_OK, FormatTestMesssage(L"ToByteArrayの復帰コードが期待通りではない(%d)", result));

	mov	esi, esp
	lea	eax, DWORD PTR _actual_q_buf_size$[ebp]
	push	eax
	push	256					; 00000100H
	lea	ecx, DWORD PTR _actual_q_buf$[ebp]
	push	ecx
	mov	edx, DWORD PTR _q$[ebp]
	push	edx
	mov	eax, DWORD PTR _ep$[ebp]
	mov	ecx, DWORD PTR [eax+300]
	call	ecx
	cmp	esi, esp
	call	__RTC_CheckEsp
	mov	DWORD PTR _result$[ebp], eax
	cmp	DWORD PTR _result$[ebp], 0
	jne	SHORT $LN10@TEST_DivRe
	mov	DWORD PTR tv145[ebp], 1
	jmp	SHORT $LN11@TEST_DivRe
$LN10@TEST_DivRe:
	mov	DWORD PTR tv145[ebp], 0
$LN11@TEST_DivRe:
	mov	edx, DWORD PTR _result$[ebp]
	push	edx
	push	OFFSET ??_C@_1DO@DOHJEMND@?$AAT?$AAo?$AAB?$AAy?$AAt?$AAe?$AAA?$AAr?$AAr?$AAa?$AAy?$AAn?$PP?$KJ?$AA0?$PP?$LD@
	call	_FormatTestMesssage
	add	esp, 8
	push	eax
	mov	eax, DWORD PTR tv145[ebp]
	push	eax
	push	3
	mov	ecx, DWORD PTR _no$[ebp]
	push	ecx
	push	OFFSET ??_C@_1CG@LBDAOKPL@?$AAD?$AAi?$AAv?$AAR?$AAe?$AAm?$AA_?$AAX?$AA_?$AAI?$AA?5?$AA?$CI?$AA?$CF?$AAd?$AA?4@
	call	_FormatTestLabel
	add	esp, 12					; 0000000cH
	push	eax
	mov	edx, DWORD PTR _env$[ebp]
	push	edx
	call	_TEST_Assert
	add	esp, 16					; 00000010H

; 142  :         TEST_Assert(env, FormatTestLabel(L"DivRem_X_I (%d.%d)", no, 4), _EQUALS_MEMORY(actual_q_buf, actual_q_buf_size, desired_q_buf, desired_q_buf_size) == 0, L"商の値が一致しない");

	mov	eax, DWORD PTR _desired_q_buf_size$[ebp]
	push	eax
	mov	ecx, DWORD PTR _desired_q_buf$[ebp]
	push	ecx
	mov	edx, DWORD PTR _actual_q_buf_size$[ebp]
	push	edx
	lea	eax, DWORD PTR _actual_q_buf$[ebp]
	push	eax
	call	__EQUALS_MEMORY
	add	esp, 16					; 00000010H
	test	eax, eax
	jne	SHORT $LN12@TEST_DivRe
	mov	DWORD PTR tv160[ebp], 1
	jmp	SHORT $LN13@TEST_DivRe
$LN12@TEST_DivRe:
	mov	DWORD PTR tv160[ebp], 0
$LN13@TEST_DivRe:
	push	OFFSET ??_C@_1BE@OEODMBIH@?$AAF?$AAn?$AA$?$AAL?$AA?$AA?$PP?t?$AAW?$AAj?$AAD@
	mov	ecx, DWORD PTR tv160[ebp]
	push	ecx
	push	4
	mov	edx, DWORD PTR _no$[ebp]
	push	edx
	push	OFFSET ??_C@_1CG@LBDAOKPL@?$AAD?$AAi?$AAv?$AAR?$AAe?$AAm?$AA_?$AAX?$AA_?$AAI?$AA?5?$AA?$CI?$AA?$CF?$AAd?$AA?4@
	call	_FormatTestLabel
	add	esp, 12					; 0000000cH
	push	eax
	mov	eax, DWORD PTR _env$[ebp]
	push	eax
	call	_TEST_Assert
	add	esp, 16					; 00000010H

; 143  :         TEST_Assert(env, FormatTestLabel(L"DivRem_X_I (%d.%d)", no, 5), actual_r == desired_r, L"剰余の値が一致しない");

	mov	eax, DWORD PTR _actual_r$[ebp]
	cmp	eax, DWORD PTR _desired_r$[ebp]
	jne	SHORT $LN14@TEST_DivRe
	mov	DWORD PTR tv170[ebp], 1
	jmp	SHORT $LN15@TEST_DivRe
$LN14@TEST_DivRe:
	mov	DWORD PTR tv170[ebp], 0
$LN15@TEST_DivRe:
	push	OFFSET ??_C@_1BG@BPGLFLF@?$AAp?$AAY?$AAn?$AA$?$AAL?$AA?$AA?$PP?t?$AAW?$AAj?$AAD@
	mov	ecx, DWORD PTR tv170[ebp]
	push	ecx
	push	5
	mov	edx, DWORD PTR _no$[ebp]
	push	edx
	push	OFFSET ??_C@_1CG@LBDAOKPL@?$AAD?$AAi?$AAv?$AAR?$AAe?$AAm?$AA_?$AAX?$AA_?$AAI?$AA?5?$AA?$CI?$AA?$CF?$AAd?$AA?4@
	call	_FormatTestLabel
	add	esp, 12					; 0000000cH
	push	eax
	mov	eax, DWORD PTR _env$[ebp]
	push	eax
	call	_TEST_Assert
	add	esp, 16					; 00000010H
$LN2@TEST_DivRe:

; 144  :     }
; 145  :     if (q_result == PMC_STATUS_OK)

	cmp	DWORD PTR _q_result$[ebp], 0
	jne	SHORT $LN3@TEST_DivRe

; 146  :         ep->Dispose(q);

	mov	esi, esp
	mov	eax, DWORD PTR _q$[ebp]
	push	eax
	mov	ecx, DWORD PTR _ep$[ebp]
	mov	edx, DWORD PTR [ecx+288]
	call	edx
	cmp	esi, esp
	call	__RTC_CheckEsp
$LN3@TEST_DivRe:

; 147  :     if (u_result == PMC_STATUS_OK)

	cmp	DWORD PTR _u_result$[ebp], 0
	jne	SHORT $LN1@TEST_DivRe

; 148  :         ep->Dispose(u);

	mov	esi, esp
	mov	eax, DWORD PTR _u$[ebp]
	push	eax
	mov	ecx, DWORD PTR _ep$[ebp]
	mov	edx, DWORD PTR [ecx+288]
	call	edx
	cmp	esi, esp
	call	__RTC_CheckEsp
$LN1@TEST_DivRe:

; 149  : }

	push	edx
	mov	ecx, ebp
	push	eax
	lea	edx, DWORD PTR $LN22@TEST_DivRe
	call	@_RTC_CheckStackVars@8
	pop	eax
	pop	edx
	pop	edi
	pop	esi
	pop	ebx
	mov	ecx, DWORD PTR __$ArrayPad$[ebp]
	xor	ecx, ebp
	call	@__security_check_cookie@4
	add	esp, 548				; 00000224H
	cmp	ebp, esp
	call	__RTC_CheckEsp
	mov	esp, ebp
	pop	ebp
	ret	0
	npad	3
$LN22@TEST_DivRe:
	DD	5
	DD	$LN21@TEST_DivRe
$LN21@TEST_DivRe:
	DD	-12					; fffffff4H
	DD	4
	DD	$LN16@TEST_DivRe
	DD	-24					; ffffffe8H
	DD	4
	DD	$LN17@TEST_DivRe
	DD	-288					; fffffee0H
	DD	256					; 00000100H
	DD	$LN18@TEST_DivRe
	DD	-300					; fffffed4H
	DD	4
	DD	$LN19@TEST_DivRe
	DD	-312					; fffffec8H
	DD	4
	DD	$LN20@TEST_DivRe
$LN20@TEST_DivRe:
	DB	97					; 00000061H
	DB	99					; 00000063H
	DB	116					; 00000074H
	DB	117					; 00000075H
	DB	97					; 00000061H
	DB	108					; 0000006cH
	DB	95					; 0000005fH
	DB	114					; 00000072H
	DB	0
$LN19@TEST_DivRe:
	DB	97					; 00000061H
	DB	99					; 00000063H
	DB	116					; 00000074H
	DB	117					; 00000075H
	DB	97					; 00000061H
	DB	108					; 0000006cH
	DB	95					; 0000005fH
	DB	113					; 00000071H
	DB	95					; 0000005fH
	DB	98					; 00000062H
	DB	117					; 00000075H
	DB	102					; 00000066H
	DB	95					; 0000005fH
	DB	115					; 00000073H
	DB	105					; 00000069H
	DB	122					; 0000007aH
	DB	101					; 00000065H
	DB	0
$LN18@TEST_DivRe:
	DB	97					; 00000061H
	DB	99					; 00000063H
	DB	116					; 00000074H
	DB	117					; 00000075H
	DB	97					; 00000061H
	DB	108					; 0000006cH
	DB	95					; 0000005fH
	DB	113					; 00000071H
	DB	95					; 0000005fH
	DB	98					; 00000062H
	DB	117					; 00000075H
	DB	102					; 00000066H
	DB	0
$LN17@TEST_DivRe:
	DB	113					; 00000071H
	DB	0
$LN16@TEST_DivRe:
	DB	117					; 00000075H
	DB	0
_TEST_DivRem_X_I ENDP
_TEXT	ENDS
; Function compile flags: /Odtp /RTCsu /ZI
; File z:\sources\lunor\repos\rougemeilland\palmtree.math.core.sint\palmtree.math.core.sint\test_op_divrem.c
;	COMDAT _TEST_DivRem_UX_X
_TEXT	SEGMENT
tv212 = -1040						; size = 4
tv197 = -1040						; size = 4
tv182 = -1040						; size = 4
tv163 = -1040						; size = 4
tv143 = -1040						; size = 4
tv92 = -1040						; size = 4
tv74 = -1040						; size = 4
_q_r_result$ = -648					; size = 4
_v_result$ = -636					; size = 4
_u_result$ = -624					; size = 4
_result$ = -612						; size = 4
_actual_r_buf_size$ = -600				; size = 4
_actual_r_buf$ = -588					; size = 256
_actual_q_buf_size$ = -324				; size = 4
_actual_q_buf$ = -312					; size = 256
_r$ = -48						; size = 4
_q$ = -36						; size = 4
_v$ = -24						; size = 4
_u$ = -12						; size = 4
__$ArrayPad$ = -4					; size = 4
_env$ = 8						; size = 4
_ep$ = 12						; size = 4
_no$ = 16						; size = 4
_u_buf$ = 20						; size = 4
_u_buf_size$ = 24					; size = 4
_v_buf$ = 28						; size = 4
_v_buf_size$ = 32					; size = 4
_desired_return_code$ = 36				; size = 4
_desired_q_buf$ = 40					; size = 4
_desired_q_buf_size$ = 44				; size = 4
_desired_r_buf$ = 48					; size = 4
_desired_r_buf_size$ = 52				; size = 4
_TEST_DivRem_UX_X PROC					; COMDAT

; 93   : {

	push	ebp
	mov	ebp, esp
	sub	esp, 1040				; 00000410H
	push	ebx
	push	esi
	push	edi
	lea	edi, DWORD PTR [ebp-1040]
	mov	ecx, 260				; 00000104H
	mov	eax, -858993460				; ccccccccH
	rep stosd
	mov	eax, DWORD PTR ___security_cookie
	xor	eax, ebp
	mov	DWORD PTR __$ArrayPad$[ebp], eax
	mov	ecx, OFFSET __76EA6F59_test_op_divrem@c
	call	@__CheckForDebuggerJustMyCode@4

; 94   :     PMC_HANDLE_UINT u;
; 95   :     PMC_HANDLE_SINT v;
; 96   :     PMC_HANDLE_SINT q;
; 97   :     PMC_HANDLE_UINT r;
; 98   :     unsigned char actual_q_buf[256];
; 99   :     size_t actual_q_buf_size;
; 100  :     unsigned char actual_r_buf[256];
; 101  :     size_t actual_r_buf_size;
; 102  :     PMC_STATUS_CODE result;
; 103  :     PMC_STATUS_CODE u_result;
; 104  :     PMC_STATUS_CODE v_result;
; 105  :     PMC_STATUS_CODE q_r_result;
; 106  :     TEST_Assert(env, FormatTestLabel(L"DivRem_UX_X (%d.%d)", no, 1), (u_result = ep->UINT_ENTRY_POINTS.FromByteArray(u_buf, u_buf_size, &u)) == PMC_STATUS_OK, FormatTestMesssage(L"FromByteArrayの復帰コードが期待通りではない(%d)", u_result));

	mov	esi, esp
	lea	eax, DWORD PTR _u$[ebp]
	push	eax
	mov	ecx, DWORD PTR _u_buf_size$[ebp]
	push	ecx
	mov	edx, DWORD PTR _u_buf$[ebp]
	push	edx
	mov	eax, DWORD PTR _ep$[ebp]
	mov	ecx, DWORD PTR [eax+24]
	call	ecx
	cmp	esi, esp
	call	__RTC_CheckEsp
	mov	DWORD PTR _u_result$[ebp], eax
	cmp	DWORD PTR _u_result$[ebp], 0
	jne	SHORT $LN7@TEST_DivRe
	mov	DWORD PTR tv74[ebp], 1
	jmp	SHORT $LN8@TEST_DivRe
$LN7@TEST_DivRe:
	mov	DWORD PTR tv74[ebp], 0
$LN8@TEST_DivRe:
	mov	edx, DWORD PTR _u_result$[ebp]
	push	edx
	push	OFFSET ??_C@_1EC@NPMCAPKO@?$AAF?$AAr?$AAo?$AAm?$AAB?$AAy?$AAt?$AAe?$AAA?$AAr?$AAr?$AAa?$AAy?$AAn?$PP?$KJ@
	call	_FormatTestMesssage
	add	esp, 8
	push	eax
	mov	eax, DWORD PTR tv74[ebp]
	push	eax
	push	1
	mov	ecx, DWORD PTR _no$[ebp]
	push	ecx
	push	OFFSET ??_C@_1CI@PMOCFACI@?$AAD?$AAi?$AAv?$AAR?$AAe?$AAm?$AA_?$AAU?$AAX?$AA_?$AAX?$AA?5?$AA?$CI?$AA?$CF?$AAd@
	call	_FormatTestLabel
	add	esp, 12					; 0000000cH
	push	eax
	mov	edx, DWORD PTR _env$[ebp]
	push	edx
	call	_TEST_Assert
	add	esp, 16					; 00000010H

; 107  :     TEST_Assert(env, FormatTestLabel(L"DivRem_UX_X (%d.%d)", no, 2), (v_result = ep->FromByteArray(v_buf, v_buf_size, &v)) == PMC_STATUS_OK, FormatTestMesssage(L"FromByteArrayの復帰コードが期待通りではない(%d)", v_result));

	mov	esi, esp
	lea	eax, DWORD PTR _v$[ebp]
	push	eax
	mov	ecx, DWORD PTR _v_buf_size$[ebp]
	push	ecx
	mov	edx, DWORD PTR _v_buf$[ebp]
	push	edx
	mov	eax, DWORD PTR _ep$[ebp]
	mov	ecx, DWORD PTR [eax+296]
	call	ecx
	cmp	esi, esp
	call	__RTC_CheckEsp
	mov	DWORD PTR _v_result$[ebp], eax
	cmp	DWORD PTR _v_result$[ebp], 0
	jne	SHORT $LN9@TEST_DivRe
	mov	DWORD PTR tv92[ebp], 1
	jmp	SHORT $LN10@TEST_DivRe
$LN9@TEST_DivRe:
	mov	DWORD PTR tv92[ebp], 0
$LN10@TEST_DivRe:
	mov	edx, DWORD PTR _v_result$[ebp]
	push	edx
	push	OFFSET ??_C@_1EC@NPMCAPKO@?$AAF?$AAr?$AAo?$AAm?$AAB?$AAy?$AAt?$AAe?$AAA?$AAr?$AAr?$AAa?$AAy?$AAn?$PP?$KJ@
	call	_FormatTestMesssage
	add	esp, 8
	push	eax
	mov	eax, DWORD PTR tv92[ebp]
	push	eax
	push	2
	mov	ecx, DWORD PTR _no$[ebp]
	push	ecx
	push	OFFSET ??_C@_1CI@PMOCFACI@?$AAD?$AAi?$AAv?$AAR?$AAe?$AAm?$AA_?$AAU?$AAX?$AA_?$AAX?$AA?5?$AA?$CI?$AA?$CF?$AAd@
	call	_FormatTestLabel
	add	esp, 12					; 0000000cH
	push	eax
	mov	edx, DWORD PTR _env$[ebp]
	push	edx
	call	_TEST_Assert
	add	esp, 16					; 00000010H

; 108  :     TEST_Assert(env, FormatTestLabel(L"DivRem_UX_X (%d.%d)", no, 3), (q_r_result = ep->DivRem_UX_X(u, v, &q, &r)) == desired_return_code, FormatTestMesssage(L"DivRem_UX_Xの復帰コードが期待通りではない(%d)", q_r_result));

	mov	esi, esp
	lea	eax, DWORD PTR _r$[ebp]
	push	eax
	lea	ecx, DWORD PTR _q$[ebp]
	push	ecx
	mov	edx, DWORD PTR _v$[ebp]
	push	edx
	mov	eax, DWORD PTR _u$[ebp]
	push	eax
	mov	ecx, DWORD PTR _ep$[ebp]
	mov	edx, DWORD PTR [ecx+412]
	call	edx
	cmp	esi, esp
	call	__RTC_CheckEsp
	mov	DWORD PTR _q_r_result$[ebp], eax
	mov	eax, DWORD PTR _q_r_result$[ebp]
	cmp	eax, DWORD PTR _desired_return_code$[ebp]
	jne	SHORT $LN11@TEST_DivRe
	mov	DWORD PTR tv143[ebp], 1
	jmp	SHORT $LN12@TEST_DivRe
$LN11@TEST_DivRe:
	mov	DWORD PTR tv143[ebp], 0
$LN12@TEST_DivRe:
	mov	ecx, DWORD PTR _q_r_result$[ebp]
	push	ecx
	push	OFFSET ??_C@_1DO@DHNBEMIM@?$AAD?$AAi?$AAv?$AAR?$AAe?$AAm?$AA_?$AAU?$AAX?$AA_?$AAX?$AAn?$PP?$KJ?$AA0?$PP?$LD@
	call	_FormatTestMesssage
	add	esp, 8
	push	eax
	mov	edx, DWORD PTR tv143[ebp]
	push	edx
	push	3
	mov	eax, DWORD PTR _no$[ebp]
	push	eax
	push	OFFSET ??_C@_1CI@PMOCFACI@?$AAD?$AAi?$AAv?$AAR?$AAe?$AAm?$AA_?$AAU?$AAX?$AA_?$AAX?$AA?5?$AA?$CI?$AA?$CF?$AAd@
	call	_FormatTestLabel
	add	esp, 12					; 0000000cH
	push	eax
	mov	ecx, DWORD PTR _env$[ebp]
	push	ecx
	call	_TEST_Assert
	add	esp, 16					; 00000010H

; 109  :     if (desired_return_code == PMC_STATUS_OK)

	cmp	DWORD PTR _desired_return_code$[ebp], 0
	jne	$LN2@TEST_DivRe

; 110  :     {
; 111  :         TEST_Assert(env, FormatTestLabel(L"DivRem_UX_X (%d.%d)", no, 4), (result = ep->ToByteArray(q, actual_q_buf, sizeof(actual_q_buf), &actual_q_buf_size)) == PMC_STATUS_OK, FormatTestMesssage(L"ToByteArrayの復帰コードが期待通りではない(%d)", result));

	mov	esi, esp
	lea	eax, DWORD PTR _actual_q_buf_size$[ebp]
	push	eax
	push	256					; 00000100H
	lea	ecx, DWORD PTR _actual_q_buf$[ebp]
	push	ecx
	mov	edx, DWORD PTR _q$[ebp]
	push	edx
	mov	eax, DWORD PTR _ep$[ebp]
	mov	ecx, DWORD PTR [eax+300]
	call	ecx
	cmp	esi, esp
	call	__RTC_CheckEsp
	mov	DWORD PTR _result$[ebp], eax
	cmp	DWORD PTR _result$[ebp], 0
	jne	SHORT $LN13@TEST_DivRe
	mov	DWORD PTR tv163[ebp], 1
	jmp	SHORT $LN14@TEST_DivRe
$LN13@TEST_DivRe:
	mov	DWORD PTR tv163[ebp], 0
$LN14@TEST_DivRe:
	mov	edx, DWORD PTR _result$[ebp]
	push	edx
	push	OFFSET ??_C@_1DO@DOHJEMND@?$AAT?$AAo?$AAB?$AAy?$AAt?$AAe?$AAA?$AAr?$AAr?$AAa?$AAy?$AAn?$PP?$KJ?$AA0?$PP?$LD@
	call	_FormatTestMesssage
	add	esp, 8
	push	eax
	mov	eax, DWORD PTR tv163[ebp]
	push	eax
	push	4
	mov	ecx, DWORD PTR _no$[ebp]
	push	ecx
	push	OFFSET ??_C@_1CI@PMOCFACI@?$AAD?$AAi?$AAv?$AAR?$AAe?$AAm?$AA_?$AAU?$AAX?$AA_?$AAX?$AA?5?$AA?$CI?$AA?$CF?$AAd@
	call	_FormatTestLabel
	add	esp, 12					; 0000000cH
	push	eax
	mov	edx, DWORD PTR _env$[ebp]
	push	edx
	call	_TEST_Assert
	add	esp, 16					; 00000010H

; 112  :         TEST_Assert(env, FormatTestLabel(L"DivRem_UX_X (%d.%d)", no, 5), (result = ep->UINT_ENTRY_POINTS.ToByteArray(r, actual_r_buf, sizeof(actual_r_buf), &actual_r_buf_size)) == PMC_STATUS_OK, FormatTestMesssage(L"ToByteArrayの復帰コードが期待通りではない(%d)", result));

	mov	esi, esp
	lea	eax, DWORD PTR _actual_r_buf_size$[ebp]
	push	eax
	push	256					; 00000100H
	lea	ecx, DWORD PTR _actual_r_buf$[ebp]
	push	ecx
	mov	edx, DWORD PTR _r$[ebp]
	push	edx
	mov	eax, DWORD PTR _ep$[ebp]
	mov	ecx, DWORD PTR [eax+28]
	call	ecx
	cmp	esi, esp
	call	__RTC_CheckEsp
	mov	DWORD PTR _result$[ebp], eax
	cmp	DWORD PTR _result$[ebp], 0
	jne	SHORT $LN15@TEST_DivRe
	mov	DWORD PTR tv182[ebp], 1
	jmp	SHORT $LN16@TEST_DivRe
$LN15@TEST_DivRe:
	mov	DWORD PTR tv182[ebp], 0
$LN16@TEST_DivRe:
	mov	edx, DWORD PTR _result$[ebp]
	push	edx
	push	OFFSET ??_C@_1DO@DOHJEMND@?$AAT?$AAo?$AAB?$AAy?$AAt?$AAe?$AAA?$AAr?$AAr?$AAa?$AAy?$AAn?$PP?$KJ?$AA0?$PP?$LD@
	call	_FormatTestMesssage
	add	esp, 8
	push	eax
	mov	eax, DWORD PTR tv182[ebp]
	push	eax
	push	5
	mov	ecx, DWORD PTR _no$[ebp]
	push	ecx
	push	OFFSET ??_C@_1CI@PMOCFACI@?$AAD?$AAi?$AAv?$AAR?$AAe?$AAm?$AA_?$AAU?$AAX?$AA_?$AAX?$AA?5?$AA?$CI?$AA?$CF?$AAd@
	call	_FormatTestLabel
	add	esp, 12					; 0000000cH
	push	eax
	mov	edx, DWORD PTR _env$[ebp]
	push	edx
	call	_TEST_Assert
	add	esp, 16					; 00000010H

; 113  :         TEST_Assert(env, FormatTestLabel(L"DivRem_UX_X (%d.%d)", no, 6), _EQUALS_MEMORY(actual_q_buf, actual_q_buf_size, desired_q_buf, desired_q_buf_size) == 0, L"商の値が一致しない");

	mov	eax, DWORD PTR _desired_q_buf_size$[ebp]
	push	eax
	mov	ecx, DWORD PTR _desired_q_buf$[ebp]
	push	ecx
	mov	edx, DWORD PTR _actual_q_buf_size$[ebp]
	push	edx
	lea	eax, DWORD PTR _actual_q_buf$[ebp]
	push	eax
	call	__EQUALS_MEMORY
	add	esp, 16					; 00000010H
	test	eax, eax
	jne	SHORT $LN17@TEST_DivRe
	mov	DWORD PTR tv197[ebp], 1
	jmp	SHORT $LN18@TEST_DivRe
$LN17@TEST_DivRe:
	mov	DWORD PTR tv197[ebp], 0
$LN18@TEST_DivRe:
	push	OFFSET ??_C@_1BE@OEODMBIH@?$AAF?$AAn?$AA$?$AAL?$AA?$AA?$PP?t?$AAW?$AAj?$AAD@
	mov	ecx, DWORD PTR tv197[ebp]
	push	ecx
	push	6
	mov	edx, DWORD PTR _no$[ebp]
	push	edx
	push	OFFSET ??_C@_1CI@PMOCFACI@?$AAD?$AAi?$AAv?$AAR?$AAe?$AAm?$AA_?$AAU?$AAX?$AA_?$AAX?$AA?5?$AA?$CI?$AA?$CF?$AAd@
	call	_FormatTestLabel
	add	esp, 12					; 0000000cH
	push	eax
	mov	eax, DWORD PTR _env$[ebp]
	push	eax
	call	_TEST_Assert
	add	esp, 16					; 00000010H

; 114  :         TEST_Assert(env, FormatTestLabel(L"DivRem_UX_X (%d.%d)", no, 7), _EQUALS_MEMORY(actual_r_buf, actual_r_buf_size, desired_r_buf, desired_r_buf_size) == 0, L"剰余の値が一致しない");

	mov	eax, DWORD PTR _desired_r_buf_size$[ebp]
	push	eax
	mov	ecx, DWORD PTR _desired_r_buf$[ebp]
	push	ecx
	mov	edx, DWORD PTR _actual_r_buf_size$[ebp]
	push	edx
	lea	eax, DWORD PTR _actual_r_buf$[ebp]
	push	eax
	call	__EQUALS_MEMORY
	add	esp, 16					; 00000010H
	test	eax, eax
	jne	SHORT $LN19@TEST_DivRe
	mov	DWORD PTR tv212[ebp], 1
	jmp	SHORT $LN20@TEST_DivRe
$LN19@TEST_DivRe:
	mov	DWORD PTR tv212[ebp], 0
$LN20@TEST_DivRe:
	push	OFFSET ??_C@_1BG@BPGLFLF@?$AAp?$AAY?$AAn?$AA$?$AAL?$AA?$AA?$PP?t?$AAW?$AAj?$AAD@
	mov	ecx, DWORD PTR tv212[ebp]
	push	ecx
	push	7
	mov	edx, DWORD PTR _no$[ebp]
	push	edx
	push	OFFSET ??_C@_1CI@PMOCFACI@?$AAD?$AAi?$AAv?$AAR?$AAe?$AAm?$AA_?$AAU?$AAX?$AA_?$AAX?$AA?5?$AA?$CI?$AA?$CF?$AAd@
	call	_FormatTestLabel
	add	esp, 12					; 0000000cH
	push	eax
	mov	eax, DWORD PTR _env$[ebp]
	push	eax
	call	_TEST_Assert
	add	esp, 16					; 00000010H
$LN2@TEST_DivRe:

; 115  :     }
; 116  :     if (q_r_result == PMC_STATUS_OK)

	cmp	DWORD PTR _q_r_result$[ebp], 0
	jne	SHORT $LN3@TEST_DivRe

; 117  :     {
; 118  :         ep->Dispose(q);

	mov	esi, esp
	mov	eax, DWORD PTR _q$[ebp]
	push	eax
	mov	ecx, DWORD PTR _ep$[ebp]
	mov	edx, DWORD PTR [ecx+288]
	call	edx
	cmp	esi, esp
	call	__RTC_CheckEsp

; 119  :         ep->UINT_ENTRY_POINTS.Dispose(r);

	mov	esi, esp
	mov	eax, DWORD PTR _r$[ebp]
	push	eax
	mov	ecx, DWORD PTR _ep$[ebp]
	mov	edx, DWORD PTR [ecx+16]
	call	edx
	cmp	esi, esp
	call	__RTC_CheckEsp
$LN3@TEST_DivRe:

; 120  :     }
; 121  :     if (v_result == PMC_STATUS_OK)

	cmp	DWORD PTR _v_result$[ebp], 0
	jne	SHORT $LN4@TEST_DivRe

; 122  :         ep->Dispose(v);

	mov	esi, esp
	mov	eax, DWORD PTR _v$[ebp]
	push	eax
	mov	ecx, DWORD PTR _ep$[ebp]
	mov	edx, DWORD PTR [ecx+288]
	call	edx
	cmp	esi, esp
	call	__RTC_CheckEsp
$LN4@TEST_DivRe:

; 123  :     if (u_result == PMC_STATUS_OK)

	cmp	DWORD PTR _u_result$[ebp], 0
	jne	SHORT $LN1@TEST_DivRe

; 124  :         ep->UINT_ENTRY_POINTS.Dispose(u);

	mov	esi, esp
	mov	eax, DWORD PTR _u$[ebp]
	push	eax
	mov	ecx, DWORD PTR _ep$[ebp]
	mov	edx, DWORD PTR [ecx+16]
	call	edx
	cmp	esi, esp
	call	__RTC_CheckEsp
$LN1@TEST_DivRe:

; 125  : }

	push	edx
	mov	ecx, ebp
	push	eax
	lea	edx, DWORD PTR $LN30@TEST_DivRe
	call	@_RTC_CheckStackVars@8
	pop	eax
	pop	edx
	pop	edi
	pop	esi
	pop	ebx
	mov	ecx, DWORD PTR __$ArrayPad$[ebp]
	xor	ecx, ebp
	call	@__security_check_cookie@4
	add	esp, 1040				; 00000410H
	cmp	ebp, esp
	call	__RTC_CheckEsp
	mov	esp, ebp
	pop	ebp
	ret	0
	npad	1
$LN30@TEST_DivRe:
	DD	8
	DD	$LN29@TEST_DivRe
$LN29@TEST_DivRe:
	DD	-12					; fffffff4H
	DD	4
	DD	$LN21@TEST_DivRe
	DD	-24					; ffffffe8H
	DD	4
	DD	$LN22@TEST_DivRe
	DD	-36					; ffffffdcH
	DD	4
	DD	$LN23@TEST_DivRe
	DD	-48					; ffffffd0H
	DD	4
	DD	$LN24@TEST_DivRe
	DD	-312					; fffffec8H
	DD	256					; 00000100H
	DD	$LN25@TEST_DivRe
	DD	-324					; fffffebcH
	DD	4
	DD	$LN26@TEST_DivRe
	DD	-588					; fffffdb4H
	DD	256					; 00000100H
	DD	$LN27@TEST_DivRe
	DD	-600					; fffffda8H
	DD	4
	DD	$LN28@TEST_DivRe
$LN28@TEST_DivRe:
	DB	97					; 00000061H
	DB	99					; 00000063H
	DB	116					; 00000074H
	DB	117					; 00000075H
	DB	97					; 00000061H
	DB	108					; 0000006cH
	DB	95					; 0000005fH
	DB	114					; 00000072H
	DB	95					; 0000005fH
	DB	98					; 00000062H
	DB	117					; 00000075H
	DB	102					; 00000066H
	DB	95					; 0000005fH
	DB	115					; 00000073H
	DB	105					; 00000069H
	DB	122					; 0000007aH
	DB	101					; 00000065H
	DB	0
$LN27@TEST_DivRe:
	DB	97					; 00000061H
	DB	99					; 00000063H
	DB	116					; 00000074H
	DB	117					; 00000075H
	DB	97					; 00000061H
	DB	108					; 0000006cH
	DB	95					; 0000005fH
	DB	114					; 00000072H
	DB	95					; 0000005fH
	DB	98					; 00000062H
	DB	117					; 00000075H
	DB	102					; 00000066H
	DB	0
$LN26@TEST_DivRe:
	DB	97					; 00000061H
	DB	99					; 00000063H
	DB	116					; 00000074H
	DB	117					; 00000075H
	DB	97					; 00000061H
	DB	108					; 0000006cH
	DB	95					; 0000005fH
	DB	113					; 00000071H
	DB	95					; 0000005fH
	DB	98					; 00000062H
	DB	117					; 00000075H
	DB	102					; 00000066H
	DB	95					; 0000005fH
	DB	115					; 00000073H
	DB	105					; 00000069H
	DB	122					; 0000007aH
	DB	101					; 00000065H
	DB	0
$LN25@TEST_DivRe:
	DB	97					; 00000061H
	DB	99					; 00000063H
	DB	116					; 00000074H
	DB	117					; 00000075H
	DB	97					; 00000061H
	DB	108					; 0000006cH
	DB	95					; 0000005fH
	DB	113					; 00000071H
	DB	95					; 0000005fH
	DB	98					; 00000062H
	DB	117					; 00000075H
	DB	102					; 00000066H
	DB	0
$LN24@TEST_DivRe:
	DB	114					; 00000072H
	DB	0
$LN23@TEST_DivRe:
	DB	113					; 00000071H
	DB	0
$LN22@TEST_DivRe:
	DB	118					; 00000076H
	DB	0
$LN21@TEST_DivRe:
	DB	117					; 00000075H
	DB	0
_TEST_DivRem_UX_X ENDP
_TEXT	ENDS
; Function compile flags: /Odtp /RTCsu /ZI
; File z:\sources\lunor\repos\rougemeilland\palmtree.math.core.sint\palmtree.math.core.sint\test_op_divrem.c
;	COMDAT _TEST_DivRem_L_X
_TEXT	SEGMENT
tv194 = -1016						; size = 4
tv179 = -1016						; size = 4
tv164 = -1016						; size = 4
tv145 = -1016						; size = 4
tv93 = -1016						; size = 4
tv74 = -1016						; size = 4
_q_r_result$ = -624					; size = 4
_v_result$ = -612					; size = 4
_result$ = -600						; size = 4
_actual_r_buf_size$ = -588				; size = 4
_actual_r_buf$ = -576					; size = 256
_actual_q_buf_size$ = -312				; size = 4
_actual_q_buf$ = -300					; size = 256
_r$ = -36						; size = 4
_q$ = -24						; size = 4
_v$ = -12						; size = 4
__$ArrayPad$ = -4					; size = 4
_env$ = 8						; size = 4
_ep$ = 12						; size = 4
_no$ = 16						; size = 4
_u$ = 20						; size = 8
_v_buf$ = 28						; size = 4
_v_buf_size$ = 32					; size = 4
_desired_return_code$ = 36				; size = 4
_desired_q_buf$ = 40					; size = 4
_desired_q_buf_size$ = 44				; size = 4
_desired_r_buf$ = 48					; size = 4
_desired_r_buf_size$ = 52				; size = 4
_TEST_DivRem_L_X PROC					; COMDAT

; 63   : {

	push	ebp
	mov	ebp, esp
	sub	esp, 1016				; 000003f8H
	push	ebx
	push	esi
	push	edi
	lea	edi, DWORD PTR [ebp-1016]
	mov	ecx, 254				; 000000feH
	mov	eax, -858993460				; ccccccccH
	rep stosd
	mov	eax, DWORD PTR ___security_cookie
	xor	eax, ebp
	mov	DWORD PTR __$ArrayPad$[ebp], eax
	mov	ecx, OFFSET __76EA6F59_test_op_divrem@c
	call	@__CheckForDebuggerJustMyCode@4

; 64   :     PMC_HANDLE_SINT v;
; 65   :     PMC_HANDLE_SINT q;
; 66   :     PMC_HANDLE_SINT r;
; 67   :     unsigned char actual_q_buf[256];
; 68   :     size_t actual_q_buf_size;
; 69   :     unsigned char actual_r_buf[256];
; 70   :     size_t actual_r_buf_size;
; 71   :     PMC_STATUS_CODE result;
; 72   :     PMC_STATUS_CODE v_result;
; 73   :     PMC_STATUS_CODE q_r_result;
; 74   :     TEST_Assert(env, FormatTestLabel(L"DivRem_L_X (%d.%d)", no, 1), (v_result = ep->FromByteArray(v_buf, v_buf_size, &v)) == PMC_STATUS_OK, FormatTestMesssage(L"FromByteArrayの復帰コードが期待通りではない(%d)", v_result));

	mov	esi, esp
	lea	eax, DWORD PTR _v$[ebp]
	push	eax
	mov	ecx, DWORD PTR _v_buf_size$[ebp]
	push	ecx
	mov	edx, DWORD PTR _v_buf$[ebp]
	push	edx
	mov	eax, DWORD PTR _ep$[ebp]
	mov	ecx, DWORD PTR [eax+296]
	call	ecx
	cmp	esi, esp
	call	__RTC_CheckEsp
	mov	DWORD PTR _v_result$[ebp], eax
	cmp	DWORD PTR _v_result$[ebp], 0
	jne	SHORT $LN6@TEST_DivRe
	mov	DWORD PTR tv74[ebp], 1
	jmp	SHORT $LN7@TEST_DivRe
$LN6@TEST_DivRe:
	mov	DWORD PTR tv74[ebp], 0
$LN7@TEST_DivRe:
	mov	edx, DWORD PTR _v_result$[ebp]
	push	edx
	push	OFFSET ??_C@_1EC@NPMCAPKO@?$AAF?$AAr?$AAo?$AAm?$AAB?$AAy?$AAt?$AAe?$AAA?$AAr?$AAr?$AAa?$AAy?$AAn?$PP?$KJ@
	call	_FormatTestMesssage
	add	esp, 8
	push	eax
	mov	eax, DWORD PTR tv74[ebp]
	push	eax
	push	1
	mov	ecx, DWORD PTR _no$[ebp]
	push	ecx
	push	OFFSET ??_C@_1CG@CCPMJLPK@?$AAD?$AAi?$AAv?$AAR?$AAe?$AAm?$AA_?$AAL?$AA_?$AAX?$AA?5?$AA?$CI?$AA?$CF?$AAd?$AA?4@
	call	_FormatTestLabel
	add	esp, 12					; 0000000cH
	push	eax
	mov	edx, DWORD PTR _env$[ebp]
	push	edx
	call	_TEST_Assert
	add	esp, 16					; 00000010H

; 75   :     TEST_Assert(env, FormatTestLabel(L"DivRem_L_X (%d.%d)", no, 2), (q_r_result = ep->DivRem_L_X(u, v, &q, &r)) == desired_return_code, FormatTestMesssage(L"DivRem_L_Xの復帰コードが期待通りではない(%d)", q_r_result));

	mov	esi, esp
	lea	eax, DWORD PTR _r$[ebp]
	push	eax
	lea	ecx, DWORD PTR _q$[ebp]
	push	ecx
	mov	edx, DWORD PTR _v$[ebp]
	push	edx
	mov	eax, DWORD PTR _u$[ebp+4]
	push	eax
	mov	ecx, DWORD PTR _u$[ebp]
	push	ecx
	mov	edx, DWORD PTR _ep$[ebp]
	mov	eax, DWORD PTR [edx+408]
	call	eax
	cmp	esi, esp
	call	__RTC_CheckEsp
	mov	DWORD PTR _q_r_result$[ebp], eax
	mov	ecx, DWORD PTR _q_r_result$[ebp]
	cmp	ecx, DWORD PTR _desired_return_code$[ebp]
	jne	SHORT $LN8@TEST_DivRe
	mov	DWORD PTR tv93[ebp], 1
	jmp	SHORT $LN9@TEST_DivRe
$LN8@TEST_DivRe:
	mov	DWORD PTR tv93[ebp], 0
$LN9@TEST_DivRe:
	mov	edx, DWORD PTR _q_r_result$[ebp]
	push	edx
	push	OFFSET ??_C@_1DM@EHDAPCE@?$AAD?$AAi?$AAv?$AAR?$AAe?$AAm?$AA_?$AAL?$AA_?$AAX?$AAn?$PP?$KJ?$AA0?$PP?$LD?$PP?$PM@
	call	_FormatTestMesssage
	add	esp, 8
	push	eax
	mov	eax, DWORD PTR tv93[ebp]
	push	eax
	push	2
	mov	ecx, DWORD PTR _no$[ebp]
	push	ecx
	push	OFFSET ??_C@_1CG@CCPMJLPK@?$AAD?$AAi?$AAv?$AAR?$AAe?$AAm?$AA_?$AAL?$AA_?$AAX?$AA?5?$AA?$CI?$AA?$CF?$AAd?$AA?4@
	call	_FormatTestLabel
	add	esp, 12					; 0000000cH
	push	eax
	mov	edx, DWORD PTR _env$[ebp]
	push	edx
	call	_TEST_Assert
	add	esp, 16					; 00000010H

; 76   :     if (desired_return_code == PMC_STATUS_OK)

	cmp	DWORD PTR _desired_return_code$[ebp], 0
	jne	$LN2@TEST_DivRe

; 77   :     {
; 78   :         TEST_Assert(env, FormatTestLabel(L"DivRem_L_X (%d.%d)", no, 3), (result = ep->ToByteArray(q, actual_q_buf, sizeof(actual_q_buf), &actual_q_buf_size)) == PMC_STATUS_OK, FormatTestMesssage(L"ToByteArrayの復帰コードが期待通りではない(%d)", result));

	mov	esi, esp
	lea	eax, DWORD PTR _actual_q_buf_size$[ebp]
	push	eax
	push	256					; 00000100H
	lea	ecx, DWORD PTR _actual_q_buf$[ebp]
	push	ecx
	mov	edx, DWORD PTR _q$[ebp]
	push	edx
	mov	eax, DWORD PTR _ep$[ebp]
	mov	ecx, DWORD PTR [eax+300]
	call	ecx
	cmp	esi, esp
	call	__RTC_CheckEsp
	mov	DWORD PTR _result$[ebp], eax
	cmp	DWORD PTR _result$[ebp], 0
	jne	SHORT $LN10@TEST_DivRe
	mov	DWORD PTR tv145[ebp], 1
	jmp	SHORT $LN11@TEST_DivRe
$LN10@TEST_DivRe:
	mov	DWORD PTR tv145[ebp], 0
$LN11@TEST_DivRe:
	mov	edx, DWORD PTR _result$[ebp]
	push	edx
	push	OFFSET ??_C@_1DO@DOHJEMND@?$AAT?$AAo?$AAB?$AAy?$AAt?$AAe?$AAA?$AAr?$AAr?$AAa?$AAy?$AAn?$PP?$KJ?$AA0?$PP?$LD@
	call	_FormatTestMesssage
	add	esp, 8
	push	eax
	mov	eax, DWORD PTR tv145[ebp]
	push	eax
	push	3
	mov	ecx, DWORD PTR _no$[ebp]
	push	ecx
	push	OFFSET ??_C@_1CG@CCPMJLPK@?$AAD?$AAi?$AAv?$AAR?$AAe?$AAm?$AA_?$AAL?$AA_?$AAX?$AA?5?$AA?$CI?$AA?$CF?$AAd?$AA?4@
	call	_FormatTestLabel
	add	esp, 12					; 0000000cH
	push	eax
	mov	edx, DWORD PTR _env$[ebp]
	push	edx
	call	_TEST_Assert
	add	esp, 16					; 00000010H

; 79   :         TEST_Assert(env, FormatTestLabel(L"DivRem_L_X (%d.%d)", no, 4), (result = ep->ToByteArray(r, actual_r_buf, sizeof(actual_r_buf), &actual_r_buf_size)) == PMC_STATUS_OK, FormatTestMesssage(L"ToByteArrayの復帰コードが期待通りではない(%d)", result));

	mov	esi, esp
	lea	eax, DWORD PTR _actual_r_buf_size$[ebp]
	push	eax
	push	256					; 00000100H
	lea	ecx, DWORD PTR _actual_r_buf$[ebp]
	push	ecx
	mov	edx, DWORD PTR _r$[ebp]
	push	edx
	mov	eax, DWORD PTR _ep$[ebp]
	mov	ecx, DWORD PTR [eax+300]
	call	ecx
	cmp	esi, esp
	call	__RTC_CheckEsp
	mov	DWORD PTR _result$[ebp], eax
	cmp	DWORD PTR _result$[ebp], 0
	jne	SHORT $LN12@TEST_DivRe
	mov	DWORD PTR tv164[ebp], 1
	jmp	SHORT $LN13@TEST_DivRe
$LN12@TEST_DivRe:
	mov	DWORD PTR tv164[ebp], 0
$LN13@TEST_DivRe:
	mov	edx, DWORD PTR _result$[ebp]
	push	edx
	push	OFFSET ??_C@_1DO@DOHJEMND@?$AAT?$AAo?$AAB?$AAy?$AAt?$AAe?$AAA?$AAr?$AAr?$AAa?$AAy?$AAn?$PP?$KJ?$AA0?$PP?$LD@
	call	_FormatTestMesssage
	add	esp, 8
	push	eax
	mov	eax, DWORD PTR tv164[ebp]
	push	eax
	push	4
	mov	ecx, DWORD PTR _no$[ebp]
	push	ecx
	push	OFFSET ??_C@_1CG@CCPMJLPK@?$AAD?$AAi?$AAv?$AAR?$AAe?$AAm?$AA_?$AAL?$AA_?$AAX?$AA?5?$AA?$CI?$AA?$CF?$AAd?$AA?4@
	call	_FormatTestLabel
	add	esp, 12					; 0000000cH
	push	eax
	mov	edx, DWORD PTR _env$[ebp]
	push	edx
	call	_TEST_Assert
	add	esp, 16					; 00000010H

; 80   :         TEST_Assert(env, FormatTestLabel(L"DivRem_L_X (%d.%d)", no, 5), _EQUALS_MEMORY(actual_q_buf, actual_q_buf_size, desired_q_buf, desired_q_buf_size) == 0, L"商の値が一致しない");

	mov	eax, DWORD PTR _desired_q_buf_size$[ebp]
	push	eax
	mov	ecx, DWORD PTR _desired_q_buf$[ebp]
	push	ecx
	mov	edx, DWORD PTR _actual_q_buf_size$[ebp]
	push	edx
	lea	eax, DWORD PTR _actual_q_buf$[ebp]
	push	eax
	call	__EQUALS_MEMORY
	add	esp, 16					; 00000010H
	test	eax, eax
	jne	SHORT $LN14@TEST_DivRe
	mov	DWORD PTR tv179[ebp], 1
	jmp	SHORT $LN15@TEST_DivRe
$LN14@TEST_DivRe:
	mov	DWORD PTR tv179[ebp], 0
$LN15@TEST_DivRe:
	push	OFFSET ??_C@_1BE@OEODMBIH@?$AAF?$AAn?$AA$?$AAL?$AA?$AA?$PP?t?$AAW?$AAj?$AAD@
	mov	ecx, DWORD PTR tv179[ebp]
	push	ecx
	push	5
	mov	edx, DWORD PTR _no$[ebp]
	push	edx
	push	OFFSET ??_C@_1CG@CCPMJLPK@?$AAD?$AAi?$AAv?$AAR?$AAe?$AAm?$AA_?$AAL?$AA_?$AAX?$AA?5?$AA?$CI?$AA?$CF?$AAd?$AA?4@
	call	_FormatTestLabel
	add	esp, 12					; 0000000cH
	push	eax
	mov	eax, DWORD PTR _env$[ebp]
	push	eax
	call	_TEST_Assert
	add	esp, 16					; 00000010H

; 81   :         TEST_Assert(env, FormatTestLabel(L"DivRem_L_X (%d.%d)", no, 6), _EQUALS_MEMORY(actual_r_buf, actual_r_buf_size, desired_r_buf, desired_r_buf_size) == 0, L"剰余の値が一致しない");

	mov	eax, DWORD PTR _desired_r_buf_size$[ebp]
	push	eax
	mov	ecx, DWORD PTR _desired_r_buf$[ebp]
	push	ecx
	mov	edx, DWORD PTR _actual_r_buf_size$[ebp]
	push	edx
	lea	eax, DWORD PTR _actual_r_buf$[ebp]
	push	eax
	call	__EQUALS_MEMORY
	add	esp, 16					; 00000010H
	test	eax, eax
	jne	SHORT $LN16@TEST_DivRe
	mov	DWORD PTR tv194[ebp], 1
	jmp	SHORT $LN17@TEST_DivRe
$LN16@TEST_DivRe:
	mov	DWORD PTR tv194[ebp], 0
$LN17@TEST_DivRe:
	push	OFFSET ??_C@_1BG@BPGLFLF@?$AAp?$AAY?$AAn?$AA$?$AAL?$AA?$AA?$PP?t?$AAW?$AAj?$AAD@
	mov	ecx, DWORD PTR tv194[ebp]
	push	ecx
	push	6
	mov	edx, DWORD PTR _no$[ebp]
	push	edx
	push	OFFSET ??_C@_1CG@CCPMJLPK@?$AAD?$AAi?$AAv?$AAR?$AAe?$AAm?$AA_?$AAL?$AA_?$AAX?$AA?5?$AA?$CI?$AA?$CF?$AAd?$AA?4@
	call	_FormatTestLabel
	add	esp, 12					; 0000000cH
	push	eax
	mov	eax, DWORD PTR _env$[ebp]
	push	eax
	call	_TEST_Assert
	add	esp, 16					; 00000010H
$LN2@TEST_DivRe:

; 82   :     }
; 83   :     if (q_r_result == PMC_STATUS_OK)

	cmp	DWORD PTR _q_r_result$[ebp], 0
	jne	SHORT $LN3@TEST_DivRe

; 84   :     {
; 85   :         ep->Dispose(r);

	mov	esi, esp
	mov	eax, DWORD PTR _r$[ebp]
	push	eax
	mov	ecx, DWORD PTR _ep$[ebp]
	mov	edx, DWORD PTR [ecx+288]
	call	edx
	cmp	esi, esp
	call	__RTC_CheckEsp

; 86   :         ep->Dispose(q);

	mov	esi, esp
	mov	eax, DWORD PTR _q$[ebp]
	push	eax
	mov	ecx, DWORD PTR _ep$[ebp]
	mov	edx, DWORD PTR [ecx+288]
	call	edx
	cmp	esi, esp
	call	__RTC_CheckEsp
$LN3@TEST_DivRe:

; 87   :     }
; 88   :     if (v_result == PMC_STATUS_OK)

	cmp	DWORD PTR _v_result$[ebp], 0
	jne	SHORT $LN1@TEST_DivRe

; 89   :         ep->Dispose(v);

	mov	esi, esp
	mov	eax, DWORD PTR _v$[ebp]
	push	eax
	mov	ecx, DWORD PTR _ep$[ebp]
	mov	edx, DWORD PTR [ecx+288]
	call	edx
	cmp	esi, esp
	call	__RTC_CheckEsp
$LN1@TEST_DivRe:

; 90   : }

	push	edx
	mov	ecx, ebp
	push	eax
	lea	edx, DWORD PTR $LN26@TEST_DivRe
	call	@_RTC_CheckStackVars@8
	pop	eax
	pop	edx
	pop	edi
	pop	esi
	pop	ebx
	mov	ecx, DWORD PTR __$ArrayPad$[ebp]
	xor	ecx, ebp
	call	@__security_check_cookie@4
	add	esp, 1016				; 000003f8H
	cmp	ebp, esp
	call	__RTC_CheckEsp
	mov	esp, ebp
	pop	ebp
	ret	0
	npad	3
$LN26@TEST_DivRe:
	DD	7
	DD	$LN25@TEST_DivRe
$LN25@TEST_DivRe:
	DD	-12					; fffffff4H
	DD	4
	DD	$LN18@TEST_DivRe
	DD	-24					; ffffffe8H
	DD	4
	DD	$LN19@TEST_DivRe
	DD	-36					; ffffffdcH
	DD	4
	DD	$LN20@TEST_DivRe
	DD	-300					; fffffed4H
	DD	256					; 00000100H
	DD	$LN21@TEST_DivRe
	DD	-312					; fffffec8H
	DD	4
	DD	$LN22@TEST_DivRe
	DD	-576					; fffffdc0H
	DD	256					; 00000100H
	DD	$LN23@TEST_DivRe
	DD	-588					; fffffdb4H
	DD	4
	DD	$LN24@TEST_DivRe
$LN24@TEST_DivRe:
	DB	97					; 00000061H
	DB	99					; 00000063H
	DB	116					; 00000074H
	DB	117					; 00000075H
	DB	97					; 00000061H
	DB	108					; 0000006cH
	DB	95					; 0000005fH
	DB	114					; 00000072H
	DB	95					; 0000005fH
	DB	98					; 00000062H
	DB	117					; 00000075H
	DB	102					; 00000066H
	DB	95					; 0000005fH
	DB	115					; 00000073H
	DB	105					; 00000069H
	DB	122					; 0000007aH
	DB	101					; 00000065H
	DB	0
$LN23@TEST_DivRe:
	DB	97					; 00000061H
	DB	99					; 00000063H
	DB	116					; 00000074H
	DB	117					; 00000075H
	DB	97					; 00000061H
	DB	108					; 0000006cH
	DB	95					; 0000005fH
	DB	114					; 00000072H
	DB	95					; 0000005fH
	DB	98					; 00000062H
	DB	117					; 00000075H
	DB	102					; 00000066H
	DB	0
$LN22@TEST_DivRe:
	DB	97					; 00000061H
	DB	99					; 00000063H
	DB	116					; 00000074H
	DB	117					; 00000075H
	DB	97					; 00000061H
	DB	108					; 0000006cH
	DB	95					; 0000005fH
	DB	113					; 00000071H
	DB	95					; 0000005fH
	DB	98					; 00000062H
	DB	117					; 00000075H
	DB	102					; 00000066H
	DB	95					; 0000005fH
	DB	115					; 00000073H
	DB	105					; 00000069H
	DB	122					; 0000007aH
	DB	101					; 00000065H
	DB	0
$LN21@TEST_DivRe:
	DB	97					; 00000061H
	DB	99					; 00000063H
	DB	116					; 00000074H
	DB	117					; 00000075H
	DB	97					; 00000061H
	DB	108					; 0000006cH
	DB	95					; 0000005fH
	DB	113					; 00000071H
	DB	95					; 0000005fH
	DB	98					; 00000062H
	DB	117					; 00000075H
	DB	102					; 00000066H
	DB	0
$LN20@TEST_DivRe:
	DB	114					; 00000072H
	DB	0
$LN19@TEST_DivRe:
	DB	113					; 00000071H
	DB	0
$LN18@TEST_DivRe:
	DB	118					; 00000076H
	DB	0
_TEST_DivRem_L_X ENDP
_TEXT	ENDS
; Function compile flags: /Odtp /RTCsu /ZI
; File z:\sources\lunor\repos\rougemeilland\palmtree.math.core.sint\palmtree.math.core.sint\test_op_divrem.c
;	COMDAT _TEST_DivRem_I_X
_TEXT	SEGMENT
tv194 = -1016						; size = 4
tv179 = -1016						; size = 4
tv164 = -1016						; size = 4
tv145 = -1016						; size = 4
tv93 = -1016						; size = 4
tv74 = -1016						; size = 4
_q_r_result$ = -624					; size = 4
_v_result$ = -612					; size = 4
_result$ = -600						; size = 4
_actual_r_buf_size$ = -588				; size = 4
_actual_r_buf$ = -576					; size = 256
_actual_q_buf_size$ = -312				; size = 4
_actual_q_buf$ = -300					; size = 256
_r$ = -36						; size = 4
_q$ = -24						; size = 4
_v$ = -12						; size = 4
__$ArrayPad$ = -4					; size = 4
_env$ = 8						; size = 4
_ep$ = 12						; size = 4
_no$ = 16						; size = 4
_u$ = 20						; size = 4
_v_buf$ = 24						; size = 4
_v_buf_size$ = 28					; size = 4
_desired_return_code$ = 32				; size = 4
_desired_q_buf$ = 36					; size = 4
_desired_q_buf_size$ = 40				; size = 4
_desired_r_buf$ = 44					; size = 4
_desired_r_buf_size$ = 48				; size = 4
_TEST_DivRem_I_X PROC					; COMDAT

; 33   : {

	push	ebp
	mov	ebp, esp
	sub	esp, 1016				; 000003f8H
	push	ebx
	push	esi
	push	edi
	lea	edi, DWORD PTR [ebp-1016]
	mov	ecx, 254				; 000000feH
	mov	eax, -858993460				; ccccccccH
	rep stosd
	mov	eax, DWORD PTR ___security_cookie
	xor	eax, ebp
	mov	DWORD PTR __$ArrayPad$[ebp], eax
	mov	ecx, OFFSET __76EA6F59_test_op_divrem@c
	call	@__CheckForDebuggerJustMyCode@4

; 34   :     PMC_HANDLE_SINT v;
; 35   :     PMC_HANDLE_SINT q;
; 36   :     PMC_HANDLE_SINT r;
; 37   :     unsigned char actual_q_buf[256];
; 38   :     size_t actual_q_buf_size;
; 39   :     unsigned char actual_r_buf[256];
; 40   :     size_t actual_r_buf_size;
; 41   :     PMC_STATUS_CODE result;
; 42   :     PMC_STATUS_CODE v_result;
; 43   :     PMC_STATUS_CODE q_r_result;
; 44   :     TEST_Assert(env, FormatTestLabel(L"DivRem_I_X (%d.%d)", no, 1), (v_result = ep->FromByteArray(v_buf, v_buf_size, &v)) == PMC_STATUS_OK, FormatTestMesssage(L"FromByteArrayの復帰コードが期待通りではない(%d)", v_result));

	mov	esi, esp
	lea	eax, DWORD PTR _v$[ebp]
	push	eax
	mov	ecx, DWORD PTR _v_buf_size$[ebp]
	push	ecx
	mov	edx, DWORD PTR _v_buf$[ebp]
	push	edx
	mov	eax, DWORD PTR _ep$[ebp]
	mov	ecx, DWORD PTR [eax+296]
	call	ecx
	cmp	esi, esp
	call	__RTC_CheckEsp
	mov	DWORD PTR _v_result$[ebp], eax
	cmp	DWORD PTR _v_result$[ebp], 0
	jne	SHORT $LN6@TEST_DivRe
	mov	DWORD PTR tv74[ebp], 1
	jmp	SHORT $LN7@TEST_DivRe
$LN6@TEST_DivRe:
	mov	DWORD PTR tv74[ebp], 0
$LN7@TEST_DivRe:
	mov	edx, DWORD PTR _v_result$[ebp]
	push	edx
	push	OFFSET ??_C@_1EC@NPMCAPKO@?$AAF?$AAr?$AAo?$AAm?$AAB?$AAy?$AAt?$AAe?$AAA?$AAr?$AAr?$AAa?$AAy?$AAn?$PP?$KJ@
	call	_FormatTestMesssage
	add	esp, 8
	push	eax
	mov	eax, DWORD PTR tv74[ebp]
	push	eax
	push	1
	mov	ecx, DWORD PTR _no$[ebp]
	push	ecx
	push	OFFSET ??_C@_1CG@MKNPGAIC@?$AAD?$AAi?$AAv?$AAR?$AAe?$AAm?$AA_?$AAI?$AA_?$AAX?$AA?5?$AA?$CI?$AA?$CF?$AAd?$AA?4@
	call	_FormatTestLabel
	add	esp, 12					; 0000000cH
	push	eax
	mov	edx, DWORD PTR _env$[ebp]
	push	edx
	call	_TEST_Assert
	add	esp, 16					; 00000010H

; 45   :     TEST_Assert(env, FormatTestLabel(L"DivRem_I_X (%d.%d)", no, 2), (q_r_result = ep->DivRem_I_X(u, v, &q, &r)) == desired_return_code, FormatTestMesssage(L"DivRem_I_Xの復帰コードが期待通りではない(%d)", q_r_result));

	mov	esi, esp
	lea	eax, DWORD PTR _r$[ebp]
	push	eax
	lea	ecx, DWORD PTR _q$[ebp]
	push	ecx
	mov	edx, DWORD PTR _v$[ebp]
	push	edx
	mov	eax, DWORD PTR _u$[ebp]
	push	eax
	mov	ecx, DWORD PTR _ep$[ebp]
	mov	edx, DWORD PTR [ecx+404]
	call	edx
	cmp	esi, esp
	call	__RTC_CheckEsp
	mov	DWORD PTR _q_r_result$[ebp], eax
	mov	eax, DWORD PTR _q_r_result$[ebp]
	cmp	eax, DWORD PTR _desired_return_code$[ebp]
	jne	SHORT $LN8@TEST_DivRe
	mov	DWORD PTR tv93[ebp], 1
	jmp	SHORT $LN9@TEST_DivRe
$LN8@TEST_DivRe:
	mov	DWORD PTR tv93[ebp], 0
$LN9@TEST_DivRe:
	mov	ecx, DWORD PTR _q_r_result$[ebp]
	push	ecx
	push	OFFSET ??_C@_1DM@FPONPMLK@?$AAD?$AAi?$AAv?$AAR?$AAe?$AAm?$AA_?$AAI?$AA_?$AAX?$AAn?$PP?$KJ?$AA0?$PP?$LD?$PP?$PM@
	call	_FormatTestMesssage
	add	esp, 8
	push	eax
	mov	edx, DWORD PTR tv93[ebp]
	push	edx
	push	2
	mov	eax, DWORD PTR _no$[ebp]
	push	eax
	push	OFFSET ??_C@_1CG@MKNPGAIC@?$AAD?$AAi?$AAv?$AAR?$AAe?$AAm?$AA_?$AAI?$AA_?$AAX?$AA?5?$AA?$CI?$AA?$CF?$AAd?$AA?4@
	call	_FormatTestLabel
	add	esp, 12					; 0000000cH
	push	eax
	mov	ecx, DWORD PTR _env$[ebp]
	push	ecx
	call	_TEST_Assert
	add	esp, 16					; 00000010H

; 46   :     if (desired_return_code == PMC_STATUS_OK)

	cmp	DWORD PTR _desired_return_code$[ebp], 0
	jne	$LN2@TEST_DivRe

; 47   :     {
; 48   :         TEST_Assert(env, FormatTestLabel(L"DivRem_I_X (%d.%d)", no, 3), (result = ep->ToByteArray(q, actual_q_buf, sizeof(actual_q_buf), &actual_q_buf_size)) == PMC_STATUS_OK, FormatTestMesssage(L"ToByteArrayの復帰コードが期待通りではない(%d)", result));

	mov	esi, esp
	lea	eax, DWORD PTR _actual_q_buf_size$[ebp]
	push	eax
	push	256					; 00000100H
	lea	ecx, DWORD PTR _actual_q_buf$[ebp]
	push	ecx
	mov	edx, DWORD PTR _q$[ebp]
	push	edx
	mov	eax, DWORD PTR _ep$[ebp]
	mov	ecx, DWORD PTR [eax+300]
	call	ecx
	cmp	esi, esp
	call	__RTC_CheckEsp
	mov	DWORD PTR _result$[ebp], eax
	cmp	DWORD PTR _result$[ebp], 0
	jne	SHORT $LN10@TEST_DivRe
	mov	DWORD PTR tv145[ebp], 1
	jmp	SHORT $LN11@TEST_DivRe
$LN10@TEST_DivRe:
	mov	DWORD PTR tv145[ebp], 0
$LN11@TEST_DivRe:
	mov	edx, DWORD PTR _result$[ebp]
	push	edx
	push	OFFSET ??_C@_1DO@DOHJEMND@?$AAT?$AAo?$AAB?$AAy?$AAt?$AAe?$AAA?$AAr?$AAr?$AAa?$AAy?$AAn?$PP?$KJ?$AA0?$PP?$LD@
	call	_FormatTestMesssage
	add	esp, 8
	push	eax
	mov	eax, DWORD PTR tv145[ebp]
	push	eax
	push	3
	mov	ecx, DWORD PTR _no$[ebp]
	push	ecx
	push	OFFSET ??_C@_1CG@MKNPGAIC@?$AAD?$AAi?$AAv?$AAR?$AAe?$AAm?$AA_?$AAI?$AA_?$AAX?$AA?5?$AA?$CI?$AA?$CF?$AAd?$AA?4@
	call	_FormatTestLabel
	add	esp, 12					; 0000000cH
	push	eax
	mov	edx, DWORD PTR _env$[ebp]
	push	edx
	call	_TEST_Assert
	add	esp, 16					; 00000010H

; 49   :         TEST_Assert(env, FormatTestLabel(L"DivRem_I_X (%d.%d)", no, 4), (result = ep->ToByteArray(r, actual_r_buf, sizeof(actual_r_buf), &actual_r_buf_size)) == PMC_STATUS_OK, FormatTestMesssage(L"ToByteArrayの復帰コードが期待通りではない(%d)", result));

	mov	esi, esp
	lea	eax, DWORD PTR _actual_r_buf_size$[ebp]
	push	eax
	push	256					; 00000100H
	lea	ecx, DWORD PTR _actual_r_buf$[ebp]
	push	ecx
	mov	edx, DWORD PTR _r$[ebp]
	push	edx
	mov	eax, DWORD PTR _ep$[ebp]
	mov	ecx, DWORD PTR [eax+300]
	call	ecx
	cmp	esi, esp
	call	__RTC_CheckEsp
	mov	DWORD PTR _result$[ebp], eax
	cmp	DWORD PTR _result$[ebp], 0
	jne	SHORT $LN12@TEST_DivRe
	mov	DWORD PTR tv164[ebp], 1
	jmp	SHORT $LN13@TEST_DivRe
$LN12@TEST_DivRe:
	mov	DWORD PTR tv164[ebp], 0
$LN13@TEST_DivRe:
	mov	edx, DWORD PTR _result$[ebp]
	push	edx
	push	OFFSET ??_C@_1DO@DOHJEMND@?$AAT?$AAo?$AAB?$AAy?$AAt?$AAe?$AAA?$AAr?$AAr?$AAa?$AAy?$AAn?$PP?$KJ?$AA0?$PP?$LD@
	call	_FormatTestMesssage
	add	esp, 8
	push	eax
	mov	eax, DWORD PTR tv164[ebp]
	push	eax
	push	4
	mov	ecx, DWORD PTR _no$[ebp]
	push	ecx
	push	OFFSET ??_C@_1CG@MKNPGAIC@?$AAD?$AAi?$AAv?$AAR?$AAe?$AAm?$AA_?$AAI?$AA_?$AAX?$AA?5?$AA?$CI?$AA?$CF?$AAd?$AA?4@
	call	_FormatTestLabel
	add	esp, 12					; 0000000cH
	push	eax
	mov	edx, DWORD PTR _env$[ebp]
	push	edx
	call	_TEST_Assert
	add	esp, 16					; 00000010H

; 50   :         TEST_Assert(env, FormatTestLabel(L"DivRem_I_X (%d.%d)", no, 5), _EQUALS_MEMORY(actual_q_buf, actual_q_buf_size, desired_q_buf, desired_q_buf_size) == 0, L"商の値が一致しない");

	mov	eax, DWORD PTR _desired_q_buf_size$[ebp]
	push	eax
	mov	ecx, DWORD PTR _desired_q_buf$[ebp]
	push	ecx
	mov	edx, DWORD PTR _actual_q_buf_size$[ebp]
	push	edx
	lea	eax, DWORD PTR _actual_q_buf$[ebp]
	push	eax
	call	__EQUALS_MEMORY
	add	esp, 16					; 00000010H
	test	eax, eax
	jne	SHORT $LN14@TEST_DivRe
	mov	DWORD PTR tv179[ebp], 1
	jmp	SHORT $LN15@TEST_DivRe
$LN14@TEST_DivRe:
	mov	DWORD PTR tv179[ebp], 0
$LN15@TEST_DivRe:
	push	OFFSET ??_C@_1BE@OEODMBIH@?$AAF?$AAn?$AA$?$AAL?$AA?$AA?$PP?t?$AAW?$AAj?$AAD@
	mov	ecx, DWORD PTR tv179[ebp]
	push	ecx
	push	5
	mov	edx, DWORD PTR _no$[ebp]
	push	edx
	push	OFFSET ??_C@_1CG@MKNPGAIC@?$AAD?$AAi?$AAv?$AAR?$AAe?$AAm?$AA_?$AAI?$AA_?$AAX?$AA?5?$AA?$CI?$AA?$CF?$AAd?$AA?4@
	call	_FormatTestLabel
	add	esp, 12					; 0000000cH
	push	eax
	mov	eax, DWORD PTR _env$[ebp]
	push	eax
	call	_TEST_Assert
	add	esp, 16					; 00000010H

; 51   :         TEST_Assert(env, FormatTestLabel(L"DivRem_I_X (%d.%d)", no, 6), _EQUALS_MEMORY(actual_r_buf, actual_r_buf_size, desired_r_buf, desired_r_buf_size) == 0, L"剰余の値が一致しない");

	mov	eax, DWORD PTR _desired_r_buf_size$[ebp]
	push	eax
	mov	ecx, DWORD PTR _desired_r_buf$[ebp]
	push	ecx
	mov	edx, DWORD PTR _actual_r_buf_size$[ebp]
	push	edx
	lea	eax, DWORD PTR _actual_r_buf$[ebp]
	push	eax
	call	__EQUALS_MEMORY
	add	esp, 16					; 00000010H
	test	eax, eax
	jne	SHORT $LN16@TEST_DivRe
	mov	DWORD PTR tv194[ebp], 1
	jmp	SHORT $LN17@TEST_DivRe
$LN16@TEST_DivRe:
	mov	DWORD PTR tv194[ebp], 0
$LN17@TEST_DivRe:
	push	OFFSET ??_C@_1BG@BPGLFLF@?$AAp?$AAY?$AAn?$AA$?$AAL?$AA?$AA?$PP?t?$AAW?$AAj?$AAD@
	mov	ecx, DWORD PTR tv194[ebp]
	push	ecx
	push	6
	mov	edx, DWORD PTR _no$[ebp]
	push	edx
	push	OFFSET ??_C@_1CG@MKNPGAIC@?$AAD?$AAi?$AAv?$AAR?$AAe?$AAm?$AA_?$AAI?$AA_?$AAX?$AA?5?$AA?$CI?$AA?$CF?$AAd?$AA?4@
	call	_FormatTestLabel
	add	esp, 12					; 0000000cH
	push	eax
	mov	eax, DWORD PTR _env$[ebp]
	push	eax
	call	_TEST_Assert
	add	esp, 16					; 00000010H
$LN2@TEST_DivRe:

; 52   :     }
; 53   :     if (q_r_result == PMC_STATUS_OK)

	cmp	DWORD PTR _q_r_result$[ebp], 0
	jne	SHORT $LN3@TEST_DivRe

; 54   :     {
; 55   :         ep->Dispose(r);

	mov	esi, esp
	mov	eax, DWORD PTR _r$[ebp]
	push	eax
	mov	ecx, DWORD PTR _ep$[ebp]
	mov	edx, DWORD PTR [ecx+288]
	call	edx
	cmp	esi, esp
	call	__RTC_CheckEsp

; 56   :         ep->Dispose(q);

	mov	esi, esp
	mov	eax, DWORD PTR _q$[ebp]
	push	eax
	mov	ecx, DWORD PTR _ep$[ebp]
	mov	edx, DWORD PTR [ecx+288]
	call	edx
	cmp	esi, esp
	call	__RTC_CheckEsp
$LN3@TEST_DivRe:

; 57   :     }
; 58   :     if (v_result == PMC_STATUS_OK)

	cmp	DWORD PTR _v_result$[ebp], 0
	jne	SHORT $LN1@TEST_DivRe

; 59   :         ep->Dispose(v);

	mov	esi, esp
	mov	eax, DWORD PTR _v$[ebp]
	push	eax
	mov	ecx, DWORD PTR _ep$[ebp]
	mov	edx, DWORD PTR [ecx+288]
	call	edx
	cmp	esi, esp
	call	__RTC_CheckEsp
$LN1@TEST_DivRe:

; 60   : }

	push	edx
	mov	ecx, ebp
	push	eax
	lea	edx, DWORD PTR $LN26@TEST_DivRe
	call	@_RTC_CheckStackVars@8
	pop	eax
	pop	edx
	pop	edi
	pop	esi
	pop	ebx
	mov	ecx, DWORD PTR __$ArrayPad$[ebp]
	xor	ecx, ebp
	call	@__security_check_cookie@4
	add	esp, 1016				; 000003f8H
	cmp	ebp, esp
	call	__RTC_CheckEsp
	mov	esp, ebp
	pop	ebp
	ret	0
	npad	3
$LN26@TEST_DivRe:
	DD	7
	DD	$LN25@TEST_DivRe
$LN25@TEST_DivRe:
	DD	-12					; fffffff4H
	DD	4
	DD	$LN18@TEST_DivRe
	DD	-24					; ffffffe8H
	DD	4
	DD	$LN19@TEST_DivRe
	DD	-36					; ffffffdcH
	DD	4
	DD	$LN20@TEST_DivRe
	DD	-300					; fffffed4H
	DD	256					; 00000100H
	DD	$LN21@TEST_DivRe
	DD	-312					; fffffec8H
	DD	4
	DD	$LN22@TEST_DivRe
	DD	-576					; fffffdc0H
	DD	256					; 00000100H
	DD	$LN23@TEST_DivRe
	DD	-588					; fffffdb4H
	DD	4
	DD	$LN24@TEST_DivRe
$LN24@TEST_DivRe:
	DB	97					; 00000061H
	DB	99					; 00000063H
	DB	116					; 00000074H
	DB	117					; 00000075H
	DB	97					; 00000061H
	DB	108					; 0000006cH
	DB	95					; 0000005fH
	DB	114					; 00000072H
	DB	95					; 0000005fH
	DB	98					; 00000062H
	DB	117					; 00000075H
	DB	102					; 00000066H
	DB	95					; 0000005fH
	DB	115					; 00000073H
	DB	105					; 00000069H
	DB	122					; 0000007aH
	DB	101					; 00000065H
	DB	0
$LN23@TEST_DivRe:
	DB	97					; 00000061H
	DB	99					; 00000063H
	DB	116					; 00000074H
	DB	117					; 00000075H
	DB	97					; 00000061H
	DB	108					; 0000006cH
	DB	95					; 0000005fH
	DB	114					; 00000072H
	DB	95					; 0000005fH
	DB	98					; 00000062H
	DB	117					; 00000075H
	DB	102					; 00000066H
	DB	0
$LN22@TEST_DivRe:
	DB	97					; 00000061H
	DB	99					; 00000063H
	DB	116					; 00000074H
	DB	117					; 00000075H
	DB	97					; 00000061H
	DB	108					; 0000006cH
	DB	95					; 0000005fH
	DB	113					; 00000071H
	DB	95					; 0000005fH
	DB	98					; 00000062H
	DB	117					; 00000075H
	DB	102					; 00000066H
	DB	95					; 0000005fH
	DB	115					; 00000073H
	DB	105					; 00000069H
	DB	122					; 0000007aH
	DB	101					; 00000065H
	DB	0
$LN21@TEST_DivRe:
	DB	97					; 00000061H
	DB	99					; 00000063H
	DB	116					; 00000074H
	DB	117					; 00000075H
	DB	97					; 00000061H
	DB	108					; 0000006cH
	DB	95					; 0000005fH
	DB	113					; 00000071H
	DB	95					; 0000005fH
	DB	98					; 00000062H
	DB	117					; 00000075H
	DB	102					; 00000066H
	DB	0
$LN20@TEST_DivRe:
	DB	114					; 00000072H
	DB	0
$LN19@TEST_DivRe:
	DB	113					; 00000071H
	DB	0
$LN18@TEST_DivRe:
	DB	118					; 00000076H
	DB	0
_TEST_DivRem_I_X ENDP
_TEXT	ENDS
; Function compile flags: /Odtp /RTCsu /ZI
; File z:\sources\lunor\repos\rougemeilland\palmtree.math.core.uint\palmtree.math.core.uint\pmc_uint_debug.h
;	COMDAT __EQUALS_MEMORY
_TEXT	SEGMENT
_buffer1$ = 8						; size = 4
_count1$ = 12						; size = 4
_buffer2$ = 16						; size = 4
_count2$ = 20						; size = 4
__EQUALS_MEMORY PROC					; COMDAT

; 151  : {

	push	ebp
	mov	ebp, esp
	sub	esp, 192				; 000000c0H
	push	ebx
	push	esi
	push	edi
	lea	edi, DWORD PTR [ebp-192]
	mov	ecx, 48					; 00000030H
	mov	eax, -858993460				; ccccccccH
	rep stosd
	mov	ecx, OFFSET __630249ED_pmc_uint_debug@h
	call	@__CheckForDebuggerJustMyCode@4

; 152  :     if (count1 != count2)

	mov	eax, DWORD PTR _count1$[ebp]
	cmp	eax, DWORD PTR _count2$[ebp]
	je	SHORT $LN2@EQUALS_MEM

; 153  :         return (-1);

	or	eax, -1
	jmp	SHORT $LN1@EQUALS_MEM
$LN2@EQUALS_MEM:

; 154  :     while (count1 > 0)

	cmp	DWORD PTR _count1$[ebp], 0
	jbe	SHORT $LN3@EQUALS_MEM

; 155  :     {
; 156  :         if (*buffer1 != *buffer2)

	mov	eax, DWORD PTR _buffer1$[ebp]
	movzx	ecx, BYTE PTR [eax]
	mov	edx, DWORD PTR _buffer2$[ebp]
	movzx	eax, BYTE PTR [edx]
	cmp	ecx, eax
	je	SHORT $LN5@EQUALS_MEM

; 157  :             return (-1);

	or	eax, -1
	jmp	SHORT $LN1@EQUALS_MEM
$LN5@EQUALS_MEM:

; 158  :         ++buffer1;

	mov	eax, DWORD PTR _buffer1$[ebp]
	add	eax, 1
	mov	DWORD PTR _buffer1$[ebp], eax

; 159  :         ++buffer2;

	mov	eax, DWORD PTR _buffer2$[ebp]
	add	eax, 1
	mov	DWORD PTR _buffer2$[ebp], eax

; 160  :         --count1;

	mov	eax, DWORD PTR _count1$[ebp]
	sub	eax, 1
	mov	DWORD PTR _count1$[ebp], eax

; 161  :     }

	jmp	SHORT $LN2@EQUALS_MEM
$LN3@EQUALS_MEM:

; 162  :     return (0);

	xor	eax, eax
$LN1@EQUALS_MEM:

; 163  : }

	pop	edi
	pop	esi
	pop	ebx
	add	esp, 192				; 000000c0H
	cmp	ebp, esp
	call	__RTC_CheckEsp
	mov	esp, ebp
	pop	ebp
	ret	0
__EQUALS_MEMORY ENDP
_TEXT	ENDS
END
