; Listing generated by Microsoft (R) Optimizing Compiler Version 19.16.27026.1 

	TITLE	Z:\Sources\Lunor\Repos\rougemeilland\Palmtree.Math.Core.Sint\Palmtree.Math.Core.Sint\TEST_op_ParseX.c
	.686P
	.XMM
	include listing.inc
	.model	flat

INCLUDELIB MSVCRTD
INCLUDELIB OLDNAMES

_DATA	SEGMENT
COMM	_uint_number_zero:DWORD
COMM	_uint_number_one:DWORD
_DATA	ENDS
msvcjmc	SEGMENT
__7B7A869E_ctype@h DB 01H
__457DD326_basetsd@h DB 01H
__4384A2D9_corecrt_memcpy_s@h DB 01H
__4E51A221_corecrt_wstring@h DB 01H
__2140C079_string@h DB 01H
__1887E595_winnt@h DB 01H
__9FC7C64B_processthreadsapi@h DB 01H
__FA470AEC_memoryapi@h DB 01H
__F37DAFF1_winerror@h DB 01H
__7A450CCC_winbase@h DB 01H
__B4B40122_winioctl@h DB 01H
__86261D59_stralign@h DB 01H
__059414E1_pmc_sint_debug@h DB 01H
__01E814D2_test_op_parsex@c DB 01H
msvcjmc	ENDS
PUBLIC	_TEST_ParseX
PUBLIC	__JustMyCode_Default
PUBLIC	??_C@_13DEFPDAGF@?$AA?0@			; `string'
PUBLIC	??_C@_13DMCFHHKM@?$AA3@				; `string'
PUBLIC	??_C@_13JOFGPIOO@?$AA?4@			; `string'
PUBLIC	??_C@_13KJIIAINM@?$AA?$CL@			; `string'
PUBLIC	??_C@_13IMODFHAA@?$AA?9@			; `string'
PUBLIC	??_C@_1DI@IKFBJCFO@?$AAT?$AAr?$AAy?$AAP?$AAa?$AAr?$AAs?$AAe?$AAn?$PP?$KJ?$AA0?$PP?$LD?$PP?$PM?$PP?I?$AAL@ ; `string'
PUBLIC	??_C@_1BO@HCNCHDIP@?$AAP?$AAa?$AAr?$AAs?$AAe?$AAX?$AA?5?$AA?$CI?$AA?$CF?$AAd?$AA?4?$AA?$CF?$AAd?$AA?$CJ@ ; `string'
PUBLIC	??_C@_1EG@MCOLJMDD@?$AAP?$AAM?$AAC?$AA_?$AAT?$AAo?$AAB?$AAy?$AAt?$AAe?$AAA?$AAr?$AAr?$AAa?$AAy@ ; `string'
PUBLIC	??_C@_1BK@CBDJCOBM@?$PP?G?$PP?$PM?$PP?$LP?$AAn?$PP?$IF?$PP?$LJ?$AAL?$AA?$AA?$PP?t?$AAW?$AAj?$AAD@ ; `string'
EXTRN	__imp__lstrcpyW@8:PROC
EXTRN	_TEST_Assert:PROC
EXTRN	_FormatTestLabel:PROC
EXTRN	_FormatTestMesssage:PROC
EXTRN	@_RTC_CheckStackVars@8:PROC
EXTRN	@__CheckForDebuggerJustMyCode@4:PROC
EXTRN	@__security_check_cookie@4:PROC
EXTRN	__RTC_CheckEsp:PROC
EXTRN	__RTC_InitBase:PROC
EXTRN	__RTC_Shutdown:PROC
EXTRN	___security_cookie:DWORD
_BSS	SEGMENT
?actual_buf@?1??TEST_ParseX@@9@9 DB 0100H DUP (?)	; `TEST_ParseX'::`2'::actual_buf
?actual_buf_size@?1??TEST_ParseX@@9@9 DD 01H DUP (?)	; `TEST_ParseX'::`2'::actual_buf_size
_BSS	ENDS
;	COMDAT rtc$TMZ
rtc$TMZ	SEGMENT
__RTC_Shutdown.rtc$TMZ DD FLAT:__RTC_Shutdown
rtc$TMZ	ENDS
;	COMDAT rtc$IMZ
rtc$IMZ	SEGMENT
__RTC_InitBase.rtc$IMZ DD FLAT:__RTC_InitBase
rtc$IMZ	ENDS
;	COMDAT ??_C@_1BK@CBDJCOBM@?$PP?G?$PP?$PM?$PP?$LP?$AAn?$PP?$IF?$PP?$LJ?$AAL?$AA?$AA?$PP?t?$AAW?$AAj?$AAD@
CONST	SEGMENT
??_C@_1BK@CBDJCOBM@?$PP?G?$PP?$PM?$PP?$LP?$AAn?$PP?$IF?$PP?$LJ?$AAL?$AA?$AA?$PP?t?$AAW?$AAj?$AAD@ DB 0c7H
	DB	'0', 0fcH, '0', 0bfH, '0n0', 085H, 'Q', 0b9H, '[L0', 00H, 'N', 0f4H
	DB	081H, 'W0j0D0', 00H, 00H			; `string'
CONST	ENDS
;	COMDAT ??_C@_1EG@MCOLJMDD@?$AAP?$AAM?$AAC?$AA_?$AAT?$AAo?$AAB?$AAy?$AAt?$AAe?$AAA?$AAr?$AAr?$AAa?$AAy@
CONST	SEGMENT
??_C@_1EG@MCOLJMDD@?$AAP?$AAM?$AAC?$AA_?$AAT?$AAo?$AAB?$AAy?$AAt?$AAe?$AAA?$AAr?$AAr?$AAa?$AAy@ DB 'P'
	DB	00H, 'M', 00H, 'C', 00H, '_', 00H, 'T', 00H, 'o', 00H, 'B', 00H
	DB	'y', 00H, 't', 00H, 'e', 00H, 'A', 00H, 'r', 00H, 'r', 00H, 'a'
	DB	00H, 'y', 00H, 'n0', 0a9H, '_0^', 0b3H, '0', 0fcH, '0', 0c9H, '0'
	DB	'L0', 01fH, 'g', 085H, '_', 01aH, 090H, 08aH, '0g0o0j0D0(', 00H
	DB	'%', 00H, 'd', 00H, ')', 00H, 00H, 00H	; `string'
CONST	ENDS
;	COMDAT ??_C@_1BO@HCNCHDIP@?$AAP?$AAa?$AAr?$AAs?$AAe?$AAX?$AA?5?$AA?$CI?$AA?$CF?$AAd?$AA?4?$AA?$CF?$AAd?$AA?$CJ@
CONST	SEGMENT
??_C@_1BO@HCNCHDIP@?$AAP?$AAa?$AAr?$AAs?$AAe?$AAX?$AA?5?$AA?$CI?$AA?$CF?$AAd?$AA?4?$AA?$CF?$AAd?$AA?$CJ@ DB 'P'
	DB	00H, 'a', 00H, 'r', 00H, 's', 00H, 'e', 00H, 'X', 00H, ' ', 00H
	DB	'(', 00H, '%', 00H, 'd', 00H, '.', 00H, '%', 00H, 'd', 00H, ')'
	DB	00H, 00H, 00H				; `string'
CONST	ENDS
;	COMDAT ??_C@_1DI@IKFBJCFO@?$AAT?$AAr?$AAy?$AAP?$AAa?$AAr?$AAs?$AAe?$AAn?$PP?$KJ?$AA0?$PP?$LD?$PP?$PM?$PP?I?$AAL@
CONST	SEGMENT
??_C@_1DI@IKFBJCFO@?$AAT?$AAr?$AAy?$AAP?$AAa?$AAr?$AAs?$AAe?$AAn?$PP?$KJ?$AA0?$PP?$LD?$PP?$PM?$PP?I?$AAL@ DB 'T'
	DB	00H, 'r', 00H, 'y', 00H, 'P', 00H, 'a', 00H, 'r', 00H, 's', 00H
	DB	'e', 00H, 'n0', 0a9H, '_0^', 0b3H, '0', 0fcH, '0', 0c9H, '0L0', 01fH
	DB	'g', 085H, '_', 01aH, 090H, 08aH, '0g0o0j0D0(', 00H, '%', 00H, 'd'
	DB	00H, ')', 00H, 00H, 00H			; `string'
CONST	ENDS
;	COMDAT ??_C@_13IMODFHAA@?$AA?9@
CONST	SEGMENT
??_C@_13IMODFHAA@?$AA?9@ DB '-', 00H, 00H, 00H		; `string'
CONST	ENDS
;	COMDAT ??_C@_13KJIIAINM@?$AA?$CL@
CONST	SEGMENT
??_C@_13KJIIAINM@?$AA?$CL@ DB '+', 00H, 00H, 00H	; `string'
CONST	ENDS
;	COMDAT ??_C@_13JOFGPIOO@?$AA?4@
CONST	SEGMENT
??_C@_13JOFGPIOO@?$AA?4@ DB '.', 00H, 00H, 00H		; `string'
CONST	ENDS
;	COMDAT ??_C@_13DMCFHHKM@?$AA3@
CONST	SEGMENT
??_C@_13DMCFHHKM@?$AA3@ DB '3', 00H, 00H, 00H		; `string'
CONST	ENDS
;	COMDAT ??_C@_13DEFPDAGF@?$AA?0@
CONST	SEGMENT
??_C@_13DEFPDAGF@?$AA?0@ DB ',', 00H, 00H, 00H		; `string'
CONST	ENDS
; Function compile flags: /Odt
;	COMDAT __JustMyCode_Default
_TEXT	SEGMENT
__JustMyCode_Default PROC				; COMDAT
	push	ebp
	mov	ebp, esp
	pop	ebp
	ret	0
__JustMyCode_Default ENDP
_TEXT	ENDS
; Function compile flags: /Odtp /RTCsu /ZI
; File z:\sources\lunor\repos\rougemeilland\palmtree.math.core.sint\palmtree.math.core.sint\pmc_sint_debug.h
;	COMDAT __EQUALS_MEMORY
_TEXT	SEGMENT
_buffer1$ = 8						; size = 4
_count1$ = 12						; size = 4
_buffer2$ = 16						; size = 4
_count2$ = 20						; size = 4
__EQUALS_MEMORY PROC					; COMDAT

; 138  : {

	push	ebp
	mov	ebp, esp
	sub	esp, 192				; 000000c0H
	push	ebx
	push	esi
	push	edi
	lea	edi, DWORD PTR [ebp-192]
	mov	ecx, 48					; 00000030H
	mov	eax, -858993460				; ccccccccH
	rep stosd
	mov	ecx, OFFSET __059414E1_pmc_sint_debug@h
	call	@__CheckForDebuggerJustMyCode@4

; 139  :     if (count1 != count2)

	mov	eax, DWORD PTR _count1$[ebp]
	cmp	eax, DWORD PTR _count2$[ebp]
	je	SHORT $LN2@EQUALS_MEM

; 140  :         return (-1);

	or	eax, -1
	jmp	SHORT $LN1@EQUALS_MEM
$LN2@EQUALS_MEM:

; 141  :     while (count1 > 0)

	cmp	DWORD PTR _count1$[ebp], 0
	jbe	SHORT $LN3@EQUALS_MEM

; 142  :     {
; 143  :         if (*buffer1 != *buffer2)

	mov	eax, DWORD PTR _buffer1$[ebp]
	movzx	ecx, BYTE PTR [eax]
	mov	edx, DWORD PTR _buffer2$[ebp]
	movzx	eax, BYTE PTR [edx]
	cmp	ecx, eax
	je	SHORT $LN5@EQUALS_MEM

; 144  :             return (-1);

	or	eax, -1
	jmp	SHORT $LN1@EQUALS_MEM
$LN5@EQUALS_MEM:

; 145  :         ++buffer1;

	mov	eax, DWORD PTR _buffer1$[ebp]
	add	eax, 1
	mov	DWORD PTR _buffer1$[ebp], eax

; 146  :         ++buffer2;

	mov	eax, DWORD PTR _buffer2$[ebp]
	add	eax, 1
	mov	DWORD PTR _buffer2$[ebp], eax

; 147  :         --count1;

	mov	eax, DWORD PTR _count1$[ebp]
	sub	eax, 1
	mov	DWORD PTR _count1$[ebp], eax

; 148  :     }

	jmp	SHORT $LN2@EQUALS_MEM
$LN3@EQUALS_MEM:

; 149  :     return (0);

	xor	eax, eax
$LN1@EQUALS_MEM:

; 150  : }

	pop	edi
	pop	esi
	pop	ebx
	add	esp, 192				; 000000c0H
	cmp	ebp, esp
	call	__RTC_CheckEsp
	mov	esp, ebp
	pop	ebp
	ret	0
__EQUALS_MEMORY ENDP
_TEXT	ENDS
; Function compile flags: /Odtp /RTCsu /ZI
; File z:\sources\lunor\repos\rougemeilland\palmtree.math.core.sint\palmtree.math.core.sint\test_op_parsex.c
;	COMDAT _TEST_ParseX
_TEXT	SEGMENT
tv152 = -296						; size = 4
tv137 = -296						; size = 4
tv85 = -296						; size = 4
_opt$ = -96						; size = 52
_x_result$ = -36					; size = 4
_result$ = -24						; size = 4
_x$ = -12						; size = 4
__$ArrayPad$ = -4					; size = 4
_env$ = 8						; size = 4
_ep$ = 12						; size = 4
_no$ = 16						; size = 4
_str$ = 20						; size = 4
_styles$ = 24						; size = 4
_desired_result_code$ = 28				; size = 4
_desired_buf$ = 32					; size = 4
_desired_buf_size$ = 36					; size = 4
_TEST_ParseX PROC					; COMDAT

; 32   : {

	push	ebp
	mov	ebp, esp
	sub	esp, 296				; 00000128H
	push	ebx
	push	esi
	push	edi
	lea	edi, DWORD PTR [ebp-296]
	mov	ecx, 74					; 0000004aH
	mov	eax, -858993460				; ccccccccH
	rep stosd
	mov	eax, DWORD PTR ___security_cookie
	xor	eax, ebp
	mov	DWORD PTR __$ArrayPad$[ebp], eax
	mov	ecx, OFFSET __01E814D2_test_op_parsex@c
	call	@__CheckForDebuggerJustMyCode@4

; 33   :     PMC_HANDLE_SINT x;
; 34   :     static unsigned char actual_buf[256];
; 35   :     static size_t actual_buf_size;
; 36   :     PMC_STATUS_CODE result;
; 37   :     PMC_STATUS_CODE x_result;
; 38   :     PMC_NUMBER_FORMAT_OPTION opt;
; 39   :     lstrcpyW(opt.GroupSeparator, L",");

	mov	esi, esp
	push	OFFSET ??_C@_13DEFPDAGF@?$AA?0@
	lea	eax, DWORD PTR _opt$[ebp+4]
	push	eax
	call	DWORD PTR __imp__lstrcpyW@8
	cmp	esi, esp
	call	__RTC_CheckEsp

; 40   :     lstrcpyW(opt.GroupSizes, L"3");

	mov	esi, esp
	push	OFFSET ??_C@_13DMCFHHKM@?$AA3@
	lea	eax, DWORD PTR _opt$[ebp+28]
	push	eax
	call	DWORD PTR __imp__lstrcpyW@8
	cmp	esi, esp
	call	__RTC_CheckEsp

; 41   :     lstrcpyW(opt.DecimalSeparator, L".");

	mov	esi, esp
	push	OFFSET ??_C@_13JOFGPIOO@?$AA?4@
	lea	eax, DWORD PTR _opt$[ebp+10]
	push	eax
	call	DWORD PTR __imp__lstrcpyW@8
	cmp	esi, esp
	call	__RTC_CheckEsp

; 42   :     opt.DecimalDigits = 2;

	mov	DWORD PTR _opt$[ebp], 2

; 43   :     lstrcpyW(opt.PositiveSign, L"+");

	mov	esi, esp
	push	OFFSET ??_C@_13KJIIAINM@?$AA?$CL@
	lea	eax, DWORD PTR _opt$[ebp+16]
	push	eax
	call	DWORD PTR __imp__lstrcpyW@8
	cmp	esi, esp
	call	__RTC_CheckEsp

; 44   :     lstrcpyW(opt.NegativeSign, L"-");

	mov	esi, esp
	push	OFFSET ??_C@_13IMODFHAA@?$AA?9@
	lea	eax, DWORD PTR _opt$[ebp+22]
	push	eax
	call	DWORD PTR __imp__lstrcpyW@8
	cmp	esi, esp
	call	__RTC_CheckEsp

; 45   :     TEST_Assert(env, FormatTestLabel(L"ParseX (%d.%d)", no, 1), (x_result = ep->TryParse(str, styles, &opt, &x)) == desired_result_code, FormatTestMesssage(L"TryParseの復帰コードが期待通りではない(%d)", x_result));

	mov	esi, esp
	lea	eax, DWORD PTR _x$[ebp]
	push	eax
	lea	ecx, DWORD PTR _opt$[ebp]
	push	ecx
	mov	edx, DWORD PTR _styles$[ebp]
	push	edx
	mov	eax, DWORD PTR _str$[ebp]
	push	eax
	mov	ecx, DWORD PTR _ep$[ebp]
	mov	edx, DWORD PTR [ecx+324]
	call	edx
	cmp	esi, esp
	call	__RTC_CheckEsp
	mov	DWORD PTR _x_result$[ebp], eax
	mov	eax, DWORD PTR _x_result$[ebp]
	cmp	eax, DWORD PTR _desired_result_code$[ebp]
	jne	SHORT $LN5@TEST_Parse
	mov	DWORD PTR tv85[ebp], 1
	jmp	SHORT $LN6@TEST_Parse
$LN5@TEST_Parse:
	mov	DWORD PTR tv85[ebp], 0
$LN6@TEST_Parse:
	mov	ecx, DWORD PTR _x_result$[ebp]
	push	ecx
	push	OFFSET ??_C@_1DI@IKFBJCFO@?$AAT?$AAr?$AAy?$AAP?$AAa?$AAr?$AAs?$AAe?$AAn?$PP?$KJ?$AA0?$PP?$LD?$PP?$PM?$PP?I?$AAL@
	call	_FormatTestMesssage
	add	esp, 8
	push	eax
	mov	edx, DWORD PTR tv85[ebp]
	push	edx
	push	1
	mov	eax, DWORD PTR _no$[ebp]
	push	eax
	push	OFFSET ??_C@_1BO@HCNCHDIP@?$AAP?$AAa?$AAr?$AAs?$AAe?$AAX?$AA?5?$AA?$CI?$AA?$CF?$AAd?$AA?4?$AA?$CF?$AAd?$AA?$CJ@
	call	_FormatTestLabel
	add	esp, 12					; 0000000cH
	push	eax
	mov	ecx, DWORD PTR _env$[ebp]
	push	ecx
	call	_TEST_Assert
	add	esp, 16					; 00000010H

; 46   :     if (desired_result_code == PMC_STATUS_OK)

	cmp	DWORD PTR _desired_result_code$[ebp], 0
	jne	$LN2@TEST_Parse

; 47   :     {
; 48   :         TEST_Assert(env, FormatTestLabel(L"ParseX (%d.%d)", no, 2), (result = ep->ToByteArray(x, actual_buf, sizeof(actual_buf), &actual_buf_size)) == PMC_STATUS_OK, FormatTestMesssage(L"PMC_ToByteArrayの復帰コードが期待通りではない(%d)", result));

	mov	esi, esp
	push	OFFSET ?actual_buf_size@?1??TEST_ParseX@@9@9
	push	256					; 00000100H
	push	OFFSET ?actual_buf@?1??TEST_ParseX@@9@9
	mov	eax, DWORD PTR _x$[ebp]
	push	eax
	mov	ecx, DWORD PTR _ep$[ebp]
	mov	edx, DWORD PTR [ecx+304]
	call	edx
	cmp	esi, esp
	call	__RTC_CheckEsp
	mov	DWORD PTR _result$[ebp], eax
	cmp	DWORD PTR _result$[ebp], 0
	jne	SHORT $LN7@TEST_Parse
	mov	DWORD PTR tv137[ebp], 1
	jmp	SHORT $LN8@TEST_Parse
$LN7@TEST_Parse:
	mov	DWORD PTR tv137[ebp], 0
$LN8@TEST_Parse:
	mov	eax, DWORD PTR _result$[ebp]
	push	eax
	push	OFFSET ??_C@_1EG@MCOLJMDD@?$AAP?$AAM?$AAC?$AA_?$AAT?$AAo?$AAB?$AAy?$AAt?$AAe?$AAA?$AAr?$AAr?$AAa?$AAy@
	call	_FormatTestMesssage
	add	esp, 8
	push	eax
	mov	ecx, DWORD PTR tv137[ebp]
	push	ecx
	push	2
	mov	edx, DWORD PTR _no$[ebp]
	push	edx
	push	OFFSET ??_C@_1BO@HCNCHDIP@?$AAP?$AAa?$AAr?$AAs?$AAe?$AAX?$AA?5?$AA?$CI?$AA?$CF?$AAd?$AA?4?$AA?$CF?$AAd?$AA?$CJ@
	call	_FormatTestLabel
	add	esp, 12					; 0000000cH
	push	eax
	mov	eax, DWORD PTR _env$[ebp]
	push	eax
	call	_TEST_Assert
	add	esp, 16					; 00000010H

; 49   :         TEST_Assert(env, FormatTestLabel(L"ParseX (%d.%d)", no, 3), _EQUALS_MEMORY(actual_buf, actual_buf_size, desired_buf, desired_buf_size) == 0, L"データの内容が一致しない");

	mov	eax, DWORD PTR _desired_buf_size$[ebp]
	push	eax
	mov	ecx, DWORD PTR _desired_buf$[ebp]
	push	ecx
	mov	edx, DWORD PTR ?actual_buf_size@?1??TEST_ParseX@@9@9
	push	edx
	push	OFFSET ?actual_buf@?1??TEST_ParseX@@9@9
	call	__EQUALS_MEMORY
	add	esp, 16					; 00000010H
	test	eax, eax
	jne	SHORT $LN9@TEST_Parse
	mov	DWORD PTR tv152[ebp], 1
	jmp	SHORT $LN10@TEST_Parse
$LN9@TEST_Parse:
	mov	DWORD PTR tv152[ebp], 0
$LN10@TEST_Parse:
	push	OFFSET ??_C@_1BK@CBDJCOBM@?$PP?G?$PP?$PM?$PP?$LP?$AAn?$PP?$IF?$PP?$LJ?$AAL?$AA?$AA?$PP?t?$AAW?$AAj?$AAD@
	mov	eax, DWORD PTR tv152[ebp]
	push	eax
	push	3
	mov	ecx, DWORD PTR _no$[ebp]
	push	ecx
	push	OFFSET ??_C@_1BO@HCNCHDIP@?$AAP?$AAa?$AAr?$AAs?$AAe?$AAX?$AA?5?$AA?$CI?$AA?$CF?$AAd?$AA?4?$AA?$CF?$AAd?$AA?$CJ@
	call	_FormatTestLabel
	add	esp, 12					; 0000000cH
	push	eax
	mov	edx, DWORD PTR _env$[ebp]
	push	edx
	call	_TEST_Assert
	add	esp, 16					; 00000010H
$LN2@TEST_Parse:

; 50   :     }
; 51   :     if (x_result == PMC_STATUS_OK)

	cmp	DWORD PTR _x_result$[ebp], 0
	jne	SHORT $LN1@TEST_Parse

; 52   :         ep->Dispose(x);

	mov	esi, esp
	mov	eax, DWORD PTR _x$[ebp]
	push	eax
	mov	ecx, DWORD PTR _ep$[ebp]
	mov	edx, DWORD PTR [ecx+292]
	call	edx
	cmp	esi, esp
	call	__RTC_CheckEsp
$LN1@TEST_Parse:

; 53   : }

	push	edx
	mov	ecx, ebp
	push	eax
	lea	edx, DWORD PTR $LN14@TEST_Parse
	call	@_RTC_CheckStackVars@8
	pop	eax
	pop	edx
	pop	edi
	pop	esi
	pop	ebx
	mov	ecx, DWORD PTR __$ArrayPad$[ebp]
	xor	ecx, ebp
	call	@__security_check_cookie@4
	add	esp, 296				; 00000128H
	cmp	ebp, esp
	call	__RTC_CheckEsp
	mov	esp, ebp
	pop	ebp
	ret	0
	npad	1
$LN14@TEST_Parse:
	DD	2
	DD	$LN13@TEST_Parse
$LN13@TEST_Parse:
	DD	-12					; fffffff4H
	DD	4
	DD	$LN11@TEST_Parse
	DD	-96					; ffffffa0H
	DD	52					; 00000034H
	DD	$LN12@TEST_Parse
$LN12@TEST_Parse:
	DB	111					; 0000006fH
	DB	112					; 00000070H
	DB	116					; 00000074H
	DB	0
$LN11@TEST_Parse:
	DB	120					; 00000078H
	DB	0
_TEST_ParseX ENDP
_TEXT	ENDS
END
